 tbb_debug

 Timestamp is 5b3cd44d (Wed Jul  4 23:06:05 2018)

 Preferred load address is 0000000180000000

 Start         Length     Name                   Class
 0001:00000000 00000190H .text$di                CODE
 0001:00000190 0004f3e0H .text$mn                CODE
 0001:0004f570 00000020H .text$mn$00             CODE
 0001:0004f590 00001eb0H .text$x                 CODE
 0001:00051440 00000057H .text$yd                CODE
 0002:00000000 00000418H .idata$5                DATA
 0002:00000418 00000010H .00cfg                  DATA
 0002:00000428 00000008H .CRT$XCA                DATA
 0002:00000430 00000040H .CRT$XCU                DATA
 0002:00000470 00000008H .CRT$XCZ                DATA
 0002:00000478 00000008H .CRT$XIA                DATA
 0002:00000480 00000008H .CRT$XIZ                DATA
 0002:00000488 00000008H .CRT$XPA                DATA
 0002:00000490 00000008H .CRT$XPZ                DATA
 0002:00000498 00000008H .CRT$XTA                DATA
 0002:000004a0 00000010H .CRT$XTZ                DATA
 0002:000004a8 00000000H .gfids$y                DATA
 0002:000004b0 0001c270H .rdata                  DATA
 0002:0001c720 00001cd4H .rdata$r                DATA
 0002:0001e3f4 00000334H .rdata$zzzdbg           DATA
 0002:0001e728 00000008H .rtc$IAA                DATA
 0002:0001e730 00000118H .rtc$IMZ                DATA
 0002:0001e848 00000008H .rtc$IZZ                DATA
 0002:0001e850 00000008H .rtc$TAA                DATA
 0002:0001e858 00000118H .rtc$TMZ                DATA
 0002:0001e970 00000010H .rtc$TZZ                DATA
 0002:0001e980 00006e58H .xdata                  DATA
 0002:000257d8 00000598H .xdata$x                DATA
 0002:00025d70 00003ed0H .edata                  DATA
 0002:00029c40 00000050H .idata$2                DATA
 0002:00029c90 00000018H .idata$3                DATA
 0002:00029ca8 00000418H .idata$4                DATA
 0002:0002a0c0 00000a28H .idata$6                DATA
 0003:00000000 000020c0H .data                   DATA
 0003:000020c0 00000b40H .data$r                 DATA
 0003:00002c00 00001ee0H .bss                    DATA
 0004:00000000 0000708cH .pdata                  DATA
 0005:00000000 000000a0H .rsrc$01                DATA
 0005:000000a0 00000560H .rsrc$02                DATA

  Address         Publics by Value              Rva+Base               Lib:Object

 0000:00000000       __hybrid_code_map          0000000000000000     <absolute>
 0000:00000000       __guard_longjmp_table      0000000000000000     <absolute>
 0000:00000000       __guard_iat_count          0000000000000000     <absolute>
 0000:00000000       __enclave_config           0000000000000000     <absolute>
 0000:00000000       __hybrid_auxiliary_iat     0000000000000000     <absolute>
 0000:00000000       __guard_fids_count         0000000000000000     <absolute>
 0000:00000000       __guard_longjmp_count      0000000000000000     <absolute>
 0000:00000000       __guard_fids_table         0000000000000000     <absolute>
 0000:00000000       __dynamic_value_reloc_table 0000000000000000     <absolute>
 0000:00000000       __hybrid_code_map_count    0000000000000000     <absolute>
 0000:00000000       __guard_iat_table          0000000000000000     <absolute>
 0000:00000100       __guard_flags              0000000000000100     <absolute>
 0000:00000000       __ImageBase                0000000180000000     <linker-defined>
 0001:00000190       __TBB_machine_fetchadd1    0000000180001190     atomic_support.obj
 0001:00000198       __TBB_machine_fetchstore1  0000000180001198     atomic_support.obj
 0001:000001a0       __TBB_machine_cmpswp1      00000001800011a0     atomic_support.obj
 0001:000001a8       __TBB_machine_fetchadd2    00000001800011a8     atomic_support.obj
 0001:000001b8       __TBB_machine_fetchstore2  00000001800011b8     atomic_support.obj
 0001:000001c0       __TBB_machine_cmpswp2      00000001800011c0     atomic_support.obj
 0001:000001d0       __TBB_machine_pause        00000001800011d0     atomic_support.obj
 0001:000001e0       __TBB_get_cpu_ctl_env      00000001800011e0     intel64_misc.obj
 0001:000001e8       __TBB_set_cpu_ctl_env      00000001800011e8     intel64_misc.obj
 0001:000001f0       __TBB_machine_try_lock_elided 00000001800011f0     itsx.obj
 0001:00000200       __TBB_machine_unlock_elided 0000000180001200     itsx.obj
 0001:00000208       __TBB_machine_begin_transaction 0000000180001208     itsx.obj
 0001:00000218       __TBB_machine_end_transaction 0000000180001218     itsx.obj
 0001:00000220       __TBB_machine_transaction_conflict_abort 0000000180001220     itsx.obj
 0001:00000228       __TBB_machine_is_in_transaction 0000000180001228     itsx.obj
 0001:00000240       ?internal_grow_predicate@hash_map_segment_base@internal@tbb@@QEBA_NXZ 0000000180001240 f   concurrent_hash_map.obj
 0001:000002b0       ??$__TBB_load_with_acquire@_J@internal@tbb@@YA_JAED_J@Z 00000001800012b0 f i concurrent_hash_map.obj
 0001:000002e0       ??$to_bits_ref@$$CD_K@?$atomic_impl@_K@internal@tbb@@CAAEA_JAED_K@Z 00000001800012e0 f i concurrent_hash_map.obj
 0001:00000320       ??$to_value@_K@?$atomic_impl@_K@internal@tbb@@CA_K_J@Z 0000000180001320 f i concurrent_hash_map.obj
 0001:00000380       ??0?$converter@_K@?$atomic_impl@_K@internal@tbb@@QEAA@XZ 0000000180001380 f i concurrent_hash_map.obj
 0001:00000390       ??0?$ptr_converter@PED_K@?$atomic_impl@_K@internal@tbb@@QEAA@PED_K@Z 0000000180001390 f i concurrent_hash_map.obj
 0001:000003b0       ??B?$atomic_impl@_K@internal@tbb@@QEDA_KXZ 00000001800013b0 f i concurrent_hash_map.obj
 0001:00000400       ?__empty_global_delete@@YAXPEAX@Z 0000000180001400 f i concurrent_hash_map.obj
 0001:00000410       ?__empty_global_delete@@YAXPEAX_K@Z 0000000180001410 f i concurrent_hash_map.obj
 0001:00000410       ?__global_delete@@YAXPEAX_K@Z 0000000180001410 f i concurrent_hash_map.obj
 0001:00000420       ?load_with_acquire@?$machine_load_store@_J$07@internal@tbb@@SA_JAED_J@Z 0000000180001420 f i concurrent_hash_map.obj
 0001:00000530       ??0concurrent_queue_base_v3@internal@tbb@@IEAA@_K@Z 0000000180001530 f   concurrent_queue.obj
 0001:000007f0       ??1concurrent_queue_base_v3@internal@tbb@@MEAA@XZ 00000001800017f0 f   concurrent_queue.obj
 0001:000008d0       ?internal_push@concurrent_queue_base_v3@internal@tbb@@IEAAXPEBX@Z 00000001800018d0 f   concurrent_queue.obj
 0001:00000920       ?internal_pop@concurrent_queue_base_v3@internal@tbb@@IEAAXPEAX@Z 0000000180001920 f   concurrent_queue.obj
 0001:00000bd0       ?internal_abort@concurrent_queue_base_v3@internal@tbb@@IEAAXXZ 0000000180001bd0 f   concurrent_queue.obj
 0001:00000c40       ?internal_push_if_not_full@concurrent_queue_base_v3@internal@tbb@@IEAA_NPEBX@Z 0000000180001c40 f   concurrent_queue.obj
 0001:00000c90       ?internal_pop_if_present@concurrent_queue_base_v3@internal@tbb@@IEAA_NPEAX@Z 0000000180001c90 f   concurrent_queue.obj
 0001:00000da0       ?internal_size@concurrent_queue_base_v3@internal@tbb@@IEBA_JXZ 0000000180001da0 f   concurrent_queue.obj
 0001:00000e50       ?internal_empty@concurrent_queue_base_v3@internal@tbb@@IEBA_NXZ 0000000180001e50 f   concurrent_queue.obj
 0001:00000f20       ?internal_set_capacity@concurrent_queue_base_v3@internal@tbb@@IEAAX_J_K@Z 0000000180001f20 f   concurrent_queue.obj
 0001:00000f90       ?internal_finish_clear@concurrent_queue_base_v3@internal@tbb@@IEAAXXZ 0000000180001f90 f   concurrent_queue.obj
 0001:000010b0       ?internal_throw_exception@concurrent_queue_base_v3@internal@tbb@@IEBAXXZ 00000001800020b0 f   concurrent_queue.obj
 0001:000010f0       ?assign@concurrent_queue_base_v3@internal@tbb@@IEAAXAEBV123@@Z 00000001800020f0 f   concurrent_queue.obj
 0001:00001140       ?internal_insert_item@concurrent_queue_base_v3@internal@tbb@@IEAAXPEBXW4copy_specifics@123@@Z 0000000180002140 f   concurrent_queue.obj
 0001:00001470       ?internal_insert_if_not_full@concurrent_queue_base_v3@internal@tbb@@IEAA_NPEBXW4copy_specifics@123@@Z 0000000180002470 f   concurrent_queue.obj
 0001:00001590       ?internal_assign@concurrent_queue_base_v3@internal@tbb@@IEAAXAEBV123@W4copy_specifics@123@@Z 0000000180002590 f   concurrent_queue.obj
 0001:00001760       ?move_content@concurrent_queue_base_v8@internal@tbb@@IEAAXAEAV123@@Z 0000000180002760 f   concurrent_queue.obj
 0001:000017b0       ?internal_push_move_if_not_full@concurrent_queue_base_v8@internal@tbb@@IEAA_NPEBX@Z 00000001800027b0 f   concurrent_queue.obj
 0001:00001800       ?internal_push_move@concurrent_queue_base_v8@internal@tbb@@IEAAXPEBX@Z 0000000180002800 f   concurrent_queue.obj
 0001:00001850       ?initialize@concurrent_queue_iterator_base_v3@internal@tbb@@AEAAXAEBVconcurrent_queue_base_v3@23@_K@Z 0000000180002850 f   concurrent_queue.obj
 0001:00001910       ??0concurrent_queue_iterator_base_v3@internal@tbb@@IEAA@AEBVconcurrent_queue_base_v3@12@@Z 0000000180002910 f   concurrent_queue.obj
 0001:00001960       ??0concurrent_queue_iterator_base_v3@internal@tbb@@IEAA@AEBVconcurrent_queue_base_v3@12@_K@Z 0000000180002960 f   concurrent_queue.obj
 0001:000019b0       ?assign@concurrent_queue_iterator_base_v3@internal@tbb@@IEAAXAEBV123@@Z 00000001800029b0 f   concurrent_queue.obj
 0001:00001aa0       ?advance@concurrent_queue_iterator_base_v3@internal@tbb@@IEAAXXZ 0000000180002aa0 f   concurrent_queue.obj
 0001:00001c30       ??1concurrent_queue_iterator_base_v3@internal@tbb@@IEAA@XZ 0000000180002c30 f   concurrent_queue.obj
 0001:00001ca0       ?push@micro_queue@internal@tbb@@QEAAXPEBX_KAEAVconcurrent_queue_base_v3@23@W4copy_specifics@423@@Z 0000000180002ca0 f   concurrent_queue.obj
 0001:00002000       ?abort_push@micro_queue@internal@tbb@@QEAAX_KAEAVconcurrent_queue_base_v3@23@@Z 0000000180003000 f   concurrent_queue.obj
 0001:00002060       ?pop@micro_queue@internal@tbb@@QEAA_NPEAX_KAEAVconcurrent_queue_base_v3@23@@Z 0000000180003060 f   concurrent_queue.obj
 0001:000022e0       ?assign@micro_queue@internal@tbb@@QEAAAEAU123@AEBU123@AEAVconcurrent_queue_base_v3@23@W4copy_specifics@423@@Z 00000001800032e0 f   concurrent_queue.obj
 0001:000027c0       ?make_copy@micro_queue@internal@tbb@@QEAAPEAUpage@concurrent_queue_base_v3@23@AEAV523@PEBU4523@_K2AEA_KW4copy_specifics@523@@Z 00000001800037c0 f   concurrent_queue.obj
 0001:00002920       ?make_invalid@micro_queue@internal@tbb@@QEAAX_K@Z 0000000180003920 f   concurrent_queue.obj
 0001:00002a10       ??$__TBB_load_relaxed@I@internal@tbb@@YAIAEDI@Z 0000000180003a10 f i concurrent_queue.obj
 0001:00002a40       ??$__TBB_load_relaxed@_K@internal@tbb@@YA_KAED_K@Z 0000000180003a40 f i concurrent_queue.obj
 0001:00002a70       ??$__TBB_load_with_acquire@C@internal@tbb@@YACAEDC@Z 0000000180003a70 f i concurrent_queue.obj
 0001:00002aa0       ??$__TBB_load_with_acquire@H@internal@tbb@@YAHAEDH@Z 0000000180003aa0 f i concurrent_queue.obj
 0001:00002ad0       ??$__TBB_store_relaxed@IH@internal@tbb@@YAXAECIH@Z 0000000180003ad0 f i concurrent_queue.obj
 0001:00002b10       ??$__TBB_store_relaxed@II@internal@tbb@@YAXAECII@Z 0000000180003b10 f i concurrent_queue.obj
 0001:00002b50       ??$__TBB_store_relaxed@_KH@internal@tbb@@YAXAEC_KH@Z 0000000180003b50 f i concurrent_queue.obj
 0001:00002b90       ??$__TBB_store_with_release@CC@internal@tbb@@YAXAECCC@Z 0000000180003b90 f i concurrent_queue.obj
 0001:00002bd0       ??$__TBB_store_with_release@HH@internal@tbb@@YAXAECHH@Z 0000000180003bd0 f i concurrent_queue.obj
 0001:00002c10       ??$__TBB_store_with_release@_J_J@internal@tbb@@YAXAEC_J_J@Z 0000000180003c10 f i concurrent_queue.obj
 0001:00002c50       ??$compare_and_swap@$0A@@?$atomic_impl@_K@internal@tbb@@QEAA_K_K0@Z 0000000180003c50 f i concurrent_queue.obj
 0001:00002cc0       ??$fetch_and_add@$0A@@?$atomic_impl_with_arithmetic@IID@internal@tbb@@QEAAII@Z 0000000180003cc0 f i concurrent_queue.obj
 0001:00002d00       ??$fetch_and_add@$0A@@?$atomic_impl_with_arithmetic@_K_KD@internal@tbb@@QEAA_K_K@Z 0000000180003d00 f i concurrent_queue.obj
 0001:00002d40       ??$is_aligned@$$BY07Umicro_queue@internal@tbb@@@internal@tbb@@YA_NPEAY07Umicro_queue@01@_K@Z 0000000180003d40 f i concurrent_queue.obj
 0001:00002da0       ??$is_aligned@U?$atomic@_K@tbb@@@internal@tbb@@YA_NPEAU?$atomic@_K@1@_K@Z 0000000180003da0 f i concurrent_queue.obj
 0001:00002e00       ??$is_aligned@Vconcurrent_queue_rep@internal@tbb@@@internal@tbb@@YA_NPEAVconcurrent_queue_rep@01@_K@Z 0000000180003e00 f i concurrent_queue.obj
 0001:00002e60       ??$is_power_of_two@_K@internal@tbb@@YA_N_K@Z 0000000180003e60 f i concurrent_queue.obj
 0001:00002ec0       ??$modulo_power_of_two@_K_K@internal@tbb@@YA_K_K0@Z 0000000180003ec0 f i concurrent_queue.obj
 0001:00002f30       ??$notify@Upredicate_leq@internal@tbb@@@concurrent_monitor@internal@tbb@@QEAAXAEBUpredicate_leq@12@@Z 0000000180003f30 f i concurrent_queue.obj
 0001:00002f70       ??$notify_relaxed@Upredicate_leq@internal@tbb@@@concurrent_monitor@internal@tbb@@QEAAXAEBUpredicate_leq@12@@Z 0000000180003f70 f i concurrent_queue.obj
 0001:000031b0       ??$punned_cast@PEAVbinary_semaphore@internal@tbb@@$$CBV?$aligned_space@Vbinary_semaphore@internal@tbb@@$00@3@@internal@tbb@@YAPEAVbinary_semaphore@01@PEBV?$aligned_space@Vbinary_semaphore@internal@tbb@@$00@1@@Z 00000001800041b0 f i concurrent_queue.obj
 0001:000031f0       ??$spin_wait_until_eq@U?$atomic@_K@tbb@@_K@internal@tbb@@YAXAEDU?$atomic@_K@1@_K@Z 00000001800041f0 f i concurrent_queue.obj
 0001:00003250       ??$spin_wait_while_eq@U?$atomic@_K@tbb@@_K@internal@tbb@@YAXAEDU?$atomic@_K@1@_K@Z 0000000180004250 f i concurrent_queue.obj
 0001:000032b0       ??$suppress_unused_warning@E@internal@tbb@@YAXAEBE@Z 00000001800042b0 f i concurrent_queue.obj
 0001:000032c0       ??$to_bits@I@?$atomic_impl@I@internal@tbb@@CAHI@Z 00000001800042c0 f i concurrent_queue.obj
 0001:00003300       ??$to_bits@PEAUpage@concurrent_queue_base_v3@internal@tbb@@@?$atomic_impl@PEAUpage@concurrent_queue_base_v3@internal@tbb@@@internal@tbb@@CA_JPEAUpage@concurrent_queue_base_v3@12@@Z 0000000180004300 f i concurrent_queue.obj
 0001:00003340       ??$to_bits@_K@?$atomic_impl@_K@internal@tbb@@CA_J_K@Z 0000000180004340 f i concurrent_queue.obj
 0001:00003380       ??$to_bits@_N@?$atomic_impl@_N@internal@tbb@@CAC_N@Z 0000000180004380 f i concurrent_queue.obj
 0001:000033c0       ??$to_bits_ref@$$CDI@?$atomic_impl@I@internal@tbb@@CAAEAHAEDI@Z 00000001800043c0 f i concurrent_queue.obj
 0001:00003400       ??$to_bits_ref@$$CD_N@?$atomic_impl@_N@internal@tbb@@CAAEACAED_N@Z 0000000180004400 f i concurrent_queue.obj
 0001:00003440       ??$to_bits_ref@I@?$atomic_impl@I@internal@tbb@@CAAEAHAEAI@Z 0000000180004440 f i concurrent_queue.obj
 0001:00003480       ??$to_bits_ref@PEAUpage@concurrent_queue_base_v3@internal@tbb@@@?$atomic_impl@PEAUpage@concurrent_queue_base_v3@internal@tbb@@@internal@tbb@@CAAEA_JAEAPEAUpage@concurrent_queue_base_v3@12@@Z 0000000180004480 f i concurrent_queue.obj
 0001:000034c0       ??$to_bits_ref@SEAUpage@concurrent_queue_base_v3@internal@tbb@@@?$atomic_impl@PEAUpage@concurrent_queue_base_v3@internal@tbb@@@internal@tbb@@CAAEA_JAEDSEAUpage@concurrent_queue_base_v3@12@@Z 00000001800044c0 f i concurrent_queue.obj
 0001:00003500       ??$to_bits_ref@_K@?$atomic_impl@_K@internal@tbb@@CAAEA_JAEA_K@Z 0000000180004500 f i concurrent_queue.obj
 0001:00003540       ??$to_bits_ref@_N@?$atomic_impl@_N@internal@tbb@@CAAEACAEA_N@Z 0000000180004540 f i concurrent_queue.obj
 0001:00003580       ??$to_value@I@?$atomic_impl@I@internal@tbb@@CAIH@Z 0000000180004580 f i concurrent_queue.obj
 0001:000035d0       ??$to_value@PEAUpage@concurrent_queue_base_v3@internal@tbb@@@?$atomic_impl@PEAUpage@concurrent_queue_base_v3@internal@tbb@@@internal@tbb@@CAPEAUpage@concurrent_queue_base_v3@12@_J@Z 00000001800045d0 f i concurrent_queue.obj
 0001:00003630       ??$to_value@_N@?$atomic_impl@_N@internal@tbb@@CA_NC@Z 0000000180004630 f i concurrent_queue.obj
 0001:00003680       ??0?$cache_aligned_allocator@Vconcurrent_queue_iterator_rep@internal@tbb@@@tbb@@QEAA@XZ 0000000180004680 f i concurrent_queue.obj
 0001:00003690       ??0?$cache_aligned_allocator@Vconcurrent_queue_rep@internal@tbb@@@tbb@@QEAA@XZ 0000000180004690 f i concurrent_queue.obj
 0001:000036a0       ??0?$converter@I@?$atomic_impl@I@internal@tbb@@QEAA@I@Z 00000001800046a0 f i concurrent_queue.obj
 0001:000036c0       ??0?$converter@I@?$atomic_impl@I@internal@tbb@@QEAA@XZ 00000001800046c0 f i concurrent_queue.obj
 0001:000036d0       ??0?$converter@PEAUpage@concurrent_queue_base_v3@internal@tbb@@@?$atomic_impl@PEAUpage@concurrent_queue_base_v3@internal@tbb@@@internal@tbb@@QEAA@PEAUpage@concurrent_queue_base_v3@23@@Z 00000001800046d0 f i concurrent_queue.obj
 0001:000036f0       ??0?$converter@PEAUpage@concurrent_queue_base_v3@internal@tbb@@@?$atomic_impl@PEAUpage@concurrent_queue_base_v3@internal@tbb@@@internal@tbb@@QEAA@XZ 00000001800046f0 f i concurrent_queue.obj
 0001:00003700       ??0?$converter@_K@?$atomic_impl@_K@internal@tbb@@QEAA@_K@Z 0000000180004700 f i concurrent_queue.obj
 0001:00003720       ??0?$converter@_N@?$atomic_impl@_N@internal@tbb@@QEAA@XZ 0000000180004720 f i concurrent_queue.obj
 0001:00003730       ??0?$converter@_N@?$atomic_impl@_N@internal@tbb@@QEAA@_N@Z 0000000180004730 f i concurrent_queue.obj
 0001:00003750       ??0?$ptr_converter@PEAI@?$atomic_impl@I@internal@tbb@@QEAA@PEAI@Z 0000000180004750 f i concurrent_queue.obj
 0001:00003770       ??0?$ptr_converter@PEAPEAUpage@concurrent_queue_base_v3@internal@tbb@@@?$atomic_impl@PEAUpage@concurrent_queue_base_v3@internal@tbb@@@internal@tbb@@QEAA@PEAPEAUpage@concurrent_queue_base_v3@23@@Z 0000000180004770 f i concurrent_queue.obj
 0001:00003790       ??0?$ptr_converter@PEA_K@?$atomic_impl@_K@internal@tbb@@QEAA@PEA_K@Z 0000000180004790 f i concurrent_queue.obj
 0001:000037b0       ??0?$ptr_converter@PEA_N@?$atomic_impl@_N@internal@tbb@@QEAA@PEA_N@Z 00000001800047b0 f i concurrent_queue.obj
 0001:000037d0       ??0?$ptr_converter@PEDI@?$atomic_impl@I@internal@tbb@@QEAA@PEDI@Z 00000001800047d0 f i concurrent_queue.obj
 0001:000037f0       ??0?$ptr_converter@PEDSEAUpage@concurrent_queue_base_v3@internal@tbb@@@?$atomic_impl@PEAUpage@concurrent_queue_base_v3@internal@tbb@@@internal@tbb@@QEAA@PEDSEAUpage@concurrent_queue_base_v3@23@@Z 00000001800047f0 f i concurrent_queue.obj
 0001:00003810       ??0?$ptr_converter@PED_N@?$atomic_impl@_N@internal@tbb@@QEAA@PED_N@Z 0000000180004810 f i concurrent_queue.obj
 0001:00003830       ??0atomic_backoff@internal@tbb@@QEAA@XZ 0000000180004830 f i concurrent_queue.obj
 0001:00003870       ??0atomic_backoff@internal@tbb@@QEAA@_N@Z 0000000180004870 f i concurrent_queue.obj
 0001:000038c0       ??0circular_doubly_linked_list_with_sentinel@internal@tbb@@QEAA@XZ 00000001800048c0 f i concurrent_queue.obj
 0001:00003910       ??0concurrent_monitor@internal@tbb@@QEAA@XZ 0000000180004910 f i concurrent_queue.obj
 0001:00003980       ??0concurrent_queue_iterator_rep@internal@tbb@@QEAA@AEBVconcurrent_queue_base_v3@12@_K@Z 0000000180004980 f i concurrent_queue.obj
 0001:00003a50       ??0micro_queue_pop_finalizer@internal@tbb@@QEAA@AEAUmicro_queue@12@AEAVconcurrent_queue_base_v3@12@_KPEAUpage@412@@Z 0000000180004a50 f i concurrent_queue.obj
 0001:00003ad0       ??0mutex_copy_deprecated_and_disabled@internal@tbb@@QEAA@XZ 0000000180004ad0 f i concurrent_queue.obj
 0001:00003b10       ??0no_copy@internal@tbb@@QEAA@XZ 0000000180004b10 f i concurrent_queue.obj
 0001:00003b20       ??0node_t@circular_doubly_linked_list_with_sentinel@internal@tbb@@QEAA@XZ 0000000180004b20 f i concurrent_queue.obj
 0001:00003b50       ??0predicate_leq@internal@tbb@@QEAA@_K@Z 0000000180004b50 f i concurrent_queue.obj
 0001:00003b70       ??0scoped_lock@spin_mutex@tbb@@QEAA@AEAV12@@Z 0000000180004b70 f i concurrent_queue.obj
 0001:00003be0       ??0spin_mutex@tbb@@QEAA@XZ 0000000180004be0 f i concurrent_queue.obj
 0001:00003c30       ??0thread_context@concurrent_monitor@internal@tbb@@QEAA@XZ 0000000180004c30 f i concurrent_queue.obj
 0001:00003cc0       ??1binary_semaphore@internal@tbb@@QEAA@XZ 0000000180004cc0 f i concurrent_queue.obj
 0001:00003d00       ??1circular_doubly_linked_list_with_sentinel@internal@tbb@@QEAA@XZ 0000000180004d00 f i concurrent_queue.obj
 0001:00003d80       ??1micro_queue_pop_finalizer@internal@tbb@@QEAA@XZ 0000000180004d80 f i concurrent_queue.obj
 0001:00003ea0       ??1scoped_lock@spin_mutex@tbb@@QEAA@XZ 0000000180004ea0 f i concurrent_queue.obj
 0001:00003ef0       ??1thread_context@concurrent_monitor@internal@tbb@@QEAA@XZ 0000000180004ef0 f i concurrent_queue.obj
 0001:00003f70       ??2@YAPEAX_KPEAX@Z         0000000180004f70 f i concurrent_queue.obj
 0001:00003f90       ??4?$atomic@I@tbb@@QEAAAEAU01@AEBU01@@Z 0000000180004f90 f i concurrent_queue.obj
 0001:00003fe0       ??4?$atomic@PEAUpage@concurrent_queue_base_v3@internal@tbb@@@tbb@@QEAAPEAUpage@concurrent_queue_base_v3@internal@1@PEAU2341@@Z 0000000180004fe0 f i concurrent_queue.obj
 0001:00004020       ??4?$atomic@_K@tbb@@QEAAAEAU01@AEBU01@@Z 0000000180005020 f i concurrent_queue.obj
 0001:00004070       ??4?$atomic@_K@tbb@@QEAA_K_K@Z 0000000180005070 f i concurrent_queue.obj
 0001:000040b0       ??4?$atomic@_N@tbb@@QEAA_N_N@Z 00000001800050b0 f i concurrent_queue.obj
 0001:000040f0       ??B?$atomic_impl@I@internal@tbb@@QEDAIXZ 00000001800050f0 f i concurrent_queue.obj
 0001:00004130       ??B?$atomic_impl@PEAUpage@concurrent_queue_base_v3@internal@tbb@@@internal@tbb@@QEDAPEAUpage@concurrent_queue_base_v3@12@XZ 0000000180005130 f i concurrent_queue.obj
 0001:00004180       ??B?$atomic_impl@_N@internal@tbb@@QEDA_NXZ 0000000180005180 f i concurrent_queue.obj
 0001:000041d0       ??E?$atomic_impl_with_arithmetic@IID@internal@tbb@@QEAAIXZ 00000001800051d0 f i concurrent_queue.obj
 0001:00004210       ??E?$atomic_impl_with_arithmetic@_K_KD@internal@tbb@@QEAA_KH@Z 0000000180005210 f i concurrent_queue.obj
 0001:00004250       ??E?$atomic_impl_with_arithmetic@_K_KD@internal@tbb@@QEAA_KXZ 0000000180005250 f i concurrent_queue.obj
 0001:00004290       ??F?$atomic_impl_with_arithmetic@_K_KD@internal@tbb@@QEAA_KH@Z 0000000180005290 f i concurrent_queue.obj
 0001:000042d0       ??F?$atomic_impl_with_arithmetic@_K_KD@internal@tbb@@QEAA_KXZ 00000001800052d0 f i concurrent_queue.obj
 0001:00004310       ??Rpredicate_leq@internal@tbb@@QEBA_N_K@Z 0000000180005310 f i concurrent_queue.obj
 0001:00004360       ??Y?$atomic_impl_with_arithmetic@_K_KD@internal@tbb@@QEAA_K_K@Z 0000000180005360 f i concurrent_queue.obj
 0001:000043a0       ??_Gbinary_semaphore@internal@tbb@@QEAAPEAXI@Z 00000001800053a0 f i concurrent_queue.obj
 0001:00004400       ??_Econcurrent_queue_base_v3@internal@tbb@@MEAAPEAXI@Z 0000000180005400 f i concurrent_queue.obj
 0001:00004400       ??_Gconcurrent_queue_base_v3@internal@tbb@@MEAAPEAXI@Z 0000000180005400 f i concurrent_queue.obj
 0001:00004460       ?P@binary_semaphore@internal@tbb@@QEAAXXZ 0000000180005460 f i concurrent_queue.obj
 0001:000044a0       ?V@binary_semaphore@internal@tbb@@QEAAXXZ 00000001800054a0 f i concurrent_queue.obj
 0001:000044e0       ?__TBB_store_relaxed@internal@tbb@@YAXAEC_K_K@Z 00000001800054e0 f i concurrent_queue.obj
 0001:00004520       ?abort_all@concurrent_monitor@internal@tbb@@QEAAXXZ 0000000180005520 f i concurrent_queue.obj
 0001:00004560       ?add@circular_doubly_linked_list_with_sentinel@internal@tbb@@QEAAXPEAUnode_t@123@@Z 0000000180005560 f i concurrent_queue.obj
 0001:000045f0       ?allocate@?$cache_aligned_allocator@Vconcurrent_queue_iterator_rep@internal@tbb@@@tbb@@QEAAPEAVconcurrent_queue_iterator_rep@internal@2@_KPEBX@Z 00000001800055f0 f i concurrent_queue.obj
 0001:00004640       ?allocate@?$cache_aligned_allocator@Vconcurrent_queue_rep@internal@tbb@@@tbb@@QEAAPEAVconcurrent_queue_rep@internal@2@_KPEBX@Z 0000000180005640 f i concurrent_queue.obj
 0001:00004690       ?atomic_fence@tbb@@YAXXZ   0000000180005690 f i concurrent_queue.obj
 0001:000046a0       ?begin@?$aligned_space@Vbinary_semaphore@internal@tbb@@$00@tbb@@QEBAPEAVbinary_semaphore@internal@2@XZ 00000001800056a0 f i concurrent_queue.obj
 0001:000046d0       ?choose@concurrent_queue_rep@internal@tbb@@QEAAAEAUmicro_queue@23@_K@Z 00000001800056d0 f i concurrent_queue.obj
 0001:00004720       ?clear@circular_doubly_linked_list_with_sentinel@internal@tbb@@QEAAXXZ 0000000180005720 f i concurrent_queue.obj
 0001:00004780       ?commit_wait@concurrent_monitor@internal@tbb@@QEAA_NAEAVthread_context@123@@Z 0000000180005780 f i concurrent_queue.obj
 0001:00004890       ?compare_and_swap@?$atomic_impl@_K@internal@tbb@@QEAA_K_K0@Z 0000000180005890 f i concurrent_queue.obj
 0001:000048e0       ?compare_and_swap@?$atomic_traits@$07$0A@@internal@tbb@@SA_JPECX_J1@Z 00000001800058e0 f i concurrent_queue.obj
 0001:00004930       ?deallocate@?$cache_aligned_allocator@Vconcurrent_queue_iterator_rep@internal@tbb@@@tbb@@QEAAXPEAVconcurrent_queue_iterator_rep@internal@2@_K@Z 0000000180005930 f i concurrent_queue.obj
 0001:00004970       ?deallocate@?$cache_aligned_allocator@Vconcurrent_queue_rep@internal@tbb@@@tbb@@QEAAXPEAVconcurrent_queue_rep@internal@2@_K@Z 0000000180005970 f i concurrent_queue.obj
 0001:000049b0       ?empty@circular_doubly_linked_list_with_sentinel@internal@tbb@@QEBA_NXZ 00000001800059b0 f i concurrent_queue.obj
 0001:00004a00       ?end@circular_doubly_linked_list_with_sentinel@internal@tbb@@QEBAPEBUnode_t@123@XZ 0000000180005a00 f i concurrent_queue.obj
 0001:00004a20       ?fetch_and_add@?$atomic_impl_with_arithmetic@IID@internal@tbb@@QEAAII@Z 0000000180005a20 f i concurrent_queue.obj
 0001:00004a60       ?fetch_and_add@?$atomic_impl_with_arithmetic@_K_KD@internal@tbb@@QEAA_K_K@Z 0000000180005a60 f i concurrent_queue.obj
 0001:00004aa0       ?fetch_and_add@?$atomic_traits@$03$0A@@internal@tbb@@SAHPECXH@Z 0000000180005aa0 f i concurrent_queue.obj
 0001:00004ae0       ?fetch_and_add@?$atomic_traits@$07$0A@@internal@tbb@@SA_JPECX_J@Z 0000000180005ae0 f i concurrent_queue.obj
 0001:00004b20       ?front@circular_doubly_linked_list_with_sentinel@internal@tbb@@QEBAPEAUnode_t@123@XZ 0000000180005b20 f i concurrent_queue.obj
 0001:00004b40       ?get_item@concurrent_queue_iterator_rep@internal@tbb@@QEAA_NAEAPEAX_K@Z 0000000180005b40 f i concurrent_queue.obj
 0001:00004c90       ?index@concurrent_queue_rep@internal@tbb@@SA_K_K@Z 0000000180005c90 f i concurrent_queue.obj
 0001:00004cb0       ?last@circular_doubly_linked_list_with_sentinel@internal@tbb@@QEBAPEAUnode_t@123@XZ 0000000180005cb0 f i concurrent_queue.obj
 0001:00004cd0       ?load@?$machine_load_store_relaxed@I$03@internal@tbb@@SAIAEDI@Z 0000000180005cd0 f i concurrent_queue.obj
 0001:00004ce0       ?load@?$machine_load_store_relaxed@_K$07@internal@tbb@@SA_KAED_K@Z 0000000180005ce0 f i concurrent_queue.obj
 0001:00004cf0       ?load_with_acquire@?$machine_load_store@C$00@internal@tbb@@SACAEDC@Z 0000000180005cf0 f i concurrent_queue.obj
 0001:00004d30       ?load_with_acquire@?$machine_load_store@H$03@internal@tbb@@SAHAEDH@Z 0000000180005d30 f i concurrent_queue.obj
 0001:00004d70       ?pause@atomic_backoff@internal@tbb@@QEAAXXZ 0000000180005d70 f i concurrent_queue.obj
 0001:00004dd0       ?remove@circular_doubly_linked_list_with_sentinel@internal@tbb@@QEAAXAEAUnode_t@123@@Z 0000000180005dd0 f i concurrent_queue.obj
 0001:00004e70       ?semaphore@thread_context@concurrent_monitor@internal@tbb@@QEAAAEAVbinary_semaphore@34@XZ 0000000180005e70 f i concurrent_queue.obj
 0001:00004eb0       ?size@circular_doubly_linked_list_with_sentinel@internal@tbb@@QEBA_KXZ 0000000180005eb0 f i concurrent_queue.obj
 0001:00004ec0       ?store@?$machine_load_store_relaxed@I$03@internal@tbb@@SAXAECII@Z 0000000180005ec0 f i concurrent_queue.obj
 0001:00004ee0       ?store@?$machine_load_store_relaxed@_K$07@internal@tbb@@SAXAEC_K_K@Z 0000000180005ee0 f i concurrent_queue.obj
 0001:00004f00       ?store_with_release@?$atomic_impl@I@internal@tbb@@IEAAII@Z 0000000180005f00 f i concurrent_queue.obj
 0001:00004f60       ?store_with_release@?$atomic_impl@PEAUpage@concurrent_queue_base_v3@internal@tbb@@@internal@tbb@@IEAAPEAUpage@concurrent_queue_base_v3@23@PEAU4523@@Z 0000000180005f60 f i concurrent_queue.obj
 0001:00004fc0       ?store_with_release@?$atomic_impl@_K@internal@tbb@@IEAA_K_K@Z 0000000180005fc0 f i concurrent_queue.obj
 0001:00005020       ?store_with_release@?$atomic_impl@_N@internal@tbb@@IEAA_N_N@Z 0000000180006020 f i concurrent_queue.obj
 0001:00005080       ?store_with_release@?$machine_load_store@C$00@internal@tbb@@SAXAECCC@Z 0000000180006080 f i concurrent_queue.obj
 0001:000050a0       ?store_with_release@?$machine_load_store@H$03@internal@tbb@@SAXAECHH@Z 00000001800060a0 f i concurrent_queue.obj
 0001:000050c0       ?store_with_release@?$machine_load_store@_J$07@internal@tbb@@SAXAEC_J_J@Z 00000001800060c0 f i concurrent_queue.obj
 0001:000050e0       ?throw_exception@internal@tbb@@YAXW4exception_id@12@@Z 00000001800060e0 f i concurrent_queue.obj
 0001:00005110       ?to_thread_context@concurrent_monitor@internal@tbb@@AEAAPEAVthread_context@123@PEAUnode_t@circular_doubly_linked_list_with_sentinel@23@@Z 0000000180006110 f i concurrent_queue.obj
 0001:00005230       ??1concurrent_vector_base_v3@internal@tbb@@IEAA@XZ 0000000180006230 f   concurrent_vector.obj
 0001:00005390       ?internal_reserve@concurrent_vector_base_v3@internal@tbb@@IEAAX_K00@Z 0000000180006390 f   concurrent_vector.obj
 0001:000054c0       ?internal_capacity@concurrent_vector_base_v3@internal@tbb@@IEBA_KXZ 00000001800064c0 f   concurrent_vector.obj
 0001:00005500       ?internal_grow@concurrent_vector_base_v3@internal@tbb@@IEAAX_K00P6AXPEAXPEBX0@Z2@Z 0000000180006500 f   concurrent_vector.obj
 0001:00005740       ?internal_grow_by@concurrent_vector_base_v3@internal@tbb@@IEAA_K_K0P6AXPEAXPEBX0@Z2@Z 0000000180006740 f   concurrent_vector.obj
 0001:000057e0       ?internal_push_back@concurrent_vector_base_v3@internal@tbb@@IEAAPEAX_KAEA_K@Z 00000001800067e0 f   concurrent_vector.obj
 0001:00005910       ?internal_clear@concurrent_vector_base_v3@internal@tbb@@IEAA_KP6AXPEAX_K@Z@Z 0000000180006910 f   concurrent_vector.obj
 0001:00005ad0       ?internal_compact@concurrent_vector_base_v3@internal@tbb@@IEAAPEAX_KPEAXP6AX10@ZP6AX1PEBX0@Z@Z 0000000180006ad0 f   concurrent_vector.obj
 0001:000061f0       ?internal_copy@concurrent_vector_base_v3@internal@tbb@@IEAAXAEBV123@_KP6AXPEAXPEBX1@Z@Z 00000001800071f0 f   concurrent_vector.obj
 0001:00006480       ?internal_assign@concurrent_vector_base_v3@internal@tbb@@IEAAXAEBV123@_KP6AXPEAX1@ZP6AX2PEBX1@Z5@Z 0000000180007480 f   concurrent_vector.obj
 0001:00006a70       ?internal_throw_exception@concurrent_vector_base_v3@internal@tbb@@IEBAX_K@Z 0000000180007a70 f   concurrent_vector.obj
 0001:00006af0       ?internal_swap@concurrent_vector_base_v3@internal@tbb@@IEAAXAEAV123@@Z 0000000180007af0 f   concurrent_vector.obj
 0001:00006cc0       ?internal_resize@concurrent_vector_base_v3@internal@tbb@@IEAAX_K00PEBXP6AXPEAX0@ZP6AX210@Z@Z 0000000180007cc0 f   concurrent_vector.obj
 0001:00006f20       ?internal_grow_to_at_least_with_result@concurrent_vector_base_v3@internal@tbb@@IEAA_K_K0P6AXPEAXPEBX0@Z2@Z 0000000180007f20 f   concurrent_vector.obj
 0001:00007210       ?internal_grow_to_at_least@concurrent_vector_base_v3@internal@tbb@@IEAAX_K0P6AXPEAXPEBX0@Z2@Z 0000000180008210 f   concurrent_vector.obj
 0001:00007270       ?enable_segment@helper@concurrent_vector_base_v3@internal@tbb@@SA_KAEAV234@_K1_N@Z 0000000180008270 f   concurrent_vector.obj
 0001:000075f0       ?extend_segment_table@helper@concurrent_vector_base_v3@internal@tbb@@SAXAEAV234@_K@Z 00000001800085f0 f   concurrent_vector.obj
 0001:000078d0       ?cleanup@helper@concurrent_vector_base_v3@internal@tbb@@QEAAXXZ 00000001800088d0 f   concurrent_vector.obj
 0001:00007cf0       ??$?9Usegment_allocated@concurrent_vector_base_v3@internal@tbb@@@internal@tbb@@YA_NAEBVsegment_value_t@concurrent_vector_base_v3@01@Usegment_allocated@301@@Z 0000000180008cf0 f i concurrent_vector.obj
 0001:00007d50       ??$?9Usegment_not_used@concurrent_vector_base_v3@internal@tbb@@@internal@tbb@@YA_NAEBVsegment_value_t@concurrent_vector_base_v3@01@Usegment_not_used@301@@Z 0000000180008d50 f i concurrent_vector.obj
 0001:00007db0       ??$_Construct_in_place@Vsegment_t@concurrent_vector_base_v3@internal@tbb@@AEBV1234@@std@@YAXAEAVsegment_t@concurrent_vector_base_v3@internal@tbb@@AEBV1234@@Z 0000000180008db0 f i concurrent_vector.obj
 0001:00007e10       ??$_Copy_no_deprecate@PEAVsegment_t@concurrent_vector_base_v3@internal@tbb@@PEAV1234@@std@@YAPEAVsegment_t@concurrent_vector_base_v3@internal@tbb@@PEAV1234@00@Z 0000000180008e10 f i concurrent_vector.obj
 0001:00007ee0       ??$_Copy_no_deprecate@PEAVsegment_t@concurrent_vector_base_v3@internal@tbb@@V?$_Array_iterator@Vsegment_t@concurrent_vector_base_v3@internal@tbb@@$0EA@@std@@@std@@YA?AV?$_Array_iterator@Vsegment_t@concurrent_vector_base_v3@internal@tbb@@$0EA@@0@PEAVsegment_t@concurrent_vector_base_v3@internal@tbb@@0V10@@Z 0000000180008ee0 f i concurrent_vector.obj
 0001:00007ff0       ??$_Copy_unchecked1@PEAVsegment_t@concurrent_vector_base_v3@internal@tbb@@PEAV1234@@std@@YAPEAVsegment_t@concurrent_vector_base_v3@internal@tbb@@PEAV1234@00U_General_ptr_iterator_tag@0@@Z 0000000180008ff0 f i concurrent_vector.obj
 0001:00008070       ??$_Copy_unchecked@PEAVsegment_t@concurrent_vector_base_v3@internal@tbb@@PEAV1234@@std@@YAPEAVsegment_t@concurrent_vector_base_v3@internal@tbb@@PEAV1234@00@Z 0000000180009070 f i concurrent_vector.obj
 0001:000080d0       ??$_Debug_range2@PEAVsegment_t@concurrent_vector_base_v3@internal@tbb@@@std@@YAXPEAVsegment_t@concurrent_vector_base_v3@internal@tbb@@0PEB_WIUrandom_access_iterator_tag@0@@Z 00000001800090d0 f i concurrent_vector.obj
 0001:00008150       ??$_Debug_range@PEAVsegment_t@concurrent_vector_base_v3@internal@tbb@@@std@@YAXPEAVsegment_t@concurrent_vector_base_v3@internal@tbb@@0PEB_WI@Z 0000000180009150 f i concurrent_vector.obj
 0001:000081b0       ??$_Destroy_in_place@Vsegment_t@concurrent_vector_base_v3@internal@tbb@@@std@@YAXAEAVsegment_t@concurrent_vector_base_v3@internal@tbb@@@Z 00000001800091b0 f i concurrent_vector.obj
 0001:000081e0       ??$_Destroy_range1@PEAVsegment_t@concurrent_vector_base_v3@internal@tbb@@@std@@YAXPEAVsegment_t@concurrent_vector_base_v3@internal@tbb@@0U?$integral_constant@_N$0A@@0@@Z 00000001800091e0 f i concurrent_vector.obj
 0001:00008240       ??$_Destroy_range@PEAVsegment_t@concurrent_vector_base_v3@internal@tbb@@@std@@YAXPEAVsegment_t@concurrent_vector_base_v3@internal@tbb@@0@Z 0000000180009240 f i concurrent_vector.obj
 0001:00008280       ??$_Emplace_back@AEBVsegment_t@concurrent_vector_base_v3@internal@tbb@@@?$_Uninitialized_backout@PEAVsegment_t@concurrent_vector_base_v3@internal@tbb@@@std@@QEAAXAEBVsegment_t@concurrent_vector_base_v3@internal@tbb@@@Z 0000000180009280 f i concurrent_vector.obj
 0001:000082e0       ??$_Fill_memset_is_safe@PEAVsegment_t@concurrent_vector_base_v3@internal@tbb@@V1234@@std@@YA?AU?$integral_constant@_N$0A@@0@AEBQEAVsegment_t@concurrent_vector_base_v3@internal@tbb@@AEBV2345@@Z 00000001800092e0 f i concurrent_vector.obj
 0001:00008320       ??$_Fill_n_unchecked1@PEAVsegment_t@concurrent_vector_base_v3@internal@tbb@@_KV1234@@std@@YAPEAVsegment_t@concurrent_vector_base_v3@internal@tbb@@PEAV1234@_KAEBV1234@U?$integral_constant@_N$0A@@0@@Z 0000000180009320 f i concurrent_vector.obj
 0001:00008390       ??$_Fill_n_unchecked@PEAVsegment_t@concurrent_vector_base_v3@internal@tbb@@_KV1234@@std@@YAPEAVsegment_t@concurrent_vector_base_v3@internal@tbb@@PEAV1234@_KAEBV1234@@Z 0000000180009390 f i concurrent_vector.obj
 0001:000083f0       ??$_Idl_distance1@PEAVsegment_t@concurrent_vector_base_v3@internal@tbb@@PEAV1234@@std@@YA_JAEBQEAVsegment_t@concurrent_vector_base_v3@internal@tbb@@0Urandom_access_iterator_tag@0@@Z 00000001800093f0 f i concurrent_vector.obj
 0001:00008420       ??$_Idl_distance@PEAVsegment_t@concurrent_vector_base_v3@internal@tbb@@PEAV1234@@std@@YA_JAEBQEAVsegment_t@concurrent_vector_base_v3@internal@tbb@@0@Z 0000000180009420 f i concurrent_vector.obj
 0001:00008460       ??$_Is_checked@PEAVsegment_t@concurrent_vector_base_v3@internal@tbb@@@std@@YA?AU?$integral_constant@_N$0A@@0@PEAVsegment_t@concurrent_vector_base_v3@internal@tbb@@@Z 0000000180009460 f i concurrent_vector.obj
 0001:000084a0       ??$_Ptr_copy_cat@Vsegment_t@concurrent_vector_base_v3@internal@tbb@@V1234@@std@@YA?AU_General_ptr_iterator_tag@0@AEBQEAVsegment_t@concurrent_vector_base_v3@internal@tbb@@0@Z 00000001800094a0 f i concurrent_vector.obj
 0001:000084e0       ??$_Rechecked@PEAVsegment_t@concurrent_vector_base_v3@internal@tbb@@PEAV1234@@std@@YAAEAPEAVsegment_t@concurrent_vector_base_v3@internal@tbb@@AEAPEAV1234@QEAV1234@@Z 00000001800094e0 f i concurrent_vector.obj
 0001:00008500       ??$_Rechecked@Vsegment_t@concurrent_vector_base_v3@internal@tbb@@$0EA@@std@@YAAEAV?$_Array_iterator@Vsegment_t@concurrent_vector_base_v3@internal@tbb@@$0EA@@0@AEAV10@QEAVsegment_t@concurrent_vector_base_v3@internal@tbb@@@Z 0000000180009500 f i concurrent_vector.obj
 0001:00008540       ??$_Unchecked@PEAVsegment_t@concurrent_vector_base_v3@internal@tbb@@@std@@YAPEAVsegment_t@concurrent_vector_base_v3@internal@tbb@@PEAV1234@@Z 0000000180009540 f i concurrent_vector.obj
 0001:00008550       ??$_Unchecked@Vsegment_t@concurrent_vector_base_v3@internal@tbb@@$0EA@@std@@YAPEAVsegment_t@concurrent_vector_base_v3@internal@tbb@@AEBV?$_Array_iterator@Vsegment_t@concurrent_vector_base_v3@internal@tbb@@$0EA@@0@@Z 0000000180009550 f i concurrent_vector.obj
 0001:00008570       ??$_Unchecked_n1@PEAVsegment_t@concurrent_vector_base_v3@internal@tbb@@_J@std@@YAPEAVsegment_t@concurrent_vector_base_v3@internal@tbb@@PEAV1234@_JU?$integral_constant@_N$00@0@@Z 0000000180009570 f i concurrent_vector.obj
 0001:00008620       ??$_Unchecked_n1@PEAVsegment_t@concurrent_vector_base_v3@internal@tbb@@_K@std@@YAPEAVsegment_t@concurrent_vector_base_v3@internal@tbb@@PEAV1234@_KU?$integral_constant@_N$00@0@@Z 0000000180009620 f i concurrent_vector.obj
 0001:000086d0       ??$_Unchecked_n1@V?$_Array_iterator@Vsegment_t@concurrent_vector_base_v3@internal@tbb@@$0EA@@std@@_J@std@@YAPEAVsegment_t@concurrent_vector_base_v3@internal@tbb@@V?$_Array_iterator@Vsegment_t@concurrent_vector_base_v3@internal@tbb@@$0EA@@0@_JU?$integral_constant@_N$00@0@@Z 00000001800096d0 f i concurrent_vector.obj
 0001:00008790       ??$_Unchecked_n@PEAVsegment_t@concurrent_vector_base_v3@internal@tbb@@_J@std@@YAPEAVsegment_t@concurrent_vector_base_v3@internal@tbb@@PEAV1234@_J@Z 0000000180009790 f i concurrent_vector.obj
 0001:000087e0       ??$_Unchecked_n@PEAVsegment_t@concurrent_vector_base_v3@internal@tbb@@_K@std@@YAPEAVsegment_t@concurrent_vector_base_v3@internal@tbb@@PEAV1234@_K@Z 00000001800097e0 f i concurrent_vector.obj
 0001:00008830       ??$_Unchecked_n@V?$_Array_iterator@Vsegment_t@concurrent_vector_base_v3@internal@tbb@@$0EA@@std@@_J@std@@YAPEAVsegment_t@concurrent_vector_base_v3@internal@tbb@@V?$_Array_iterator@Vsegment_t@concurrent_vector_base_v3@internal@tbb@@$0EA@@0@_J@Z 0000000180009830 f i concurrent_vector.obj
 0001:000088a0       ??$_Uninitialized_fill_n_unchecked@PEAVsegment_t@concurrent_vector_base_v3@internal@tbb@@_KV1234@@std@@YAPEAVsegment_t@concurrent_vector_base_v3@internal@tbb@@QEAV1234@_KAEBV1234@U?$integral_constant@_N$0A@@0@@Z 00000001800098a0 f i concurrent_vector.obj
 0001:00008950       ??$__TBB_load_relaxed@_J@internal@tbb@@YA_JAED_J@Z 0000000180009950 f i concurrent_vector.obj
 0001:00008980       ??$__TBB_store_relaxed@_J_J@internal@tbb@@YAXAEC_J_J@Z 0000000180009980 f i concurrent_vector.obj
 0001:000089c0       ??$addressof@Vsegment_t@concurrent_vector_base_v3@internal@tbb@@@std@@YAPEAVsegment_t@concurrent_vector_base_v3@internal@tbb@@AEAV1234@@Z 00000001800099c0 f i concurrent_vector.obj
 0001:000089d0       ??$apply@Udestroy_body@helper@concurrent_vector_base_v3@internal@tbb@@@helper@concurrent_vector_base_v3@internal@tbb@@QEAA_KAEBUdestroy_body@0123@@Z 00000001800099d0 f i concurrent_vector.obj
 0001:00008b40       ??$apply@Uinit_body@helper@concurrent_vector_base_v3@internal@tbb@@@helper@concurrent_vector_base_v3@internal@tbb@@QEAA_KAEBUinit_body@0123@@Z 0000000180009b40 f i concurrent_vector.obj
 0001:00008cb0       ??$apply@Usafe_init_body@helper@concurrent_vector_base_v3@internal@tbb@@@helper@concurrent_vector_base_v3@internal@tbb@@QEAA_KAEBUsafe_init_body@0123@@Z 0000000180009cb0 f i concurrent_vector.obj
 0001:00008e20       ??$compare_and_swap@$0A@@?$atomic_impl@PEAVsegment_t@concurrent_vector_base_v3@internal@tbb@@@internal@tbb@@QEAAPEAVsegment_t@concurrent_vector_base_v3@12@PEAV3412@0@Z 0000000180009e20 f i concurrent_vector.obj
 0001:00008e90       ??$copy@PEAVsegment_t@concurrent_vector_base_v3@internal@tbb@@PEAV1234@@std@@YAPEAVsegment_t@concurrent_vector_base_v3@internal@tbb@@PEAV1234@00@Z 0000000180009e90 f i concurrent_vector.obj
 0001:00008ef0       ??$copy@PEAVsegment_t@concurrent_vector_base_v3@internal@tbb@@V1234@$0EA@@std@@YAPEAVsegment_t@concurrent_vector_base_v3@internal@tbb@@PEAV1234@0AEAY0EA@V1234@@Z 0000000180009ef0 f i concurrent_vector.obj
 0001:00008f80       ??$fetch_and_add@$00@?$atomic_impl_with_arithmetic@_K_KD@internal@tbb@@QEAA_K_K@Z 0000000180009f80 f i concurrent_vector.obj
 0001:00008fc0       ??$fetch_and_increment@$00@?$atomic_impl_with_arithmetic@_K_KD@internal@tbb@@QEAA_KXZ 0000000180009fc0 f i concurrent_vector.obj
 0001:00009000       ??$fill_n@PEAVsegment_t@concurrent_vector_base_v3@internal@tbb@@_KV1234@@std@@YAPEAVsegment_t@concurrent_vector_base_v3@internal@tbb@@PEAV1234@_KAEBV1234@@Z 000000018000a000 f i concurrent_vector.obj
 0001:00009070       ??$forward@AEBVsegment_t@concurrent_vector_base_v3@internal@tbb@@@std@@YAAEBVsegment_t@concurrent_vector_base_v3@internal@tbb@@AEBV1234@@Z 000000018000a070 f i concurrent_vector.obj
 0001:00009080       ??$load@$00@?$atomic_impl@PEAVsegment_t@concurrent_vector_base_v3@internal@tbb@@@internal@tbb@@QEBAPEAVsegment_t@concurrent_vector_base_v3@12@XZ 000000018000a080 f i concurrent_vector.obj
 0001:000090d0       ??$load@$00@?$atomic_impl@PEAX@internal@tbb@@QEBAPEAXXZ 000000018000a0d0 f i concurrent_vector.obj
 0001:00009120       ??$load@$00@?$atomic_impl@_K@internal@tbb@@QEBA_KXZ 000000018000a120 f i concurrent_vector.obj
 0001:00009170       ??$load@$00@segment_t@concurrent_vector_base_v3@internal@tbb@@QEBA?AVsegment_value_t@123@XZ 000000018000a170 f i concurrent_vector.obj
 0001:000091c0       ??$load@$02@?$atomic_impl@PEAVsegment_t@concurrent_vector_base_v3@internal@tbb@@@internal@tbb@@QEBAPEAVsegment_t@concurrent_vector_base_v3@12@XZ 000000018000a1c0 f i concurrent_vector.obj
 0001:00009210       ??$load@$02@?$atomic_impl@PEAX@internal@tbb@@QEBAPEAXXZ 000000018000a210 f i concurrent_vector.obj
 0001:00009260       ??$load@$02@?$atomic_impl@_K@internal@tbb@@QEBA_KXZ 000000018000a260 f i concurrent_vector.obj
 0001:000092b0       ??$load@$02@segment_t@concurrent_vector_base_v3@internal@tbb@@QEBA?AVsegment_value_t@123@XZ 000000018000a2b0 f i concurrent_vector.obj
 0001:00009300       ??$load@$02PEAVsegment_t@concurrent_vector_base_v3@internal@tbb@@@tbb@@YAPEAVsegment_t@concurrent_vector_base_v3@internal@0@AEBU?$atomic@PEAVsegment_t@concurrent_vector_base_v3@internal@tbb@@@0@@Z 000000018000a300 f i concurrent_vector.obj
 0001:00009330       ??$load@$02PEAX@tbb@@YAPEAXAEBU?$atomic@PEAX@0@@Z 000000018000a330 f i concurrent_vector.obj
 0001:00009360       ??$load@$02_K@tbb@@YA_KAEBU?$atomic@_K@0@@Z 000000018000a360 f i concurrent_vector.obj
 0001:00009390       ??$load@_J@?$atomic_load_store_traits@$00@internal@tbb@@SA_JAED_J@Z 000000018000a390 f i concurrent_vector.obj
 0001:000093c0       ??$load@_J@?$atomic_load_store_traits@$02@internal@tbb@@SA_JAED_J@Z 000000018000a3c0 f i concurrent_vector.obj
 0001:000093f0       ??$pointer@D@segment_value_t@concurrent_vector_base_v3@internal@tbb@@QEBAPEADXZ 000000018000a3f0 f i concurrent_vector.obj
 0001:00009400       ??$pointer@X@segment_value_t@concurrent_vector_base_v3@internal@tbb@@QEBAPEAXXZ 000000018000a400 f i concurrent_vector.obj
 0001:00009410       ??$publish_segment@PEAX@helper@concurrent_vector_base_v3@internal@tbb@@SAXAEAVsegment_t@123@PEAX@Z 000000018000a410 f i concurrent_vector.obj
 0001:00009460       ??$publish_segment@Usegment_allocation_failed@concurrent_vector_base_v3@internal@tbb@@@helper@concurrent_vector_base_v3@internal@tbb@@SAXAEAVsegment_t@123@Usegment_allocation_failed@123@@Z 000000018000a460 f i concurrent_vector.obj
 0001:000094b0       ??$publish_segment@Usegment_not_used@concurrent_vector_base_v3@internal@tbb@@@helper@concurrent_vector_base_v3@internal@tbb@@SAXAEAVsegment_t@123@Usegment_not_used@123@@Z 000000018000a4b0 f i concurrent_vector.obj
 0001:00009500       ??$spin_wait_while@Usegment_not_used_predicate@helper@concurrent_vector_base_v3@internal@tbb@@@internal@tbb@@YAXUsegment_not_used_predicate@helper@concurrent_vector_base_v3@01@@Z 000000018000a500 f i concurrent_vector.obj
 0001:00009560       ??$spin_wait_while_eq@U?$atomic@PEAVsegment_t@concurrent_vector_base_v3@internal@tbb@@@tbb@@PEAVsegment_t@concurrent_vector_base_v3@internal@2@@internal@tbb@@YAXAEDU?$atomic@PEAVsegment_t@concurrent_vector_base_v3@internal@tbb@@@1@PEAVsegment_t@concurrent_vector_base_v3@01@@Z 000000018000a560 f i concurrent_vector.obj
 0001:000095c0       ??$store@$01@?$atomic_impl@PEAX@internal@tbb@@QEAAXPEAX@Z 000000018000a5c0 f i concurrent_vector.obj
 0001:00009620       ??$store@$01@?$atomic_impl@_K@internal@tbb@@QEAAX_K@Z 000000018000a620 f i concurrent_vector.obj
 0001:00009680       ??$store@$01@segment_t@concurrent_vector_base_v3@internal@tbb@@QEAAXPEAX@Z 000000018000a680 f i concurrent_vector.obj
 0001:00009710       ??$store@$01@segment_t@concurrent_vector_base_v3@internal@tbb@@QEAAXUsegment_allocation_failed@123@@Z 000000018000a710 f i concurrent_vector.obj
 0001:00009790       ??$store@$01@segment_t@concurrent_vector_base_v3@internal@tbb@@QEAAXUsegment_not_used@123@@Z 000000018000a790 f i concurrent_vector.obj
 0001:000097d0       ??$store@$02@?$atomic_impl@PEAVsegment_t@concurrent_vector_base_v3@internal@tbb@@@internal@tbb@@QEAAXPEAVsegment_t@concurrent_vector_base_v3@12@@Z 000000018000a7d0 f i concurrent_vector.obj
 0001:00009830       ??$store@$02@?$atomic_impl@PEAX@internal@tbb@@QEAAXPEAX@Z 000000018000a830 f i concurrent_vector.obj
 0001:00009890       ??$store@$02@?$atomic_impl@_K@internal@tbb@@QEAAX_K@Z 000000018000a890 f i concurrent_vector.obj
 0001:000098f0       ??$store@$02@segment_t@concurrent_vector_base_v3@internal@tbb@@QEAAXPEAX@Z 000000018000a8f0 f i concurrent_vector.obj
 0001:00009980       ??$store@$02@segment_t@concurrent_vector_base_v3@internal@tbb@@QEAAXUsegment_not_used@123@@Z 000000018000a980 f i concurrent_vector.obj
 0001:000099c0       ??$store@$02PEAVsegment_t@concurrent_vector_base_v3@internal@tbb@@@tbb@@YAXAEAU?$atomic@PEAVsegment_t@concurrent_vector_base_v3@internal@tbb@@@0@PEAVsegment_t@concurrent_vector_base_v3@internal@0@@Z 000000018000a9c0 f i concurrent_vector.obj
 0001:00009a00       ??$store@$02PEAX@tbb@@YAXAEAU?$atomic@PEAX@0@PEAX@Z 000000018000aa00 f i concurrent_vector.obj
 0001:00009a40       ??$store@$02_K@tbb@@YAXAEAU?$atomic@_K@0@_K@Z 000000018000aa40 f i concurrent_vector.obj
 0001:00009a80       ??$store@_J@?$atomic_load_store_traits@$01@internal@tbb@@SAXAEC_J_J@Z 000000018000aa80 f i concurrent_vector.obj
 0001:00009ac0       ??$store@_J@?$atomic_load_store_traits@$02@internal@tbb@@SAXAEC_J_J@Z 000000018000aac0 f i concurrent_vector.obj
 0001:00009b00       ??$swap@$02PEAVsegment_t@concurrent_vector_base_v3@internal@tbb@@@internal@tbb@@YAXAEAU?$atomic@PEAVsegment_t@concurrent_vector_base_v3@internal@tbb@@@1@0@Z 000000018000ab00 f i concurrent_vector.obj
 0001:00009b60       ??$swap@$02PEAX@internal@tbb@@YAXAEAU?$atomic@PEAX@1@0@Z 000000018000ab60 f i concurrent_vector.obj
 0001:00009bc0       ??$swap@$02_K@internal@tbb@@YAXAEAU?$atomic@_K@1@0@Z 000000018000abc0 f i concurrent_vector.obj
 0001:00009c20       ??$to_bits@PEAVsegment_t@concurrent_vector_base_v3@internal@tbb@@@?$atomic_impl@PEAVsegment_t@concurrent_vector_base_v3@internal@tbb@@@internal@tbb@@CA_JPEAVsegment_t@concurrent_vector_base_v3@12@@Z 000000018000ac20 f i concurrent_vector.obj
 0001:00009c60       ??$to_bits@PEAX@?$atomic_impl@PEAX@internal@tbb@@CA_JPEAX@Z 000000018000ac60 f i concurrent_vector.obj
 0001:00009ca0       ??$to_bits_ref@$$CB_K@?$atomic_impl@_K@internal@tbb@@CAAEA_JAEB_K@Z 000000018000aca0 f i concurrent_vector.obj
 0001:00009ce0       ??$to_bits_ref@PEAVsegment_t@concurrent_vector_base_v3@internal@tbb@@@?$atomic_impl@PEAVsegment_t@concurrent_vector_base_v3@internal@tbb@@@internal@tbb@@CAAEA_JAEAPEAVsegment_t@concurrent_vector_base_v3@12@@Z 000000018000ace0 f i concurrent_vector.obj
 0001:00009d20       ??$to_bits_ref@PEAX@?$atomic_impl@PEAX@internal@tbb@@CAAEA_JAEAPEAX@Z 000000018000ad20 f i concurrent_vector.obj
 0001:00009d60       ??$to_bits_ref@QEAVsegment_t@concurrent_vector_base_v3@internal@tbb@@@?$atomic_impl@PEAVsegment_t@concurrent_vector_base_v3@internal@tbb@@@internal@tbb@@CAAEA_JAEBQEAVsegment_t@concurrent_vector_base_v3@12@@Z 000000018000ad60 f i concurrent_vector.obj
 0001:00009da0       ??$to_bits_ref@QEAX@?$atomic_impl@PEAX@internal@tbb@@CAAEA_JAEBQEAX@Z 000000018000ada0 f i concurrent_vector.obj
 0001:00009de0       ??$to_bits_ref@SEAVsegment_t@concurrent_vector_base_v3@internal@tbb@@@?$atomic_impl@PEAVsegment_t@concurrent_vector_base_v3@internal@tbb@@@internal@tbb@@CAAEA_JAEDSEAVsegment_t@concurrent_vector_base_v3@12@@Z 000000018000ade0 f i concurrent_vector.obj
 0001:00009e20       ??$to_value@PEAVsegment_t@concurrent_vector_base_v3@internal@tbb@@@?$atomic_impl@PEAVsegment_t@concurrent_vector_base_v3@internal@tbb@@@internal@tbb@@CAPEAVsegment_t@concurrent_vector_base_v3@12@_J@Z 000000018000ae20 f i concurrent_vector.obj
 0001:00009e80       ??$to_value@PEAX@?$atomic_impl@PEAX@internal@tbb@@CAPEAX_J@Z 000000018000ae80 f i concurrent_vector.obj
 0001:00009ee0       ??$uninitialized_fill_n@PEAVsegment_t@concurrent_vector_base_v3@internal@tbb@@_KV1234@@std@@YAPEAVsegment_t@concurrent_vector_base_v3@internal@tbb@@PEAV1234@_KAEBV1234@@Z 000000018000aee0 f i concurrent_vector.obj
 0001:00009f80       ??0?$_Array_const_iterator@Vsegment_t@concurrent_vector_base_v3@internal@tbb@@$0EA@@std@@QEAA@PEBVsegment_t@concurrent_vector_base_v3@internal@tbb@@_K@Z 000000018000af80 f i concurrent_vector.obj
 0001:00009fe0       ??0?$_Array_iterator@Vsegment_t@concurrent_vector_base_v3@internal@tbb@@$0EA@@std@@QEAA@PEAVsegment_t@concurrent_vector_base_v3@internal@tbb@@_K@Z 000000018000afe0 f i concurrent_vector.obj
 0001:0000a030       ??0?$_Uninitialized_backout@PEAVsegment_t@concurrent_vector_base_v3@internal@tbb@@@std@@QEAA@PEAVsegment_t@concurrent_vector_base_v3@internal@tbb@@@Z 000000018000b030 f i concurrent_vector.obj
 0001:0000a060       ??0?$converter@PEAVsegment_t@concurrent_vector_base_v3@internal@tbb@@@?$atomic_impl@PEAVsegment_t@concurrent_vector_base_v3@internal@tbb@@@internal@tbb@@QEAA@PEAVsegment_t@concurrent_vector_base_v3@23@@Z 000000018000b060 f i concurrent_vector.obj
 0001:0000a080       ??0?$converter@PEAVsegment_t@concurrent_vector_base_v3@internal@tbb@@@?$atomic_impl@PEAVsegment_t@concurrent_vector_base_v3@internal@tbb@@@internal@tbb@@QEAA@XZ 000000018000b080 f i concurrent_vector.obj
 0001:0000a090       ??0?$converter@PEAX@?$atomic_impl@PEAX@internal@tbb@@QEAA@PEAX@Z 000000018000b090 f i concurrent_vector.obj
 0001:0000a0b0       ??0?$converter@PEAX@?$atomic_impl@PEAX@internal@tbb@@QEAA@XZ 000000018000b0b0 f i concurrent_vector.obj
 0001:0000a0c0       ??0?$ptr_converter@PEAPEAVsegment_t@concurrent_vector_base_v3@internal@tbb@@@?$atomic_impl@PEAVsegment_t@concurrent_vector_base_v3@internal@tbb@@@internal@tbb@@QEAA@PEAPEAVsegment_t@concurrent_vector_base_v3@23@@Z 000000018000b0c0 f i concurrent_vector.obj
 0001:0000a0e0       ??0?$ptr_converter@PEAPEAX@?$atomic_impl@PEAX@internal@tbb@@QEAA@PEAPEAX@Z 000000018000b0e0 f i concurrent_vector.obj
 0001:0000a100       ??0?$ptr_converter@PEBQEAVsegment_t@concurrent_vector_base_v3@internal@tbb@@@?$atomic_impl@PEAVsegment_t@concurrent_vector_base_v3@internal@tbb@@@internal@tbb@@QEAA@PEBQEAVsegment_t@concurrent_vector_base_v3@23@@Z 000000018000b100 f i concurrent_vector.obj
 0001:0000a120       ??0?$ptr_converter@PEBQEAX@?$atomic_impl@PEAX@internal@tbb@@QEAA@PEBQEAX@Z 000000018000b120 f i concurrent_vector.obj
 0001:0000a140       ??0?$ptr_converter@PEB_K@?$atomic_impl@_K@internal@tbb@@QEAA@PEB_K@Z 000000018000b140 f i concurrent_vector.obj
 0001:0000a160       ??0?$ptr_converter@PEDSEAVsegment_t@concurrent_vector_base_v3@internal@tbb@@@?$atomic_impl@PEAVsegment_t@concurrent_vector_base_v3@internal@tbb@@@internal@tbb@@QEAA@PEDSEAVsegment_t@concurrent_vector_base_v3@23@@Z 000000018000b160 f i concurrent_vector.obj
 0001:0000a180       ??0_Iterator_base12_compatible@std@@QEAA@XZ 000000018000b180 f i concurrent_vector.obj
 0001:0000a1b0       ??0destroy_body@helper@concurrent_vector_base_v3@internal@tbb@@QEAA@P6AXPEAX_K@Z@Z 000000018000b1b0 f i concurrent_vector.obj
 0001:0000a1d0       ??0helper@concurrent_vector_base_v3@internal@tbb@@QEAA@PEAVsegment_t@123@_K1111@Z 000000018000b1d0 f i concurrent_vector.obj
 0001:0000a250       ??0init_body@helper@concurrent_vector_base_v3@internal@tbb@@QEAA@P6AXPEAXPEBX_K@Z1@Z 000000018000b250 f i concurrent_vector.obj
 0001:0000a290       ??0safe_init_body@helper@concurrent_vector_base_v3@internal@tbb@@QEAA@P6AXPEAXPEBX_K@Z1@Z 000000018000b290 f i concurrent_vector.obj
 0001:0000a2d0       ??0segment_not_used_predicate@helper@concurrent_vector_base_v3@internal@tbb@@QEAA@AEAVsegment_t@234@@Z 000000018000b2d0 f i concurrent_vector.obj
 0001:0000a350       ??0segment_t@concurrent_vector_base_v3@internal@tbb@@QEAA@AEBV0123@@Z 000000018000b350 f i concurrent_vector.obj
 0001:0000a3a0       ??0segment_t@concurrent_vector_base_v3@internal@tbb@@QEAA@XZ 000000018000b3a0 f i concurrent_vector.obj
 0001:0000a3e0       ??0segment_value_t@concurrent_vector_base_v3@internal@tbb@@AEAA@PEAX@Z 000000018000b3e0 f i concurrent_vector.obj
 0001:0000a400       ??1?$_Uninitialized_backout@PEAVsegment_t@concurrent_vector_base_v3@internal@tbb@@@std@@QEAA@XZ 000000018000b400 f i concurrent_vector.obj
 0001:0000a450       ??1helper@concurrent_vector_base_v3@internal@tbb@@QEAA@XZ 000000018000b450 f i concurrent_vector.obj
 0001:0000a510       ??1segment_t@concurrent_vector_base_v3@internal@tbb@@QEAA@XZ 000000018000b510 f i concurrent_vector.obj
 0001:0000a590       ??4?$atomic@PEAVsegment_t@concurrent_vector_base_v3@internal@tbb@@@tbb@@QEAAPEAVsegment_t@concurrent_vector_base_v3@internal@1@PEAV2341@@Z 000000018000b590 f i concurrent_vector.obj
 0001:0000a5d0       ??4segment_t@concurrent_vector_base_v3@internal@tbb@@QEAAAEAV0123@AEBV0123@@Z 000000018000b5d0 f i concurrent_vector.obj
 0001:0000a620       ??8internal@tbb@@YA_NAEBVsegment_value_t@concurrent_vector_base_v3@01@Usegment_allocated@301@@Z 000000018000b620 f i concurrent_vector.obj
 0001:0000a670       ??8internal@tbb@@YA_NAEBVsegment_value_t@concurrent_vector_base_v3@01@Usegment_allocation_failed@301@@Z 000000018000b670 f i concurrent_vector.obj
 0001:0000a6c0       ??8internal@tbb@@YA_NAEBVsegment_value_t@concurrent_vector_base_v3@01@Usegment_not_used@301@@Z 000000018000b6c0 f i concurrent_vector.obj
 0001:0000a710       ??B?$atomic_impl@PEAVsegment_t@concurrent_vector_base_v3@internal@tbb@@@internal@tbb@@QEDAPEAVsegment_t@concurrent_vector_base_v3@12@XZ 000000018000b710 f i concurrent_vector.obj
 0001:0000a760       ??H?$_Array_iterator@Vsegment_t@concurrent_vector_base_v3@internal@tbb@@$0EA@@std@@QEBA?AV01@_J@Z 000000018000b760 f i concurrent_vector.obj
 0001:0000a7f0       ??Rdestroy_body@helper@concurrent_vector_base_v3@internal@tbb@@QEBAXAEAVsegment_t@234@PEAX_K@Z 000000018000b7f0 f i concurrent_vector.obj
 0001:0000a860       ??Rinit_body@helper@concurrent_vector_base_v3@internal@tbb@@QEBAXAEAVsegment_t@234@PEAX_K@Z 000000018000b860 f i concurrent_vector.obj
 0001:0000a8b0       ??Rsafe_init_body@helper@concurrent_vector_base_v3@internal@tbb@@QEBAXAEAVsegment_t@234@PEAX_K@Z 000000018000b8b0 f i concurrent_vector.obj
 0001:0000a920       ??Rsegment_not_used_predicate@helper@concurrent_vector_base_v3@internal@tbb@@QEBA_NXZ 000000018000b920 f i concurrent_vector.obj
 0001:0000a970       ??Y?$_Array_const_iterator@Vsegment_t@concurrent_vector_base_v3@internal@tbb@@$0EA@@std@@QEAAAEAV01@_J@Z 000000018000b970 f i concurrent_vector.obj
 0001:0000aa10       ??Y?$_Array_iterator@Vsegment_t@concurrent_vector_base_v3@internal@tbb@@$0EA@@std@@QEAAAEAV01@_J@Z 000000018000ba10 f i concurrent_vector.obj
 0001:0000aa50       ??_Gsegment_t@concurrent_vector_base_v3@internal@tbb@@QEAAPEAXI@Z 000000018000ba50 f i concurrent_vector.obj
 0001:0000aac0       ?_Release@?$_Uninitialized_backout@PEAVsegment_t@concurrent_vector_base_v3@internal@tbb@@@std@@QEAAPEAVsegment_t@concurrent_vector_base_v3@internal@tbb@@XZ 000000018000bac0 f i concurrent_vector.obj
 0001:0000aaf0       ?acquire_segment@helper@concurrent_vector_base_v3@internal@tbb@@SAAEAVsegment_t@234@AEAV234@_K1_N@Z 000000018000baf0 f i concurrent_vector.obj
 0001:0000ac10       ?allocate_segment@helper@concurrent_vector_base_v3@internal@tbb@@SAPEAXAEAV234@_K@Z 000000018000bc10 f i concurrent_vector.obj
 0001:0000ac70       ?assign_first_segment_if_necessary@helper@concurrent_vector_base_v3@internal@tbb@@SAXAEAV234@_K@Z 000000018000bc70 f i concurrent_vector.obj
 0001:0000acd0       ?compare_and_swap@?$atomic_impl@PEAVsegment_t@concurrent_vector_base_v3@internal@tbb@@@internal@tbb@@QEAAPEAVsegment_t@concurrent_vector_base_v3@23@PEAV4523@0@Z 000000018000bcd0 f i concurrent_vector.obj
 0001:0000ad40       ?enforce_segment_allocated@internal@tbb@@YAXAEBVsegment_value_t@concurrent_vector_base_v3@12@W4exception_id@12@@Z 000000018000bd40 f i concurrent_vector.obj
 0001:0000ad90       ?extend_table_if_necessary@helper@concurrent_vector_base_v3@internal@tbb@@SAXAEAV234@_K1@Z 000000018000bd90 f i concurrent_vector.obj
 0001:0000ae00       ?fetch_and_add@?$atomic_traits@$07$00@internal@tbb@@SA_JPECX_J@Z 000000018000be00 f i concurrent_vector.obj
 0001:0000ae40       ?find_segment_end@helper@concurrent_vector_base_v3@internal@tbb@@SA_KAEBV234@@Z 000000018000be40 f i concurrent_vector.obj
 0001:0000af00       ?first_segment@helper@concurrent_vector_base_v3@internal@tbb@@QEAAXXZ 000000018000bf00 f i concurrent_vector.obj
 0001:0000b060       ?get_segment_value@helper@concurrent_vector_base_v3@internal@tbb@@QEAA?AVsegment_value_t@234@_K_N@Z 000000018000c060 f i concurrent_vector.obj
 0001:0000b130       ?incompact_predicate@helper@concurrent_vector_base_v3@internal@tbb@@SA_N_K@Z 000000018000c130 f i concurrent_vector.obj
 0001:0000b1a0       ?load@?$machine_load_store_relaxed@_J$07@internal@tbb@@SA_JAED_J@Z 000000018000c1a0 f i concurrent_vector.obj
 0001:0000b1b0       ?next_segment@helper@concurrent_vector_base_v3@internal@tbb@@QEAAXXZ 000000018000c1b0 f i concurrent_vector.obj
 0001:0000b250       ?segment_base@concurrent_vector_base_v3@internal@tbb@@KA_K_K@Z 000000018000c250 f i concurrent_vector.obj
 0001:0000b290       ?segment_index_of@concurrent_vector_base_v3@internal@tbb@@KA_K_K@Z 000000018000c290 f i concurrent_vector.obj
 0001:0000b2d0       ?segment_size@concurrent_vector_base_v3@internal@tbb@@KA_K_K@Z 000000018000c2d0 f i concurrent_vector.obj
 0001:0000b310       ?store@?$machine_load_store_relaxed@_J$07@internal@tbb@@SAXAEC_J_J@Z 000000018000c310 f i concurrent_vector.obj
 0001:0000b330       ?store_with_release@?$atomic_impl@PEAVsegment_t@concurrent_vector_base_v3@internal@tbb@@@internal@tbb@@IEAAPEAVsegment_t@concurrent_vector_base_v3@23@PEAV4523@@Z 000000018000c330 f i concurrent_vector.obj
 0001:0000b390       ?swap@internal@tbb@@YAXAEAVsegment_t@concurrent_vector_base_v3@12@0@Z 000000018000c390 f i concurrent_vector.obj
 0001:0000b3e0       ?swap@segment_t@concurrent_vector_base_v3@internal@tbb@@QEAAXAEAV1234@@Z 000000018000c3e0 f i concurrent_vector.obj
 0001:0000b420       ?dynamic_link@internal@tbb@@YA_NPEBDQEBUdynamic_link_descriptor@12@_KPEAPEAUHINSTANCE__@@H@Z 000000018000c420 f   dynamic_link.obj
 0001:0000b510       ?dynamic_unlink@internal@tbb@@YAXPEAUHINSTANCE__@@@Z 000000018000c510 f   dynamic_link.obj
 0001:0000b550       ?dynamic_unlink_all@internal@tbb@@YAXXZ 000000018000c550 f   dynamic_link.obj
 0001:0000b820       ?init_atomic_incrementer@internal@tbb@@YAXAEAU?$atomic@_K@2@@Z 000000018000c820 f   dynamic_link.obj
 0001:0000bb00       ?init_dynamic_link_data@internal@tbb@@YAXXZ 000000018000cb00 f   dynamic_link.obj
 0001:0000bc80       ?dynamic_load@internal@tbb@@YAPEAUHINSTANCE__@@PEBDQEBUdynamic_link_descriptor@12@_K@Z 000000018000cc80 f   dynamic_link.obj
 0001:0000be10       ??$atomic_do_once@P6AXXZ@internal@tbb@@YAXAEBQ6AXXZAEAU?$atomic@W4do_once_state@internal@tbb@@@1@@Z 000000018000ce10 f i dynamic_link.obj
 0001:0000bea0       ??$compare_and_swap@$0A@@?$atomic_impl@W4do_once_state@internal@tbb@@@internal@tbb@@QEAA?AW4do_once_state@12@W4312@0@Z 000000018000cea0 f i dynamic_link.obj
 0001:0000bf00       ??$spin_wait_while_eq@U?$atomic@W4do_once_state@internal@tbb@@@tbb@@W4do_once_state@internal@2@@internal@tbb@@YAXAEDU?$atomic@W4do_once_state@internal@tbb@@@1@W4do_once_state@01@@Z 000000018000cf00 f i dynamic_link.obj
 0001:0000bf60       ??$suppress_unused_warning@PEBD@internal@tbb@@YAXAEBQEBD@Z 000000018000cf60 f i dynamic_link.obj
 0001:0000bf70       ??$suppress_unused_warning@PEBDQEBUdynamic_link_descriptor@internal@tbb@@_K@internal@tbb@@YAXAEBQEBDAEBQEBUdynamic_link_descriptor@01@AEB_K@Z 000000018000cf70 f i dynamic_link.obj
 0001:0000bf90       ??$to_bits@W4do_once_state@internal@tbb@@@?$atomic_impl@W4do_once_state@internal@tbb@@@internal@tbb@@CAHW4do_once_state@12@@Z 000000018000cf90 f i dynamic_link.obj
 0001:0000bfd0       ??$to_bits_ref@$$CDW4do_once_state@internal@tbb@@@?$atomic_impl@W4do_once_state@internal@tbb@@@internal@tbb@@CAAEAHAEDW4do_once_state@12@@Z 000000018000cfd0 f i dynamic_link.obj
 0001:0000c010       ??$to_bits_ref@W4do_once_state@internal@tbb@@@?$atomic_impl@W4do_once_state@internal@tbb@@@internal@tbb@@CAAEAHAEAW4do_once_state@12@@Z 000000018000d010 f i dynamic_link.obj
 0001:0000c050       ??$to_value@W4do_once_state@internal@tbb@@@?$atomic_impl@W4do_once_state@internal@tbb@@@internal@tbb@@CA?AW4do_once_state@12@H@Z 000000018000d050 f i dynamic_link.obj
 0001:0000c0a0       ??0?$converter@W4do_once_state@internal@tbb@@@?$atomic_impl@W4do_once_state@internal@tbb@@@internal@tbb@@QEAA@W4do_once_state@23@@Z 000000018000d0a0 f i dynamic_link.obj
 0001:0000c0c0       ??0?$converter@W4do_once_state@internal@tbb@@@?$atomic_impl@W4do_once_state@internal@tbb@@@internal@tbb@@QEAA@XZ 000000018000d0c0 f i dynamic_link.obj
 0001:0000c0d0       ??0?$ptr_converter@PEAW4do_once_state@internal@tbb@@@?$atomic_impl@W4do_once_state@internal@tbb@@@internal@tbb@@QEAA@PEAW4do_once_state@23@@Z 000000018000d0d0 f i dynamic_link.obj
 0001:0000c0f0       ??0?$ptr_converter@PEDW4do_once_state@internal@tbb@@@?$atomic_impl@W4do_once_state@internal@tbb@@@internal@tbb@@QEAA@PEDW4do_once_state@23@@Z 000000018000d0f0 f i dynamic_link.obj
 0001:0000c110       ??0static_init_dl_data_t@internal@tbb@@QEAA@XZ 000000018000d110 f i dynamic_link.obj
 0001:0000c140       ??4?$atomic@W4do_once_state@internal@tbb@@@tbb@@QEAA?AW4do_once_state@internal@1@W4231@@Z 000000018000d140 f i dynamic_link.obj
 0001:0000c180       ??B?$atomic_impl@W4do_once_state@internal@tbb@@@internal@tbb@@QEDA?AW4do_once_state@12@XZ 000000018000d180 f i dynamic_link.obj
 0001:0000c1c0       ?add@handles_t@internal@tbb@@QEAAXAEBQEAUHINSTANCE__@@@Z 000000018000d1c0 f i dynamic_link.obj
 0001:0000c240       ?compare_and_swap@?$atomic_impl@W4do_once_state@internal@tbb@@@internal@tbb@@QEAA?AW4do_once_state@23@W4423@0@Z 000000018000d240 f i dynamic_link.obj
 0001:0000c280       ?compare_and_swap@?$atomic_traits@$03$0A@@internal@tbb@@SAHPECXHH@Z 000000018000d280 f i dynamic_link.obj
 0001:0000c2c0       ?free@handles_t@internal@tbb@@QEAAXXZ 000000018000d2c0 f i dynamic_link.obj
 0001:0000c330       ?init@handles_t@internal@tbb@@QEAAXXZ 000000018000d330 f i dynamic_link.obj
 0001:0000c370       ?run_initializer@internal@tbb@@YAXP6AXXZAEAU?$atomic@W4do_once_state@internal@tbb@@@2@@Z 000000018000d370 f i dynamic_link.obj
 0001:0000c3b0       ?store_with_release@?$atomic_impl@W4do_once_state@internal@tbb@@@internal@tbb@@IEAA?AW4do_once_state@23@W4423@@Z 000000018000d3b0 f i dynamic_link.obj
 0001:0000c410       ?strrchr@@YAPEADQEADH@Z    000000018000d410 f i dynamic_link.obj
 0001:0000c450       __itt_set_error_handler    000000018000d450 f   itt_notify.obj
 0001:0000c4a0       __itt_fini_ittlib          000000018000d4a0 f   itt_notify.obj
 0001:000116d0       __itt_init_ittlib          00000001800126d0 f   itt_notify.obj
 0001:00011af0       ?__TBB_load_ittnotify@internal@tbb@@YAHXZ 0000000180012af0 f   itt_notify.obj
 0001:00011b20       ?__itt_interlocked_increment@@YAJPECJ@Z 0000000180012b20 f i itt_notify.obj
 0001:00011b40       ?NFS_GetLineSize@internal@tbb@@YA_KXZ 0000000180012b40 f   cache_aligned_allocator.obj
 0001:00011b60       ?NFS_Allocate@internal@tbb@@YAPEAX_K0PEAX@Z 0000000180012b60 f   cache_aligned_allocator.obj
 0001:00011cb0       ?NFS_Free@internal@tbb@@YAXPEAX@Z 0000000180012cb0 f   cache_aligned_allocator.obj
 0001:00011cf0       ?deallocate_via_handler_v3@internal@tbb@@YAXPEAX@Z 0000000180012cf0 f   cache_aligned_allocator.obj
 0001:00011d30       ?allocate_via_handler_v3@internal@tbb@@YAPEAX_K@Z 0000000180012d30 f   cache_aligned_allocator.obj
 0001:00011d90       ?is_malloc_used_v3@internal@tbb@@YA_NXZ 0000000180012d90 f   cache_aligned_allocator.obj
 0001:00012280       ?initialize_handler_pointers@internal@tbb@@YAXXZ 0000000180013280 f   cache_aligned_allocator.obj
 0001:00012370       ?initialize_cache_aligned_allocator@internal@tbb@@YAXXZ 0000000180013370 f   cache_aligned_allocator.obj
 0001:000123b0       ??$is_aligned@X@internal@tbb@@YA_NPEAX_K@Z 00000001800133b0 f i cache_aligned_allocator.obj
 0001:00012430       ?set_end_of_input@filter@tbb@@IEAAXXZ 0000000180013430 f   pipeline.obj
 0001:00012510       ??1filter@tbb@@UEAA@XZ     0000000180013510 f   pipeline.obj
 0001:00012600       ?has_more_work@filter@tbb@@AEAA_NXZ 0000000180013600 f   pipeline.obj
 0001:000126c0       ?try_process_item@thread_bound_filter@tbb@@QEAA?AW4result_type@12@XZ 00000001800136c0 f   pipeline.obj
 0001:00012700       ?process_item@thread_bound_filter@tbb@@QEAA?AW4result_type@12@XZ 0000000180013700 f   pipeline.obj
 0001:00012740       ?internal_process_item@thread_bound_filter@tbb@@AEAA?AW4result_type@12@_N@Z 0000000180013740 f   pipeline.obj
 0001:00012aa0       ??0pipeline@tbb@@QEAA@XZ   0000000180013aa0 f   pipeline.obj
 0001:00012b40       ??1pipeline@tbb@@UEAA@XZ   0000000180013b40 f   pipeline.obj
 0001:00012b90       ?add_filter@pipeline@tbb@@QEAAXAEAVfilter@2@@Z 0000000180013b90 f   pipeline.obj
 0001:00012fd0       ?run@pipeline@tbb@@QEAAX_K@Z 0000000180013fd0 f   pipeline.obj
 0001:000130d0       ?run@pipeline@tbb@@QEAAX_KAEAVtask_group_context@2@@Z 00000001800140d0 f   pipeline.obj
 0001:000132f0       ?clear@pipeline@tbb@@QEAAXXZ 00000001800142f0 f   pipeline.obj
 0001:00013430       ?remove_filter@pipeline@tbb@@AEAAXAEAVfilter@2@@Z 0000000180014430 f   pipeline.obj
 0001:00013670       ?inject_token@pipeline@tbb@@AEAAXAEAVtask@2@@Z 0000000180014670 f   pipeline.obj
 0001:000136d0       ?clear_filters@pipeline@tbb@@AEAAXXZ 00000001800146d0 f   pipeline.obj
 0001:00013760       ?grow@input_buffer@internal@tbb@@AEAAXK@Z 0000000180014760 f   pipeline.obj
 0001:00013920       ?execute@stage_task@internal@tbb@@UEAAPEAVtask@3@XZ 0000000180014920 f   pipeline.obj
 0001:000140c0       ??$fetch_and_add@$0A@@?$atomic_impl_with_arithmetic@KKD@internal@tbb@@QEAAKK@Z 00000001800150c0 f i pipeline.obj
 0001:00014100       ??$note_done@Vstage_task@internal@tbb@@@input_buffer@internal@tbb@@QEAAXKAEAVstage_task@12@@Z 0000000180015100 f i pipeline.obj
 0001:00014250       ??$poison_pointer@Utask_info@internal@tbb@@@internal@tbb@@YAXAEAPEAUtask_info@01@@Z 0000000180015250 f i pipeline.obj
 0001:00014270       ??$to_bits@K@?$atomic_impl@K@internal@tbb@@CAHK@Z 0000000180015270 f i pipeline.obj
 0001:000142b0       ??$to_bits_ref@$$CDK@?$atomic_impl@K@internal@tbb@@CAAEAHAEDK@Z 00000001800152b0 f i pipeline.obj
 0001:000142f0       ??$to_bits_ref@K@?$atomic_impl@K@internal@tbb@@CAAEAHAEAK@Z 00000001800152f0 f i pipeline.obj
 0001:00014330       ??$to_value@K@?$atomic_impl@K@internal@tbb@@CAKH@Z 0000000180015330 f i pipeline.obj
 0001:00014380       ??0?$cache_aligned_allocator@Utask_info@internal@tbb@@@tbb@@QEAA@XZ 0000000180015380 f i pipeline.obj
 0001:00014390       ??0?$converter@K@?$atomic_impl@K@internal@tbb@@QEAA@K@Z 0000000180015390 f i pipeline.obj
 0001:000143b0       ??0?$converter@K@?$atomic_impl@K@internal@tbb@@QEAA@XZ 00000001800153b0 f i pipeline.obj
 0001:000143c0       ??0?$ptr_converter@PEAK@?$atomic_impl@K@internal@tbb@@QEAA@PEAK@Z 00000001800153c0 f i pipeline.obj
 0001:000143e0       ??0?$ptr_converter@PEDK@?$atomic_impl@K@internal@tbb@@QEAA@PEDK@Z 00000001800153e0 f i pipeline.obj
 0001:00014400       ??0allocate_additional_child_of_proxy@internal@tbb@@QEAA@AEAVtask@2@@Z 0000000180015400 f i pipeline.obj
 0001:00014430       ??0allocate_root_with_context_proxy@internal@tbb@@QEAA@AEAVtask_group_context@2@@Z 0000000180015430 f i pipeline.obj
 0001:00014450       ??0input_buffer@internal@tbb@@QEAA@_N0@Z 0000000180015450 f i pipeline.obj
 0001:00014550       ??0pipeline_cleaner@internal@tbb@@QEAA@AEAVpipeline@2@@Z 0000000180015550 f i pipeline.obj
 0001:000145a0       ??0pipeline_root_task@internal@tbb@@QEAA@AEAVpipeline@2@@Z 00000001800155a0 f i pipeline.obj
 0001:000146e0       ??0semaphore@internal@tbb@@QEAA@_K@Z 00000001800156e0 f i pipeline.obj
 0001:00014730       ??0stage_task@internal@tbb@@QEAA@AEAVpipeline@2@@Z 0000000180015730 f i pipeline.obj
 0001:000147c0       ??0stage_task@internal@tbb@@QEAA@AEAVpipeline@2@PEAVfilter@2@AEBUtask_info@12@@Z 00000001800157c0 f i pipeline.obj
 0001:00014850       ??0task@tbb@@IEAA@XZ       0000000180015850 f i pipeline.obj
 0001:000148b0       ??0task_base@internal@interface5@tbb@@QEAA@XZ 00000001800158b0 f i pipeline.obj
 0001:000148f0       ??0task_group_context@tbb@@QEAA@W4kind_type@01@_K@Z 00000001800158f0 f i pipeline.obj
 0001:00014970       ??1input_buffer@internal@tbb@@QEAA@XZ 0000000180015970 f i pipeline.obj
 0001:00014a40       ??1pipeline_cleaner@internal@tbb@@QEAA@XZ 0000000180015a40 f i pipeline.obj
 0001:00014ab0       ??1pipeline_root_task@internal@tbb@@UEAA@XZ 0000000180015ab0 f i pipeline.obj
 0001:00014ae0       ??1semaphore@internal@tbb@@QEAA@XZ 0000000180015ae0 f i pipeline.obj
 0001:00014b20       ??1stage_task@internal@tbb@@UEAA@XZ 0000000180015b20 f i pipeline.obj
 0001:00014c00       ??1task@tbb@@UEAA@XZ       0000000180015c00 f i pipeline.obj
 0001:00014c20       ??2@YAPEAX_KAEBVallocate_additional_child_of_proxy@internal@tbb@@@Z 0000000180015c20 f i pipeline.obj
 0001:00014c60       ??2@YAPEAX_KAEBVallocate_child_proxy@internal@tbb@@@Z 0000000180015c60 f i pipeline.obj
 0001:00014ca0       ??2@YAPEAX_KAEBVallocate_root_with_context_proxy@internal@tbb@@@Z 0000000180015ca0 f i pipeline.obj
 0001:00014ce0       ??3@YAXPEAXAEBVallocate_additional_child_of_proxy@internal@tbb@@@Z 0000000180015ce0 f i pipeline.obj
 0001:00014d30       ??3@YAXPEAXAEBVallocate_child_proxy@internal@tbb@@@Z 0000000180015d30 f i pipeline.obj
 0001:00014d80       ??3@YAXPEAXAEBVallocate_root_with_context_proxy@internal@tbb@@@Z 0000000180015d80 f i pipeline.obj
 0001:00014dd0       ??4?$atomic@K@tbb@@QEAAKK@Z 0000000180015dd0 f i pipeline.obj
 0001:00014e10       ??B?$atomic_impl@K@internal@tbb@@QEDAKXZ 0000000180015e10 f i pipeline.obj
 0001:00014e50       ??E?$atomic_impl_with_arithmetic@KKD@internal@tbb@@QEAAKH@Z 0000000180015e50 f i pipeline.obj
 0001:00014e90       ??E?$atomic_impl_with_arithmetic@KKD@internal@tbb@@QEAAKXZ 0000000180015e90 f i pipeline.obj
 0001:00014ed0       ??F?$atomic_impl_with_arithmetic@KKD@internal@tbb@@QEAAKH@Z 0000000180015ed0 f i pipeline.obj
 0001:00014f10       ??F?$atomic_impl_with_arithmetic@KKD@internal@tbb@@QEAAKXZ 0000000180015f10 f i pipeline.obj
 0001:00014f50       ??_Gfilter@tbb@@UEAAPEAXI@Z 0000000180015f50 f i pipeline.obj
 0001:00014f50       ??_Efilter@tbb@@UEAAPEAXI@Z 0000000180015f50 f i pipeline.obj
 0001:00014fb0       ??_Ginput_buffer@internal@tbb@@QEAAPEAXI@Z 0000000180015fb0 f i pipeline.obj
 0001:00015010       ??_Gpipeline@tbb@@UEAAPEAXI@Z 0000000180016010 f i pipeline.obj
 0001:00015010       ??_Epipeline@tbb@@UEAAPEAXI@Z 0000000180016010 f i pipeline.obj
 0001:00015070       ??_Gpipeline_root_task@internal@tbb@@UEAAPEAXI@Z 0000000180016070 f i pipeline.obj
 0001:00015070       ??_Epipeline_root_task@internal@tbb@@UEAAPEAXI@Z 0000000180016070 f i pipeline.obj
 0001:000150d0       ??_Gsemaphore@internal@tbb@@QEAAPEAXI@Z 00000001800160d0 f i pipeline.obj
 0001:00015130       ??_Gstage_task@internal@tbb@@UEAAPEAXI@Z 0000000180016130 f i pipeline.obj
 0001:00015130       ??_Estage_task@internal@tbb@@UEAAPEAXI@Z 0000000180016130 f i pipeline.obj
 0001:00015190       ??_Gtask@tbb@@UEAAPEAXI@Z  0000000180016190 f i pipeline.obj
 0001:00015190       ??_Etask@tbb@@UEAAPEAXI@Z  0000000180016190 f i pipeline.obj
 0001:000151f0       ?P@semaphore@internal@tbb@@QEAAXXZ 00000001800161f0 f i pipeline.obj
 0001:00015230       ?V@semaphore@internal@tbb@@QEAAXXZ 0000000180016230 f i pipeline.obj
 0001:00015270       ?allocate@?$cache_aligned_allocator@Utask_info@internal@tbb@@@tbb@@QEAAPEAUtask_info@internal@2@_KPEBX@Z 0000000180016270 f i pipeline.obj
 0001:000152c0       ?allocate_additional_child_of@task_base@internal@interface5@tbb@@SA?AVallocate_additional_child_of_proxy@24@AEAVtask@4@@Z 00000001800162c0 f i pipeline.obj
 0001:00015300       ?allocate_child@task@tbb@@QEAAAEAVallocate_child_proxy@internal@2@XZ 0000000180016300 f i pipeline.obj
 0001:00015310       ?allocate_root@task@tbb@@SA?AVallocate_root_with_context_proxy@internal@2@AEAVtask_group_context@2@@Z 0000000180016310 f i pipeline.obj
 0001:00015350       ?clear@input_buffer@internal@tbb@@QEAAXPEAVfilter@3@@Z 0000000180016350 f i pipeline.obj
 0001:00015410       ?create@?$basic_tls@_J@internal@tbb@@QEAAHXZ 0000000180016410 f i pipeline.obj
 0001:00015460       ?create_my_tls@input_buffer@internal@tbb@@QEAAXXZ 0000000180016460 f i pipeline.obj
 0001:000154c0       ?create_sema@input_buffer@internal@tbb@@AEAAX_K@Z 00000001800164c0 f i pipeline.obj
 0001:00015570       ?deallocate@?$cache_aligned_allocator@Utask_info@internal@tbb@@@tbb@@QEAAXPEAUtask_info@internal@2@_K@Z 0000000180016570 f i pipeline.obj
 0001:000155b0       ?destroy@?$basic_tls@_J@internal@tbb@@QEAAHXZ 00000001800165b0 f i pipeline.obj
 0001:000155f0       ?destroy_my_tls@input_buffer@internal@tbb@@QEAAXXZ 00000001800165f0 f i pipeline.obj
 0001:00015640       ?execute@pipeline_root_task@internal@tbb@@EEAAPEAVtask@3@XZ 0000000180016640 f i pipeline.obj
 0001:000159f0       ?fetch_and_add@?$atomic_impl_with_arithmetic@KKD@internal@tbb@@QEAAKK@Z 00000001800169f0 f i pipeline.obj
 0001:00015a30       ?finalize@filter@tbb@@UEAAXPEAX@Z 0000000180016a30 f i pipeline.obj
 0001:00015a40       ?free_sema@input_buffer@internal@tbb@@AEAAXXZ 0000000180016a40 f i pipeline.obj
 0001:00015ad0       ?get@?$basic_tls@_J@internal@tbb@@QEAA_JXZ 0000000180016ad0 f i pipeline.obj
 0001:00015b10       ?has_item@input_buffer@internal@tbb@@QEAA_NXZ 0000000180016b10 f i pipeline.obj
 0001:00015ba0       ?init_semaphore@semaphore@internal@tbb@@AEAAX_K@Z 0000000180016ba0 f i pipeline.obj
 0001:00015c00       ?inlineCreateSemaphoreEx@@YAPEAXPEAU_SECURITY_ATTRIBUTES@@JJPEB_WKK@Z 0000000180016c00 f i pipeline.obj
 0001:00015c50       ?is_bound@filter@tbb@@QEBA_NXZ 0000000180016c50 f i pipeline.obj
 0001:00015ca0       ?is_cancelled@task@tbb@@QEBA_NXZ 0000000180016ca0 f i pipeline.obj
 0001:00015ce0       ?is_ordered@filter@tbb@@QEBA_NXZ 0000000180016ce0 f i pipeline.obj
 0001:00015d30       ?is_serial@filter@tbb@@QEBA_NXZ 0000000180016d30 f i pipeline.obj
 0001:00015d50       ?my_tls_end_of_input@input_buffer@internal@tbb@@QEAA_NXZ 0000000180016d50 f i pipeline.obj
 0001:00015db0       ?not_in_pipeline@filter@tbb@@CAPEAV12@XZ 0000000180016db0 f i pipeline.obj
 0001:00015dc0       ?object_may_be_null@filter@tbb@@QEAA_NXZ 0000000180016dc0 f i pipeline.obj
 0001:00015e10       ?parent@task@tbb@@QEBAPEAV12@XZ 0000000180016e10 f i pipeline.obj
 0001:00015e50       ?prefix@task@tbb@@AEBAAEAVtask_prefix@internal@2@PEAUversion_tag_v3@42@@Z 0000000180016e50 f i pipeline.obj
 0001:00015e80       ?put_token@input_buffer@internal@tbb@@QEAA_NAEAUtask_info@23@_N@Z 0000000180016e80 f i pipeline.obj
 0001:00016120       ?recycle_as_continuation@task@tbb@@QEAAXXZ 0000000180017120 f i pipeline.obj
 0001:00016190       ?reset@stage_task@internal@tbb@@QEAAXXZ 0000000180017190 f i pipeline.obj
 0001:000161f0       ?reset@task_info@internal@tbb@@QEAAXXZ 00000001800171f0 f i pipeline.obj
 0001:00016230       ?return_item@input_buffer@internal@tbb@@QEAA_NAEAUtask_info@23@_N@Z 0000000180017230 f i pipeline.obj
 0001:00016360       ?sema_P@input_buffer@internal@tbb@@AEAAXXZ 0000000180017360 f i pipeline.obj
 0001:000163c0       ?sema_V@input_buffer@internal@tbb@@AEAAXXZ 00000001800173c0 f i pipeline.obj
 0001:00016420       ?set@?$basic_tls@_J@internal@tbb@@QEAAX_J@Z 0000000180017420 f i pipeline.obj
 0001:00016460       ?set_my_tls_end_of_input@input_buffer@internal@tbb@@QEAAXXZ 0000000180017460 f i pipeline.obj
 0001:000164a0       ?set_ref_count@task@tbb@@QEAAXH@Z 00000001800174a0 f i pipeline.obj
 0001:000164e0       ?spawn@task_base@internal@interface5@tbb@@SAXAEAVtask@4@@Z 00000001800174e0 f i pipeline.obj
 0001:00016550       ?spawn_root_and_wait@task@tbb@@SAXAEAV12@@Z 0000000180017550 f i pipeline.obj
 0001:000165c0       ?spawn_stage_task@stage_task@internal@tbb@@QEAAXAEBUtask_info@23@@Z 00000001800175c0 f i pipeline.obj
 0001:00016680       ?store_with_release@?$atomic_impl@K@internal@tbb@@IEAAKK@Z 0000000180017680 f i pipeline.obj
 0001:00016780       ?acquire@scoped_lock@queuing_mutex@tbb@@QEAAXAEAV23@@Z 0000000180017780 f   queuing_mutex.obj
 0001:000168c0       ?try_acquire@scoped_lock@queuing_mutex@tbb@@QEAA_NAEAV23@@Z 00000001800178c0 f   queuing_mutex.obj
 0001:00016990       ?release@scoped_lock@queuing_mutex@tbb@@QEAAXXZ 0000000180017990 f   queuing_mutex.obj
 0001:00016a90       ?internal_construct@queuing_mutex@tbb@@QEAAXXZ 0000000180017a90 f   queuing_mutex.obj
 0001:00016ae0       ??$__TBB_load_with_acquire@_K@internal@tbb@@YA_KAED_K@Z 0000000180017ae0 f i queuing_mutex.obj
 0001:00016b10       ??$__TBB_store_with_release@_KH@internal@tbb@@YAXAEC_KH@Z 0000000180017b10 f i queuing_mutex.obj
 0001:00016b50       ??$compare_and_swap@$01@?$atomic_impl@PEAVscoped_lock@queuing_mutex@tbb@@@internal@tbb@@QEAAPEAVscoped_lock@queuing_mutex@2@PEAV342@0@Z 0000000180017b50 f i queuing_mutex.obj
 0001:00016bc0       ??$fetch_and_store@$01@?$atomic_impl@PEAVscoped_lock@queuing_mutex@tbb@@@internal@tbb@@QEAAPEAVscoped_lock@queuing_mutex@2@PEAV342@@Z 0000000180017bc0 f i queuing_mutex.obj
 0001:00016c10       ??$poison_pointer@Vscoped_lock@queuing_mutex@tbb@@@internal@tbb@@YAXAEAPEAVscoped_lock@queuing_mutex@1@@Z 0000000180017c10 f i queuing_mutex.obj
 0001:00016c30       ??$spin_wait_while_eq@PEAVscoped_lock@queuing_mutex@tbb@@PEAV123@@internal@tbb@@YAXAEDSEAVscoped_lock@queuing_mutex@1@PEAV231@@Z 0000000180017c30 f i queuing_mutex.obj
 0001:00016c90       ??$spin_wait_while_eq@_KK@internal@tbb@@YAXAED_KK@Z 0000000180017c90 f i queuing_mutex.obj
 0001:00016cf0       ??$to_bits@PEAVscoped_lock@queuing_mutex@tbb@@@?$atomic_impl@PEAVscoped_lock@queuing_mutex@tbb@@@internal@tbb@@CA_JPEAVscoped_lock@queuing_mutex@2@@Z 0000000180017cf0 f i queuing_mutex.obj
 0001:00016d30       ??$to_value@PEAVscoped_lock@queuing_mutex@tbb@@@?$atomic_impl@PEAVscoped_lock@queuing_mutex@tbb@@@internal@tbb@@CAPEAVscoped_lock@queuing_mutex@2@_J@Z 0000000180017d30 f i queuing_mutex.obj
 0001:00016d90       ??0?$converter@PEAVscoped_lock@queuing_mutex@tbb@@@?$atomic_impl@PEAVscoped_lock@queuing_mutex@tbb@@@internal@tbb@@QEAA@PEAVscoped_lock@queuing_mutex@3@@Z 0000000180017d90 f i queuing_mutex.obj
 0001:00016db0       ??0?$converter@PEAVscoped_lock@queuing_mutex@tbb@@@?$atomic_impl@PEAVscoped_lock@queuing_mutex@tbb@@@internal@tbb@@QEAA@XZ 0000000180017db0 f i queuing_mutex.obj
 0001:00016dc0       ?compare_and_swap@?$atomic_traits@$07$01@internal@tbb@@SA_JPECX_J1@Z 0000000180017dc0 f i queuing_mutex.obj
 0001:00016e10       ?fetch_and_store@?$atomic_traits@$07$01@internal@tbb@@SA_JPECX_J@Z 0000000180017e10 f i queuing_mutex.obj
 0001:00016e50       ?initialize@scoped_lock@queuing_mutex@tbb@@AEAAXXZ 0000000180017e50 f i queuing_mutex.obj
 0001:00016ea0       ?load_with_acquire@?$machine_load_store@_K$07@internal@tbb@@SA_KAED_K@Z 0000000180017ea0 f i queuing_mutex.obj
 0001:00016ee0       ?store_with_release@?$machine_load_store@_K$07@internal@tbb@@SAXAEC_K_K@Z 0000000180017ee0 f i queuing_mutex.obj
 0001:00017020       ?acquire@scoped_lock@queuing_rw_mutex@tbb@@QEAAXAEAV23@_N@Z 0000000180018020 f   queuing_rw_mutex.obj
 0001:00017490       ?try_acquire@scoped_lock@queuing_rw_mutex@tbb@@QEAA_NAEAV23@_N@Z 0000000180018490 f   queuing_rw_mutex.obj
 0001:000175e0       ?release@scoped_lock@queuing_rw_mutex@tbb@@QEAAXXZ 00000001800185e0 f   queuing_rw_mutex.obj
 0001:00017bf0       ?upgrade_to_writer@scoped_lock@queuing_rw_mutex@tbb@@QEAA_NXZ 0000000180018bf0 f   queuing_rw_mutex.obj
 0001:000183c0       ?downgrade_to_reader@scoped_lock@queuing_rw_mutex@tbb@@QEAA_NXZ 00000001800193c0 f   queuing_rw_mutex.obj
 0001:00018580       ?internal_construct@queuing_rw_mutex@tbb@@QEAAXXZ 0000000180019580 f   queuing_rw_mutex.obj
 0001:000185d0       ??$__TBB_load_full_fence@_J@internal@tbb@@YA_JAED_J@Z 00000001800195d0 f i queuing_rw_mutex.obj
 0001:00018600       ??$__TBB_load_relaxed@PEAVscoped_lock@queuing_rw_mutex@tbb@@@internal@tbb@@YAPEAVscoped_lock@queuing_rw_mutex@1@AEDSEAV231@@Z 0000000180019600 f i queuing_rw_mutex.obj
 0001:00018630       ??$__TBB_load_with_acquire@E@internal@tbb@@YAEAEDE@Z 0000000180019630 f i queuing_rw_mutex.obj
 0001:00018660       ??$__TBB_load_with_acquire@PEAVscoped_lock@queuing_rw_mutex@tbb@@@internal@tbb@@YAPEAVscoped_lock@queuing_rw_mutex@1@AEDSEAV231@@Z 0000000180019660 f i queuing_rw_mutex.obj
 0001:00018690       ??$__TBB_store_relaxed@EH@internal@tbb@@YAXAECEH@Z 0000000180019690 f i queuing_rw_mutex.obj
 0001:000186d0       ??$__TBB_store_relaxed@PEAVscoped_lock@queuing_rw_mutex@tbb@@PEAV123@@internal@tbb@@YAXAECREAVscoped_lock@queuing_rw_mutex@1@PEAV231@@Z 00000001800196d0 f i queuing_rw_mutex.obj
 0001:00018710       ??$__TBB_store_with_release@EE@internal@tbb@@YAXAECEE@Z 0000000180019710 f i queuing_rw_mutex.obj
 0001:00018750       ??$__TBB_store_with_release@EH@internal@tbb@@YAXAECEH@Z 0000000180019750 f i queuing_rw_mutex.obj
 0001:00018790       ??$__TBB_store_with_release@PEAVscoped_lock@queuing_rw_mutex@tbb@@PEAV123@@internal@tbb@@YAXAECREAVscoped_lock@queuing_rw_mutex@1@PEAV231@@Z 0000000180019790 f i queuing_rw_mutex.obj
 0001:000187d0       ??$as_atomic@E@internal@tbb@@YAAEAU?$atomic@E@1@AEAE@Z 00000001800197d0 f i queuing_rw_mutex.obj
 0001:000187e0       ??$compare_and_swap@$00@?$atomic_impl@E@internal@tbb@@QEAAEEE@Z 00000001800197e0 f i queuing_rw_mutex.obj
 0001:00018850       ??$compare_and_swap@$01@?$atomic_impl@E@internal@tbb@@QEAAEEE@Z 0000000180019850 f i queuing_rw_mutex.obj
 0001:000188c0       ??$compare_and_swap@$01@?$atomic_impl@PEAVscoped_lock@queuing_rw_mutex@tbb@@@internal@tbb@@QEAAPEAVscoped_lock@queuing_rw_mutex@2@PEAV342@0@Z 00000001800198c0 f i queuing_rw_mutex.obj
 0001:00018930       ??$compare_and_swap@$01@?$tricky_atomic_pointer@Vscoped_lock@queuing_rw_mutex@tbb@@@tbb@@SAPEAVscoped_lock@queuing_rw_mutex@1@PECREAV231@PEAV231@1@Z 0000000180019930 f i queuing_rw_mutex.obj
 0001:00018980       ??$fetch_and_add@$00@?$tricky_atomic_pointer@Vscoped_lock@queuing_rw_mutex@tbb@@@tbb@@SAPEAVscoped_lock@queuing_rw_mutex@1@PECREAV231@_J@Z 0000000180019980 f i queuing_rw_mutex.obj
 0001:000189c0       ??$fetch_and_store@$01@?$atomic_impl@PEAVscoped_lock@queuing_rw_mutex@tbb@@@internal@tbb@@QEAAPEAVscoped_lock@queuing_rw_mutex@2@PEAV342@@Z 00000001800199c0 f i queuing_rw_mutex.obj
 0001:00018a10       ??$fetch_and_store@$01@?$tricky_atomic_pointer@Vscoped_lock@queuing_rw_mutex@tbb@@@tbb@@SAPEAVscoped_lock@queuing_rw_mutex@1@PECREAV231@PEAV231@@Z 0000000180019a10 f i queuing_rw_mutex.obj
 0001:00018a50       ??$load@$02@?$atomic_impl@PEAVscoped_lock@queuing_rw_mutex@tbb@@@internal@tbb@@QEBAPEAVscoped_lock@queuing_rw_mutex@2@XZ 0000000180019a50 f i queuing_rw_mutex.obj
 0001:00018aa0       ??$load@$02PEAVscoped_lock@queuing_rw_mutex@tbb@@@tbb@@YAPEAVscoped_lock@queuing_rw_mutex@0@AEBU?$atomic@PEAVscoped_lock@queuing_rw_mutex@tbb@@@0@@Z 0000000180019aa0 f i queuing_rw_mutex.obj
 0001:00018ad0       ??$load@$0A@@?$atomic_impl@PEAVscoped_lock@queuing_rw_mutex@tbb@@@internal@tbb@@QEBAPEAVscoped_lock@queuing_rw_mutex@2@XZ 0000000180019ad0 f i queuing_rw_mutex.obj
 0001:00018b20       ??$load@_J@?$atomic_load_store_traits@$0A@@internal@tbb@@SA_JAED_J@Z 0000000180019b20 f i queuing_rw_mutex.obj
 0001:00018b50       ??$poison_pointer@Vscoped_lock@queuing_rw_mutex@tbb@@@internal@tbb@@YAXAEAPEAVscoped_lock@queuing_rw_mutex@1@@Z 0000000180019b50 f i queuing_rw_mutex.obj
 0001:00018b70       ??$spin_wait_until_eq@EE@internal@tbb@@YAXAEDEE@Z 0000000180019b70 f i queuing_rw_mutex.obj
 0001:00018be0       ??$spin_wait_until_eq@EH@internal@tbb@@YAXAEDEH@Z 0000000180019be0 f i queuing_rw_mutex.obj
 0001:00018c40       ??$spin_wait_while_eq@EH@internal@tbb@@YAXAEDEH@Z 0000000180019c40 f i queuing_rw_mutex.obj
 0001:00018ca0       ??$spin_wait_while_eq@PEAVscoped_lock@queuing_rw_mutex@tbb@@PEAV123@@internal@tbb@@YAXAEDSEAVscoped_lock@queuing_rw_mutex@1@PEAV231@@Z 0000000180019ca0 f i queuing_rw_mutex.obj
 0001:00018d00       ??$spin_wait_while_eq@PEAVscoped_lock@queuing_rw_mutex@tbb@@PEAX@internal@tbb@@YAXAEDSEAVscoped_lock@queuing_rw_mutex@1@PEAX@Z 0000000180019d00 f i queuing_rw_mutex.obj
 0001:00018d60       ??$to_bits@E@?$atomic_impl@E@internal@tbb@@CACE@Z 0000000180019d60 f i queuing_rw_mutex.obj
 0001:00018da0       ??$to_bits@PEAVscoped_lock@queuing_rw_mutex@tbb@@@?$atomic_impl@PEAVscoped_lock@queuing_rw_mutex@tbb@@@internal@tbb@@CA_JPEAVscoped_lock@queuing_rw_mutex@2@@Z 0000000180019da0 f i queuing_rw_mutex.obj
 0001:00018de0       ??$to_bits_ref@$$CDE@?$atomic_impl@E@internal@tbb@@CAAEACAEDE@Z 0000000180019de0 f i queuing_rw_mutex.obj
 0001:00018e20       ??$to_bits_ref@E@?$atomic_impl@E@internal@tbb@@CAAEACAEAE@Z 0000000180019e20 f i queuing_rw_mutex.obj
 0001:00018e60       ??$to_bits_ref@QEAVscoped_lock@queuing_rw_mutex@tbb@@@?$atomic_impl@PEAVscoped_lock@queuing_rw_mutex@tbb@@@internal@tbb@@CAAEA_JAEBQEAVscoped_lock@queuing_rw_mutex@2@@Z 0000000180019e60 f i queuing_rw_mutex.obj
 0001:00018ea0       ??$to_value@E@?$atomic_impl@E@internal@tbb@@CAEC@Z 0000000180019ea0 f i queuing_rw_mutex.obj
 0001:00018ef0       ??$to_value@PEAVscoped_lock@queuing_rw_mutex@tbb@@@?$atomic_impl@PEAVscoped_lock@queuing_rw_mutex@tbb@@@internal@tbb@@CAPEAVscoped_lock@queuing_rw_mutex@2@_J@Z 0000000180019ef0 f i queuing_rw_mutex.obj
 0001:00018f50       ??0?$converter@E@?$atomic_impl@E@internal@tbb@@QEAA@E@Z 0000000180019f50 f i queuing_rw_mutex.obj
 0001:00018f70       ??0?$converter@E@?$atomic_impl@E@internal@tbb@@QEAA@XZ 0000000180019f70 f i queuing_rw_mutex.obj
 0001:00018f80       ??0?$converter@PEAVscoped_lock@queuing_rw_mutex@tbb@@@?$atomic_impl@PEAVscoped_lock@queuing_rw_mutex@tbb@@@internal@tbb@@QEAA@PEAVscoped_lock@queuing_rw_mutex@3@@Z 0000000180019f80 f i queuing_rw_mutex.obj
 0001:00018fa0       ??0?$converter@PEAVscoped_lock@queuing_rw_mutex@tbb@@@?$atomic_impl@PEAVscoped_lock@queuing_rw_mutex@tbb@@@internal@tbb@@QEAA@XZ 0000000180019fa0 f i queuing_rw_mutex.obj
 0001:00018fb0       ??0?$ptr_converter@PEAE@?$atomic_impl@E@internal@tbb@@QEAA@PEAE@Z 0000000180019fb0 f i queuing_rw_mutex.obj
 0001:00018fd0       ??0?$ptr_converter@PEBQEAVscoped_lock@queuing_rw_mutex@tbb@@@?$atomic_impl@PEAVscoped_lock@queuing_rw_mutex@tbb@@@internal@tbb@@QEAA@PEBQEAVscoped_lock@queuing_rw_mutex@3@@Z 0000000180019fd0 f i queuing_rw_mutex.obj
 0001:00018ff0       ??0?$ptr_converter@PEDE@?$atomic_impl@E@internal@tbb@@QEAA@PEDE@Z 0000000180019ff0 f i queuing_rw_mutex.obj
 0001:00019010       ??0?$tricky_atomic_pointer@Vscoped_lock@queuing_rw_mutex@tbb@@@tbb@@QEAA@AEAPEAVscoped_lock@queuing_rw_mutex@1@@Z 000000018001a010 f i queuing_rw_mutex.obj
 0001:00019060       ??4?$atomic@E@tbb@@QEAAEE@Z 000000018001a060 f i queuing_rw_mutex.obj
 0001:000190a0       ??B?$atomic_impl@E@internal@tbb@@QEDAEXZ 000000018001a0a0 f i queuing_rw_mutex.obj
 0001:000190f0       ??I?$tricky_atomic_pointer@Vscoped_lock@queuing_rw_mutex@tbb@@@tbb@@QEBAPEAVscoped_lock@queuing_rw_mutex@1@_J@Z 000000018001a0f0 f i queuing_rw_mutex.obj
 0001:00019110       ??U?$tricky_atomic_pointer@Vscoped_lock@queuing_rw_mutex@tbb@@@tbb@@QEBAPEAVscoped_lock@queuing_rw_mutex@1@_J@Z 000000018001a110 f i queuing_rw_mutex.obj
 0001:00019130       ?acquire_internal_lock@scoped_lock@queuing_rw_mutex@tbb@@AEAAXXZ 000000018001a130 f i queuing_rw_mutex.obj
 0001:00019180       ?compare_and_swap@?$atomic_traits@$00$00@internal@tbb@@SACPECXCC@Z 000000018001a180 f i queuing_rw_mutex.obj
 0001:000191d0       ?compare_and_swap@?$atomic_traits@$00$01@internal@tbb@@SACPECXCC@Z 000000018001a1d0 f i queuing_rw_mutex.obj
 0001:00019220       ?get_flag@tbb@@YA_KPEAVscoped_lock@queuing_rw_mutex@1@@Z 000000018001a220 f i queuing_rw_mutex.obj
 0001:00019240       ?initialize@scoped_lock@queuing_rw_mutex@tbb@@AEAAXXZ 000000018001a240 f i queuing_rw_mutex.obj
 0001:000192b0       ?load@?$machine_load_store_relaxed@PEAVscoped_lock@queuing_rw_mutex@tbb@@$07@internal@tbb@@SAPEAVscoped_lock@queuing_rw_mutex@3@AEDSEAV453@@Z 000000018001a2b0 f i queuing_rw_mutex.obj
 0001:000192c0       ?load@?$machine_load_store_seq_cst@_J$07@internal@tbb@@SA_JAED_J@Z 000000018001a2c0 f i queuing_rw_mutex.obj
 0001:00019300       ?load_with_acquire@?$machine_load_store@E$00@internal@tbb@@SAEAEDE@Z 000000018001a300 f i queuing_rw_mutex.obj
 0001:00019340       ?load_with_acquire@?$machine_load_store@PEAVscoped_lock@queuing_rw_mutex@tbb@@$07@internal@tbb@@SAPEAVscoped_lock@queuing_rw_mutex@3@AEDSEAV453@@Z 000000018001a340 f i queuing_rw_mutex.obj
 0001:00019380       ?release_internal_lock@scoped_lock@queuing_rw_mutex@tbb@@AEAAXXZ 000000018001a380 f i queuing_rw_mutex.obj
 0001:000193c0       ?store@?$machine_load_store_relaxed@E$00@internal@tbb@@SAXAECEE@Z 000000018001a3c0 f i queuing_rw_mutex.obj
 0001:000193e0       ?store@?$machine_load_store_relaxed@PEAVscoped_lock@queuing_rw_mutex@tbb@@$07@internal@tbb@@SAXAECREAVscoped_lock@queuing_rw_mutex@3@PEAV453@@Z 000000018001a3e0 f i queuing_rw_mutex.obj
 0001:00019400       ?store_with_release@?$atomic_impl@E@internal@tbb@@IEAAEE@Z 000000018001a400 f i queuing_rw_mutex.obj
 0001:00019460       ?store_with_release@?$machine_load_store@E$00@internal@tbb@@SAXAECEE@Z 000000018001a460 f i queuing_rw_mutex.obj
 0001:00019480       ?store_with_release@?$machine_load_store@PEAVscoped_lock@queuing_rw_mutex@tbb@@$07@internal@tbb@@SAXAECREAVscoped_lock@queuing_rw_mutex@3@PEAV453@@Z 000000018001a480 f i queuing_rw_mutex.obj
 0001:000194a0       ?try_acquire_internal_lock@scoped_lock@queuing_rw_mutex@tbb@@AEAA_NXZ 000000018001a4a0 f i queuing_rw_mutex.obj
 0001:00019500       ?unblock_or_wait_on_internal_lock@scoped_lock@queuing_rw_mutex@tbb@@AEAAX_K@Z 000000018001a500 f i queuing_rw_mutex.obj
 0001:00019550       ?wait_for_release_of_internal_lock@scoped_lock@queuing_rw_mutex@tbb@@AEAAXXZ 000000018001a550 f i queuing_rw_mutex.obj
 0001:00019690       ?internal_construct@scoped_lock@reader_writer_lock@interface5@tbb@@AEAAXAEAV234@@Z 000000018001a690 f   reader_writer_lock.obj
 0001:00019730       ?internal_destroy@scoped_lock@reader_writer_lock@interface5@tbb@@AEAAXXZ 000000018001a730 f   reader_writer_lock.obj
 0001:000197d0       ?internal_construct@scoped_lock_read@reader_writer_lock@interface5@tbb@@AEAAXAEAV234@@Z 000000018001a7d0 f   reader_writer_lock.obj
 0001:00019870       ?internal_destroy@scoped_lock_read@reader_writer_lock@interface5@tbb@@AEAAXXZ 000000018001a870 f   reader_writer_lock.obj
 0001:000198d0       ?lock@reader_writer_lock@interface5@tbb@@QEAAXXZ 000000018001a8d0 f   reader_writer_lock.obj
 0001:00019980       ?try_lock@reader_writer_lock@interface5@tbb@@QEAA_NXZ 000000018001a980 f   reader_writer_lock.obj
 0001:00019a40       ?lock_read@reader_writer_lock@interface5@tbb@@QEAAXXZ 000000018001aa40 f   reader_writer_lock.obj
 0001:00019ad0       ?try_lock_read@reader_writer_lock@interface5@tbb@@QEAA_NXZ 000000018001aad0 f   reader_writer_lock.obj
 0001:00019b70       ?unlock@reader_writer_lock@interface5@tbb@@QEAAXXZ 000000018001ab70 f   reader_writer_lock.obj
 0001:00019d10       ?internal_construct@reader_writer_lock@interface5@tbb@@AEAAXXZ 000000018001ad10 f   reader_writer_lock.obj
 0001:00019dd0       ?internal_destroy@reader_writer_lock@interface5@tbb@@AEAAXXZ 000000018001add0 f   reader_writer_lock.obj
 0001:00019ee0       ?start_write@reader_writer_lock@interface5@tbb@@AEAA_NPEAVscoped_lock@123@@Z 000000018001aee0 f   reader_writer_lock.obj
 0001:0001a1a0       ?set_next_writer@reader_writer_lock@interface5@tbb@@AEAAXPEAVscoped_lock@123@@Z 000000018001b1a0 f   reader_writer_lock.obj
 0001:0001a2b0       ?end_write@reader_writer_lock@interface5@tbb@@AEAAXPEAVscoped_lock@123@@Z 000000018001b2b0 f   reader_writer_lock.obj
 0001:0001a480       ?start_read@reader_writer_lock@interface5@tbb@@AEAAXPEAVscoped_lock_read@123@@Z 000000018001b480 f   reader_writer_lock.obj
 0001:0001a610       ?unblock_readers@reader_writer_lock@interface5@tbb@@AEAAXXZ 000000018001b610 f   reader_writer_lock.obj
 0001:0001a790       ?end_read@reader_writer_lock@interface5@tbb@@AEAAXXZ 000000018001b790 f   reader_writer_lock.obj
 0001:0001a820       ??$compare_and_swap@$0A@@?$atomic_impl@PEAVscoped_lock@reader_writer_lock@interface5@tbb@@@internal@tbb@@QEAAPEAVscoped_lock@reader_writer_lock@interface5@2@PEAV3452@0@Z 000000018001b820 f i reader_writer_lock.obj
 0001:0001a890       ??$fetch_and_store@$0A@@?$atomic_impl@PEAVscoped_lock@reader_writer_lock@interface5@tbb@@@internal@tbb@@QEAAPEAVscoped_lock@reader_writer_lock@interface5@2@PEAV3452@@Z 000000018001b890 f i reader_writer_lock.obj
 0001:0001a8e0       ??$fetch_and_store@$0A@@?$atomic_impl@PEAVscoped_lock_read@reader_writer_lock@interface5@tbb@@@internal@tbb@@QEAAPEAVscoped_lock_read@reader_writer_lock@interface5@2@PEAV3452@@Z 000000018001b8e0 f i reader_writer_lock.obj
 0001:0001a930       ??$spin_wait_until_and@U?$atomic@_K@tbb@@_K@interface5@tbb@@YAXAEDU?$atomic@_K@1@_K@Z 000000018001b930 f i reader_writer_lock.obj
 0001:0001a9a0       ??$spin_wait_while_eq@PEAVscoped_lock@reader_writer_lock@interface5@tbb@@PEAV1234@@internal@tbb@@YAXAEDSEAVscoped_lock@reader_writer_lock@interface5@1@PEAV2341@@Z 000000018001b9a0 f i reader_writer_lock.obj
 0001:0001aa00       ??$spin_wait_while_eq@U?$atomic@W4status_t@reader_writer_lock@interface5@tbb@@@tbb@@W4status_t@reader_writer_lock@interface5@2@@internal@tbb@@YAXAEDU?$atomic@W4status_t@reader_writer_lock@interface5@tbb@@@1@W4status_t@reader_writer_lock@interface5@1@@Z 000000018001ba00 f i reader_writer_lock.obj
 0001:0001aa60       ??$spin_wait_while_geq@U?$atomic@_K@tbb@@_K@interface5@tbb@@YAXAEDU?$atomic@_K@1@_K@Z 000000018001ba60 f i reader_writer_lock.obj
 0001:0001aac0       ??$to_bits@PEAVscoped_lock@reader_writer_lock@interface5@tbb@@@?$atomic_impl@PEAVscoped_lock@reader_writer_lock@interface5@tbb@@@internal@tbb@@CA_JPEAVscoped_lock@reader_writer_lock@interface5@2@@Z 000000018001bac0 f i reader_writer_lock.obj
 0001:0001ab00       ??$to_bits@PEAVscoped_lock_read@reader_writer_lock@interface5@tbb@@@?$atomic_impl@PEAVscoped_lock_read@reader_writer_lock@interface5@tbb@@@internal@tbb@@CA_JPEAVscoped_lock_read@reader_writer_lock@interface5@2@@Z 000000018001bb00 f i reader_writer_lock.obj
 0001:0001ab40       ??$to_bits@W4status_t@reader_writer_lock@interface5@tbb@@@?$atomic_impl@W4status_t@reader_writer_lock@interface5@tbb@@@internal@tbb@@CAHW4status_t@reader_writer_lock@interface5@2@@Z 000000018001bb40 f i reader_writer_lock.obj
 0001:0001ab80       ??$to_bits_ref@$$CDW4status_t@reader_writer_lock@interface5@tbb@@@?$atomic_impl@W4status_t@reader_writer_lock@interface5@tbb@@@internal@tbb@@CAAEAHAEDW4status_t@reader_writer_lock@interface5@2@@Z 000000018001bb80 f i reader_writer_lock.obj
 0001:0001abc0       ??$to_bits_ref@PEAVscoped_lock@reader_writer_lock@interface5@tbb@@@?$atomic_impl@PEAVscoped_lock@reader_writer_lock@interface5@tbb@@@internal@tbb@@CAAEA_JAEAPEAVscoped_lock@reader_writer_lock@interface5@2@@Z 000000018001bbc0 f i reader_writer_lock.obj
 0001:0001ac00       ??$to_bits_ref@PEAVscoped_lock_read@reader_writer_lock@interface5@tbb@@@?$atomic_impl@PEAVscoped_lock_read@reader_writer_lock@interface5@tbb@@@internal@tbb@@CAAEA_JAEAPEAVscoped_lock_read@reader_writer_lock@interface5@2@@Z 000000018001bc00 f i reader_writer_lock.obj
 0001:0001ac40       ??$to_bits_ref@SEAVscoped_lock@reader_writer_lock@interface5@tbb@@@?$atomic_impl@PEAVscoped_lock@reader_writer_lock@interface5@tbb@@@internal@tbb@@CAAEA_JAEDSEAVscoped_lock@reader_writer_lock@interface5@2@@Z 000000018001bc40 f i reader_writer_lock.obj
 0001:0001ac80       ??$to_bits_ref@SEAVscoped_lock_read@reader_writer_lock@interface5@tbb@@@?$atomic_impl@PEAVscoped_lock_read@reader_writer_lock@interface5@tbb@@@internal@tbb@@CAAEA_JAEDSEAVscoped_lock_read@reader_writer_lock@interface5@2@@Z 000000018001bc80 f i reader_writer_lock.obj
 0001:0001acc0       ??$to_bits_ref@W4status_t@reader_writer_lock@interface5@tbb@@@?$atomic_impl@W4status_t@reader_writer_lock@interface5@tbb@@@internal@tbb@@CAAEAHAEAW4status_t@reader_writer_lock@interface5@2@@Z 000000018001bcc0 f i reader_writer_lock.obj
 0001:0001ad00       ??$to_value@PEAVscoped_lock@reader_writer_lock@interface5@tbb@@@?$atomic_impl@PEAVscoped_lock@reader_writer_lock@interface5@tbb@@@internal@tbb@@CAPEAVscoped_lock@reader_writer_lock@interface5@2@_J@Z 000000018001bd00 f i reader_writer_lock.obj
 0001:0001ad60       ??$to_value@PEAVscoped_lock_read@reader_writer_lock@interface5@tbb@@@?$atomic_impl@PEAVscoped_lock_read@reader_writer_lock@interface5@tbb@@@internal@tbb@@CAPEAVscoped_lock_read@reader_writer_lock@interface5@2@_J@Z 000000018001bd60 f i reader_writer_lock.obj
 0001:0001adc0       ??$to_value@W4status_t@reader_writer_lock@interface5@tbb@@@?$atomic_impl@W4status_t@reader_writer_lock@interface5@tbb@@@internal@tbb@@CA?AW4status_t@reader_writer_lock@interface5@2@H@Z 000000018001bdc0 f i reader_writer_lock.obj
 0001:0001ae10       ??0?$converter@PEAVscoped_lock@reader_writer_lock@interface5@tbb@@@?$atomic_impl@PEAVscoped_lock@reader_writer_lock@interface5@tbb@@@internal@tbb@@QEAA@PEAVscoped_lock@reader_writer_lock@interface5@3@@Z 000000018001be10 f i reader_writer_lock.obj
 0001:0001ae30       ??0?$converter@PEAVscoped_lock@reader_writer_lock@interface5@tbb@@@?$atomic_impl@PEAVscoped_lock@reader_writer_lock@interface5@tbb@@@internal@tbb@@QEAA@XZ 000000018001be30 f i reader_writer_lock.obj
 0001:0001ae40       ??0?$converter@PEAVscoped_lock_read@reader_writer_lock@interface5@tbb@@@?$atomic_impl@PEAVscoped_lock_read@reader_writer_lock@interface5@tbb@@@internal@tbb@@QEAA@PEAVscoped_lock_read@reader_writer_lock@interface5@3@@Z 000000018001be40 f i reader_writer_lock.obj
 0001:0001ae60       ??0?$converter@PEAVscoped_lock_read@reader_writer_lock@interface5@tbb@@@?$atomic_impl@PEAVscoped_lock_read@reader_writer_lock@interface5@tbb@@@internal@tbb@@QEAA@XZ 000000018001be60 f i reader_writer_lock.obj
 0001:0001ae70       ??0?$converter@W4status_t@reader_writer_lock@interface5@tbb@@@?$atomic_impl@W4status_t@reader_writer_lock@interface5@tbb@@@internal@tbb@@QEAA@W4status_t@reader_writer_lock@interface5@3@@Z 000000018001be70 f i reader_writer_lock.obj
 0001:0001ae90       ??0?$converter@W4status_t@reader_writer_lock@interface5@tbb@@@?$atomic_impl@W4status_t@reader_writer_lock@interface5@tbb@@@internal@tbb@@QEAA@XZ 000000018001be90 f i reader_writer_lock.obj
 0001:0001aea0       ??0?$ptr_converter@PEAPEAVscoped_lock@reader_writer_lock@interface5@tbb@@@?$atomic_impl@PEAVscoped_lock@reader_writer_lock@interface5@tbb@@@internal@tbb@@QEAA@PEAPEAVscoped_lock@reader_writer_lock@interface5@3@@Z 000000018001bea0 f i reader_writer_lock.obj
 0001:0001aec0       ??0?$ptr_converter@PEAPEAVscoped_lock_read@reader_writer_lock@interface5@tbb@@@?$atomic_impl@PEAVscoped_lock_read@reader_writer_lock@interface5@tbb@@@internal@tbb@@QEAA@PEAPEAVscoped_lock_read@reader_writer_lock@interface5@3@@Z 000000018001bec0 f i reader_writer_lock.obj
 0001:0001aee0       ??0?$ptr_converter@PEAW4status_t@reader_writer_lock@interface5@tbb@@@?$atomic_impl@W4status_t@reader_writer_lock@interface5@tbb@@@internal@tbb@@QEAA@PEAW4status_t@reader_writer_lock@interface5@3@@Z 000000018001bee0 f i reader_writer_lock.obj
 0001:0001af00       ??0?$ptr_converter@PEDSEAVscoped_lock@reader_writer_lock@interface5@tbb@@@?$atomic_impl@PEAVscoped_lock@reader_writer_lock@interface5@tbb@@@internal@tbb@@QEAA@PEDSEAVscoped_lock@reader_writer_lock@interface5@3@@Z 000000018001bf00 f i reader_writer_lock.obj
 0001:0001af20       ??0?$ptr_converter@PEDSEAVscoped_lock_read@reader_writer_lock@interface5@tbb@@@?$atomic_impl@PEAVscoped_lock_read@reader_writer_lock@interface5@tbb@@@internal@tbb@@QEAA@PEDSEAVscoped_lock_read@reader_writer_lock@interface5@3@@Z 000000018001bf20 f i reader_writer_lock.obj
 0001:0001af40       ??0?$ptr_converter@PEDW4status_t@reader_writer_lock@interface5@tbb@@@?$atomic_impl@W4status_t@reader_writer_lock@interface5@tbb@@@internal@tbb@@QEAA@PEDW4status_t@reader_writer_lock@interface5@3@@Z 000000018001bf40 f i reader_writer_lock.obj
 0001:0001af60       ??0id@tbb_thread_v3@internal@tbb@@QEAA@XZ 000000018001bf60 f i reader_writer_lock.obj
 0001:0001af80       ??0scoped_lock@reader_writer_lock@interface5@tbb@@AEAA@XZ 000000018001bf80 f i reader_writer_lock.obj
 0001:0001aff0       ??0scoped_lock_read@reader_writer_lock@interface5@tbb@@AEAA@XZ 000000018001bff0 f i reader_writer_lock.obj
 0001:0001b060       ??1scoped_lock@reader_writer_lock@interface5@tbb@@QEAA@XZ 000000018001c060 f i reader_writer_lock.obj
 0001:0001b0a0       ??1scoped_lock_read@reader_writer_lock@interface5@tbb@@QEAA@XZ 000000018001c0a0 f i reader_writer_lock.obj
 0001:0001b0e0       ??2scoped_lock@reader_writer_lock@interface5@tbb@@SAPEAX_K@Z 000000018001c0e0 f i reader_writer_lock.obj
 0001:0001b110       ??3scoped_lock@reader_writer_lock@interface5@tbb@@SAXPEAX@Z 000000018001c110 f i reader_writer_lock.obj
 0001:0001b150       ??4?$atomic@PEAVscoped_lock@reader_writer_lock@interface5@tbb@@@tbb@@QEAAPEAVscoped_lock@reader_writer_lock@interface5@1@PEAV2341@@Z 000000018001c150 f i reader_writer_lock.obj
 0001:0001b190       ??4?$atomic@PEAVscoped_lock_read@reader_writer_lock@interface5@tbb@@@tbb@@QEAAPEAVscoped_lock_read@reader_writer_lock@interface5@1@PEAV2341@@Z 000000018001c190 f i reader_writer_lock.obj
 0001:0001b1d0       ??4?$atomic@W4status_t@reader_writer_lock@interface5@tbb@@@tbb@@QEAA?AW4status_t@reader_writer_lock@interface5@1@W42341@@Z 000000018001c1d0 f i reader_writer_lock.obj
 0001:0001b210       ??8internal@tbb@@YA_NVid@tbb_thread_v3@01@0@Z 000000018001c210 f i reader_writer_lock.obj
 0001:0001b260       ??9internal@tbb@@YA_NVid@tbb_thread_v3@01@0@Z 000000018001c260 f i reader_writer_lock.obj
 0001:0001b2b0       ??B?$atomic_impl@PEAVscoped_lock@reader_writer_lock@interface5@tbb@@@internal@tbb@@QEDAPEAVscoped_lock@reader_writer_lock@interface5@2@XZ 000000018001c2b0 f i reader_writer_lock.obj
 0001:0001b300       ??B?$atomic_impl@PEAVscoped_lock_read@reader_writer_lock@interface5@tbb@@@internal@tbb@@QEDAPEAVscoped_lock_read@reader_writer_lock@interface5@2@XZ 000000018001c300 f i reader_writer_lock.obj
 0001:0001b350       ??B?$atomic_impl@W4status_t@reader_writer_lock@interface5@tbb@@@internal@tbb@@QEDA?AW4status_t@reader_writer_lock@interface5@2@XZ 000000018001c350 f i reader_writer_lock.obj
 0001:0001b390       ??C?$atomic@PEAVscoped_lock@reader_writer_lock@interface5@tbb@@@tbb@@QEBAPEAVscoped_lock@reader_writer_lock@interface5@1@XZ 000000018001c390 f i reader_writer_lock.obj
 0001:0001b3c0       ??Z?$atomic_impl_with_arithmetic@_K_KD@internal@tbb@@QEAA_K_K@Z 000000018001c3c0 f i reader_writer_lock.obj
 0001:0001b400       ??_Gscoped_lock@reader_writer_lock@interface5@tbb@@QEAAPEAXI@Z 000000018001c400 f i reader_writer_lock.obj
 0001:0001b470       ?compare_and_swap@?$atomic_impl@PEAVscoped_lock@reader_writer_lock@interface5@tbb@@@internal@tbb@@QEAAPEAVscoped_lock@reader_writer_lock@interface5@3@PEAV4563@0@Z 000000018001c470 f i reader_writer_lock.obj
 0001:0001b4c0       ?fetch_and_and@interface5@tbb@@YA_KAEAU?$atomic@_K@2@_K@Z 000000018001c4c0 f i reader_writer_lock.obj
 0001:0001b560       ?fetch_and_or@interface5@tbb@@YA_KAEAU?$atomic@_K@2@_K@Z 000000018001c560 f i reader_writer_lock.obj
 0001:0001b600       ?fetch_and_store@?$atomic_impl@PEAVscoped_lock@reader_writer_lock@interface5@tbb@@@internal@tbb@@QEAAPEAVscoped_lock@reader_writer_lock@interface5@3@PEAV4563@@Z 000000018001c600 f i reader_writer_lock.obj
 0001:0001b640       ?fetch_and_store@?$atomic_impl@PEAVscoped_lock_read@reader_writer_lock@interface5@tbb@@@internal@tbb@@QEAAPEAVscoped_lock_read@reader_writer_lock@interface5@3@PEAV4563@@Z 000000018001c640 f i reader_writer_lock.obj
 0001:0001b680       ?fetch_and_store@?$atomic_traits@$07$0A@@internal@tbb@@SA_JPECX_J@Z 000000018001c680 f i reader_writer_lock.obj
 0001:0001b6c0       ?get_id@this_tbb_thread@tbb@@YA?AVid@tbb_thread_v3@internal@2@XZ 000000018001c6c0 f i reader_writer_lock.obj
 0001:0001b700       ?is_current_writer@reader_writer_lock@interface5@tbb@@AEAA_NXZ 000000018001c700 f i reader_writer_lock.obj
 0001:0001b740       ?store_with_release@?$atomic_impl@PEAVscoped_lock@reader_writer_lock@interface5@tbb@@@internal@tbb@@IEAAPEAVscoped_lock@reader_writer_lock@interface5@3@PEAV4563@@Z 000000018001c740 f i reader_writer_lock.obj
 0001:0001b7a0       ?store_with_release@?$atomic_impl@PEAVscoped_lock_read@reader_writer_lock@interface5@tbb@@@internal@tbb@@IEAAPEAVscoped_lock_read@reader_writer_lock@interface5@3@PEAV4563@@Z 000000018001c7a0 f i reader_writer_lock.obj
 0001:0001b800       ?store_with_release@?$atomic_impl@W4status_t@reader_writer_lock@interface5@tbb@@@internal@tbb@@IEAA?AW4status_t@reader_writer_lock@interface5@3@W44563@@Z 000000018001c800 f i reader_writer_lock.obj
 0001:0001b970       ?internal_acquire_writer@spin_rw_mutex_v3@tbb@@AEAA_NXZ 000000018001c970 f   spin_rw_mutex.obj
 0001:0001ba60       ?internal_release_writer@spin_rw_mutex_v3@tbb@@AEAAXXZ 000000018001ca60 f   spin_rw_mutex.obj
 0001:0001bac0       ?internal_acquire_reader@spin_rw_mutex_v3@tbb@@AEAAXXZ 000000018001cac0 f   spin_rw_mutex.obj
 0001:0001bbd0       ?internal_upgrade@spin_rw_mutex_v3@tbb@@AEAA_NXZ 000000018001cbd0 f   spin_rw_mutex.obj
 0001:0001bd70       ?internal_downgrade@spin_rw_mutex_v3@tbb@@AEAAXXZ 000000018001cd70 f   spin_rw_mutex.obj
 0001:0001be00       ?internal_release_reader@spin_rw_mutex_v3@tbb@@AEAAXXZ 000000018001ce00 f   spin_rw_mutex.obj
 0001:0001be90       ?internal_try_acquire_writer@spin_rw_mutex_v3@tbb@@AEAA_NXZ 000000018001ce90 f   spin_rw_mutex.obj
 0001:0001bf10       ?internal_try_acquire_reader@spin_rw_mutex_v3@tbb@@AEAA_NXZ 000000018001cf10 f   spin_rw_mutex.obj
 0001:0001bfb0       ?internal_construct@spin_rw_mutex_v3@tbb@@AEAAXXZ 000000018001cfb0 f   spin_rw_mutex.obj
 0001:0001c060       ??$as_atomic@$$CC_J@internal@tbb@@YAAEAU?$atomic@$$CC_J@1@AEC_J@Z 000000018001d060 f i spin_rw_mutex.obj
 0001:0001c070       ??$compare_and_swap@$0A@@?$atomic_impl@$$CC_J@internal@tbb@@QEAA?C_J_J0@Z 000000018001d070 f i spin_rw_mutex.obj
 0001:0001c0e0       ??$to_bits@_J@?$atomic_impl@$$CC_J@internal@tbb@@CA_J_J@Z 000000018001d0e0 f i spin_rw_mutex.obj
 0001:0001c120       ??$to_value@$$CC_J@?$atomic_impl@$$CC_J@internal@tbb@@CA?C_J_J@Z 000000018001d120 f i spin_rw_mutex.obj
 0001:0001c180       ??0?$converter@$$CC_J@?$atomic_impl@$$CC_J@internal@tbb@@QEAA@XZ 000000018001d180 f i spin_rw_mutex.obj
 0001:0001c190       ??0?$converter@_J@?$atomic_impl@$$CC_J@internal@tbb@@QEAA@_J@Z 000000018001d190 f i spin_rw_mutex.obj
 0001:0001c1b0       ?compare_and_swap@?$atomic_impl@$$CC_J@internal@tbb@@QEAA?C_J_J0@Z 000000018001d1b0 f i spin_rw_mutex.obj
 0001:0001c200       ?reset@atomic_backoff@internal@tbb@@QEAAXXZ 000000018001d200 f i spin_rw_mutex.obj
 0001:0001c250       ?internal_construct@x86_rtm_rw_mutex@internal@interface8@tbb@@AEAAXXZ 000000018001d250 f   x86_rtm_rw_mutex.obj
 0001:0001c2b0       ?internal_acquire_writer@x86_rtm_rw_mutex@internal@interface8@tbb@@AEAAXAEAVscoped_lock@1234@_N@Z 000000018001d2b0 f   x86_rtm_rw_mutex.obj
 0001:0001c450       ?internal_acquire_reader@x86_rtm_rw_mutex@internal@interface8@tbb@@AEAAXAEAVscoped_lock@1234@_N@Z 000000018001d450 f   x86_rtm_rw_mutex.obj
 0001:0001c5d0       ?internal_upgrade@x86_rtm_rw_mutex@internal@interface8@tbb@@AEAA_NAEAVscoped_lock@1234@@Z 000000018001d5d0 f   x86_rtm_rw_mutex.obj
 0001:0001c700       ?internal_downgrade@x86_rtm_rw_mutex@internal@interface8@tbb@@AEAA_NAEAVscoped_lock@1234@@Z 000000018001d700 f   x86_rtm_rw_mutex.obj
 0001:0001c7f0       ?internal_try_acquire_writer@x86_rtm_rw_mutex@internal@interface8@tbb@@AEAA_NAEAVscoped_lock@1234@@Z 000000018001d7f0 f   x86_rtm_rw_mutex.obj
 0001:0001c8f0       ?internal_release@x86_rtm_rw_mutex@internal@interface8@tbb@@AEAAXAEAVscoped_lock@1234@@Z 000000018001d8f0 f   x86_rtm_rw_mutex.obj
 0001:0001caa0       ?acquire@scoped_lock@spin_rw_mutex_v3@tbb@@QEAAXAEAV23@_N@Z 000000018001daa0 f i x86_rtm_rw_mutex.obj
 0001:0001cb40       ?downgrade_to_reader@scoped_lock@spin_rw_mutex_v3@tbb@@QEAA_NXZ 000000018001db40 f i x86_rtm_rw_mutex.obj
 0001:0001cbe0       ?internal_set_mutex@scoped_lock@spin_rw_mutex_v3@tbb@@AEAAXPEAV23@@Z 000000018001dbe0 f i x86_rtm_rw_mutex.obj
 0001:0001cc00       ?release@scoped_lock@spin_rw_mutex_v3@tbb@@QEAAXXZ 000000018001dc00 f i x86_rtm_rw_mutex.obj
 0001:0001cc90       ?speculation_enabled@governor@internal@tbb@@SA_NXZ 000000018001dc90 f i x86_rtm_rw_mutex.obj
 0001:0001cca0       ?try_acquire@scoped_lock@spin_rw_mutex_v3@tbb@@QEAA_NAEAV23@_N@Z 000000018001dca0 f i x86_rtm_rw_mutex.obj
 0001:0001cd60       ?upgrade_to_writer@scoped_lock@spin_rw_mutex_v3@tbb@@QEAA_NXZ 000000018001dd60 f i x86_rtm_rw_mutex.obj
 0001:0001ce80       ?internal_acquire@scoped_lock@spin_mutex@tbb@@AEAAXAEAV23@@Z 000000018001de80 f   spin_mutex.obj
 0001:0001cf30       ?internal_try_acquire@scoped_lock@spin_mutex@tbb@@AEAA_NAEAV23@@Z 000000018001df30 f   spin_mutex.obj
 0001:0001cfd0       ?internal_release@scoped_lock@spin_mutex@tbb@@AEAAXXZ 000000018001dfd0 f   spin_mutex.obj
 0001:0001d060       ?internal_construct@spin_mutex@tbb@@QEAAXXZ 000000018001e060 f   spin_mutex.obj
 0001:0001d0b0       ?__TBB_LockByte@@YAEAEAE@Z 000000018001e0b0 f i spin_mutex.obj
 0001:0001d120       ?__TBB_TryLockByte@@YA_NAEAE@Z 000000018001e120 f i spin_mutex.obj
 0001:0001d180       ?internal_construct@critical_section_v4@internal@tbb@@QEAAXXZ 000000018001e180 f   critical_section.obj
 0001:0001d1e0       ?internal_acquire@scoped_lock@mutex@tbb@@AEAAXAEAV23@@Z 000000018001e1e0 f   mutex.obj
 0001:0001d2e0       ?internal_try_acquire@scoped_lock@mutex@tbb@@AEAA_NAEAV23@@Z 000000018001e2e0 f   mutex.obj
 0001:0001d420       ?internal_release@scoped_lock@mutex@tbb@@AEAAXXZ 000000018001e420 f   mutex.obj
 0001:0001d550       ?internal_construct@mutex@tbb@@AEAAXXZ 000000018001e550 f   mutex.obj
 0001:0001d5d0       ?internal_destroy@mutex@tbb@@AEAAXXZ 000000018001e5d0 f   mutex.obj
 0001:0001d690       ?inlineInitializeCriticalSectionEx@@YAHPEAU_RTL_CRITICAL_SECTION@@KK@Z 000000018001e690 f i mutex.obj
 0001:0001d6d0       ?internal_acquire@scoped_lock@recursive_mutex@tbb@@AEAAXAEAV23@@Z 000000018001e6d0 f   recursive_mutex.obj
 0001:0001d790       ?internal_try_acquire@scoped_lock@recursive_mutex@tbb@@AEAA_NAEAV23@@Z 000000018001e790 f   recursive_mutex.obj
 0001:0001d880       ?internal_release@scoped_lock@recursive_mutex@tbb@@AEAAXXZ 000000018001e880 f   recursive_mutex.obj
 0001:0001d970       ?internal_construct@recursive_mutex@tbb@@AEAAXXZ 000000018001e970 f   recursive_mutex.obj
 0001:0001d9f0       ?internal_destroy@recursive_mutex@tbb@@AEAAXXZ 000000018001e9f0 f   recursive_mutex.obj
 0001:0001db30       ?internal_initialize_condition_variable@internal@interface5@tbb@@YAXAEATcondvar_impl_t@123@@Z 000000018001eb30 f   condition_variable.obj
 0001:0001db90       ?internal_destroy_condition_variable@internal@interface5@tbb@@YAXAEATcondvar_impl_t@123@@Z 000000018001eb90 f   condition_variable.obj
 0001:0001dbd0       ?internal_condition_variable_notify_one@internal@interface5@tbb@@YAXAEATcondvar_impl_t@123@@Z 000000018001ebd0 f   condition_variable.obj
 0001:0001dc10       ?internal_condition_variable_notify_all@internal@interface5@tbb@@YAXAEATcondvar_impl_t@123@@Z 000000018001ec10 f   condition_variable.obj
 0001:0001dc50       ?internal_condition_variable_wait@internal@interface5@tbb@@YA_NAEATcondvar_impl_t@123@PEAVmutex@3@PEBVinterval_t@tick_count@3@@Z 000000018001ec50 f   condition_variable.obj
 0001:0001dd10       ?init_condvar_using_event@internal@tbb@@YAXPEAUcondition_variable_using_event@1interface5@2@@Z 000000018001ed10 f   condition_variable.obj
 0001:0001dda0       ?sleep_condition_variable_cs_using_event@internal@tbb@@YAHPEAUcondition_variable_using_event@1interface5@2@PEAU_RTL_CRITICAL_SECTION@@K@Z 000000018001eda0 f   condition_variable.obj
 0001:0001df90       ?wake_condition_variable_using_event@internal@tbb@@YAXPEAUcondition_variable_using_event@1interface5@2@@Z 000000018001ef90 f   condition_variable.obj
 0001:0001e030       ?wake_all_condition_variable_using_event@internal@tbb@@YAXPEAUcondition_variable_using_event@1interface5@2@@Z 000000018001f030 f   condition_variable.obj
 0001:0001e0c0       ?destroy_condvar_using_event@internal@tbb@@YAXPEAUcondition_variable_using_event@1interface5@2@@Z 000000018001f0c0 f   condition_variable.obj
 0001:0001e180       ?destroy_condvar_noop@internal@tbb@@YAXPEAU_RTL_CONDITION_VARIABLE@@@Z 000000018001f180 f   condition_variable.obj
 0001:0001e190       ?init_condvar_module@internal@tbb@@YAXXZ 000000018001f190 f   condition_variable.obj
 0001:0001e220       ??$spin_wait_until_eq@HH@internal@tbb@@YAXAEDHH@Z 000000018001f220 f i condition_variable.obj
 0001:0001e280       ?inlineCreateEventEx@@YAPEAXPEAU_SECURITY_ATTRIBUTES@@PEBDKK@Z 000000018001f280 f i condition_variable.obj
 0001:0001e320       ?native_handle@mutex@tbb@@QEAAPEAU_RTL_CRITICAL_SECTION@@XZ 000000018001f320 f i condition_variable.obj
 0001:0001e330       ?resolution@tick_count@tbb@@SANXZ 000000018001f330 f i condition_variable.obj
 0001:0001e370       ?seconds@interval_t@tick_count@tbb@@QEBANXZ 000000018001f370 f i condition_variable.obj
 0001:0001e3c0       ?set_state@mutex@tbb@@QEAAXW4state_t@12@@Z 000000018001f3c0 f i condition_variable.obj
 0001:0001e3e0       ?ticks_per_second@interval_t@tick_count@tbb@@CA_JXZ 000000018001f3e0 f i condition_variable.obj
 0001:0001e450       ?allocate_closure_v3@internal@tbb@@YAPEAX_K@Z 000000018001f450 f   tbb_thread.obj
 0001:0001e490       ?free_closure_v3@internal@tbb@@YAXPEAX@Z 000000018001f490 f   tbb_thread.obj
 0001:0001e4d0       ?join@tbb_thread_v3@internal@tbb@@QEAAXXZ 000000018001f4d0 f   tbb_thread.obj
 0001:0001e5d0       ?detach@tbb_thread_v3@internal@tbb@@QEAAXXZ 000000018001f5d0 f   tbb_thread.obj
 0001:0001e660       ?hardware_concurrency@tbb_thread_v3@internal@tbb@@SAIXZ 000000018001f660 f   tbb_thread.obj
 0001:0001e690       ?internal_start@tbb_thread_v3@internal@tbb@@AEAAXP6AIPEAX@Z0@Z 000000018001f690 f   tbb_thread.obj
 0001:0001e740       ?move_v3@internal@tbb@@YAXAEAVtbb_thread_v3@12@0@Z 000000018001f740 f   tbb_thread.obj
 0001:0001e7d0       ?thread_get_id_v3@internal@tbb@@YA?AVid@tbb_thread_v3@12@XZ 000000018001f7d0 f   tbb_thread.obj
 0001:0001e820       ?thread_yield_v3@internal@tbb@@YAXXZ 000000018001f820 f   tbb_thread.obj
 0001:0001e850       ?thread_sleep_v3@internal@tbb@@YAXAEBVinterval_t@tick_count@2@@Z 000000018001f850 f   tbb_thread.obj
 0001:0001e950       ??0id@tbb_thread_v3@internal@tbb@@AEAA@K@Z 000000018001f950 f i tbb_thread.obj
 0001:0001e970       ??0interval_t@tick_count@tbb@@AEAA@_J@Z 000000018001f970 f i tbb_thread.obj
 0001:0001e990       ??0tick_count@tbb@@QEAA@XZ 000000018001f990 f i tbb_thread.obj
 0001:0001e9b0       ??Gtbb@@YA?AVinterval_t@tick_count@0@AEBV120@0@Z 000000018001f9b0 f i tbb_thread.obj
 0001:0001ea10       ??Gtbb@@YA?AVinterval_t@tick_count@0@AEBV20@0@Z 000000018001fa10 f i tbb_thread.obj
 0001:0001ea70       ?active_value@global_control@interface9@tbb@@SA_KW4parameter@123@@Z 000000018001fa70 f i tbb_thread.obj
 0001:0001ead0       ?default_num_threads@governor@internal@tbb@@SAIXZ 000000018001fad0 f i tbb_thread.obj
 0001:0001eb20       ?get_id@tbb_thread_v3@internal@tbb@@QEBA?AVid@123@XZ 000000018001fb20 f i tbb_thread.obj
 0001:0001eb70       ?joinable@tbb_thread_v3@internal@tbb@@QEBA_NXZ 000000018001fb70 f i tbb_thread.obj
 0001:0001ebc0       ?now@tick_count@tbb@@SA?AV12@XZ 000000018001fbc0 f i tbb_thread.obj
 0001:0001ec60       ?init@thread_context@concurrent_monitor@internal@tbb@@AEAAXXZ 000000018001fc60 f   concurrent_monitor.obj
 0001:0001ecc0       ??1concurrent_monitor@internal@tbb@@QEAA@XZ 000000018001fcc0 f   concurrent_monitor.obj
 0001:0001ed50       ?prepare_wait@concurrent_monitor@internal@tbb@@QEAAXAEAVthread_context@123@_K@Z 000000018001fd50 f   concurrent_monitor.obj
 0001:0001ee60       ?cancel_wait@concurrent_monitor@internal@tbb@@QEAAXAEAVthread_context@123@@Z 000000018001fe60 f   concurrent_monitor.obj
 0001:0001ef40       ?notify_one_relaxed@concurrent_monitor@internal@tbb@@QEAAXXZ 000000018001ff40 f   concurrent_monitor.obj
 0001:0001f080       ?notify_all_relaxed@concurrent_monitor@internal@tbb@@QEAAXXZ 0000000180020080 f   concurrent_monitor.obj
 0001:0001f240       ?abort_all_relaxed@concurrent_monitor@internal@tbb@@QEAAXXZ 0000000180020240 f   concurrent_monitor.obj
 0001:0001f410       ??0binary_semaphore@internal@tbb@@QEAA@XZ 0000000180020410 f i concurrent_monitor.obj
 0001:0001f460       ?flush_to@circular_doubly_linked_list_with_sentinel@internal@tbb@@QEAAXAEAV123@@Z 0000000180020460 f i concurrent_monitor.obj
 0001:0001f5a0       ?join@thread_monitor@internal@rml@@SAXPEAX@Z 00000001800205a0 f   private_server.obj
 0001:0001f640       ?detach_thread@thread_monitor@internal@rml@@SAXPEAX@Z 0000000180020640 f   private_server.obj
 0001:0001f6a0       ?run@private_worker@rml@internal@tbb@@AEAAXXZ 00000001800206a0 f   private_server.obj
 0001:0001f810       ?start_shutdown@private_worker@rml@internal@tbb@@AEAAXXZ 0000000180020810 f   private_server.obj
 0001:0001f8f0       ?thread_routine@private_worker@rml@internal@tbb@@CAIPEAX@Z 00000001800208f0 f   private_server.obj
 0001:0001fa20       ?release_handle@private_worker@rml@internal@tbb@@CAXPEAX_N@Z 0000000180020a20 f   private_server.obj
 0001:0001fa70       ?wake_some@private_server@rml@internal@tbb@@AEAAXH@Z 0000000180020a70 f   private_server.obj
 0001:0001fc90       ??1private_server@rml@internal@tbb@@EEAA@XZ 0000000180020c90 f   private_server.obj
 0001:0001fda0       ??0private_server@rml@internal@tbb@@QEAA@AEAVtbb_client@123@@Z 0000000180020da0 f   private_server.obj
 0001:0001ff80       ?adjust_job_count_estimate@private_server@rml@internal@tbb@@UEAAXH@Z 0000000180020f80 f   private_server.obj
 0001:00020000       ?make_private_server@rml@internal@tbb@@YAPEAVtbb_server@123@AEAVtbb_client@123@@Z 0000000180021000 f   private_server.obj
 0001:00020060       ??$compare_and_swap@$0A@@?$atomic_impl@H@internal@tbb@@QEAAHHH@Z 0000000180021060 f i private_server.obj
 0001:000200c0       ??$compare_and_swap@$0A@@?$atomic_impl@W4state_t@private_worker@rml@internal@tbb@@@internal@tbb@@QEAA?AW4state_t@private_worker@rml@12@W434512@0@Z 00000001800210c0 f i private_server.obj
 0001:00020120       ??$fetch_and_add@$0A@@?$atomic_impl_with_arithmetic@HHD@internal@tbb@@QEAAHH@Z 0000000180021120 f i private_server.obj
 0001:00020160       ??$fetch_and_store@$0A@@?$atomic_impl@_N@internal@tbb@@QEAA_N_N@Z 0000000180021160 f i private_server.obj
 0001:000201b0       ??$poison_pointer@Vpadded_private_worker@rml@internal@tbb@@@internal@tbb@@YAXAEAPEAVpadded_private_worker@rml@01@@Z 00000001800211b0 f i private_server.obj
 0001:000201d0       ??$suppress_unused_warning@$$BY0DI@D@internal@tbb@@YAXAEAY0DI@$$CBD@Z 00000001800211d0 f i private_server.obj
 0001:000201e0       ??$to_bits@H@?$atomic_impl@H@internal@tbb@@CAHH@Z 00000001800211e0 f i private_server.obj
 0001:00020220       ??$to_bits@PEAVprivate_worker@rml@internal@tbb@@@?$atomic_impl@PEAVprivate_worker@rml@internal@tbb@@@internal@tbb@@CA_JPEAVprivate_worker@rml@12@@Z 0000000180021220 f i private_server.obj
 0001:00020260       ??$to_bits@W4state_t@private_worker@rml@internal@tbb@@@?$atomic_impl@W4state_t@private_worker@rml@internal@tbb@@@internal@tbb@@CAHW4state_t@private_worker@rml@12@@Z 0000000180021260 f i private_server.obj
 0001:000202a0       ??$to_bits_ref@$$CDH@?$atomic_impl@H@internal@tbb@@CAAEAHAEDH@Z 00000001800212a0 f i private_server.obj
 0001:000202e0       ??$to_bits_ref@$$CDW4state_t@private_worker@rml@internal@tbb@@@?$atomic_impl@W4state_t@private_worker@rml@internal@tbb@@@internal@tbb@@CAAEAHAEDW4state_t@private_worker@rml@12@@Z 00000001800212e0 f i private_server.obj
 0001:00020320       ??$to_bits_ref@H@?$atomic_impl@H@internal@tbb@@CAAEAHAEAH@Z 0000000180021320 f i private_server.obj
 0001:00020360       ??$to_bits_ref@PEAVprivate_worker@rml@internal@tbb@@@?$atomic_impl@PEAVprivate_worker@rml@internal@tbb@@@internal@tbb@@CAAEA_JAEAPEAVprivate_worker@rml@12@@Z 0000000180021360 f i private_server.obj
 0001:000203a0       ??$to_bits_ref@SEAVprivate_worker@rml@internal@tbb@@@?$atomic_impl@PEAVprivate_worker@rml@internal@tbb@@@internal@tbb@@CAAEA_JAEDSEAVprivate_worker@rml@12@@Z 00000001800213a0 f i private_server.obj
 0001:000203e0       ??$to_bits_ref@W4state_t@private_worker@rml@internal@tbb@@@?$atomic_impl@W4state_t@private_worker@rml@internal@tbb@@@internal@tbb@@CAAEAHAEAW4state_t@private_worker@rml@12@@Z 00000001800213e0 f i private_server.obj
 0001:00020420       ??$to_value@H@?$atomic_impl@H@internal@tbb@@CAHH@Z 0000000180021420 f i private_server.obj
 0001:00020470       ??$to_value@PEAVprivate_worker@rml@internal@tbb@@@?$atomic_impl@PEAVprivate_worker@rml@internal@tbb@@@internal@tbb@@CAPEAVprivate_worker@rml@12@_J@Z 0000000180021470 f i private_server.obj
 0001:000204d0       ??$to_value@W4state_t@private_worker@rml@internal@tbb@@@?$atomic_impl@W4state_t@private_worker@rml@internal@tbb@@@internal@tbb@@CA?AW4state_t@private_worker@rml@12@H@Z 00000001800214d0 f i private_server.obj
 0001:00020520       ??0?$cache_aligned_allocator@Vpadded_private_worker@rml@internal@tbb@@@tbb@@QEAA@XZ 0000000180021520 f i private_server.obj
 0001:00020530       ??0?$cache_aligned_allocator@Vprivate_server@rml@internal@tbb@@@tbb@@QEAA@XZ 0000000180021530 f i private_server.obj
 0001:00020540       ??0?$converter@H@?$atomic_impl@H@internal@tbb@@QEAA@H@Z 0000000180021540 f i private_server.obj
 0001:00020560       ??0?$converter@H@?$atomic_impl@H@internal@tbb@@QEAA@XZ 0000000180021560 f i private_server.obj
 0001:00020570       ??0?$converter@PEAVprivate_worker@rml@internal@tbb@@@?$atomic_impl@PEAVprivate_worker@rml@internal@tbb@@@internal@tbb@@QEAA@PEAVprivate_worker@rml@23@@Z 0000000180021570 f i private_server.obj
 0001:00020590       ??0?$converter@PEAVprivate_worker@rml@internal@tbb@@@?$atomic_impl@PEAVprivate_worker@rml@internal@tbb@@@internal@tbb@@QEAA@XZ 0000000180021590 f i private_server.obj
 0001:000205a0       ??0?$converter@W4state_t@private_worker@rml@internal@tbb@@@?$atomic_impl@W4state_t@private_worker@rml@internal@tbb@@@internal@tbb@@QEAA@W4state_t@private_worker@rml@23@@Z 00000001800215a0 f i private_server.obj
 0001:000205c0       ??0?$converter@W4state_t@private_worker@rml@internal@tbb@@@?$atomic_impl@W4state_t@private_worker@rml@internal@tbb@@@internal@tbb@@QEAA@XZ 00000001800215c0 f i private_server.obj
 0001:000205d0       ??0?$ptr_converter@PEAH@?$atomic_impl@H@internal@tbb@@QEAA@PEAH@Z 00000001800215d0 f i private_server.obj
 0001:000205f0       ??0?$ptr_converter@PEAPEAVprivate_worker@rml@internal@tbb@@@?$atomic_impl@PEAVprivate_worker@rml@internal@tbb@@@internal@tbb@@QEAA@PEAPEAVprivate_worker@rml@23@@Z 00000001800215f0 f i private_server.obj
 0001:00020610       ??0?$ptr_converter@PEAW4state_t@private_worker@rml@internal@tbb@@@?$atomic_impl@W4state_t@private_worker@rml@internal@tbb@@@internal@tbb@@QEAA@PEAW4state_t@private_worker@rml@23@@Z 0000000180021610 f i private_server.obj
 0001:00020630       ??0?$ptr_converter@PEDH@?$atomic_impl@H@internal@tbb@@QEAA@PEDH@Z 0000000180021630 f i private_server.obj
 0001:00020650       ??0?$ptr_converter@PEDSEAVprivate_worker@rml@internal@tbb@@@?$atomic_impl@PEAVprivate_worker@rml@internal@tbb@@@internal@tbb@@QEAA@PEDSEAVprivate_worker@rml@23@@Z 0000000180021650 f i private_server.obj
 0001:00020670       ??0?$ptr_converter@PEDW4state_t@private_worker@rml@internal@tbb@@@?$atomic_impl@W4state_t@private_worker@rml@internal@tbb@@@internal@tbb@@QEAA@PEDW4state_t@private_worker@rml@23@@Z 0000000180021670 f i private_server.obj
 0001:00020690       ??0padded_private_worker@rml@internal@tbb@@QEAA@AEAVprivate_server@123@AEAVtbb_client@123@_K@Z 0000000180021690 f i private_server.obj
 0001:00020700       ??0private_worker@rml@internal@tbb@@IEAA@AEAVprivate_server@123@AEAVtbb_client@123@_K@Z 0000000180021700 f i private_server.obj
 0001:000207c0       ??0scoped_lock@spin_mutex@tbb@@QEAA@XZ 00000001800217c0 f i private_server.obj
 0001:00020810       ??0server@rml@@QEAA@XZ     0000000180021810 f i private_server.obj
 0001:00020860       ??0tbb_server@rml@internal@tbb@@QEAA@XZ 0000000180021860 f i private_server.obj
 0001:000208b0       ??0thread_monitor@internal@rml@@QEAA@XZ 00000001800218b0 f i private_server.obj
 0001:00020960       ??0versioned_object@rml@@QEAA@XZ 0000000180021960 f i private_server.obj
 0001:00020980       ??1padded_private_worker@rml@internal@tbb@@QEAA@XZ 0000000180021980 f i private_server.obj
 0001:000209b0       ??1private_worker@rml@internal@tbb@@QEAA@XZ 00000001800219b0 f i private_server.obj
 0001:000209f0       ??1thread_monitor@internal@rml@@QEAA@XZ 00000001800219f0 f i private_server.obj
 0001:00020a30       ??4?$atomic@H@tbb@@QEAAHH@Z 0000000180021a30 f i private_server.obj
 0001:00020a70       ??4?$atomic@PEAVprivate_worker@rml@internal@tbb@@@tbb@@QEAAPEAVprivate_worker@rml@internal@1@PEAV2341@@Z 0000000180021a70 f i private_server.obj
 0001:00020ab0       ??4?$atomic@W4state_t@private_worker@rml@internal@tbb@@@tbb@@QEAA?AW4state_t@private_worker@rml@internal@1@W423451@@Z 0000000180021ab0 f i private_server.obj
 0001:00020af0       ??4cookie@thread_monitor@internal@rml@@QEAAAEAV0123@AEBV0123@@Z 0000000180021af0 f i private_server.obj
 0001:00020b30       ??B?$atomic_impl@H@internal@tbb@@QEDAHXZ 0000000180021b30 f i private_server.obj
 0001:00020b70       ??B?$atomic_impl@PEAVprivate_worker@rml@internal@tbb@@@internal@tbb@@QEDAPEAVprivate_worker@rml@12@XZ 0000000180021b70 f i private_server.obj
 0001:00020bc0       ??B?$atomic_impl@W4state_t@private_worker@rml@internal@tbb@@@internal@tbb@@QEDA?AW4state_t@private_worker@rml@12@XZ 0000000180021bc0 f i private_server.obj
 0001:00020c00       ??E?$atomic_impl_with_arithmetic@HHD@internal@tbb@@QEAAHXZ 0000000180021c00 f i private_server.obj
 0001:00020c40       ??F?$atomic_impl_with_arithmetic@HHD@internal@tbb@@QEAAHXZ 0000000180021c40 f i private_server.obj
 0001:00020c80       ??Y?$atomic_impl_with_arithmetic@HHD@internal@tbb@@QEAAHH@Z 0000000180021c80 f i private_server.obj
 0001:00020cc0       ??_Gpadded_private_worker@rml@internal@tbb@@QEAAPEAXI@Z 0000000180021cc0 f i private_server.obj
 0001:00020d20       ??_Gprivate_server@rml@internal@tbb@@EEAAPEAXI@Z 0000000180021d20 f i private_server.obj
 0001:00020d20       ??_Eprivate_server@rml@internal@tbb@@EEAAPEAXI@Z 0000000180021d20 f i private_server.obj
 0001:00020d80       ?allocate@?$cache_aligned_allocator@Vpadded_private_worker@rml@internal@tbb@@@tbb@@QEAAPEAVpadded_private_worker@rml@internal@2@_KPEBX@Z 0000000180021d80 f i private_server.obj
 0001:00020dd0       ?allocate@?$cache_aligned_allocator@Vprivate_server@rml@internal@tbb@@@tbb@@QEAAPEAVprivate_server@rml@internal@2@_KPEBX@Z 0000000180021dd0 f i private_server.obj
 0001:00020e20       ?cancel_wait@thread_monitor@internal@rml@@QEAAXXZ 0000000180021e20 f i private_server.obj
 0001:00020e80       ?commit_wait@thread_monitor@internal@rml@@QEAAXAEAVcookie@123@@Z 0000000180021e80 f i private_server.obj
 0001:00020f10       ?compare_and_swap@?$atomic_impl@H@internal@tbb@@QEAAHHH@Z 0000000180021f10 f i private_server.obj
 0001:00020f50       ?compare_and_swap@?$atomic_impl@W4state_t@private_worker@rml@internal@tbb@@@internal@tbb@@QEAA?AW4state_t@private_worker@rml@23@W445623@0@Z 0000000180021f50 f i private_server.obj
 0001:00020f90       ?deallocate@?$cache_aligned_allocator@Vpadded_private_worker@rml@internal@tbb@@@tbb@@QEAAXPEAVpadded_private_worker@rml@internal@2@_K@Z 0000000180021f90 f i private_server.obj
 0001:00020fd0       ?deallocate@?$cache_aligned_allocator@Vprivate_server@rml@internal@tbb@@@tbb@@QEAAXPEAVprivate_server@rml@internal@2@_K@Z 0000000180021fd0 f i private_server.obj
 0001:00021010       ?default_concurrency@private_server@rml@internal@tbb@@UEBAIXZ 0000000180022010 f i private_server.obj
 0001:00021040       ?fetch_and_add@?$atomic_impl_with_arithmetic@HHD@internal@tbb@@QEAAHH@Z 0000000180022040 f i private_server.obj
 0001:00021080       ?fetch_and_store@?$atomic_impl@_N@internal@tbb@@QEAA_N_N@Z 0000000180022080 f i private_server.obj
 0001:000210c0       ?fetch_and_store@?$atomic_traits@$00$0A@@internal@tbb@@SACPECXC@Z 00000001800220c0 f i private_server.obj
 0001:00021100       ?independent_thread_number_changed@private_server@rml@internal@tbb@@UEAAXH@Z 0000000180022100 f i private_server.obj
 0001:00021150       ?launch@thread_monitor@internal@rml@@SAPEAXP6AIPEAX@Z0_KPEB_K@Z 0000000180022150 f i private_server.obj
 0001:00021280       ?notify@thread_monitor@internal@rml@@QEAAXXZ 0000000180022280 f i private_server.obj
 0001:00021300       ?prepare_wait@thread_monitor@internal@rml@@QEAAXAEAVcookie@123@@Z 0000000180022300 f i private_server.obj
 0001:00021380       ?propagate_chain_reaction@private_server@rml@internal@tbb@@AEAAXXZ 0000000180022380 f i private_server.obj
 0001:000213d0       ?register_master@private_server@rml@internal@tbb@@UEAAXAEAPEAX@Z 00000001800223d0 f i private_server.obj
 0001:000213e0       ?remove_server_ref@private_server@rml@internal@tbb@@AEAAXXZ 00000001800223e0 f i private_server.obj
 0001:00021460       ?request_close_connection@private_server@rml@internal@tbb@@UEAAX_N@Z 0000000180022460 f i private_server.obj
 0001:000214e0       ?store_with_release@?$atomic_impl@H@internal@tbb@@IEAAHH@Z 00000001800224e0 f i private_server.obj
 0001:00021540       ?store_with_release@?$atomic_impl@PEAVprivate_worker@rml@internal@tbb@@@internal@tbb@@IEAAPEAVprivate_worker@rml@23@PEAV4523@@Z 0000000180022540 f i private_server.obj
 0001:000215a0       ?store_with_release@?$atomic_impl@W4state_t@private_worker@rml@internal@tbb@@@internal@tbb@@IEAA?AW4state_t@private_worker@rml@23@W445623@@Z 00000001800225a0 f i private_server.obj
 0001:00021600       ?try_acquire@scoped_lock@spin_mutex@tbb@@QEAA_NAEAV23@@Z 0000000180022600 f i private_server.obj
 0001:00021640       ?try_insert_in_asleep_list@private_server@rml@internal@tbb@@AEAA_NAEAVprivate_worker@234@@Z 0000000180022640 f i private_server.obj
 0001:00021760       ?unregister_master@private_server@rml@internal@tbb@@UEAAXPEAX@Z 0000000180022760 f i private_server.obj
 0001:00021770       ?version@private_server@rml@internal@tbb@@UEBAIXZ 0000000180022770 f i private_server.obj
 0001:00021780       ?wake_or_launch@private_worker@rml@internal@tbb@@AEAAXXZ 0000000180022780 f i private_server.obj
 0001:00021890       ?yield@private_server@rml@internal@tbb@@UEAAXXZ 0000000180022890 f i private_server.obj
 0001:000218c0       __local_stdio_printf_options 00000001800228c0 f i private_server.obj
 0001:000218d0       _vfprintf_l                00000001800228d0 f i private_server.obj
 0001:00021930       fprintf                    0000000180022930 f i private_server.obj
 0001:000219b0       ?open@tbb_factory@rml@internal@tbb@@QEAA?AW4status_type@factory@2@XZ 00000001800229b0 f   rml_tbb.obj
 0001:00021b40       ?make_server@tbb_factory@rml@internal@tbb@@QEAA?AW4status_type@factory@2@AEAPEAVtbb_server@234@AEAVtbb_client@234@@Z 0000000180022b40 f   rml_tbb.obj
 0001:00021bc0       ?close@tbb_factory@rml@internal@tbb@@QEAAXXZ 0000000180022bc0 f   rml_tbb.obj
 0001:00021c30       ?call_with_server_info@tbb_factory@rml@internal@tbb@@QEBAXP6AXPEAXPEBD@Z0@Z 0000000180022c30 f   rml_tbb.obj
 0001:00021ca0       ?set_assertion_handler@tbb@@YAP6AXPEBDH00@ZP6AX0H00@Z@Z 0000000180022ca0 f   tbb_misc.obj
 0001:00021cf0       ?assertion_failure@tbb@@YAXPEBDH00@Z 0000000180022cf0 f   tbb_misc.obj
 0001:00021e30       TBB_runtime_interface_version 0000000180022e30 f   tbb_misc.obj
 0001:00021e40       ?handle_perror@internal@tbb@@YAXHPEBD@Z 0000000180022e40 f   tbb_misc.obj
 0001:00021f80       ?runtime_warning@internal@tbb@@YAXPEBDZZ 0000000180022f80 f   tbb_misc.obj
 0001:00022060       ?what@bad_last_alloc@tbb@@UEBAPEBDXZ 0000000180023060 f   tbb_misc.obj
 0001:00022080       ?what@improper_lock@tbb@@UEBAPEBDXZ 0000000180023080 f   tbb_misc.obj
 0001:000220a0       ?what@user_abort@tbb@@UEBAPEBDXZ 00000001800230a0 f   tbb_misc.obj
 0001:000220c0       ?what@missing_wait@tbb@@UEBAPEBDXZ 00000001800230c0 f   tbb_misc.obj
 0001:000220e0       ?what@invalid_multiple_scheduling@tbb@@UEBAPEBDXZ 00000001800230e0 f   tbb_misc.obj
 0001:00022100       ?throw_bad_last_alloc_exception_v4@internal@tbb@@YAXXZ 0000000180023100 f   tbb_misc.obj
 0001:00022130       ?throw_exception_v4@internal@tbb@@YAXW4exception_id@12@@Z 0000000180023130 f   tbb_misc.obj
 0001:00022570       ?handle_win_error@internal@tbb@@YAXH@Z 0000000180023570 f   tbb_misc.obj
 0001:00022630       ?GetBoolEnvironmentVariable@internal@tbb@@YA_NPEBD@Z 0000000180023630 f   tbb_misc.obj
 0001:000226b0       ?PrintVersion@internal@tbb@@YAXXZ 00000001800236b0 f   tbb_misc.obj
 0001:00022700       ?PrintExtraVersionInfo@internal@tbb@@YAXPEBD0ZZ 0000000180023700 f   tbb_misc.obj
 0001:00022800       ?PrintRMLVersionInfo@internal@tbb@@YAXPEAXPEBD@Z 0000000180023800 f   tbb_misc.obj
 0001:00022840       ?cpu_has_speculation@internal@tbb@@YA_NXZ 0000000180023840 f   tbb_misc.obj
 0001:00022920       ?gcc_rethrow_exception_broken@internal@tbb@@YA_NXZ 0000000180023920 f   tbb_misc.obj
 0001:00022930       ?fix_broken_rethrow@internal@tbb@@YAXXZ 0000000180023930 f   tbb_misc.obj
 0001:00022940       ??0bad_alloc@std@@QEAA@AEBV01@@Z 0000000180023940 f i tbb_misc.obj
 0001:00022990       ??0bad_alloc@std@@QEAA@XZ  0000000180023990 f i tbb_misc.obj
 0001:000229e0       ??0bad_last_alloc@tbb@@QEAA@AEBV01@@Z 00000001800239e0 f i tbb_misc.obj
 0001:00022a30       ??0bad_last_alloc@tbb@@QEAA@XZ 0000000180023a30 f i tbb_misc.obj
 0001:00022a80       ??0exception@std@@QEAA@AEBV01@@Z 0000000180023a80 f i tbb_misc.obj
 0001:00022af0       ??0exception@std@@QEAA@QEBD@Z 0000000180023af0 f i tbb_misc.obj
 0001:00022b80       ??0exception@std@@QEAA@QEBDH@Z 0000000180023b80 f i tbb_misc.obj
 0001:00022bd0       ??0exception@std@@QEAA@XZ  0000000180023bd0 f i tbb_misc.obj
 0001:00022c10       ??0improper_lock@tbb@@QEAA@AEBV01@@Z 0000000180023c10 f i tbb_misc.obj
 0001:00022c60       ??0improper_lock@tbb@@QEAA@XZ 0000000180023c60 f i tbb_misc.obj
 0001:00022cb0       ??0invalid_argument@std@@QEAA@AEBV01@@Z 0000000180023cb0 f i tbb_misc.obj
 0001:00022d00       ??0invalid_argument@std@@QEAA@PEBD@Z 0000000180023d00 f i tbb_misc.obj
 0001:00022d50       ??0invalid_multiple_scheduling@tbb@@QEAA@AEBV01@@Z 0000000180023d50 f i tbb_misc.obj
 0001:00022da0       ??0invalid_multiple_scheduling@tbb@@QEAA@XZ 0000000180023da0 f i tbb_misc.obj
 0001:00022df0       ??0length_error@std@@QEAA@AEBV01@@Z 0000000180023df0 f i tbb_misc.obj
 0001:00022e40       ??0length_error@std@@QEAA@PEBD@Z 0000000180023e40 f i tbb_misc.obj
 0001:00022e90       ??0logic_error@std@@QEAA@AEBV01@@Z 0000000180023e90 f i tbb_misc.obj
 0001:00022ee0       ??0logic_error@std@@QEAA@PEBD@Z 0000000180023ee0 f i tbb_misc.obj
 0001:00022f30       ??0missing_wait@tbb@@QEAA@AEBV01@@Z 0000000180023f30 f i tbb_misc.obj
 0001:00022f80       ??0missing_wait@tbb@@QEAA@XZ 0000000180023f80 f i tbb_misc.obj
 0001:00022fd0       ??0out_of_range@std@@QEAA@AEBV01@@Z 0000000180023fd0 f i tbb_misc.obj
 0001:00023020       ??0out_of_range@std@@QEAA@PEBD@Z 0000000180024020 f i tbb_misc.obj
 0001:00023070       ??0range_error@std@@QEAA@AEBV01@@Z 0000000180024070 f i tbb_misc.obj
 0001:000230c0       ??0range_error@std@@QEAA@PEBD@Z 00000001800240c0 f i tbb_misc.obj
 0001:00023110       ??0runtime_error@std@@QEAA@AEBV01@@Z 0000000180024110 f i tbb_misc.obj
 0001:00023160       ??0runtime_error@std@@QEAA@PEBD@Z 0000000180024160 f i tbb_misc.obj
 0001:000231b0       ??0user_abort@tbb@@QEAA@AEBV01@@Z 00000001800241b0 f i tbb_misc.obj
 0001:00023200       ??0user_abort@tbb@@QEAA@XZ 0000000180024200 f i tbb_misc.obj
 0001:00023250       ??1bad_alloc@std@@UEAA@XZ  0000000180024250 f i tbb_misc.obj
 0001:00023280       ??1bad_last_alloc@tbb@@UEAA@XZ 0000000180024280 f i tbb_misc.obj
 0001:000232b0       ??1exception@std@@UEAA@XZ  00000001800242b0 f i tbb_misc.obj
 0001:00023300       ??1improper_lock@tbb@@UEAA@XZ 0000000180024300 f i tbb_misc.obj
 0001:00023330       ??1invalid_argument@std@@UEAA@XZ 0000000180024330 f i tbb_misc.obj
 0001:00023360       ??1invalid_multiple_scheduling@tbb@@UEAA@XZ 0000000180024360 f i tbb_misc.obj
 0001:00023390       ??1length_error@std@@UEAA@XZ 0000000180024390 f i tbb_misc.obj
 0001:000233c0       ??1logic_error@std@@UEAA@XZ 00000001800243c0 f i tbb_misc.obj
 0001:000233f0       ??1missing_wait@tbb@@UEAA@XZ 00000001800243f0 f i tbb_misc.obj
 0001:00023420       ??1out_of_range@std@@UEAA@XZ 0000000180024420 f i tbb_misc.obj
 0001:00023450       ??1range_error@std@@UEAA@XZ 0000000180024450 f i tbb_misc.obj
 0001:00023480       ??1runtime_error@std@@UEAA@XZ 0000000180024480 f i tbb_misc.obj
 0001:000234b0       ??1user_abort@tbb@@UEAA@XZ 00000001800244b0 f i tbb_misc.obj
 0001:000234e0       ??_Gbad_alloc@std@@UEAAPEAXI@Z 00000001800244e0 f i tbb_misc.obj
 0001:000234e0       ??_Ebad_alloc@std@@UEAAPEAXI@Z 00000001800244e0 f i tbb_misc.obj
 0001:00023540       ??_Ebad_last_alloc@tbb@@UEAAPEAXI@Z 0000000180024540 f i tbb_misc.obj
 0001:00023540       ??_Gbad_last_alloc@tbb@@UEAAPEAXI@Z 0000000180024540 f i tbb_misc.obj
 0001:000235a0       ??_Gexception@std@@UEAAPEAXI@Z 00000001800245a0 f i tbb_misc.obj
 0001:000235a0       ??_Eexception@std@@UEAAPEAXI@Z 00000001800245a0 f i tbb_misc.obj
 0001:00023600       ??_Eimproper_lock@tbb@@UEAAPEAXI@Z 0000000180024600 f i tbb_misc.obj
 0001:00023600       ??_Gimproper_lock@tbb@@UEAAPEAXI@Z 0000000180024600 f i tbb_misc.obj
 0001:00023660       ??_Einvalid_argument@std@@UEAAPEAXI@Z 0000000180024660 f i tbb_misc.obj
 0001:00023660       ??_Ginvalid_argument@std@@UEAAPEAXI@Z 0000000180024660 f i tbb_misc.obj
 0001:000236c0       ??_Einvalid_multiple_scheduling@tbb@@UEAAPEAXI@Z 00000001800246c0 f i tbb_misc.obj
 0001:000236c0       ??_Ginvalid_multiple_scheduling@tbb@@UEAAPEAXI@Z 00000001800246c0 f i tbb_misc.obj
 0001:00023720       ??_Glength_error@std@@UEAAPEAXI@Z 0000000180024720 f i tbb_misc.obj
 0001:00023720       ??_Elength_error@std@@UEAAPEAXI@Z 0000000180024720 f i tbb_misc.obj
 0001:00023780       ??_Elogic_error@std@@UEAAPEAXI@Z 0000000180024780 f i tbb_misc.obj
 0001:00023780       ??_Glogic_error@std@@UEAAPEAXI@Z 0000000180024780 f i tbb_misc.obj
 0001:000237e0       ??_Emissing_wait@tbb@@UEAAPEAXI@Z 00000001800247e0 f i tbb_misc.obj
 0001:000237e0       ??_Gmissing_wait@tbb@@UEAAPEAXI@Z 00000001800247e0 f i tbb_misc.obj
 0001:00023840       ??_Gout_of_range@std@@UEAAPEAXI@Z 0000000180024840 f i tbb_misc.obj
 0001:00023840       ??_Eout_of_range@std@@UEAAPEAXI@Z 0000000180024840 f i tbb_misc.obj
 0001:000238a0       ??_Erange_error@std@@UEAAPEAXI@Z 00000001800248a0 f i tbb_misc.obj
 0001:000238a0       ??_Grange_error@std@@UEAAPEAXI@Z 00000001800248a0 f i tbb_misc.obj
 0001:00023900       ??_Eruntime_error@std@@UEAAPEAXI@Z 0000000180024900 f i tbb_misc.obj
 0001:00023900       ??_Gruntime_error@std@@UEAAPEAXI@Z 0000000180024900 f i tbb_misc.obj
 0001:00023960       ??_Guser_abort@tbb@@UEAAPEAXI@Z 0000000180024960 f i tbb_misc.obj
 0001:00023960       ??_Euser_abort@tbb@@UEAAPEAXI@Z 0000000180024960 f i tbb_misc.obj
 0001:000239c0       ?what@exception@std@@UEBAPEBDXZ 00000001800249c0 f i tbb_misc.obj
 0001:00023a10       _snprintf                  0000000180024a10 f i tbb_misc.obj
 0001:00023a90       _vsnprintf                 0000000180024a90 f i tbb_misc.obj
 0001:00023af0       _vsnprintf_l               0000000180024af0 f i tbb_misc.obj
 0001:00023b80       vsnprintf                  0000000180024b80 f i tbb_misc.obj
 0001:00023c90       ?AvailableHwConcurrency@internal@tbb@@YAHXZ 0000000180024c90 f   tbb_misc_ex.obj
 0001:00023cf0       ?NumberOfProcessorGroups@internal@tbb@@YAHXZ 0000000180024cf0 f   tbb_misc_ex.obj
 0001:00023d50       ?FindProcessorGroupIndex@internal@tbb@@YAHH@Z 0000000180024d50 f   tbb_misc_ex.obj
 0001:00023f90       ?MoveThreadIntoProcessorGroup@internal@tbb@@YAXPEAXH@Z 0000000180024f90 f   tbb_misc_ex.obj
 0001:000244c0       ?allocate@allocate_additional_child_of_proxy@internal@tbb@@QEBAAEAVtask@3@_K@Z 00000001800254c0 f   task.obj
 0001:00024540       ?free@allocate_additional_child_of_proxy@internal@tbb@@QEBAXAEAVtask@3@@Z 0000000180025540 f   task.obj
 0001:00024590       ?destroy@task_base@internal@interface5@tbb@@SAXAEAVtask@4@@Z 0000000180025590 f   task.obj
 0001:000246b0       ?allocate@allocate_root_with_context_proxy@internal@tbb@@QEBAAEAVtask@3@_K@Z 00000001800256b0 f   task.obj
 0001:00024830       ?free@allocate_root_with_context_proxy@internal@tbb@@QEBAXAEAVtask@3@@Z 0000000180025830 f   task.obj
 0001:000248b0       ?allocate@allocate_root_proxy@internal@tbb@@SAAEAVtask@3@_K@Z 00000001800258b0 f   task.obj
 0001:00024970       ?free@allocate_root_proxy@internal@tbb@@SAXAEAVtask@3@@Z 0000000180025970 f   task.obj
 0001:000249e0       ?allocate@allocate_continuation_proxy@internal@tbb@@QEBAAEAVtask@3@_K@Z 00000001800259e0 f   task.obj
 0001:00024a80       ?free@allocate_continuation_proxy@internal@tbb@@QEBAXAEAVtask@3@@Z 0000000180025a80 f   task.obj
 0001:00024af0       ?allocate@allocate_child_proxy@internal@tbb@@QEBAAEAVtask@3@_K@Z 0000000180025af0 f   task.obj
 0001:00024b70       ?free@allocate_child_proxy@internal@tbb@@QEBAXAEAVtask@3@@Z 0000000180025b70 f   task.obj
 0001:00024bc0       ?internal_set_ref_count@task@tbb@@AEAAXH@Z 0000000180025bc0 f   task.obj
 0001:00024cb0       ?internal_decrement_ref_count@task@tbb@@AEAA_JXZ 0000000180025cb0 f   task.obj
 0001:00024d90       ?spawn_and_wait_for_all@task@tbb@@QEAAXAEAVtask_list@2@@Z 0000000180025d90 f   task.obj
 0001:00024e40       ?self@task@tbb@@SAAEAV12@XZ 0000000180025e40 f   task.obj
 0001:00024eb0       ?is_owned_by_current_thread@task@tbb@@QEBA_NXZ 0000000180025eb0 f   task.obj
 0001:00024ec0       ?note_affinity@task@tbb@@UEAAXG@Z 0000000180025ec0 f   task.obj
 0001:00024ee0       ?change_group@task@tbb@@QEAAXAEAVtask_group_context@2@@Z 0000000180025ee0 f   task.obj
 0001:00024fe0       ?get_initial_auto_partitioner_divisor@internal@tbb@@YA_KXZ 0000000180025fe0 f   task.obj
 0001:00025020       ?resize@affinity_partitioner_base_v3@internal@tbb@@AEAAXI@Z 0000000180026020 f   task.obj
 0001:00025110       ??$__TBB_load_relaxed@W4kind_type@task_group_context@tbb@@@internal@tbb@@YA?AW4kind_type@task_group_context@1@AEDW4231@@Z 0000000180026110 f i task.obj
 0001:00025140       ??$__TBB_store_relaxed@W4kind_type@task_group_context@tbb@@W4123@@internal@tbb@@YAXAECW4kind_type@task_group_context@1@W4231@@Z 0000000180026140 f i task.obj
 0001:00025180       ??$free_task@$00@generic_scheduler@internal@tbb@@QEAAXAEAVtask@2@@Z 0000000180026180 f i task.obj
 0001:00025330       ??$free_task@$03@generic_scheduler@internal@tbb@@QEAAXAEAVtask@2@@Z 0000000180026330 f i task.obj
 0001:000254f0       ??$is_poisoned@PEBVtask@tbb@@@internal@tbb@@YA_NPEAPEBVtask@1@@Z 00000001800264f0 f i task.obj
 0001:00025530       ??$poison_pointer@Vscheduler@internal@tbb@@@internal@tbb@@YAXAEAPEAVscheduler@01@@Z 0000000180026530 f i task.obj
 0001:00025550       ??$poison_pointer@Vtask@tbb@@@internal@tbb@@YAXAEAPEAVtask@1@@Z 0000000180026550 f i task.obj
 0001:00025570       ??$poison_value@H@internal@tbb@@YAXAEAH@Z 0000000180026570 f i task.obj
 0001:000255b0       ??$poison_value@_J@internal@tbb@@YAXAEA_J@Z 00000001800265b0 f i task.obj
 0001:000255f0       ??$punned_cast@PEAH$$CB_K@internal@tbb@@YAPEAHPEB_K@Z 00000001800265f0 f i task.obj
 0001:00025630       ??$punned_cast@PEA_J$$CB_K@internal@tbb@@YAPEA_JPEB_K@Z 0000000180026630 f i task.obj
 0001:00025670       ?assert_task_pool_valid@generic_scheduler@internal@tbb@@QEBAXXZ 0000000180026670 f i task.obj
 0001:00025680       ?assert_task_valid@internal@tbb@@YAXPEBVtask@2@@Z 0000000180026680 f i task.obj
 0001:00025760       ?clear@task_list@tbb@@QEAAXXZ 0000000180026760 f i task.obj
 0001:00025790       ?deallocate_task@generic_scheduler@internal@tbb@@QEAAXAEAVtask@3@@Z 0000000180026790 f i task.obj
 0001:00025820       ?default_context@generic_scheduler@internal@tbb@@QEAAPEAVtask_group_context@3@XZ 0000000180026820 f i task.obj
 0001:00025860       ?get@?$basic_tls@_K@internal@tbb@@QEAA_KXZ 0000000180026860 f i task.obj
 0001:000258a0       ?increment_ref_count@task@tbb@@QEAAXXZ 00000001800268a0 f i task.obj
 0001:000258f0       ?is_worker@generic_scheduler@internal@tbb@@QEBA_NXZ 00000001800268f0 f i task.obj
 0001:00025940       ?load@?$machine_load_store_relaxed@W4kind_type@task_group_context@tbb@@$03@internal@tbb@@SA?AW4kind_type@task_group_context@3@AEDW4453@@Z 0000000180026940 f i task.obj
 0001:00025950       ?local_scheduler@governor@internal@tbb@@SAPEAVgeneric_scheduler@23@XZ 0000000180026950 f i task.obj
 0001:000259c0       ?local_scheduler_weak@governor@internal@tbb@@SAPEAVgeneric_scheduler@23@XZ 00000001800269c0 f i task.obj
 0001:00025a20       ?master_outermost_level@generic_scheduler@internal@tbb@@QEBA_NXZ 0000000180026a20 f i task.obj
 0001:00025a80       ?max_threads_in_arena@generic_scheduler@internal@tbb@@QEAAIXZ 0000000180026a80 f i task.obj
 0001:00025ae0       ?outermost_level@generic_scheduler@internal@tbb@@QEBA_NXZ 0000000180026ae0 f i task.obj
 0001:00025b00       ?prefix@task@tbb@@QEBAAEAVtask_prefix@internal@2@PEAUversion_tag_v3@42@@Z 0000000180026b00 f i task.obj
 0001:00025b30       ?state@task@tbb@@QEBA?AW4state_type@12@XZ 0000000180026b30 f i task.obj
 0001:00025b70       ?store@?$machine_load_store_relaxed@W4kind_type@task_group_context@tbb@@$03@internal@tbb@@SAXAECW4kind_type@task_group_context@3@W4453@@Z 0000000180026b70 f i task.obj
 0001:00025b90       ?tls_scheduler_of@governor@internal@tbb@@SAPEAVgeneric_scheduler@23@_K@Z 0000000180026b90 f i task.obj
 0001:00025c80       ??1task_group_context@tbb@@QEAA@XZ 0000000180026c80 f   task_group_context.obj
 0001:00026050       ?reset@task_group_context@tbb@@QEAAXXZ 0000000180027050 f   task_group_context.obj
 0001:000260c0       ?cancel_group_execution@task_group_context@tbb@@QEAA_NXZ 00000001800270c0 f   task_group_context.obj
 0001:00026180       ?is_group_execution_cancelled@task_group_context@tbb@@QEBA_NXZ 0000000180027180 f   task_group_context.obj
 0001:000261d0       ?register_pending_exception@task_group_context@tbb@@QEAAXXZ 00000001800271d0 f   task_group_context.obj
 0001:00026240       ?capture_fp_settings@task_group_context@tbb@@QEAAXXZ 0000000180027240 f   task_group_context.obj
 0001:000262e0       ?set_priority@task_group_context@tbb@@QEAAXW4priority_t@2@@Z 00000001800272e0 f   task_group_context.obj
 0001:00026410       ?priority@task_group_context@tbb@@QEBA?AW4priority_t@2@XZ 0000000180027410 f   task_group_context.obj
 0001:00026440       ?init@task_group_context@tbb@@IEAAXXZ 0000000180027440 f   task_group_context.obj
 0001:000265a0       ?bind_to@task_group_context@tbb@@QEAAXPEAVgeneric_scheduler@internal@2@@Z 00000001800275a0 f   task_group_context.obj
 0001:000267f0       ?register_with@task_group_context@tbb@@QEAAXPEAVgeneric_scheduler@internal@2@@Z 00000001800277f0 f   task_group_context.obj
 0001:000269b0       ?copy_fp_settings@task_group_context@tbb@@QEAAXAEBV12@@Z 00000001800279b0 f   task_group_context.obj
 0001:00026ac0       ??1captured_exception@tbb@@UEAA@XZ 0000000180027ac0 f   task_group_context.obj
 0001:00026b10       ?move@captured_exception@tbb@@UEAAPEAV12@XZ 0000000180027b10 f   task_group_context.obj
 0001:00026bc0       ?destroy@captured_exception@tbb@@UEAAXXZ 0000000180027bc0 f   task_group_context.obj
 0001:00026c40       ?name@captured_exception@tbb@@UEBAPEBDXZ 0000000180027c40 f   task_group_context.obj
 0001:00026c60       ?what@captured_exception@tbb@@UEBAPEBDXZ 0000000180027c60 f   task_group_context.obj
 0001:00026c80       ?set@captured_exception@tbb@@QEAAXPEBD0@Z 0000000180027c80 f   task_group_context.obj
 0001:00026ce0       ?clear@captured_exception@tbb@@QEAAXXZ 0000000180027ce0 f   task_group_context.obj
 0001:00026d30       ?allocate@captured_exception@tbb@@SAPEAV12@PEBD0@Z 0000000180027d30 f   task_group_context.obj
 0001:00026db0       ?allocate@tbb_exception_ptr@internal@tbb@@SAPEAV123@XZ 0000000180027db0 f   task_group_context.obj
 0001:00026e20       ?allocate@tbb_exception_ptr@internal@tbb@@SAPEAV123@AEBVtbb_exception@3@@Z 0000000180027e20 f   task_group_context.obj
 0001:00026e90       ?allocate@tbb_exception_ptr@internal@tbb@@SAPEAV123@AEAVcaptured_exception@3@@Z 0000000180027e90 f   task_group_context.obj
 0001:00026ee0       ?destroy@tbb_exception_ptr@internal@tbb@@QEAAXXZ 0000000180027ee0 f   task_group_context.obj
 0001:00026f20       ??$AllocateExceptionContainer@Vcaptured_exception@tbb@@@internal@tbb@@YAPEAVtbb_exception_ptr@01@AEBVcaptured_exception@1@@Z 0000000180027f20 f i task_group_context.obj
 0001:00026f90       ??$AllocateExceptionContainer@Vexception_ptr@std@@@internal@tbb@@YAPEAVtbb_exception_ptr@01@AEBVexception_ptr@std@@@Z 0000000180027f90 f i task_group_context.obj
 0001:00027000       ??$__TBB_load_with_acquire@PEAUcontext_list_node_t@internal@tbb@@@internal@tbb@@YAPEAUcontext_list_node_t@01@AEDSEAU201@@Z 0000000180028000 f i task_group_context.obj
 0001:00027030       ??$__TBB_store_with_release@PEAUcontext_list_node_t@internal@tbb@@PEAU123@@internal@tbb@@YAXAECREAUcontext_list_node_t@01@PEAU201@@Z 0000000180028030 f i task_group_context.obj
 0001:00027070       ??$addressof@Vcaptured_exception@tbb@@@std@@YAPEAVcaptured_exception@tbb@@AEAV12@@Z 0000000180028070 f i task_group_context.obj
 0001:00027080       ??$as_atomic@W4kind_type@task_group_context@tbb@@@internal@tbb@@YAAEAU?$atomic@W4kind_type@task_group_context@tbb@@@1@AEAW4kind_type@task_group_context@1@@Z 0000000180028080 f i task_group_context.obj
 0001:00027090       ??$as_atomic@_K@internal@tbb@@YAAEAU?$atomic@_K@1@AEA_K@Z 0000000180028090 f i task_group_context.obj
 0001:000270a0       ??$fetch_and_decrement@$0A@@?$atomic_impl_with_arithmetic@_K_KD@internal@tbb@@QEAA_KXZ 00000001800280a0 f i task_group_context.obj
 0001:000270e0       ??$fetch_and_increment@$0A@@?$atomic_impl_with_arithmetic@_K_KD@internal@tbb@@QEAA_KXZ 00000001800280e0 f i task_group_context.obj
 0001:00027120       ??$fetch_and_store@$0A@@?$atomic_impl@W4kind_type@task_group_context@tbb@@@internal@tbb@@QEAA?AW4kind_type@task_group_context@2@W4342@@Z 0000000180028120 f i task_group_context.obj
 0001:00027170       ??$make_exception_ptr@Vcaptured_exception@tbb@@@std@@YA?AVexception_ptr@0@Vcaptured_exception@tbb@@@Z 0000000180028170 f i task_group_context.obj
 0001:000271e0       ??$poison_value@_K@internal@tbb@@YAXAEA_K@Z 00000001800281e0 f i task_group_context.obj
 0001:00027220       ??$propagate_task_group_state@_J@generic_scheduler@internal@tbb@@QEAAXPEQtask_group_context@2@_JAEAV32@_J@Z 0000000180028220 f i task_group_context.obj
 0001:00027370       ??$propagate_task_group_state@_J@market@internal@tbb@@QEAA_NPEQtask_group_context@2@_JAEAV32@_J@Z 0000000180028370 f i task_group_context.obj
 0001:00027570       ??$propagate_task_group_state@_J@task_group_context@tbb@@QEAAXPEQ01@_JAEAV01@_J@Z 0000000180028570 f i task_group_context.obj
 0001:00027680       ??$propagate_task_group_state@_K@generic_scheduler@internal@tbb@@QEAAXPEQtask_group_context@2@_KAEAV32@_K@Z 0000000180028680 f i task_group_context.obj
 0001:000277d0       ??$propagate_task_group_state@_K@market@internal@tbb@@QEAA_NPEQtask_group_context@2@_KAEAV32@_K@Z 00000001800287d0 f i task_group_context.obj
 0001:000279d0       ??$propagate_task_group_state@_K@task_group_context@tbb@@QEAAXPEQ01@_KAEAV01@_K@Z 00000001800289d0 f i task_group_context.obj
 0001:00027ae0       ??$punned_cast@PEAVcpu_ctl_env@internal@tbb@@$$CBUcpu_ctl_env_space@23@@internal@tbb@@YAPEAVcpu_ctl_env@01@PEBUcpu_ctl_env_space@01@@Z 0000000180028ae0 f i task_group_context.obj
 0001:00027b20       ??$punned_cast@PEAVcpu_ctl_env@internal@tbb@@Ucpu_ctl_env_space@23@@internal@tbb@@YAPEAVcpu_ctl_env@01@PEAUcpu_ctl_env_space@01@@Z 0000000180028b20 f i task_group_context.obj
 0001:00027b60       ??$punned_cast@PEAVscoped_lock@spin_mutex@tbb@@$$CBV?$aligned_space@Vscoped_lock@spin_mutex@tbb@@$00@3@@internal@tbb@@YAPEAVscoped_lock@spin_mutex@1@PEBV?$aligned_space@Vscoped_lock@spin_mutex@tbb@@$00@1@@Z 0000000180028b60 f i task_group_context.obj
 0001:00027ba0       ??$punned_cast@PEA_K$$CB_K@internal@tbb@@YAPEA_KPEB_K@Z 0000000180028ba0 f i task_group_context.obj
 0001:00027be0       ??$spin_wait_until_eq@U?$atomic@_K@tbb@@I@internal@tbb@@YAXAEDU?$atomic@_K@1@I@Z 0000000180028be0 f i task_group_context.obj
 0001:00027c40       ??$suppress_unused_warning@$$BY01H@internal@tbb@@YAXAEAY01$$CBH@Z 0000000180028c40 f i task_group_context.obj
 0001:00027c50       ??$to_bits@W4kind_type@task_group_context@tbb@@@?$atomic_impl@W4kind_type@task_group_context@tbb@@@internal@tbb@@SAHW4kind_type@task_group_context@2@@Z 0000000180028c50 f i task_group_context.obj
 0001:00027c90       ??$to_bits@_K@?$atomic_impl@_K@internal@tbb@@SA_J_K@Z 0000000180028c90 f i task_group_context.obj
 0001:00027cd0       ??$to_bits_ref@$$CB_K@?$atomic_impl@_K@internal@tbb@@SAAEA_JAEB_K@Z 0000000180028cd0 f i task_group_context.obj
 0001:00027d10       ??$to_bits_ref@$$CDI@?$atomic_impl@I@internal@tbb@@SAAEAHAEDI@Z 0000000180028d10 f i task_group_context.obj
 0001:00027d50       ??$to_bits_ref@$$CD_K@?$atomic_impl@_K@internal@tbb@@SAAEA_JAED_K@Z 0000000180028d50 f i task_group_context.obj
 0001:00027d90       ??$to_bits_ref@_K@?$atomic_impl@_K@internal@tbb@@SAAEA_JAEA_K@Z 0000000180028d90 f i task_group_context.obj
 0001:00027dd0       ??$to_value@I@?$atomic_impl@I@internal@tbb@@SAIH@Z 0000000180028dd0 f i task_group_context.obj
 0001:00027e20       ??$to_value@W4kind_type@task_group_context@tbb@@@?$atomic_impl@W4kind_type@task_group_context@tbb@@@internal@tbb@@SA?AW4kind_type@task_group_context@2@H@Z 0000000180028e20 f i task_group_context.obj
 0001:00027e70       ??$to_value@_K@?$atomic_impl@_K@internal@tbb@@SA_K_J@Z 0000000180028e70 f i task_group_context.obj
 0001:00027ed0       ??0?$converter@W4kind_type@task_group_context@tbb@@@?$atomic_impl@W4kind_type@task_group_context@tbb@@@internal@tbb@@QEAA@W4kind_type@task_group_context@3@@Z 0000000180028ed0 f i task_group_context.obj
 0001:00027ef0       ??0?$converter@W4kind_type@task_group_context@tbb@@@?$atomic_impl@W4kind_type@task_group_context@tbb@@@internal@tbb@@QEAA@XZ 0000000180028ef0 f i task_group_context.obj
 0001:00027f00       ??0?$iterator_impl@Viterator@?$intrusive_list_base@V?$intrusive_list@Vgeneric_scheduler@internal@tbb@@@internal@tbb@@Vgeneric_scheduler@23@@internal@tbb@@@?$intrusive_list_base@V?$intrusive_list@Vgeneric_scheduler@internal@tbb@@@internal@tbb@@Vgeneric_scheduler@23@@internal@tbb@@IEAA@PEAUintrusive_list_node@23@@Z 0000000180028f00 f i task_group_context.obj
 0001:00027f20       ??0captured_exception@tbb@@QEAA@AEBV01@@Z 0000000180028f20 f i task_group_context.obj
 0001:00027fa0       ??0captured_exception@tbb@@QEAA@PEBD0@Z 0000000180028fa0 f i task_group_context.obj
 0001:00028010       ??0captured_exception@tbb@@QEAA@XZ 0000000180029010 f i task_group_context.obj
 0001:00028060       ??0exception_ptr@std@@QEAA@AEBV01@@Z 0000000180029060 f i task_group_context.obj
 0001:000280b0       ??0exception_ptr@std@@QEAA@XZ 00000001800290b0 f i task_group_context.obj
 0001:000280f0       ??0iterator@?$intrusive_list_base@V?$intrusive_list@Vgeneric_scheduler@internal@tbb@@@internal@tbb@@Vgeneric_scheduler@23@@internal@tbb@@QEAA@PEAUintrusive_list_node@23@@Z 00000001800290f0 f i task_group_context.obj
 0001:00028130       ??0tbb_exception@tbb@@QEAA@AEBV01@@Z 0000000180029130 f i task_group_context.obj
 0001:00028180       ??0tbb_exception@tbb@@QEAA@XZ 0000000180029180 f i task_group_context.obj
 0001:000281d0       ??0tbb_exception_ptr@internal@tbb@@QEAA@AEBVcaptured_exception@2@@Z 00000001800291d0 f i task_group_context.obj
 0001:00028230       ??0tbb_exception_ptr@internal@tbb@@QEAA@AEBVexception_ptr@std@@@Z 0000000180029230 f i task_group_context.obj
 0001:00028270       ??1exception_ptr@std@@QEAA@XZ 0000000180029270 f i task_group_context.obj
 0001:000282b0       ??1tbb_exception@tbb@@UEAA@XZ 00000001800292b0 f i task_group_context.obj
 0001:000282e0       ??1tbb_exception_ptr@internal@tbb@@QEAA@XZ 00000001800292e0 f i task_group_context.obj
 0001:00028320       ??3tbb_exception@tbb@@SAXPEAX@Z 0000000180029320 f i task_group_context.obj
 0001:00028360       ??9?$iterator_impl@Viterator@?$intrusive_list_base@V?$intrusive_list@Vgeneric_scheduler@internal@tbb@@@internal@tbb@@Vgeneric_scheduler@23@@internal@tbb@@@?$intrusive_list_base@V?$intrusive_list@Vgeneric_scheduler@internal@tbb@@@internal@tbb@@Vgeneric_scheduler@23@@internal@tbb@@QEBA_NAEBViterator@123@@Z 0000000180029360 f i task_group_context.obj
 0001:000283b0       ??Citerator@?$intrusive_list_base@V?$intrusive_list@Vgeneric_scheduler@internal@tbb@@@internal@tbb@@Vgeneric_scheduler@23@@internal@tbb@@QEBAPEAVgeneric_scheduler@23@XZ 00000001800293b0 f i task_group_context.obj
 0001:000283e0       ??E?$iterator_impl@Viterator@?$intrusive_list_base@V?$intrusive_list@Vgeneric_scheduler@internal@tbb@@@internal@tbb@@Vgeneric_scheduler@23@@internal@tbb@@@?$intrusive_list_base@V?$intrusive_list@Vgeneric_scheduler@internal@tbb@@@internal@tbb@@Vgeneric_scheduler@23@@internal@tbb@@QEAA?AViterator@123@H@Z 00000001800293e0 f i task_group_context.obj
 0001:00028460       ??E?$iterator_impl@Viterator@?$intrusive_list_base@V?$intrusive_list@Vgeneric_scheduler@internal@tbb@@@internal@tbb@@Vgeneric_scheduler@23@@internal@tbb@@@?$intrusive_list_base@V?$intrusive_list@Vgeneric_scheduler@internal@tbb@@@internal@tbb@@Vgeneric_scheduler@23@@internal@tbb@@QEAAAEAViterator@123@XZ 0000000180029460 f i task_group_context.obj
 0001:000284b0       ??_Ecaptured_exception@tbb@@UEAAPEAXI@Z 00000001800294b0 f i task_group_context.obj
 0001:000284b0       ??_Gcaptured_exception@tbb@@UEAAPEAXI@Z 00000001800294b0 f i task_group_context.obj
 0001:00028520       ??_Gtbb_exception@tbb@@UEAAPEAXI@Z 0000000180029520 f i task_group_context.obj
 0001:00028520       ??_Etbb_exception@tbb@@UEAAPEAXI@Z 0000000180029520 f i task_group_context.obj
 0001:00028590       ?_Copy_exception@exception_ptr@std@@SA?AV12@PEAXPEBX@Z 0000000180029590 f i task_group_context.obj
 0001:00028660       ?_Current_exception@exception_ptr@std@@SA?AV12@XZ 0000000180029660 f i task_group_context.obj
 0001:000286e0       ?__TBB_store_with_release@internal@tbb@@YAXAEC_K_K@Z 00000001800296e0 f i task_group_context.obj
 0001:00028720       ?begin@?$aligned_space@Vscoped_lock@spin_mutex@tbb@@$00@tbb@@QEBAPEAVscoped_lock@spin_mutex@2@XZ 0000000180029720 f i task_group_context.obj
 0001:00028750       ?begin@?$intrusive_list_base@V?$intrusive_list@Vgeneric_scheduler@internal@tbb@@@internal@tbb@@Vgeneric_scheduler@23@@internal@tbb@@QEAA?AViterator@123@XZ 0000000180029750 f i task_group_context.obj
 0001:000287a0       ?current_exception@std@@YA?AVexception_ptr@1@XZ 00000001800297a0 f i task_group_context.obj
 0001:000287e0       ?duplicate_string@tbb@@YAPEADPEBD@Z 00000001800297e0 f i task_group_context.obj
 0001:00028850       ?end@?$intrusive_list_base@V?$intrusive_list@Vgeneric_scheduler@internal@tbb@@@internal@tbb@@Vgeneric_scheduler@23@@internal@tbb@@QEAA?AViterator@123@XZ 0000000180029850 f i task_group_context.obj
 0001:00028890       ?fetch_and_store@?$atomic_impl@W4kind_type@task_group_context@tbb@@@internal@tbb@@QEAA?AW4kind_type@task_group_context@3@W4453@@Z 0000000180029890 f i task_group_context.obj
 0001:000288d0       ?fetch_and_store@?$atomic_traits@$03$0A@@internal@tbb@@SAHPECXH@Z 00000001800298d0 f i task_group_context.obj
 0001:00028910       ?get_env@cpu_ctl_env@internal@tbb@@QEAAXXZ 0000000180029910 f i task_group_context.obj
 0001:00028950       ?is_alive@internal@tbb@@YA_N_K@Z 0000000180029950 f i task_group_context.obj
 0001:000289a0       ?item@?$intrusive_list@Vgeneric_scheduler@internal@tbb@@@internal@tbb@@CAAEAVgeneric_scheduler@23@PEAUintrusive_list_node@23@@Z 00000001800299a0 f i task_group_context.obj
 0001:000289f0       ?item@?$intrusive_list_base@V?$intrusive_list@Vgeneric_scheduler@internal@tbb@@@internal@tbb@@Vgeneric_scheduler@23@@internal@tbb@@CAAEAVgeneric_scheduler@23@PEAUintrusive_list_node@23@@Z 00000001800299f0 f i task_group_context.obj
 0001:00028a20       ?item@?$iterator_impl@Viterator@?$intrusive_list_base@V?$intrusive_list@Vgeneric_scheduler@internal@tbb@@@internal@tbb@@Vgeneric_scheduler@23@@internal@tbb@@@?$intrusive_list_base@V?$intrusive_list@Vgeneric_scheduler@internal@tbb@@@internal@tbb@@Vgeneric_scheduler@23@@internal@tbb@@IEBAAEAVgeneric_scheduler@34@XZ 0000000180029a20 f i task_group_context.obj
 0001:00028a60       ?load_with_acquire@?$machine_load_store@PEAUcontext_list_node_t@internal@tbb@@$07@internal@tbb@@SAPEAUcontext_list_node_t@23@AEDSEAU423@@Z 0000000180029a60 f i task_group_context.obj
 0001:00028aa0       ?local_scheduler_if_initialized@governor@internal@tbb@@SAPEAVgeneric_scheduler@23@XZ 0000000180029aa0 f i task_group_context.obj
 0001:00028ad0       ?lock@spin_mutex@tbb@@QEAAXXZ 0000000180029ad0 f i task_group_context.obj
 0001:00028b50       ?name@type_info@@QEBAPEBDXZ 0000000180029b50 f i task_group_context.obj
 0001:00028b90       ?normalize_priority@internal@tbb@@YA_JW4priority_t@2@@Z 0000000180029b90 f i task_group_context.obj
 0001:00028bb0       ?self@?$iterator_impl@Viterator@?$intrusive_list_base@V?$intrusive_list@Vgeneric_scheduler@internal@tbb@@@internal@tbb@@Vgeneric_scheduler@23@@internal@tbb@@@?$intrusive_list_base@V?$intrusive_list@Vgeneric_scheduler@internal@tbb@@@internal@tbb@@Vgeneric_scheduler@23@@internal@tbb@@AEAAAEAViterator@234@XZ 0000000180029bb0 f i task_group_context.obj
 0001:00028bc0       ?store_with_release@?$machine_load_store@PEAUcontext_list_node_t@internal@tbb@@$07@internal@tbb@@SAXAECREAUcontext_list_node_t@23@PEAU423@@Z 0000000180029bc0 f i task_group_context.obj
 0001:00028be0       ?throw_self@captured_exception@tbb@@UEAAXXZ 0000000180029be0 f i task_group_context.obj
 0001:00028c30       ?unlock@spin_mutex@tbb@@QEAAXXZ 0000000180029c30 f i task_group_context.obj
 0001:00028cb0       ?internal_terminate@task_scheduler_init@tbb@@AEAA_N_N@Z 0000000180029cb0 f   governor.obj
 0001:00028dd0       ?internal_blocking_terminate@task_scheduler_init@tbb@@AEAA_N_N@Z 0000000180029dd0 f   governor.obj
 0001:00028e30       ?initialize@task_scheduler_init@tbb@@QEAAXH@Z 0000000180029e30 f   governor.obj
 0001:00028e70       ?initialize@task_scheduler_init@tbb@@QEAAXH_K@Z 0000000180029e70 f   governor.obj
 0001:00029060       ?terminate@task_scheduler_init@tbb@@QEAAXXZ 000000018002a060 f   governor.obj
 0001:000290a0       ?default_num_threads@task_scheduler_init@tbb@@SAHXZ 000000018002a0a0 f   governor.obj
 0001:00029150       ?acquire_resources@governor@internal@tbb@@CAXXZ 000000018002a150 f   governor.obj
 0001:000291b0       ?release_resources@governor@internal@tbb@@CAXXZ 000000018002a1b0 f   governor.obj
 0001:00029240       ?create_rml_server@governor@internal@tbb@@CAPEAVtbb_server@rml@23@AEAVtbb_client@523@@Z 000000018002a240 f   governor.obj
 0001:00029340       ?auto_terminate@governor@internal@tbb@@CAXPEAX@Z 000000018002a340 f   governor.obj
 0001:00029420       ?one_time_init@governor@internal@tbb@@SAXXZ 000000018002a420 f   governor.obj
 0001:00029470       ?init_scheduler@governor@internal@tbb@@SAPEAVgeneric_scheduler@23@H_K_N@Z 000000018002a470 f   governor.obj
 0001:00029700       ?init_scheduler_weak@governor@internal@tbb@@SAPEAVgeneric_scheduler@23@XZ 000000018002a700 f   governor.obj
 0001:00029780       ?terminate_scheduler@governor@internal@tbb@@SA_NPEAVgeneric_scheduler@23@PEBVtask_scheduler_init@3@_N@Z 000000018002a780 f   governor.obj
 0001:00029860       ?sign_on@governor@internal@tbb@@SAXPEAVgeneric_scheduler@23@@Z 000000018002a860 f   governor.obj
 0001:000299a0       ?sign_off@governor@internal@tbb@@SAXPEAVgeneric_scheduler@23@@Z 000000018002a9a0 f   governor.obj
 0001:00029a40       ?is_set@governor@internal@tbb@@SA_NPEAVgeneric_scheduler@23@@Z 000000018002aa40 f   governor.obj
 0001:00029ab0       ?assume_scheduler@governor@internal@tbb@@SAXPEAVgeneric_scheduler@23@@Z 000000018002aab0 f   governor.obj
 0001:00029b00       ?tls_value_of@governor@internal@tbb@@SA_KPEAVgeneric_scheduler@23@@Z 000000018002ab00 f   governor.obj
 0001:00029ba0       ?print_version_info@governor@internal@tbb@@SAXXZ 000000018002aba0 f   governor.obj
 0001:00029c30       ?initialize_rml_factory@governor@internal@tbb@@SAXXZ 000000018002ac30 f   governor.obj
 0001:00029c90       ?stack_op_handler@governor@internal@tbb@@SAHW4__cilk_tbb_stack_op@@PEAX@Z 000000018002ac90 f   governor.obj
 0001:00029ec0       ?initialize_cilk_interop@internal@tbb@@YA_NXZ 000000018002aec0 f   governor.obj
 0001:00029f00       ??$__TBB_load_with_acquire@_N@internal@tbb@@YA_NAED_N@Z 000000018002af00 f i governor.obj
 0001:00029f30       ??$atomic_do_once@P6A_NXZ@internal@tbb@@YAXAEBQ6A_NXZAEAU?$atomic@W4do_once_state@internal@tbb@@@1@@Z 000000018002af30 f i governor.obj
 0001:00029fc0       ??$suppress_unused_warning@PEAVgeneric_scheduler@internal@tbb@@@internal@tbb@@YAXAEBQEAVgeneric_scheduler@01@@Z 000000018002afc0 f i governor.obj
 0001:00029fd0       ?create@?$basic_tls@_K@internal@tbb@@QEAAHXZ 000000018002afd0 f i governor.obj
 0001:0002a020       ?destroy@?$basic_tls@_K@internal@tbb@@QEAAHXZ 000000018002b020 f i governor.obj
 0001:0002a060       ?destroy_process_mask@internal@tbb@@YAXXZ 000000018002b060 f i governor.obj
 0001:0002a070       ?initialization_done@__TBB_InitOnce@internal@tbb@@SA_NXZ 000000018002b070 f i governor.obj
 0001:0002a0a0       ?load_with_acquire@?$machine_load_store@_N$00@internal@tbb@@SA_NAED_N@Z 000000018002b0a0 f i governor.obj
 0001:0002a0e0       ?run_initializer@internal@tbb@@YAXP6A_NXZAEAU?$atomic@W4do_once_state@internal@tbb@@@2@@Z 000000018002b0e0 f i governor.obj
 0001:0002a140       ?set@?$basic_tls@_K@internal@tbb@@QEAAX_K@Z 000000018002b140 f i governor.obj
 0001:0002a220       ??0market@internal@tbb@@AEAA@II_K@Z 000000018002b220 f   market.obj
 0001:0002a3c0       ?global_market@market@internal@tbb@@CAAEAV123@_NI_K@Z 000000018002b3c0 f   market.obj
 0001:0002a7b0       ?destroy@market@internal@tbb@@AEAAXXZ 000000018002b7b0 f   market.obj
 0001:0002a830       ?arena_in_need@market@internal@tbb@@AEAAPEAVarena@23@PEAV423@@Z 000000018002b830 f   market.obj
 0001:0002a980       ?update_allotment@market@internal@tbb@@AEAAX_J@Z 000000018002b980 f   market.obj
 0001:0002abd0       ?update_arena_top_priority@market@internal@tbb@@AEAAXAEAVarena@23@_J@Z 000000018002bbd0 f   market.obj
 0001:0002ad20       ?insert_arena_into_list@market@internal@tbb@@AEAAXAEAVarena@23@@Z 000000018002bd20 f   market.obj
 0001:0002add0       ?remove_arena_from_list@market@internal@tbb@@AEAAXAEAVarena@23@@Z 000000018002bdd0 f   market.obj
 0001:0002af40       ?arena_in_need@market@internal@tbb@@AEAAPEAVarena@23@AEAV?$intrusive_list@Varena@internal@tbb@@@23@AEAPEAV423@@Z 000000018002bf40 f   market.obj
 0001:0002b110       ?update_allotment@market@internal@tbb@@CAHAEAV?$intrusive_list@Varena@internal@tbb@@@23@HH@Z 000000018002c110 f   market.obj
 0001:0002b320       ?create_one_job@market@internal@tbb@@EEAAPEAVjob@rml@@XZ 000000018002c320 f   market.obj
 0001:0002b460       ?cleanup@market@internal@tbb@@EEAAXAEAVjob@rml@@@Z 000000018002c460 f   market.obj
 0001:0002b580       ?acknowledge_close_connection@market@internal@tbb@@EEAAXXZ 000000018002c580 f   market.obj
 0001:0002b5c0       ?process@market@internal@tbb@@EEAAXAEAVjob@rml@@@Z 000000018002c5c0 f   market.obj
 0001:0002b6b0       ?create_arena@market@internal@tbb@@SAPEAVarena@23@HH_K@Z 000000018002c6b0 f   market.obj
 0001:0002b7e0       ?try_destroy_arena@market@internal@tbb@@QEAAXPEAVarena@23@_K@Z 000000018002c7e0 f   market.obj
 0001:0002ba60       ?detach_arena@market@internal@tbb@@QEAAXAEAVarena@23@@Z 000000018002ca60 f   market.obj
 0001:0002bb40       ?release@market@internal@tbb@@QEAA_N_N0@Z 000000018002cb40 f   market.obj
 0001:0002be20       ?mandatory_concurrency_enable_impl@market@internal@tbb@@QEAA_NPEAVarena@23@PEA_N@Z 000000018002ce20 f   market.obj
 0001:0002bf80       ?mandatory_concurrency_enable@market@internal@tbb@@QEAA_NPEAVarena@23@@Z 000000018002cf80 f   market.obj
 0001:0002c050       ?mandatory_concurrency_disable@market@internal@tbb@@QEAAXPEAVarena@23@@Z 000000018002d050 f   market.obj
 0001:0002c360       ?adjust_demand@market@internal@tbb@@QEAAXAEAVarena@23@H@Z 000000018002d360 f   market.obj
 0001:0002c970       ?set_active_num_workers@market@internal@tbb@@SAXI@Z 000000018002d970 f   market.obj
 0001:0002ccf0       ?lower_arena_priority@market@internal@tbb@@QEAA_NAEAVarena@23@_J_K@Z 000000018002dcf0 f   market.obj
 0001:0002cf40       ?update_arena_priority@market@internal@tbb@@QEAA_NAEAVarena@23@_J@Z 000000018002df40 f   market.obj
 0001:0002d4f0       ?does_client_join_workers@governor@internal@tbb@@SA_NAEBVtbb_client@rml@23@@Z 000000018002e4f0 f   market.obj
 0001:0002d5b0       ??$__TBB_load_with_acquire@I@internal@tbb@@YAIAEDI@Z 000000018002e5b0 f i market.obj
 0001:0002d5e0       ??$as_atomic@H@internal@tbb@@YAAEAU?$atomic@H@1@AEAH@Z 000000018002e5e0 f i market.obj
 0001:0002d5f0       ??$as_atomic@I@internal@tbb@@YAAEAU?$atomic@I@1@AEAI@Z 000000018002e5f0 f i market.obj
 0001:0002d600       ??$as_atomic@PEAVarena@internal@tbb@@@internal@tbb@@YAAEAU?$atomic@PEAVarena@internal@tbb@@@1@AEAPEAVarena@01@@Z 000000018002e600 f i market.obj
 0001:0002d610       ??$compare_and_swap@$0A@@?$atomic_impl@I@internal@tbb@@QEAAIII@Z 000000018002e610 f i market.obj
 0001:0002d670       ??$fetch_and_add@$01@?$atomic_impl_with_arithmetic@_K_KD@internal@tbb@@QEAA_K_K@Z 000000018002e670 f i market.obj
 0001:0002d6b0       ??$fetch_and_increment@$01@?$atomic_impl_with_arithmetic@_K_KD@internal@tbb@@QEAA_KXZ 000000018002e6b0 f i market.obj
 0001:0002d6f0       ??$max@I@internal@tbb@@YAIAEBI0@Z 000000018002e6f0 f i market.obj
 0001:0002d750       ??$max@_J@internal@tbb@@YA_JAEB_J0@Z 000000018002e750 f i market.obj
 0001:0002d7b0       ??$min@H@internal@tbb@@YAHAEBH0@Z 000000018002e7b0 f i market.obj
 0001:0002d810       ??$suppress_unused_warning@PEAVarena@internal@tbb@@@internal@tbb@@YAXAEBQEAVarena@01@@Z 000000018002e810 f i market.obj
 0001:0002d820       ??$to_bits@I@?$atomic_impl@I@internal@tbb@@SAHI@Z 000000018002e820 f i market.obj
 0001:0002d860       ??$to_bits@PEAVarena@internal@tbb@@@?$atomic_impl@PEAVarena@internal@tbb@@@internal@tbb@@SA_JPEAVarena@12@@Z 000000018002e860 f i market.obj
 0001:0002d8a0       ??$to_bits_ref@$$CDH@?$atomic_impl@H@internal@tbb@@SAAEAHAEDH@Z 000000018002e8a0 f i market.obj
 0001:0002d8e0       ??$to_bits_ref@$$CD_J@?$atomic_impl@_J@internal@tbb@@SAAEA_JAED_J@Z 000000018002e8e0 f i market.obj
 0001:0002d920       ??$to_bits_ref@PEAVarena@internal@tbb@@@?$atomic_impl@PEAVarena@internal@tbb@@@internal@tbb@@SAAEA_JAEAPEAVarena@12@@Z 000000018002e920 f i market.obj
 0001:0002d960       ??$to_value@H@?$atomic_impl@H@internal@tbb@@SAHH@Z 000000018002e960 f i market.obj
 0001:0002d9b0       ??$to_value@_J@?$atomic_impl@_J@internal@tbb@@SA_J_J@Z 000000018002e9b0 f i market.obj
 0001:0002da10       ??0?$converter@PEAVarena@internal@tbb@@@?$atomic_impl@PEAVarena@internal@tbb@@@internal@tbb@@QEAA@PEAVarena@23@@Z 000000018002ea10 f i market.obj
 0001:0002da30       ??0?$converter@_J@?$atomic_impl@_J@internal@tbb@@QEAA@XZ 000000018002ea30 f i market.obj
 0001:0002da40       ??0?$intrusive_list@Varena@internal@tbb@@@internal@tbb@@QEAA@XZ 000000018002ea40 f i market.obj
 0001:0002da80       ??0?$intrusive_list@Vgeneric_scheduler@internal@tbb@@@internal@tbb@@QEAA@XZ 000000018002ea80 f i market.obj
 0001:0002dac0       ??0?$intrusive_list_base@V?$intrusive_list@Varena@internal@tbb@@@internal@tbb@@Varena@23@@internal@tbb@@QEAA@XZ 000000018002eac0 f i market.obj
 0001:0002db20       ??0?$intrusive_list_base@V?$intrusive_list@Vgeneric_scheduler@internal@tbb@@@internal@tbb@@Vgeneric_scheduler@23@@internal@tbb@@QEAA@XZ 000000018002eb20 f i market.obj
 0001:0002db80       ??0?$iterator_impl@Viterator@?$intrusive_list_base@V?$intrusive_list@Varena@internal@tbb@@@internal@tbb@@Varena@23@@internal@tbb@@@?$intrusive_list_base@V?$intrusive_list@Varena@internal@tbb@@@internal@tbb@@Varena@23@@internal@tbb@@IEAA@PEAUintrusive_list_node@23@@Z 000000018002eb80 f i market.obj
 0001:0002dba0       ??0?$ptr_converter@PEAPEAVarena@internal@tbb@@@?$atomic_impl@PEAVarena@internal@tbb@@@internal@tbb@@QEAA@PEAPEAVarena@23@@Z 000000018002eba0 f i market.obj
 0001:0002dbc0       ??0?$ptr_converter@PED_J@?$atomic_impl@_J@internal@tbb@@QEAA@PED_J@Z 000000018002ebc0 f i market.obj
 0001:0002dbe0       ??0client@rml@@QEAA@XZ     000000018002ebe0 f i market.obj
 0001:0002dc30       ??0intrusive_list_node@internal@tbb@@QEAA@XZ 000000018002ec30 f i market.obj
 0001:0002dc60       ??0iterator@?$intrusive_list_base@V?$intrusive_list@Varena@internal@tbb@@@internal@tbb@@Varena@23@@internal@tbb@@QEAA@PEAUintrusive_list_node@23@@Z 000000018002ec60 f i market.obj
 0001:0002dca0       ??0priority_level_info@market@internal@tbb@@QEAA@XZ 000000018002eca0 f i market.obj
 0001:0002dce0       ??0scoped_lock@spin_rw_mutex_v3@tbb@@QEAA@AEAV12@_N@Z 000000018002ece0 f i market.obj
 0001:0002dd40       ??0spin_rw_mutex_v3@tbb@@QEAA@XZ 000000018002ed40 f i market.obj
 0001:0002dd90       ??0tbb_client@rml@internal@tbb@@QEAA@XZ 000000018002ed90 f i market.obj
 0001:0002dde0       ??1market@internal@tbb@@QEAA@XZ 000000018002ede0 f i market.obj
 0001:0002de20       ??1scoped_lock@spin_rw_mutex_v3@tbb@@QEAA@XZ 000000018002ee20 f i market.obj
 0001:0002de70       ??1spin_rw_mutex_v3@tbb@@QEAA@XZ 000000018002ee70 f i market.obj
 0001:0002ded0       ??4?$atomic@PEAVarena@internal@tbb@@@tbb@@QEAAPEAVarena@internal@1@PEAV231@@Z 000000018002eed0 f i market.obj
 0001:0002df10       ??8?$iterator_impl@Viterator@?$intrusive_list_base@V?$intrusive_list@Varena@internal@tbb@@@internal@tbb@@Varena@23@@internal@tbb@@@?$intrusive_list_base@V?$intrusive_list@Varena@internal@tbb@@@internal@tbb@@Varena@23@@internal@tbb@@QEBA_NAEBViterator@123@@Z 000000018002ef10 f i market.obj
 0001:0002df60       ??9?$iterator_impl@Viterator@?$intrusive_list_base@V?$intrusive_list@Varena@internal@tbb@@@internal@tbb@@Varena@23@@internal@tbb@@@?$intrusive_list_base@V?$intrusive_list@Varena@internal@tbb@@@internal@tbb@@Varena@23@@internal@tbb@@QEBA_NAEBViterator@123@@Z 000000018002ef60 f i market.obj
 0001:0002dfb0       ??B?$atomic_impl@_J@internal@tbb@@QEDA_JXZ 000000018002efb0 f i market.obj
 0001:0002e000       ??Citerator@?$intrusive_list_base@V?$intrusive_list@Varena@internal@tbb@@@internal@tbb@@Varena@23@@internal@tbb@@QEBAPEAVarena@23@XZ 000000018002f000 f i market.obj
 0001:0002e030       ??Diterator@?$intrusive_list_base@V?$intrusive_list@Varena@internal@tbb@@@internal@tbb@@Varena@23@@internal@tbb@@QEBAAEAVarena@23@XZ 000000018002f030 f i market.obj
 0001:0002e060       ??E?$iterator_impl@Viterator@?$intrusive_list_base@V?$intrusive_list@Varena@internal@tbb@@@internal@tbb@@Varena@23@@internal@tbb@@@?$intrusive_list_base@V?$intrusive_list@Varena@internal@tbb@@@internal@tbb@@Varena@23@@internal@tbb@@QEAAAEAViterator@123@XZ 000000018002f060 f i market.obj
 0001:0002e0b0       ??Y?$atomic_impl_with_arithmetic@IID@internal@tbb@@QEAAII@Z 000000018002f0b0 f i market.obj
 0001:0002e0f0       ??_H@YAXPEAX_K1P6APEAX0@Z@Z 000000018002f0f0 f i market.obj
 0001:0002e180       ?acquire@scoped_lock@spin_mutex@tbb@@QEAAXAEAV23@@Z 000000018002f180 f i market.obj
 0001:0002e1c0       ?advance_global_reload_epoch@market@internal@tbb@@AEAAXXZ 000000018002f1c0 f i market.obj
 0001:0002e210       ?assert_market_valid@market@internal@tbb@@AEBAXXZ 000000018002f210 f i market.obj
 0001:0002e2b0       ?assert_ok@?$intrusive_list_base@V?$intrusive_list@Varena@internal@tbb@@@internal@tbb@@Varena@23@@internal@tbb@@AEBAXXZ 000000018002f2b0 f i market.obj
 0001:0002e330       ?assert_priority_valid@internal@tbb@@YAX_J@Z 000000018002f330 f i market.obj
 0001:0002e390       ?begin@?$intrusive_list_base@V?$intrusive_list@Varena@internal@tbb@@@internal@tbb@@Varena@23@@internal@tbb@@QEAA?AViterator@123@XZ 000000018002f390 f i market.obj
 0001:0002e3e0       ?compare_and_swap@?$atomic_impl@I@internal@tbb@@QEAAIII@Z 000000018002f3e0 f i market.obj
 0001:0002e420       ?empty@?$intrusive_list_base@V?$intrusive_list@Varena@internal@tbb@@@internal@tbb@@Varena@23@@internal@tbb@@QEBA_NXZ 000000018002f420 f i market.obj
 0001:0002e470       ?empty@?$task_stream@$02@internal@tbb@@QEAA_NH@Z 000000018002f470 f i market.obj
 0001:0002e4c0       ?end@?$intrusive_list_base@V?$intrusive_list@Varena@internal@tbb@@@internal@tbb@@Varena@23@@internal@tbb@@QEAA?AViterator@123@XZ 000000018002f4c0 f i market.obj
 0001:0002e500       ?fetch_and_add@?$atomic_traits@$07$01@internal@tbb@@SA_JPECX_J@Z 000000018002f500 f i market.obj
 0001:0002e540       ?item@?$intrusive_list@Varena@internal@tbb@@@internal@tbb@@CAAEAVarena@23@PEAUintrusive_list_node@23@@Z 000000018002f540 f i market.obj
 0001:0002e550       ?item@?$intrusive_list_base@V?$intrusive_list@Varena@internal@tbb@@@internal@tbb@@Varena@23@@internal@tbb@@CAAEAVarena@23@PEAUintrusive_list_node@23@@Z 000000018002f550 f i market.obj
 0001:0002e580       ?item@?$iterator_impl@Viterator@?$intrusive_list_base@V?$intrusive_list@Varena@internal@tbb@@@internal@tbb@@Varena@23@@internal@tbb@@@?$intrusive_list_base@V?$intrusive_list@Varena@internal@tbb@@@internal@tbb@@Varena@23@@internal@tbb@@IEBAAEAVarena@34@XZ 000000018002f580 f i market.obj
 0001:0002e5c0       ?load_with_acquire@?$machine_load_store@I$03@internal@tbb@@SAIAEDI@Z 000000018002f5c0 f i market.obj
 0001:0002e600       ?lock@spin_rw_mutex_v3@tbb@@QEAAXXZ 000000018002f600 f i market.obj
 0001:0002e630       ?max_job_count@market@internal@tbb@@EEBAIXZ 000000018002f630 f i market.obj
 0001:0002e640       ?min_stack_size@market@internal@tbb@@EEBA_KXZ 000000018002f640 f i market.obj
 0001:0002e670       ?must_have_concurrency@arena@internal@tbb@@QEBA_NXZ 000000018002f670 f i market.obj
 0001:0002e6e0       ?must_join_workers@market@internal@tbb@@QEBA_NXZ 000000018002f6e0 f i market.obj
 0001:0002e700       ?node@?$intrusive_list@Varena@internal@tbb@@@internal@tbb@@CAAEAUintrusive_list_node@23@AEAVarena@23@@Z 000000018002f700 f i market.obj
 0001:0002e710       ?node@?$intrusive_list_base@V?$intrusive_list@Varena@internal@tbb@@@internal@tbb@@Varena@23@@internal@tbb@@CAAEAUintrusive_list_node@23@AEAVarena@23@@Z 000000018002f710 f i market.obj
 0001:0002e740       ?num_workers_active@arena@internal@tbb@@QEAAIXZ 000000018002f740 f i market.obj
 0001:0002e780       ?policy@market@internal@tbb@@EEBA?AW4policy_type@client@rml@@XZ 000000018002f780 f i market.obj
 0001:0002e790       ?push_front@?$intrusive_list_base@V?$intrusive_list@Varena@internal@tbb@@@internal@tbb@@Varena@23@@internal@tbb@@QEAAXAEAVarena@23@@Z 000000018002f790 f i market.obj
 0001:0002e8a0       ?recall_by_mandatory_request@arena@internal@tbb@@QEBA_NXZ 000000018002f8a0 f i market.obj
 0001:0002e900       ?release@scoped_lock@spin_mutex@tbb@@QEAAXXZ 000000018002f900 f i market.obj
 0001:0002e930       ?remove@?$intrusive_list_base@V?$intrusive_list@Varena@internal@tbb@@@internal@tbb@@Varena@23@@internal@tbb@@QEAAXAEAVarena@23@@Z 000000018002f930 f i market.obj
 0001:0002eae0       ?reset_global_priority@market@internal@tbb@@AEAAXXZ 000000018002fae0 f i market.obj
 0001:0002eb20       ?self@?$iterator_impl@Viterator@?$intrusive_list_base@V?$intrusive_list@Varena@internal@tbb@@@internal@tbb@@Varena@23@@internal@tbb@@@?$intrusive_list_base@V?$intrusive_list@Varena@internal@tbb@@@internal@tbb@@Varena@23@@internal@tbb@@AEAAAEAViterator@234@XZ 000000018002fb20 f i market.obj
 0001:0002eb30       ?size@?$intrusive_list_base@V?$intrusive_list@Varena@internal@tbb@@@internal@tbb@@Varena@23@@internal@tbb@@QEBA_KXZ 000000018002fb30 f i market.obj
 0001:0002eb50       ?store_with_release@?$atomic_impl@PEAVarena@internal@tbb@@@internal@tbb@@IEAAPEAVarena@23@PEAV423@@Z 000000018002fb50 f i market.obj
 0001:0002ebb0       ?unlock@spin_rw_mutex_v3@tbb@@QEAAXXZ 000000018002fbb0 f i market.obj
 0001:0002ec00       ?update_global_top_priority@market@internal@tbb@@AEAAX_J@Z 000000018002fc00 f i market.obj
 0001:0002ec80       ?version@market@internal@tbb@@EEBAIXZ 000000018002fc80 f i market.obj
 0001:0002ec90       ?worker_stack_size@market@internal@tbb@@QEBA_KXZ 000000018002fc90 f i market.obj
 0001:0002ee80       ?attach_arena@generic_scheduler@internal@tbb@@QEAAXPEAVarena@23@_K_N@Z 000000018002fe80 f   arena.obj
 0001:0002f020       ?nested_arena_entry@generic_scheduler@internal@tbb@@QEAAXPEAVarena@23@_K@Z 0000000180030020 f   arena.obj
 0001:0002f1c0       ?nested_arena_exit@generic_scheduler@internal@tbb@@QEAAXXZ 00000001800301c0 f   arena.obj
 0001:0002f300       ?wait_until_empty@generic_scheduler@internal@tbb@@QEAAXXZ 0000000180030300 f   arena.obj
 0001:0002f3d0       ?internal_initialize@task_arena_base@internal@interface7@tbb@@IEAAXXZ 00000001800303d0 f   arena.obj
 0001:0002f5b0       ?internal_terminate@task_arena_base@internal@interface7@tbb@@IEAAXXZ 00000001800305b0 f   arena.obj
 0001:0002f630       ?internal_attach@task_arena_base@internal@interface7@tbb@@IEAAXXZ 0000000180030630 f   arena.obj
 0001:0002f7d0       ?internal_enqueue@task_arena_base@internal@interface7@tbb@@IEBAXAEAVtask@4@_J@Z 00000001800307d0 f   arena.obj
 0001:0002f910       ?internal_execute@task_arena_base@internal@interface7@tbb@@IEBAXAEAVdelegate_base@234@@Z 0000000180030910 f   arena.obj
 0001:0002ff80       ?internal_wait@task_arena_base@internal@interface7@tbb@@IEBAXXZ 0000000180030f80 f   arena.obj
 0001:000302c0       ?internal_current_slot@task_arena_base@internal@interface7@tbb@@KAHXZ 00000001800312c0 f   arena.obj
 0001:00030310       ?internal_max_concurrency@task_arena_base@internal@interface7@tbb@@KAHPEBVtask_arena@34@@Z 0000000180031310 f   arena.obj
 0001:00030400       ?isolate_within_arena@internal@interface7@tbb@@YAXAEAVdelegate_base@123@_J@Z 0000000180031400 f   arena.obj
 0001:000304f0       ?restore_priority_if_need@arena@internal@tbb@@AEAAXXZ 00000001800314f0 f   arena.obj
 0001:000305c0       ??0arena@internal@tbb@@QEAA@AEAVmarket@12@II@Z 00000001800315c0 f   arena.obj
 0001:00030a20       ?allocate_arena@arena@internal@tbb@@SAAEAV123@AEAVmarket@23@II@Z 0000000180031a20 f   arena.obj
 0001:00030b70       ?free_arena@arena@internal@tbb@@QEAAXXZ 0000000180031b70 f   arena.obj
 0001:00030f70       ?is_out_of_work@arena@internal@tbb@@QEAA_NXZ 0000000180031f70 f   arena.obj
 0001:00031610       ?enqueue_task@arena@internal@tbb@@QEAAXAEAVtask@3@_JAEAVFastRandom@23@@Z 0000000180032610 f   arena.obj
 0001:00031880       ?process@arena@internal@tbb@@QEAAXAEAVgeneric_scheduler@23@@Z 0000000180032880 f   arena.obj
 0001:00031e10       ?orphan_offloaded_tasks@arena@internal@tbb@@QEAAXAEAVgeneric_scheduler@23@@Z 0000000180032e10 f   arena.obj
 0001:00031f40       ?workers_task_node_count@arena@internal@tbb@@QEAA_JXZ 0000000180032f40 f   arena.obj
 0001:00031fe0       ?has_enqueued_tasks@arena@internal@tbb@@QEAA_NXZ 0000000180032fe0 f   arena.obj
 0001:00032050       ?occupy_free_slot_in_range@arena@internal@tbb@@QEAA_KAEAVgeneric_scheduler@23@_K1@Z 0000000180033050 f   arena.obj
 0001:00032260       ??$?0$$V@?$_Compressed_pair@V?$tbb_allocator@PEAVtask@tbb@@@tbb@@V?$_Deque_val@U?$_Deque_simple_types@PEAVtask@tbb@@@std@@@std@@$00@std@@QEAA@U_Zero_then_variadic_args_t@1@@Z 0000000180033260 f i arena.obj
 0001:000322b0       ??$?0PEAVtask@tbb@@@?$tbb_allocator@PEAPEAVtask@tbb@@@tbb@@QEAA@AEBV?$tbb_allocator@PEAVtask@tbb@@@1@@Z 00000001800332b0 f i arena.obj
 0001:000322d0       ??$?0PEAVtask@tbb@@@?$tbb_allocator@U_Container_proxy@std@@@tbb@@QEAA@AEBV?$tbb_allocator@PEAVtask@tbb@@@1@@Z 00000001800332d0 f i arena.obj
 0001:000322f0       ??$?0U?$integral_constant@_N$0A@@std@@@_Unused_parameter@std@@QEAA@$$QEAU?$integral_constant@_N$0A@@1@@Z 00000001800332f0 f i arena.obj
 0001:00032310       ??$_Construct1@PEAPEAVtask@tbb@@$$V@?$_Normal_allocator_traits@V?$tbb_allocator@PEAPEAVtask@tbb@@@tbb@@@std@@SAXU?$integral_constant@_N$0A@@1@AEAV?$tbb_allocator@PEAPEAVtask@tbb@@@tbb@@PEAPEAPEAVtask@4@@Z 0000000180033310 f i arena.obj
 0001:00032350       ??$_Construct1@PEAPEAVtask@tbb@@AEAPEAPEAV12@@?$_Normal_allocator_traits@V?$tbb_allocator@PEAPEAVtask@tbb@@@tbb@@@std@@SAXU?$integral_constant@_N$0A@@1@AEAV?$tbb_allocator@PEAPEAVtask@tbb@@@tbb@@PEAPEAPEAVtask@4@AEAPEAPEAV54@@Z 0000000180033350 f i arena.obj
 0001:000323a0       ??$_Construct1@PEAVtask@tbb@@AEBQEAV12@@?$_Normal_allocator_traits@V?$tbb_allocator@PEAVtask@tbb@@@tbb@@@std@@SAXU?$integral_constant@_N$0A@@1@AEAV?$tbb_allocator@PEAVtask@tbb@@@tbb@@PEAPEAVtask@4@AEBQEAV54@@Z 00000001800333a0 f i arena.obj
 0001:000323f0       ??$_Construct1@U_Container_proxy@std@@U12@@?$_Normal_allocator_traits@V?$tbb_allocator@U_Container_proxy@std@@@tbb@@@std@@SAXU?$integral_constant@_N$0A@@1@AEAV?$tbb_allocator@U_Container_proxy@std@@@tbb@@PEAU_Container_proxy@1@$$QEAU51@@Z 00000001800333f0 f i arena.obj
 0001:00032440       ??$_Deallocate_plain@V?$tbb_allocator@U_Container_proxy@std@@@tbb@@$0A@@std@@YAXAEAV?$tbb_allocator@U_Container_proxy@std@@@tbb@@QEAU_Container_proxy@0@@Z 0000000180033440 f i arena.obj
 0001:00032480       ??$_Destroy1@PEAPEAVtask@tbb@@@?$_Normal_allocator_traits@V?$tbb_allocator@PEAPEAVtask@tbb@@@tbb@@@std@@SAXAEAV?$tbb_allocator@PEAPEAVtask@tbb@@@tbb@@PEAPEAPEAVtask@3@U?$integral_constant@_N$0A@@1@@Z 0000000180033480 f i arena.obj
 0001:000324c0       ??$_Destroy1@PEAVtask@tbb@@@?$_Normal_allocator_traits@V?$tbb_allocator@PEAVtask@tbb@@@tbb@@@std@@SAXAEAV?$tbb_allocator@PEAVtask@tbb@@@tbb@@PEAPEAVtask@3@U?$integral_constant@_N$0A@@1@@Z 00000001800334c0 f i arena.obj
 0001:00032500       ??$_Destroy1@U_Container_proxy@std@@@?$_Normal_allocator_traits@V?$tbb_allocator@U_Container_proxy@std@@@tbb@@@std@@SAXAEAV?$tbb_allocator@U_Container_proxy@std@@@tbb@@PEAU_Container_proxy@1@U?$integral_constant@_N$0A@@1@@Z 0000000180033500 f i arena.obj
 0001:00032540       ??$_Destroy_range1@V?$tbb_allocator@PEAPEAVtask@tbb@@@tbb@@@std@@YAXPEAPEAPEAVtask@tbb@@0AEAV?$tbb_allocator@PEAPEAVtask@tbb@@@2@U?$integral_constant@_N$0A@@0@@Z 0000000180033540 f i arena.obj
 0001:000325b0       ??$_Destroy_range@V?$tbb_allocator@PEAPEAVtask@tbb@@@tbb@@@std@@YAXPEAPEAPEAVtask@tbb@@0AEAV?$tbb_allocator@PEAPEAVtask@tbb@@@2@@Z 00000001800335b0 f i arena.obj
 0001:00032600       ??$_Emplace_back@$$V@?$_Uninitialized_backout_al@PEAPEAPEAVtask@tbb@@V?$tbb_allocator@PEAPEAVtask@tbb@@@2@@std@@QEAAXXZ 0000000180033600 f i arena.obj
 0001:00032660       ??$_Emplace_back@AEAPEAPEAVtask@tbb@@@?$_Uninitialized_backout_al@PEAPEAPEAVtask@tbb@@V?$tbb_allocator@PEAPEAVtask@tbb@@@2@@std@@QEAAXAEAPEAPEAVtask@tbb@@@Z 0000000180033660 f i arena.obj
 0001:000326e0       ??$_Ptr_copy_cat@PEAPEAVtask@tbb@@PEAPEAV12@@std@@YA?AU_Really_trivial_ptr_iterator_tag@0@AEBQEAPEAPEAVtask@tbb@@0@Z 00000001800336e0 f i arena.obj
 0001:00032700       ??$_Rechecked@PEAPEAPEAVtask@tbb@@PEAPEAPEAV12@@std@@YAAEAPEAPEAPEAVtask@tbb@@AEAPEAPEAPEAV12@QEAPEAPEAV12@@Z 0000000180033700 f i arena.obj
 0001:00032720       ??$_Unchecked@PEAPEAPEAVtask@tbb@@@std@@YAPEAPEAPEAVtask@tbb@@PEAPEAPEAV12@@Z 0000000180033720 f i arena.obj
 0001:00032730       ??$_Unfancy@PEAPEAVtask@tbb@@@std@@YAPEAPEAPEAVtask@tbb@@PEAPEAPEAV12@@Z 0000000180033730 f i arena.obj
 0001:00032740       ??$_Unfancy@PEAVtask@tbb@@@std@@YAPEAPEAVtask@tbb@@PEAPEAV12@@Z 0000000180033740 f i arena.obj
 0001:00032750       ??$_Unfancy@U_Container_proxy@std@@@std@@YAPEAU_Container_proxy@0@PEAU10@@Z 0000000180033750 f i arena.obj
 0001:00032760       ??$_Uninitialized_copy@PEAPEAPEAVtask@tbb@@PEAPEAPEAV12@V?$tbb_allocator@PEAPEAVtask@tbb@@@2@@std@@YAPEAPEAPEAVtask@tbb@@QEAPEAPEAV12@0PEAPEAPEAV12@AEAV?$tbb_allocator@PEAPEAVtask@tbb@@@2@@Z 0000000180033760 f i arena.obj
 0001:00032860       ??$_Uninitialized_copy_al_unchecked@PEAPEAPEAVtask@tbb@@PEAPEAPEAV12@V?$tbb_allocator@PEAPEAVtask@tbb@@@2@@std@@YAPEAPEAPEAVtask@tbb@@PEAPEAPEAV12@QEAPEAPEAV12@1AEAV?$tbb_allocator@PEAPEAVtask@tbb@@@2@U_General_ptr_iterator_tag@0@U_Unused_parameter@0@@Z 0000000180033860 f i arena.obj
 0001:00032920       ??$_Uninitialized_value_construct_n1@PEAPEAPEAVtask@tbb@@_KV?$tbb_allocator@PEAPEAVtask@tbb@@@2@@std@@YAPEAPEAPEAVtask@tbb@@QEAPEAPEAV12@_KAEAV?$tbb_allocator@PEAPEAVtask@tbb@@@2@U?$integral_constant@_N$0A@@0@@Z 0000000180033920 f i arena.obj
 0001:000329d0       ??$_Uninitialized_value_construct_n@PEAPEAPEAVtask@tbb@@_KV?$tbb_allocator@PEAPEAVtask@tbb@@@2@@std@@YAPEAPEAPEAVtask@tbb@@PEAPEAPEAV12@_KAEAV?$tbb_allocator@PEAPEAVtask@tbb@@@2@@Z 00000001800339d0 f i arena.obj
 0001:00032a20       ??$__TBB_load_with_acquire@PEAVgeneric_scheduler@internal@tbb@@@internal@tbb@@YAPEAVgeneric_scheduler@01@AEDSEAV201@@Z 0000000180033a20 f i arena.obj
 0001:00032a50       ??$__TBB_load_with_acquire@PEAVtask@tbb@@@internal@tbb@@YAPEAVtask@1@AEDSEAV21@@Z 0000000180033a50 f i arena.obj
 0001:00032a80       ??$__TBB_store_with_release@PEAVgeneric_scheduler@internal@tbb@@PEAV123@@internal@tbb@@YAXAECREAVgeneric_scheduler@01@PEAV201@@Z 0000000180033a80 f i arena.obj
 0001:00032ac0       ??$__TBB_store_with_release@_JH@internal@tbb@@YAXAEC_JH@Z 0000000180033ac0 f i arena.obj
 0001:00032b00       ??$addressof@PEAPEAVtask@tbb@@@std@@YAPEAPEAPEAVtask@tbb@@AEAPEAPEAV12@@Z 0000000180033b00 f i arena.obj
 0001:00032b10       ??$addressof@V?$_Deque_val@U?$_Deque_simple_types@PEAVtask@tbb@@@std@@@std@@@std@@YAPEAV?$_Deque_val@U?$_Deque_simple_types@PEAVtask@tbb@@@std@@@0@AEAV10@@Z 0000000180033b10 f i arena.obj
 0001:00032b20       ??$advertise_new_work@$01@arena@internal@tbb@@QEAAXXZ 0000000180033b20 f i arena.obj
 0001:00032e30       ??$as_atomic@PEAVgeneric_scheduler@internal@tbb@@@internal@tbb@@YAAEAU?$atomic@PEAVgeneric_scheduler@internal@tbb@@@1@AEAPEAVgeneric_scheduler@01@@Z 0000000180033e30 f i arena.obj
 0001:00032e40       ??$as_atomic@PEAVtask@tbb@@@internal@tbb@@YAAEAU?$atomic@PEAVtask@tbb@@@1@AEAPEAVtask@1@@Z 0000000180033e40 f i arena.obj
 0001:00032e50       ??$as_atomic@PEAVtask_group_context@tbb@@@internal@tbb@@YAAEAU?$atomic@PEAVtask_group_context@tbb@@@1@AEAPEAVtask_group_context@1@@Z 0000000180033e50 f i arena.obj
 0001:00032e60       ??$atomic_update@IIU?$less@I@std@@@internal@tbb@@YAIAEAU?$atomic@I@1@IU?$less@I@std@@@Z 0000000180033e60 f i arena.obj
 0001:00032f00       ??$atomic_update@_J_JU?$less@_J@std@@@internal@tbb@@YA_JAEAU?$atomic@_J@1@_JU?$less@_J@std@@@Z 0000000180033f00 f i arena.obj
 0001:00032fa0       ??$compare_and_swap@$0A@@?$atomic_impl@PEAVarena@internal@tbb@@@internal@tbb@@QEAAPEAVarena@12@PEAV312@0@Z 0000000180033fa0 f i arena.obj
 0001:00033010       ??$compare_and_swap@$0A@@?$atomic_impl@PEAVgeneric_scheduler@internal@tbb@@@internal@tbb@@QEAAPEAVgeneric_scheduler@12@PEAV312@0@Z 0000000180034010 f i arena.obj
 0001:00033080       ??$compare_and_swap@$0A@@?$atomic_impl@PEAVtask@tbb@@@internal@tbb@@QEAAPEAVtask@2@PEAV32@0@Z 0000000180034080 f i arena.obj
 0001:000330f0       ??$compare_and_swap@$0A@@?$atomic_impl@_J@internal@tbb@@QEAA_J_J0@Z 00000001800340f0 f i arena.obj
 0001:00033160       ??$construct@PEAPEAVtask@tbb@@$$V@?$_Normal_allocator_traits@V?$tbb_allocator@PEAPEAVtask@tbb@@@tbb@@@std@@SAXAEAV?$tbb_allocator@PEAPEAVtask@tbb@@@tbb@@PEAPEAPEAVtask@3@@Z 0000000180034160 f i arena.obj
 0001:000331a0       ??$construct@PEAPEAVtask@tbb@@$$V@?$tbb_allocator@PEAPEAVtask@tbb@@@tbb@@QEAAXPEAPEAPEAVtask@1@@Z 00000001800341a0 f i arena.obj
 0001:00033220       ??$construct@PEAPEAVtask@tbb@@AEAPEAPEAV12@@?$_Normal_allocator_traits@V?$tbb_allocator@PEAPEAVtask@tbb@@@tbb@@@std@@SAXAEAV?$tbb_allocator@PEAPEAVtask@tbb@@@tbb@@PEAPEAPEAVtask@3@AEAPEAPEAV43@@Z 0000000180034220 f i arena.obj
 0001:00033270       ??$construct@PEAPEAVtask@tbb@@AEAPEAPEAV12@@?$tbb_allocator@PEAPEAVtask@tbb@@@tbb@@QEAAXPEAPEAPEAVtask@1@AEAPEAPEAV21@@Z 0000000180034270 f i arena.obj
 0001:000332d0       ??$construct@PEAVtask@tbb@@AEBQEAV12@@?$_Normal_allocator_traits@V?$tbb_allocator@PEAVtask@tbb@@@tbb@@@std@@SAXAEAV?$tbb_allocator@PEAVtask@tbb@@@tbb@@PEAPEAVtask@3@AEBQEAV43@@Z 00000001800342d0 f i arena.obj
 0001:00033320       ??$construct@PEAVtask@tbb@@AEBQEAV12@@?$tbb_allocator@PEAVtask@tbb@@@tbb@@QEAAXPEAPEAVtask@1@AEBQEAV21@@Z 0000000180034320 f i arena.obj
 0001:00033380       ??$construct@U_Container_proxy@std@@U12@@?$_Normal_allocator_traits@V?$tbb_allocator@U_Container_proxy@std@@@tbb@@@std@@SAXAEAV?$tbb_allocator@U_Container_proxy@std@@@tbb@@PEAU_Container_proxy@1@$$QEAU41@@Z 0000000180034380 f i arena.obj
 0001:000333d0       ??$construct@U_Container_proxy@std@@U12@@?$tbb_allocator@U_Container_proxy@std@@@tbb@@QEAAXPEAU_Container_proxy@std@@$$QEAU23@@Z 00000001800343d0 f i arena.obj
 0001:00033430       ??$destroy@PEAPEAVtask@tbb@@@?$_Normal_allocator_traits@V?$tbb_allocator@PEAPEAVtask@tbb@@@tbb@@@std@@SAXAEAV?$tbb_allocator@PEAPEAVtask@tbb@@@tbb@@PEAPEAPEAVtask@3@@Z 0000000180034430 f i arena.obj
 0001:00033470       ??$destroy@PEAVtask@tbb@@@?$_Normal_allocator_traits@V?$tbb_allocator@PEAVtask@tbb@@@tbb@@@std@@SAXAEAV?$tbb_allocator@PEAVtask@tbb@@@tbb@@PEAPEAVtask@3@@Z 0000000180034470 f i arena.obj
 0001:000334b0       ??$destroy@U_Container_proxy@std@@@?$_Normal_allocator_traits@V?$tbb_allocator@U_Container_proxy@std@@@tbb@@@std@@SAXAEAV?$tbb_allocator@U_Container_proxy@std@@@tbb@@PEAU_Container_proxy@1@@Z 00000001800344b0 f i arena.obj
 0001:000334f0       ??$fetch_and_add@$0A@@?$atomic_impl_with_arithmetic@_J_JD@internal@tbb@@QEAA_J_J@Z 00000001800344f0 f i arena.obj
 0001:00033530       ??$forward@AEAPEAPEAVtask@tbb@@@std@@YAAEAPEAPEAVtask@tbb@@AEAPEAPEAV12@@Z 0000000180034530 f i arena.obj
 0001:00033540       ??$forward@AEBQEAVtask@tbb@@@std@@YAAEBQEAVtask@tbb@@AEBQEAV12@@Z 0000000180034540 f i arena.obj
 0001:00033550       ??$forward@U_Container_proxy@std@@@std@@YA$$QEAU_Container_proxy@0@AEAU10@@Z 0000000180034550 f i arena.obj
 0001:00033560       ??$forward@Vspawn_functor@graph@interface10@flow@tbb@@@std@@YA$$QEAVspawn_functor@graph@interface10@flow@tbb@@AEAV12345@@Z 0000000180034560 f i arena.obj
 0001:00033570       ??$free_task@$02@generic_scheduler@internal@tbb@@QEAAXAEAVtask@2@@Z 0000000180034570 f i arena.obj
 0001:00033730       ??$move@AEAVspawn_functor@graph@interface10@flow@tbb@@@std@@YA$$QEAVspawn_functor@graph@interface10@flow@tbb@@AEAV12345@@Z 0000000180034730 f i arena.obj
 0001:00033740       ??$notify@Vdelegated_task@internal@interface7@tbb@@@concurrent_monitor@internal@tbb@@QEAAXAEBVdelegated_task@1interface7@2@@Z 0000000180034740 f i arena.obj
 0001:00033780       ??$notify_relaxed@Vdelegated_task@internal@interface7@tbb@@@concurrent_monitor@internal@tbb@@QEAAXAEBVdelegated_task@1interface7@2@@Z 0000000180034780 f i arena.obj
 0001:000339c0       ??$occupy_free_slot@$00@arena@internal@tbb@@QEAA_KAEAVgeneric_scheduler@12@@Z 00000001800349c0 f i arena.obj
 0001:00033ad0       ??$occupy_free_slot@$0A@@arena@internal@tbb@@QEAA_KAEAVgeneric_scheduler@12@@Z 0000000180034ad0 f i arena.obj
 0001:00033be0       ??$on_thread_leaving@$00@arena@internal@tbb@@QEAAXXZ 0000000180034be0 f i arena.obj
 0001:00033d10       ??$on_thread_leaving@$0BAAA@@arena@internal@tbb@@QEAAXXZ 0000000180034d10 f i arena.obj
 0001:00033e10       ??$poison_value@PEAVobserver_proxy@internal@tbb@@@internal@tbb@@YAXAEAPEAVobserver_proxy@01@@Z 0000000180034e10 f i arena.obj
 0001:00033e50       ??$punned_cast@PEAPEAVobserver_proxy@internal@tbb@@$$CB_K@internal@tbb@@YAPEAPEAVobserver_proxy@01@PEB_K@Z 0000000180034e50 f i arena.obj
 0001:00033e90       ??$spin_wait_while_eq@PEAVtask_group_context@tbb@@PEAV12@@internal@tbb@@YAXAEDSEAVtask_group_context@1@PEAV21@@Z 0000000180034e90 f i arena.obj
 0001:00033ef0       ??$suppress_unused_warning@$$BY0GI@D@internal@tbb@@YAXAEAY0GI@$$CBD@Z 0000000180034ef0 f i arena.obj
 0001:00033f00       ??$suppress_unused_warning@PEBVtask_group_context@tbb@@@internal@tbb@@YAXAEBQEBVtask_group_context@1@@Z 0000000180034f00 f i arena.obj
 0001:00033f10       ??$to_bits@PEAVgeneric_scheduler@internal@tbb@@@?$atomic_impl@PEAVgeneric_scheduler@internal@tbb@@@internal@tbb@@SA_JPEAVgeneric_scheduler@12@@Z 0000000180034f10 f i arena.obj
 0001:00033f50       ??$to_bits@PEAVtask@tbb@@@?$atomic_impl@PEAVtask@tbb@@@internal@tbb@@SA_JPEAVtask@2@@Z 0000000180034f50 f i arena.obj
 0001:00033f90       ??$to_bits@PEAVtask_group_context@tbb@@@?$atomic_impl@PEAVtask_group_context@tbb@@@internal@tbb@@SA_JPEAVtask_group_context@2@@Z 0000000180034f90 f i arena.obj
 0001:00033fd0       ??$to_bits@_J@?$atomic_impl@_J@internal@tbb@@SA_J_J@Z 0000000180034fd0 f i arena.obj
 0001:00034010       ??$to_bits@_N@?$atomic_impl@_N@internal@tbb@@SAC_N@Z 0000000180035010 f i arena.obj
 0001:00034050       ??$to_bits_ref@$$CD_N@?$atomic_impl@_N@internal@tbb@@SAAEACAED_N@Z 0000000180035050 f i arena.obj
 0001:00034090       ??$to_bits_ref@I@?$atomic_impl@I@internal@tbb@@SAAEAHAEAI@Z 0000000180035090 f i arena.obj
 0001:000340d0       ??$to_bits_ref@PEAVtask_group_context@tbb@@@?$atomic_impl@PEAVtask_group_context@tbb@@@internal@tbb@@SAAEA_JAEAPEAVtask_group_context@2@@Z 00000001800350d0 f i arena.obj
 0001:00034110       ??$to_bits_ref@_N@?$atomic_impl@_N@internal@tbb@@SAAEACAEA_N@Z 0000000180035110 f i arena.obj
 0001:00034150       ??$to_value@PEAVarena@internal@tbb@@@?$atomic_impl@PEAVarena@internal@tbb@@@internal@tbb@@SAPEAVarena@12@_J@Z 0000000180035150 f i arena.obj
 0001:000341b0       ??$to_value@PEAVgeneric_scheduler@internal@tbb@@@?$atomic_impl@PEAVgeneric_scheduler@internal@tbb@@@internal@tbb@@SAPEAVgeneric_scheduler@12@_J@Z 00000001800351b0 f i arena.obj
 0001:00034210       ??$to_value@PEAVtask@tbb@@@?$atomic_impl@PEAVtask@tbb@@@internal@tbb@@SAPEAVtask@2@_J@Z 0000000180035210 f i arena.obj
 0001:00034270       ??$to_value@_N@?$atomic_impl@_N@internal@tbb@@SA_NC@Z 0000000180035270 f i arena.obj
 0001:000342c0       ??0?$_Deque_alloc@U?$_Deque_base_types@PEAVtask@tbb@@V?$tbb_allocator@PEAVtask@tbb@@@2@@std@@@std@@QEAA@XZ 00000001800352c0 f i arena.obj
 0001:00034310       ??0?$_Deque_const_iterator@V?$_Deque_val@U?$_Deque_simple_types@PEAVtask@tbb@@@std@@@std@@@std@@QEAA@_KPEBU_Container_base12@1@@Z 0000000180035310 f i arena.obj
 0001:00034380       ??0?$_Deque_iterator@V?$_Deque_val@U?$_Deque_simple_types@PEAVtask@tbb@@@std@@@std@@@std@@QEAA@_KPEBU_Container_base12@1@@Z 0000000180035380 f i arena.obj
 0001:000343d0       ??0?$_Deque_val@U?$_Deque_simple_types@PEAVtask@tbb@@@std@@@std@@QEAA@XZ 00000001800353d0 f i arena.obj
 0001:00034440       ??0?$_Uninitialized_backout_al@PEAPEAPEAVtask@tbb@@V?$tbb_allocator@PEAPEAVtask@tbb@@@2@@std@@QEAA@PEAPEAPEAVtask@tbb@@AEAV?$tbb_allocator@PEAPEAVtask@tbb@@@3@@Z 0000000180035440 f i arena.obj
 0001:00034480       ??0?$context_guard_helper@$0A@@internal@tbb@@QEAA@XZ 0000000180035480 f i arena.obj
 0001:000344d0       ??0?$converter@PEAVarena@internal@tbb@@@?$atomic_impl@PEAVarena@internal@tbb@@@internal@tbb@@QEAA@XZ 00000001800354d0 f i arena.obj
 0001:000344e0       ??0?$converter@PEAVgeneric_scheduler@internal@tbb@@@?$atomic_impl@PEAVgeneric_scheduler@internal@tbb@@@internal@tbb@@QEAA@PEAVgeneric_scheduler@23@@Z 00000001800354e0 f i arena.obj
 0001:00034500       ??0?$converter@PEAVgeneric_scheduler@internal@tbb@@@?$atomic_impl@PEAVgeneric_scheduler@internal@tbb@@@internal@tbb@@QEAA@XZ 0000000180035500 f i arena.obj
 0001:00034510       ??0?$converter@PEAVtask@tbb@@@?$atomic_impl@PEAVtask@tbb@@@internal@tbb@@QEAA@PEAVtask@3@@Z 0000000180035510 f i arena.obj
 0001:00034530       ??0?$converter@PEAVtask@tbb@@@?$atomic_impl@PEAVtask@tbb@@@internal@tbb@@QEAA@XZ 0000000180035530 f i arena.obj
 0001:00034540       ??0?$converter@PEAVtask_group_context@tbb@@@?$atomic_impl@PEAVtask_group_context@tbb@@@internal@tbb@@QEAA@PEAVtask_group_context@3@@Z 0000000180035540 f i arena.obj
 0001:00034560       ??0?$converter@_J@?$atomic_impl@_J@internal@tbb@@QEAA@_J@Z 0000000180035560 f i arena.obj
 0001:00034580       ??0?$deque@PEAVtask@tbb@@V?$tbb_allocator@PEAVtask@tbb@@@2@@std@@QEAA@XZ 0000000180035580 f i arena.obj
 0001:000345c0       ??0?$function_task@Vspawn_functor@graph@interface10@flow@tbb@@@internal@tbb@@QEAA@$$QEAVspawn_functor@graph@interface10@flow@2@@Z 00000001800355c0 f i arena.obj
 0001:00034620       ??0?$padded@U?$queue_and_mutex@PEAVtask@tbb@@Vspin_mutex@2@@internal@tbb@@$0IA@@internal@tbb@@QEAA@XZ 0000000180035620 f i arena.obj
 0001:00034660       ??0?$padded@Uarena_base@internal@tbb@@$0IA@@internal@tbb@@QEAA@XZ 0000000180035660 f i arena.obj
 0001:000346a0       ??0?$padded@Uintrusive_list_node@internal@tbb@@$0IA@@internal@tbb@@QEAA@XZ 00000001800356a0 f i arena.obj
 0001:000346e0       ??0?$padded_base@U?$queue_and_mutex@PEAVtask@tbb@@Vspin_mutex@2@@internal@tbb@@$0IA@$0DA@@internal@tbb@@QEAA@XZ 00000001800356e0 f i arena.obj
 0001:00034720       ??0?$padded_base@Uarena_base@internal@tbb@@$0IA@$0A@@internal@tbb@@QEAA@XZ 0000000180035720 f i arena.obj
 0001:00034760       ??0?$padded_base@Uintrusive_list_node@internal@tbb@@$0IA@$0BA@@internal@tbb@@QEAA@XZ 0000000180035760 f i arena.obj
 0001:000347a0       ??0?$ptr_converter@PEAPEAVtask_group_context@tbb@@@?$atomic_impl@PEAVtask_group_context@tbb@@@internal@tbb@@QEAA@PEAPEAVtask_group_context@3@@Z 00000001800357a0 f i arena.obj
 0001:000347c0       ??0?$queue_and_mutex@PEAVtask@tbb@@Vspin_mutex@2@@internal@tbb@@QEAA@XZ 00000001800357c0 f i arena.obj
 0001:00034820       ??0?$task_stream@$02@internal@tbb@@QEAA@XZ 0000000180035820 f i arena.obj
 0001:000348b0       ??0?$tbb_allocator@PEAVtask@tbb@@@tbb@@QEAA@XZ 00000001800358b0 f i arena.obj
 0001:000348c0       ??0_Container_base12@std@@QEAA@XZ 00000001800358c0 f i arena.obj
 0001:000348e0       ??0_Container_proxy@std@@QEAA@XZ 00000001800358e0 f i arena.obj
 0001:00034910       ??0_Iterator_base12@std@@QEAA@XZ 0000000180035910 f i arena.obj
 0001:00034940       ??0arena_base@internal@tbb@@QEAA@XZ 0000000180035940 f i arena.obj
 0001:000349c0       ??0auto_empty_task@internal@tbb@@QEAA@PEAVgeneric_scheduler@12@PEAVtask_group_context@2@@Z 00000001800359c0 f i arena.obj
 0001:00034a40       ??0delegated_task@internal@interface7@tbb@@QEAA@AEAVdelegate_base@123@AEAVconcurrent_monitor@13@PEAVtask@3@@Z 0000000180035a40 f i arena.obj
 0001:00034ac0       ??0empty_task@tbb@@QEAA@XZ 0000000180035ac0 f i arena.obj
 0001:00034b10       ??0isolation_guard@internal@interface7@tbb@@QEAA@AEA_J@Z 0000000180035b10 f i arena.obj
 0001:00034b70       ??0mail_inbox@internal@tbb@@QEAA@XZ 0000000180035b70 f i arena.obj
 0001:00034b90       ??0nested_arena_context@internal@tbb@@QEAA@PEAVgeneric_scheduler@12@PEAVarena@12@_K_N3@Z 0000000180035b90 f i arena.obj
 0001:00034ca0       ??0observer_list@internal@tbb@@QEAA@XZ 0000000180035ca0 f i arena.obj
 0001:00034e10       ??0scheduler_state@internal@tbb@@QEAA@XZ 0000000180035e10 f i arena.obj
 0001:00034e50       ??0wait_task@internal@interface7@tbb@@QEAA@AEAVbinary_semaphore@13@@Z 0000000180035e50 f i arena.obj
 0001:00034eb0       ??1?$_Deque_alloc@U?$_Deque_base_types@PEAVtask@tbb@@V?$tbb_allocator@PEAVtask@tbb@@@2@@std@@@std@@QEAA@XZ 0000000180035eb0 f i arena.obj
 0001:00034ef0       ??1?$_Deque_const_iterator@V?$_Deque_val@U?$_Deque_simple_types@PEAVtask@tbb@@@std@@@std@@@std@@QEAA@XZ 0000000180035ef0 f i arena.obj
 0001:00034f20       ??1?$_Deque_iterator@V?$_Deque_val@U?$_Deque_simple_types@PEAVtask@tbb@@@std@@@std@@@std@@QEAA@XZ 0000000180035f20 f i arena.obj
 0001:00034f50       ??1?$_Uninitialized_backout_al@PEAPEAPEAVtask@tbb@@V?$tbb_allocator@PEAPEAVtask@tbb@@@2@@std@@QEAA@XZ 0000000180035f50 f i arena.obj
 0001:00034fa0       ??1?$context_guard_helper@$0A@@internal@tbb@@QEAA@XZ 0000000180035fa0 f i arena.obj
 0001:00035000       ??1?$deque@PEAVtask@tbb@@V?$tbb_allocator@PEAVtask@tbb@@@2@@std@@QEAA@XZ 0000000180036000 f i arena.obj
 0001:00035050       ??1?$function_task@Vspawn_functor@graph@interface10@flow@tbb@@@internal@tbb@@UEAA@XZ 0000000180036050 f i arena.obj
 0001:00035080       ??1?$padded@U?$queue_and_mutex@PEAVtask@tbb@@Vspin_mutex@2@@internal@tbb@@$0IA@@internal@tbb@@QEAA@XZ 0000000180036080 f i arena.obj
 0001:000350b0       ??1?$padded@Uarena_base@internal@tbb@@$0IA@@internal@tbb@@QEAA@XZ 00000001800360b0 f i arena.obj
 0001:000350e0       ??1?$padded_base@U?$queue_and_mutex@PEAVtask@tbb@@Vspin_mutex@2@@internal@tbb@@$0IA@$0DA@@internal@tbb@@QEAA@XZ 00000001800360e0 f i arena.obj
 0001:00035110       ??1?$padded_base@Uarena_base@internal@tbb@@$0IA@$0A@@internal@tbb@@QEAA@XZ 0000000180036110 f i arena.obj
 0001:00035140       ??1?$queue_and_mutex@PEAVtask@tbb@@Vspin_mutex@2@@internal@tbb@@QEAA@XZ 0000000180036140 f i arena.obj
 0001:00035180       ??1?$task_stream@$02@internal@tbb@@QEAA@XZ 0000000180036180 f i arena.obj
 0001:00035220       ??1_Iterator_base12@std@@QEAA@XZ 0000000180036220 f i arena.obj
 0001:00035290       ??1arena@internal@tbb@@QEAA@XZ 0000000180036290 f i arena.obj
 0001:000352c0       ??1arena_base@internal@tbb@@QEAA@XZ 00000001800362c0 f i arena.obj
 0001:00035310       ??1auto_empty_task@internal@tbb@@QEAA@XZ 0000000180036310 f i arena.obj
 0001:00035360       ??1delegated_task@internal@interface7@tbb@@EEAA@XZ 0000000180036360 f i arena.obj
 0001:00035410       ??1empty_task@tbb@@UEAA@XZ 0000000180036410 f i arena.obj
 0001:00035440       ??1isolation_guard@internal@interface7@tbb@@QEAA@XZ 0000000180036440 f i arena.obj
 0001:00035460       ??1nested_arena_context@internal@tbb@@QEAA@XZ 0000000180036460 f i arena.obj
 0001:000355c0       ??1wait_task@internal@interface7@tbb@@UEAA@XZ 00000001800365c0 f i arena.obj
 0001:000355f0       ??4?$atomic@I@tbb@@QEAAII@Z 00000001800365f0 f i arena.obj
 0001:00035630       ??4?$atomic@PEAVtask_group_context@tbb@@@tbb@@QEAAPEAVtask_group_context@1@PEAV21@@Z 0000000180036630 f i arena.obj
 0001:00035670       ??8?$_Deque_const_iterator@V?$_Deque_val@U?$_Deque_simple_types@PEAVtask@tbb@@@std@@@std@@@std@@QEBA_NAEBV01@@Z 0000000180036670 f i arena.obj
 0001:000356e0       ??9?$_Deque_const_iterator@V?$_Deque_val@U?$_Deque_simple_types@PEAVtask@tbb@@@std@@@std@@@std@@QEBA_NAEBV01@@Z 00000001800366e0 f i arena.obj
 0001:00035740       ??9cpu_ctl_env@internal@tbb@@QEBA_NAEBV012@@Z 0000000180036740 f i arena.obj
 0001:000357b0       ??Bauto_empty_task@internal@tbb@@QEAAAEAVtask@2@XZ 00000001800367b0 f i arena.obj
 0001:000357c0       ??D?$_Deque_const_iterator@V?$_Deque_val@U?$_Deque_simple_types@PEAVtask@tbb@@@std@@@std@@@std@@QEBAAEBQEAVtask@tbb@@XZ 00000001800367c0 f i arena.obj
 0001:000358c0       ??D?$_Deque_iterator@V?$_Deque_val@U?$_Deque_simple_types@PEAVtask@tbb@@@std@@@std@@@std@@QEBAAEAPEAVtask@tbb@@XZ 00000001800368c0 f i arena.obj
 0001:000358f0       ??E?$_Deque_const_iterator@V?$_Deque_val@U?$_Deque_simple_types@PEAVtask@tbb@@@std@@@std@@@std@@QEAAAEAV01@XZ 00000001800368f0 f i arena.obj
 0001:000359b0       ??E?$_Deque_iterator@V?$_Deque_val@U?$_Deque_simple_types@PEAVtask@tbb@@@std@@@std@@@std@@QEAAAEAV01@XZ 00000001800369b0 f i arena.obj
 0001:000359f0       ??Iauto_empty_task@internal@tbb@@QEAAPEAVtask@2@XZ 00000001800369f0 f i arena.obj
 0001:00035a00       ??R?$less@I@std@@QEBA_NAEBI0@Z 0000000180036a00 f i arena.obj
 0001:00035a60       ??R?$less@_J@std@@QEBA_NAEB_J0@Z 0000000180036a60 f i arena.obj
 0001:00035ac0       ??Rdelegated_task@internal@interface7@tbb@@QEBA_N_K@Z 0000000180036ac0 f i arena.obj
 0001:00035b10       ??Rspawn_functor@graph@interface10@flow@tbb@@QEBAXXZ 0000000180036b10 f i arena.obj
 0001:00035b50       ??Y?$atomic_impl_with_arithmetic@_J_JD@internal@tbb@@QEAA_J_J@Z 0000000180036b50 f i arena.obj
 0001:00035b90       ??Z?$atomic_impl_with_arithmetic@IID@internal@tbb@@QEAAII@Z 0000000180036b90 f i arena.obj
 0001:00035bd0       ??_E?$padded@U?$queue_and_mutex@PEAVtask@tbb@@Vspin_mutex@2@@internal@tbb@@$0IA@@internal@tbb@@QEAAPEAXI@Z 0000000180036bd0 f i arena.obj
 0001:00035c90       ??_G?$function_task@Vspawn_functor@graph@interface10@flow@tbb@@@internal@tbb@@UEAAPEAXI@Z 0000000180036c90 f i arena.obj
 0001:00035c90       ??_E?$function_task@Vspawn_functor@graph@interface10@flow@tbb@@@internal@tbb@@UEAAPEAXI@Z 0000000180036c90 f i arena.obj
 0001:00035cf0       ??_Garena@internal@tbb@@QEAAPEAXI@Z 0000000180036cf0 f i arena.obj
 0001:00035d50       ??_Gdelegated_task@internal@interface7@tbb@@EEAAPEAXI@Z 0000000180036d50 f i arena.obj
 0001:00035d50       ??_Edelegated_task@internal@interface7@tbb@@EEAAPEAXI@Z 0000000180036d50 f i arena.obj
 0001:00035db0       ??_Gempty_task@tbb@@UEAAPEAXI@Z 0000000180036db0 f i arena.obj
 0001:00035db0       ??_Eempty_task@tbb@@UEAAPEAXI@Z 0000000180036db0 f i arena.obj
 0001:00035e10       ??_Gtask_group_context@tbb@@QEAAPEAXI@Z 0000000180036e10 f i arena.obj
 0001:00035e70       ??_Ewait_task@internal@interface7@tbb@@UEAAPEAXI@Z 0000000180036e70 f i arena.obj
 0001:00035e70       ??_Gwait_task@internal@interface7@tbb@@UEAAPEAXI@Z 0000000180036e70 f i arena.obj
 0001:00035ed0       ?_Adopt@_Iterator_base12@std@@QEAAXPEBU_Container_base12@2@@Z 0000000180036ed0 f i arena.obj
 0001:00035fc0       ?_Alloc_proxy@?$_Deque_alloc@U?$_Deque_base_types@PEAVtask@tbb@@V?$tbb_allocator@PEAVtask@tbb@@@2@@std@@@std@@QEAAXXZ 0000000180036fc0 f i arena.obj
 0001:000360a0       ?_Clrcont@_Iterator_base12@std@@QEAAXXZ 00000001800370a0 f i arena.obj
 0001:000360c0       ?_Compat@?$_Deque_const_iterator@V?$_Deque_val@U?$_Deque_simple_types@PEAVtask@tbb@@@std@@@std@@@std@@QEBAXAEBV12@@Z 00000001800370c0 f i arena.obj
 0001:00036150       ?_Free_proxy@?$_Deque_alloc@U?$_Deque_base_types@PEAVtask@tbb@@V?$tbb_allocator@PEAVtask@tbb@@@2@@std@@@std@@QEAAXXZ 0000000180037150 f i arena.obj
 0001:000361f0       ?_Get_data@?$_Deque_alloc@U?$_Deque_base_types@PEAVtask@tbb@@V?$tbb_allocator@PEAVtask@tbb@@@2@@std@@@std@@QEAAAEAV?$_Deque_val@U?$_Deque_simple_types@PEAVtask@tbb@@@std@@@2@XZ 00000001800371f0 f i arena.obj
 0001:00036230       ?_Get_data@?$_Deque_alloc@U?$_Deque_base_types@PEAVtask@tbb@@V?$tbb_allocator@PEAVtask@tbb@@@2@@std@@@std@@QEBAAEBV?$_Deque_val@U?$_Deque_simple_types@PEAVtask@tbb@@@std@@@2@XZ 0000000180037230 f i arena.obj
 0001:00036270       ?_Get_first@?$_Compressed_pair@V?$tbb_allocator@PEAVtask@tbb@@@tbb@@V?$_Deque_val@U?$_Deque_simple_types@PEAVtask@tbb@@@std@@@std@@$00@std@@QEAAAEAV?$tbb_allocator@PEAVtask@tbb@@@tbb@@XZ 0000000180037270 f i arena.obj
 0001:00036280       ?_Get_first@?$_Compressed_pair@V?$tbb_allocator@PEAVtask@tbb@@@tbb@@V?$_Deque_val@U?$_Deque_simple_types@PEAVtask@tbb@@@std@@@std@@$00@std@@QEBAAEBV?$tbb_allocator@PEAVtask@tbb@@@tbb@@XZ 0000000180037280 f i arena.obj
 0001:00036290       ?_Get_second@?$_Compressed_pair@V?$tbb_allocator@PEAVtask@tbb@@@tbb@@V?$_Deque_val@U?$_Deque_simple_types@PEAVtask@tbb@@@std@@@std@@$00@std@@QEAAAEAV?$_Deque_val@U?$_Deque_simple_types@PEAVtask@tbb@@@std@@@2@XZ 0000000180037290 f i arena.obj
 0001:000362a0       ?_Get_second@?$_Compressed_pair@V?$tbb_allocator@PEAVtask@tbb@@@tbb@@V?$_Deque_val@U?$_Deque_simple_types@PEAVtask@tbb@@@std@@@std@@$00@std@@QEBAAEBV?$_Deque_val@U?$_Deque_simple_types@PEAVtask@tbb@@@std@@@2@XZ 00000001800372a0 f i arena.obj
 0001:000362b0       ?_Getal@?$_Deque_alloc@U?$_Deque_base_types@PEAVtask@tbb@@V?$tbb_allocator@PEAVtask@tbb@@@2@@std@@@std@@QEAAAEAV?$tbb_allocator@PEAVtask@tbb@@@tbb@@XZ 00000001800372b0 f i arena.obj
 0001:000362f0       ?_Getal@?$_Deque_alloc@U?$_Deque_base_types@PEAVtask@tbb@@V?$tbb_allocator@PEAVtask@tbb@@@2@@std@@@std@@QEBAAEBV?$tbb_allocator@PEAVtask@tbb@@@tbb@@XZ 00000001800372f0 f i arena.obj
 0001:00036330       ?_Getblock@?$_Deque_alloc@U?$_Deque_base_types@PEAVtask@tbb@@V?$tbb_allocator@PEAVtask@tbb@@@2@@std@@@std@@QEBA_K_K@Z 0000000180037330 f i arena.obj
 0001:00036370       ?_Getblock@?$_Deque_val@U?$_Deque_simple_types@PEAVtask@tbb@@@std@@@std@@QEBA_K_K@Z 0000000180037370 f i arena.obj
 0001:000363a0       ?_Getcont@_Iterator_base12@std@@QEBAPEBU_Container_base12@2@XZ 00000001800373a0 f i arena.obj
 0001:000363f0       ?_Getpfirst@?$_Deque_alloc@U?$_Deque_base_types@PEAVtask@tbb@@V?$tbb_allocator@PEAVtask@tbb@@@2@@std@@@std@@QEBAPEAPEAU_Iterator_base12@2@XZ 00000001800373f0 f i arena.obj
 0001:00036430       ?_Getpfirst@_Container_base12@std@@QEBAPEAPEAU_Iterator_base12@2@XZ 0000000180037430 f i arena.obj
 0001:00036480       ?_Getpnext@_Iterator_base12@std@@QEAAPEAPEAU12@XZ 0000000180037480 f i arena.obj
 0001:000364a0       ?_Growmap@?$deque@PEAVtask@tbb@@V?$tbb_allocator@PEAVtask@tbb@@@2@@std@@IEAAX_K@Z 00000001800374a0 f i arena.obj
 0001:000368f0       ?_Map@?$_Deque_alloc@U?$_Deque_base_types@PEAVtask@tbb@@V?$tbb_allocator@PEAVtask@tbb@@@2@@std@@@std@@QEAAAEAPEAPEAPEAVtask@tbb@@XZ 00000001800378f0 f i arena.obj
 0001:00036930       ?_Mapsize@?$_Deque_alloc@U?$_Deque_base_types@PEAVtask@tbb@@V?$tbb_allocator@PEAVtask@tbb@@@2@@std@@@std@@QEAAAEA_KXZ 0000000180037930 f i arena.obj
 0001:00036970       ?_Max_size1@?$_Normal_allocator_traits@V?$tbb_allocator@PEAVtask@tbb@@@tbb@@@std@@SA_KAEBV?$tbb_allocator@PEAVtask@tbb@@@tbb@@U?$integral_constant@_N$00@2@@Z 0000000180037970 f i arena.obj
 0001:000369b0       ?_Myoff@?$_Deque_alloc@U?$_Deque_base_types@PEAVtask@tbb@@V?$tbb_allocator@PEAVtask@tbb@@@2@@std@@@std@@QEAAAEA_KXZ 00000001800379b0 f i arena.obj
 0001:000369f0       ?_Myoff@?$_Deque_alloc@U?$_Deque_base_types@PEAVtask@tbb@@V?$tbb_allocator@PEAVtask@tbb@@@2@@std@@@std@@QEBAAEB_KXZ 00000001800379f0 f i arena.obj
 0001:00036a30       ?_Myproxy@?$_Deque_alloc@U?$_Deque_base_types@PEAVtask@tbb@@V?$tbb_allocator@PEAVtask@tbb@@@2@@std@@@std@@QEAAAEAPEAU_Container_proxy@2@XZ 0000000180037a30 f i arena.obj
 0001:00036a60       ?_Mysize@?$_Deque_alloc@U?$_Deque_base_types@PEAVtask@tbb@@V?$tbb_allocator@PEAVtask@tbb@@@2@@std@@@std@@QEAAAEA_KXZ 0000000180037a60 f i arena.obj
 0001:00036aa0       ?_Mysize@?$_Deque_alloc@U?$_Deque_base_types@PEAVtask@tbb@@V?$tbb_allocator@PEAVtask@tbb@@@2@@std@@@std@@QEBAAEB_KXZ 0000000180037aa0 f i arena.obj
 0001:00036ae0       ?_Orphan_all@?$_Deque_alloc@U?$_Deque_base_types@PEAVtask@tbb@@V?$tbb_allocator@PEAVtask@tbb@@@2@@std@@@std@@QEAAXXZ 0000000180037ae0 f i arena.obj
 0001:00036b20       ?_Orphan_all@_Container_base12@std@@QEAAXXZ 0000000180037b20 f i arena.obj
 0001:00036be0       ?_Orphan_me@_Iterator_base12@std@@QEAAXXZ 0000000180037be0 f i arena.obj
 0001:00036cd0       ?_Orphan_off@?$deque@PEAVtask@tbb@@V?$tbb_allocator@PEAVtask@tbb@@@2@@std@@IEBAX_K@Z 0000000180037cd0 f i arena.obj
 0001:00036e40       ?_Release@?$_Uninitialized_backout_al@PEAPEAPEAVtask@tbb@@V?$tbb_allocator@PEAPEAVtask@tbb@@@2@@std@@QEAAPEAPEAPEAVtask@tbb@@XZ 0000000180037e40 f i arena.obj
 0001:00036e70       ?_RethrowException@exception_ptr@std@@QEBAXXZ 0000000180037e70 f i arena.obj
 0001:00036ea0       ?_Setcont@?$_Deque_const_iterator@V?$_Deque_val@U?$_Deque_simple_types@PEAVtask@tbb@@@std@@@std@@@std@@QEAAXPEBV?$_Deque_val@U?$_Deque_simple_types@PEAVtask@tbb@@@std@@@2@@Z 0000000180037ea0 f i arena.obj
 0001:00036ee0       ?_Tidy@?$deque@PEAVtask@tbb@@V?$tbb_allocator@PEAVtask@tbb@@@2@@std@@IEAAXXZ 0000000180037ee0 f i arena.obj
 0001:00037060       ?_Xlen@?$deque@PEAVtask@tbb@@V?$tbb_allocator@PEAVtask@tbb@@@2@@std@@IEBAXXZ 0000000180038060 f i arena.obj
 0001:00037090       ?allocate@?$tbb_allocator@PEAPEAVtask@tbb@@@tbb@@QEAAPEAPEAPEAVtask@2@_KPEBX@Z 0000000180038090 f i arena.obj
 0001:000370d0       ?allocate@?$tbb_allocator@PEAVtask@tbb@@@tbb@@QEAAPEAPEAVtask@2@_KPEBX@Z 00000001800380d0 f i arena.obj
 0001:00037110       ?allocate@?$tbb_allocator@U_Container_proxy@std@@@tbb@@QEAAPEAU_Container_proxy@std@@_KPEBX@Z 0000000180038110 f i arena.obj
 0001:00037150       ?allocation_size@arena@internal@tbb@@SAHI@Z 0000000180038150 f i arena.obj
 0001:00037170       ?assert_context_valid@generic_scheduler@internal@tbb@@SAXPEBVtask_group_context@3@@Z 0000000180038170 f i arena.obj
 0001:000373a0       ?attach@mail_inbox@internal@tbb@@QEAAXAEAVmail_outbox@23@@Z 00000001800383a0 f i arena.obj
 0001:000373c0       ?attach_mailbox@generic_scheduler@internal@tbb@@QEAAXG@Z 00000001800383c0 f i arena.obj
 0001:00037450       ?begin@?$deque@PEAVtask@tbb@@V?$tbb_allocator@PEAVtask@tbb@@@2@@std@@QEAA?AV?$_Deque_iterator@V?$_Deque_val@U?$_Deque_simple_types@PEAVtask@tbb@@@std@@@std@@@2@XZ 0000000180038450 f i arena.obj
 0001:000374d0       ?clear@?$deque@PEAVtask@tbb@@V?$tbb_allocator@PEAVtask@tbb@@@2@@std@@QEAAXXZ 00000001800384d0 f i arena.obj
 0001:00037510       ?clear_one_bit@internal@tbb@@YAXAEA_KH@Z 0000000180038510 f i arena.obj
 0001:000375b0       ?compare_and_swap@?$atomic_impl@PEAVarena@internal@tbb@@@internal@tbb@@QEAAPEAVarena@23@PEAV423@0@Z 00000001800385b0 f i arena.obj
 0001:00037600       ?compare_and_swap@?$atomic_impl@PEAVgeneric_scheduler@internal@tbb@@@internal@tbb@@QEAAPEAVgeneric_scheduler@23@PEAV423@0@Z 0000000180038600 f i arena.obj
 0001:00037650       ?compare_and_swap@?$atomic_impl@PEAVtask@tbb@@@internal@tbb@@QEAAPEAVtask@3@PEAV43@0@Z 0000000180038650 f i arena.obj
 0001:000376a0       ?compare_and_swap@?$atomic_impl@_J@internal@tbb@@QEAA_J_J0@Z 00000001800386a0 f i arena.obj
 0001:000376f0       ?construct@mail_outbox@internal@tbb@@QEAAXXZ 00000001800386f0 f i arena.obj
 0001:000377e0       ?deallocate@?$_Normal_allocator_traits@V?$tbb_allocator@U_Container_proxy@std@@@tbb@@@std@@SAXAEAV?$tbb_allocator@U_Container_proxy@std@@@tbb@@PEAU_Container_proxy@2@_K@Z 00000001800387e0 f i arena.obj
 0001:00037830       ?deallocate@?$tbb_allocator@PEAPEAVtask@tbb@@@tbb@@QEAAXPEAPEAPEAVtask@2@_K@Z 0000000180038830 f i arena.obj
 0001:00037870       ?deallocate@?$tbb_allocator@PEAVtask@tbb@@@tbb@@QEAAXPEAPEAVtask@2@_K@Z 0000000180038870 f i arena.obj
 0001:000378b0       ?deallocate@?$tbb_allocator@U_Container_proxy@std@@@tbb@@QEAAXPEAU_Container_proxy@std@@_K@Z 00000001800388b0 f i arena.obj
 0001:000378f0       ?destroy@?$tbb_allocator@PEAPEAVtask@tbb@@@tbb@@QEAAXPEAPEAPEAVtask@2@@Z 00000001800388f0 f i arena.obj
 0001:00037900       ?destroy@?$tbb_allocator@PEAVtask@tbb@@@tbb@@QEAAXPEAPEAVtask@2@@Z 0000000180038900 f i arena.obj
 0001:00037910       ?destroy@?$tbb_allocator@U_Container_proxy@std@@@tbb@@QEAAXPEAU_Container_proxy@std@@@Z 0000000180038910 f i arena.obj
 0001:00037920       ?detach@mail_inbox@internal@tbb@@QEAAXXZ 0000000180038920 f i arena.obj
 0001:00037980       ?drain@?$task_stream@$02@internal@tbb@@QEAA_JXZ 0000000180038980 f i arena.obj
 0001:00037ba0       ?drain@mail_outbox@internal@tbb@@QEAA_JXZ 0000000180038ba0 f i arena.obj
 0001:00037c20       ?empty@?$deque@PEAVtask@tbb@@V?$tbb_allocator@PEAVtask@tbb@@@2@@std@@QEBA_NXZ 0000000180038c20 f i arena.obj
 0001:00037c70       ?empty@observer_list@internal@tbb@@QEBA_NXZ 0000000180038c70 f i arena.obj
 0001:00037cc0       ?end@?$deque@PEAVtask@tbb@@V?$tbb_allocator@PEAVtask@tbb@@@2@@std@@QEAA?AV?$_Deque_iterator@V?$_Deque_val@U?$_Deque_simple_types@PEAVtask@tbb@@@std@@@std@@@2@XZ 0000000180038cc0 f i arena.obj
 0001:00037d50       ?execute@?$function_task@Vspawn_functor@graph@interface10@flow@tbb@@@internal@tbb@@EEAAPEAVtask@3@XZ 0000000180038d50 f i arena.obj
 0001:00037d90       ?execute@delegated_task@internal@interface7@tbb@@EEAAPEAVtask@4@XZ 0000000180038d90 f i arena.obj
 0001:00037e80       ?execute@empty_task@tbb@@EEAAPEAVtask@2@XZ 0000000180038e80 f i arena.obj
 0001:00037e90       ?execute@wait_task@internal@interface7@tbb@@EEAAPEAVtask@4@XZ 0000000180038e90 f i arena.obj
 0001:00037fc0       ?fetch_and_add@?$atomic_impl_with_arithmetic@_J_JD@internal@tbb@@QEAA_J_J@Z 0000000180038fc0 f i arena.obj
 0001:00038000       ?free_task_pool@arena_slot@internal@tbb@@QEAAXXZ 0000000180039000 f i arena.obj
 0001:00038090       ?get@FastRandom@internal@tbb@@QEAAGAEAI@Z 0000000180039090 f i arena.obj
 0001:00038120       ?get@FastRandom@internal@tbb@@QEAAGXZ 0000000180039120 f i arena.obj
 0001:00038160       ?initialize@?$task_stream@$02@internal@tbb@@QEAAXI@Z 0000000180039160 f i arena.obj
 0001:000383b0       ?inlineCreateEventEx@@YAPEAXPEAU_SECURITY_ATTRIBUTES@@PEB_WKK@Z 00000001800393b0 f i arena.obj
 0001:00038450       ?is_bit_set@internal@tbb@@YA_N_KH@Z 0000000180039450 f i arena.obj
 0001:00038500       ?is_busy_or_empty@arena@internal@tbb@@SA_N_K@Z 0000000180039500 f i arena.obj
 0001:00038540       ?is_idle_state@mail_inbox@internal@tbb@@QEBA_N_N@Z 0000000180039540 f i arena.obj
 0001:000385a0       ?is_local_task_pool_quiescent@generic_scheduler@internal@tbb@@QEBA_NXZ 00000001800395a0 f i arena.obj
 0001:00038630       ?is_quiescent_local_task_pool_reset@generic_scheduler@internal@tbb@@QEBA_NXZ 0000000180039630 f i arena.obj
 0001:000386e0       ?load_with_acquire@?$machine_load_store@PEAVgeneric_scheduler@internal@tbb@@$07@internal@tbb@@SAPEAVgeneric_scheduler@23@AEDSEAV423@@Z 00000001800396e0 f i arena.obj
 0001:00038720       ?load_with_acquire@?$machine_load_store@PEAVtask@tbb@@$07@internal@tbb@@SAPEAVtask@3@AEDSEAV43@@Z 0000000180039720 f i arena.obj
 0001:00038760       ?mailbox@arena@internal@tbb@@QEAAAEAVmail_outbox@23@G@Z 0000000180039760 f i arena.obj
 0001:00038810       ?max_size@?$_Normal_allocator_traits@V?$tbb_allocator@PEAVtask@tbb@@@tbb@@@std@@SA_KAEBV?$tbb_allocator@PEAVtask@tbb@@@tbb@@@Z 0000000180039810 f i arena.obj
 0001:00038850       ?max_size@?$deque@PEAVtask@tbb@@V?$tbb_allocator@PEAVtask@tbb@@@2@@std@@QEBA_KXZ 0000000180039850 f i arena.obj
 0001:00038890       ?max_size@?$tbb_allocator@PEAVtask@tbb@@@tbb@@QEBA_KXZ 0000000180039890 f i arena.obj
 0001:000388f0       ?may_have_tasks@arena@internal@tbb@@QEAA_NPEAVgeneric_scheduler@23@AEA_N1@Z 00000001800398f0 f i arena.obj
 0001:000389c0       ?mimic_outermost_level@nested_arena_context@internal@tbb@@AEAAXPEAVarena@23@_N@Z 00000001800399c0 f i arena.obj
 0001:00038a90       ?notify_entry_observers@observer_list@internal@tbb@@QEAAXAEAPEAVobserver_proxy@23@_N@Z 0000000180039a90 f i arena.obj
 0001:00038af0       ?notify_exit_observers@observer_list@internal@tbb@@QEAAXAEAPEAVobserver_proxy@23@_N@Z 0000000180039af0 f i arena.obj
 0001:00038bb0       ?notify_one@concurrent_monitor@internal@tbb@@QEAAXXZ 0000000180039bb0 f i arena.obj
 0001:00038bf0       ?num_arena_slots@arena@internal@tbb@@SAII@Z 0000000180039bf0 f i arena.obj
 0001:00038c30       ?pop_back@?$deque@PEAVtask@tbb@@V?$tbb_allocator@PEAVtask@tbb@@@2@@std@@QEAAXXZ 0000000180039c30 f i arena.obj
 0001:00038da0       ?prefix@auto_empty_task@internal@tbb@@QEAAAEAVtask_prefix@23@XZ 0000000180039da0 f i arena.obj
 0001:00038de0       ?push@?$task_stream@$02@internal@tbb@@QEAAXPEAVtask@3@HAEAVFastRandom@23@@Z 0000000180039de0 f i arena.obj
 0001:00038f00       ?push_back@?$deque@PEAVtask@tbb@@V?$tbb_allocator@PEAVtask@tbb@@@2@@std@@QEAAXAEBQEAVtask@tbb@@@Z 0000000180039f00 f i arena.obj
 0001:00039140       ?ref_count@task@tbb@@QEBAHXZ 000000018003a140 f i arena.obj
 0001:000391c0       ?restore_default@?$context_guard_helper@$0A@@internal@tbb@@QEAAXXZ 000000018003a1c0 f i arena.obj
 0001:00039220       ?rethrow_exception@std@@YAXVexception_ptr@1@@Z 000000018003a220 f i arena.obj
 0001:00039270       ?rethrow_exception_broken@governor@internal@tbb@@SA_NXZ 000000018003a270 f i arena.obj
 0001:00039280       ?set_ctx@?$context_guard_helper@$0A@@internal@tbb@@QEAAXPEBVtask_group_context@3@@Z 000000018003a280 f i arena.obj
 0001:00039310       ?set_env@cpu_ctl_env@internal@tbb@@QEBAXXZ 000000018003a310 f i arena.obj
 0001:00039340       ?set_is_idle@mail_inbox@internal@tbb@@QEAAX_N@Z 000000018003a340 f i arena.obj
 0001:000393c0       ?set_one_bit@internal@tbb@@YAXAEA_KH@Z 000000018003a3c0 f i arena.obj
 0001:00039460       ?store_with_release@?$atomic_impl@PEAVtask_group_context@tbb@@@internal@tbb@@IEAAPEAVtask_group_context@3@PEAV43@@Z 000000018003a460 f i arena.obj
 0001:000394c0       ?store_with_release@?$machine_load_store@PEAVgeneric_scheduler@internal@tbb@@$07@internal@tbb@@SAXAECREAVgeneric_scheduler@23@PEAV423@@Z 000000018003a4c0 f i arena.obj
 0001:000394e0       ?throw_self@tbb_exception_ptr@internal@tbb@@QEAAXXZ 000000018003a4e0 f i arena.obj
 0001:00039530       ?update_task_node_count@market@internal@tbb@@QEAAX_J@Z 000000018003a530 f i arena.obj
 0001:00039580       ?worker_outermost_level@generic_scheduler@internal@tbb@@QEBA_NXZ 000000018003a580 f i arena.obj
 0001:00039740       ??1scheduler@internal@tbb@@UEAA@XZ 000000018003a740 f   scheduler.obj
 0001:00039760       ?init_stack_info@generic_scheduler@internal@tbb@@QEAAXXZ 000000018003a760 f   scheduler.obj
 0001:000398a0       ?get_mailbox_task@generic_scheduler@internal@tbb@@QEAAPEAVtask@3@_J@Z 000000018003a8a0 f   scheduler.obj
 0001:000399b0       ?steal_task@generic_scheduler@internal@tbb@@QEAAPEAVtask@3@AEAUarena_slot@23@_J@Z 000000018003a9b0 f   scheduler.obj
 0001:00039ca0       ?create_master@generic_scheduler@internal@tbb@@SAPEAV123@PEAVarena@23@@Z 000000018003aca0 f   scheduler.obj
 0001:00039f60       ?cleanup_master@generic_scheduler@internal@tbb@@QEAA_N_N@Z 000000018003af60 f   scheduler.obj
 0001:0003a2f0       ?create_worker@generic_scheduler@internal@tbb@@SAPEAV123@AEAVmarket@23@_K@Z 000000018003b2f0 f   scheduler.obj
 0001:0003a3b0       ?cleanup_worker@generic_scheduler@internal@tbb@@SAXPEAX_N@Z 000000018003b3b0 f   scheduler.obj
 0001:0003a450       ??0generic_scheduler@internal@tbb@@IEAA@AEAVmarket@12@@Z 000000018003b450 f   scheduler.obj
 0001:0003a6f0       ?spawn@generic_scheduler@internal@tbb@@UEAAXAEAVtask@3@AEAPEAV43@@Z 000000018003b6f0 f   scheduler.obj
 0001:0003a740       ?spawn_root_and_wait@generic_scheduler@internal@tbb@@UEAAXAEAVtask@3@AEAPEAV43@@Z 000000018003b740 f   scheduler.obj
 0001:0003a790       ?enqueue@generic_scheduler@internal@tbb@@UEAAXAEAVtask@3@PEAX@Z 000000018003b790 f   scheduler.obj
 0001:0003a830       ?local_spawn@generic_scheduler@internal@tbb@@QEAAXPEAVtask@3@AEAPEAV43@@Z 000000018003b830 f   scheduler.obj
 0001:0003ab50       ?local_spawn_root_and_wait@generic_scheduler@internal@tbb@@QEAAXPEAVtask@3@AEAPEAV43@@Z 000000018003bb50 f   scheduler.obj
 0001:0003adc0       ?free_scheduler@generic_scheduler@internal@tbb@@QEAAXXZ 000000018003bdc0 f   scheduler.obj
 0001:0003af60       ?allocate_task@generic_scheduler@internal@tbb@@QEAAAEAVtask@3@_KPEAV43@PEAVtask_group_context@3@@Z 000000018003bf60 f   scheduler.obj
 0001:0003b230       ?free_nonlocal_small_task@generic_scheduler@internal@tbb@@QEAAXAEAVtask@3@@Z 000000018003c230 f   scheduler.obj
 0001:0003b390       ?reload_tasks@generic_scheduler@internal@tbb@@QEAAPEAVtask@3@_J@Z 000000018003c390 f   scheduler.obj
 0001:0003b590       ?reload_tasks@generic_scheduler@internal@tbb@@QEAAPEAVtask@3@AEAPEAV43@AEAPEAPEAV43@_J2@Z 000000018003c590 f   scheduler.obj
 0001:0003b980       ?winnow_task_pool@generic_scheduler@internal@tbb@@QEAAPEAVtask@3@_J@Z 000000018003c980 f   scheduler.obj
 0001:0003bc20       ?get_task_and_activate_task_pool@generic_scheduler@internal@tbb@@QEAAPEAVtask@3@_K0_J@Z 000000018003cc20 f   scheduler.obj
 0001:0003bea0       ?cleanup_local_context_list@generic_scheduler@internal@tbb@@QEAAXXZ 000000018003cea0 f   scheduler.obj
 0001:0003c090       ?Scheduler_OneTimeInitialization@internal@tbb@@YAX_N@Z 000000018003d090 f   scheduler.obj
 0001:0003c120       ??$__TBB_load_relaxed@PEAUtask_proxy@internal@tbb@@@internal@tbb@@YAPEAUtask_proxy@01@AEDSEAU201@@Z 000000018003d120 f i scheduler.obj
 0001:0003c150       ??$__TBB_store_relaxed@PEAPEAVtask@tbb@@PEAPEAV12@@internal@tbb@@YAXAECREAPEAVtask@1@PEAPEAV21@@Z 000000018003d150 f i scheduler.obj
 0001:0003c190       ??$__TBB_store_relaxed@PEAUtask_proxy@internal@tbb@@PEAU123@@internal@tbb@@YAXAECREAUtask_proxy@01@PEAU201@@Z 000000018003d190 f i scheduler.obj
 0001:0003c1d0       ??$__TBB_store_with_release@PEAPEAVtask@tbb@@PEAPEAV12@@internal@tbb@@YAXAECREAPEAVtask@1@PEAPEAV21@@Z 000000018003d1d0 f i scheduler.obj
 0001:0003c210       ??$advertise_new_work@$00@arena@internal@tbb@@QEAAXXZ 000000018003d210 f i scheduler.obj
 0001:0003c520       ??$advertise_new_work@$0A@@arena@internal@tbb@@QEAAXXZ 000000018003d520 f i scheduler.obj
 0001:0003c830       ??$as_atomic@PEAPEAUtask_proxy@internal@tbb@@@internal@tbb@@YAAEAU?$atomic@PEAPEAUtask_proxy@internal@tbb@@@1@AEAPEAPEAUtask_proxy@01@@Z 000000018003d830 f i scheduler.obj
 0001:0003c840       ??$as_atomic@PEAPEAVtask@tbb@@@internal@tbb@@YAAEAU?$atomic@PEAPEAVtask@tbb@@@1@AEAPEAPEAVtask@1@@Z 000000018003d840 f i scheduler.obj
 0001:0003c850       ??$as_atomic@_J@internal@tbb@@YAAEAU?$atomic@_J@1@AEA_J@Z 000000018003d850 f i scheduler.obj
 0001:0003c860       ??$compare_and_swap@$0A@@?$atomic_impl@PEAPEAUtask_proxy@internal@tbb@@@internal@tbb@@QEAAPEAPEAUtask_proxy@12@PEAPEAU312@0@Z 000000018003d860 f i scheduler.obj
 0001:0003c8d0       ??$compare_and_swap@$0A@@?$atomic_impl@PEAPEAVtask@tbb@@@internal@tbb@@QEAAPEAPEAVtask@2@PEAPEAV32@0@Z 000000018003d8d0 f i scheduler.obj
 0001:0003c940       ??$extract_task@$00@task_proxy@internal@tbb@@QEAAPEAVtask@2@XZ 000000018003d940 f i scheduler.obj
 0001:0003ca70       ??$extract_task@$01@task_proxy@internal@tbb@@QEAAPEAVtask@2@XZ 000000018003da70 f i scheduler.obj
 0001:0003cba0       ??$free_task@$01@generic_scheduler@internal@tbb@@QEAAXAEAVtask@2@@Z 000000018003dba0 f i scheduler.obj
 0001:0003cd70       ??$free_task@$05@generic_scheduler@internal@tbb@@QEAAXAEAVtask@2@@Z 000000018003dd70 f i scheduler.obj
 0001:0003cf40       ??$free_task@$0A@@generic_scheduler@internal@tbb@@QEAAXAEAVtask@2@@Z 000000018003df40 f i scheduler.obj
 0001:0003d100       ??$init@_K@FastRandom@internal@tbb@@QEAAX_K@Z 000000018003e100 f i scheduler.obj
 0001:0003d140       ??$is_poisoned@Vtask@tbb@@@internal@tbb@@YA_NPEAVtask@1@@Z 000000018003e140 f i scheduler.obj
 0001:0003d180       ??$poison_pointer@Vtask_group_context@tbb@@@internal@tbb@@YAXAEAPEAVtask_group_context@1@@Z 000000018003e180 f i scheduler.obj
 0001:0003d1a0       ??$to_bits@PEAPEAUtask_proxy@internal@tbb@@@?$atomic_impl@PEAPEAUtask_proxy@internal@tbb@@@internal@tbb@@SA_JPEAPEAUtask_proxy@12@@Z 000000018003e1a0 f i scheduler.obj
 0001:0003d1e0       ??$to_bits@PEAPEAVtask@tbb@@@?$atomic_impl@PEAPEAVtask@tbb@@@internal@tbb@@SA_JPEAPEAVtask@2@@Z 000000018003e1e0 f i scheduler.obj
 0001:0003d220       ??$to_value@PEAPEAUtask_proxy@internal@tbb@@@?$atomic_impl@PEAPEAUtask_proxy@internal@tbb@@@internal@tbb@@SAPEAPEAUtask_proxy@12@_J@Z 000000018003e220 f i scheduler.obj
 0001:0003d280       ??$to_value@PEAPEAVtask@tbb@@@?$atomic_impl@PEAPEAVtask@tbb@@@internal@tbb@@SAPEAPEAVtask@2@_J@Z 000000018003e280 f i scheduler.obj
 0001:0003d2e0       ??0?$context_guard_helper@$00@internal@tbb@@QEAA@XZ 000000018003e2e0 f i scheduler.obj
 0001:0003d330       ??0?$converter@PEAPEAUtask_proxy@internal@tbb@@@?$atomic_impl@PEAPEAUtask_proxy@internal@tbb@@@internal@tbb@@QEAA@PEAPEAUtask_proxy@23@@Z 000000018003e330 f i scheduler.obj
 0001:0003d350       ??0?$converter@PEAPEAUtask_proxy@internal@tbb@@@?$atomic_impl@PEAPEAUtask_proxy@internal@tbb@@@internal@tbb@@QEAA@XZ 000000018003e350 f i scheduler.obj
 0001:0003d360       ??0?$converter@PEAPEAVtask@tbb@@@?$atomic_impl@PEAPEAVtask@tbb@@@internal@tbb@@QEAA@PEAPEAVtask@3@@Z 000000018003e360 f i scheduler.obj
 0001:0003d380       ??0?$converter@PEAPEAVtask@tbb@@@?$atomic_impl@PEAPEAVtask@tbb@@@internal@tbb@@QEAA@XZ 000000018003e380 f i scheduler.obj
 0001:0003d390       ??0?$custom_scheduler@UDefaultSchedulerTraits@internal@tbb@@@internal@tbb@@AEAA@AEAVmarket@12@@Z 000000018003e390 f i scheduler.obj
 0001:0003d3e0       ??0?$custom_scheduler@UIntelSchedulerTraits@internal@tbb@@@internal@tbb@@AEAA@AEAVmarket@12@@Z 000000018003e3e0 f i scheduler.obj
 0001:0003d430       ??0?$fast_reverse_vector@PEAVtask@tbb@@$0BA@@internal@tbb@@QEAA@PEAPEAVtask@2@_K@Z 000000018003e430 f i scheduler.obj
 0001:0003d4e0       ??0FastRandom@internal@tbb@@QEAA@PEAX@Z 000000018003e4e0 f i scheduler.obj
 0001:0003d520       ??0auto_indicator@internal@tbb@@QEAA@AEC_N@Z 000000018003e520 f i scheduler.obj
 0001:0003d570       ??0scheduler@internal@tbb@@QEAA@XZ 000000018003e570 f i scheduler.obj
 0001:0003d5c0       ??1?$context_guard_helper@$00@internal@tbb@@QEAA@XZ 000000018003e5c0 f i scheduler.obj
 0001:0003d620       ??1?$custom_scheduler@UDefaultSchedulerTraits@internal@tbb@@@internal@tbb@@UEAA@XZ 000000018003e620 f i scheduler.obj
 0001:0003d650       ??1?$custom_scheduler@UIntelSchedulerTraits@internal@tbb@@@internal@tbb@@UEAA@XZ 000000018003e650 f i scheduler.obj
 0001:0003d680       ??1?$fast_reverse_vector@PEAVtask@tbb@@$0BA@@internal@tbb@@QEAA@XZ 000000018003e680 f i scheduler.obj
 0001:0003d6f0       ??1auto_indicator@internal@tbb@@QEAA@XZ 000000018003e6f0 f i scheduler.obj
 0001:0003d710       ??1generic_scheduler@internal@tbb@@UEAA@XZ 000000018003e710 f i scheduler.obj
 0001:0003d740       ??_E?$custom_scheduler@UDefaultSchedulerTraits@internal@tbb@@@internal@tbb@@UEAAPEAXI@Z 000000018003e740 f i scheduler.obj
 0001:0003d740       ??_G?$custom_scheduler@UDefaultSchedulerTraits@internal@tbb@@@internal@tbb@@UEAAPEAXI@Z 000000018003e740 f i scheduler.obj
 0001:0003d7a0       ??_G?$custom_scheduler@UIntelSchedulerTraits@internal@tbb@@@internal@tbb@@UEAAPEAXI@Z 000000018003e7a0 f i scheduler.obj
 0001:0003d7a0       ??_E?$custom_scheduler@UIntelSchedulerTraits@internal@tbb@@@internal@tbb@@UEAAPEAXI@Z 000000018003e7a0 f i scheduler.obj
 0001:0003d800       ??_Ggeneric_scheduler@internal@tbb@@UEAAPEAXI@Z 000000018003e800 f i scheduler.obj
 0001:0003d800       ??_Egeneric_scheduler@internal@tbb@@UEAAPEAXI@Z 000000018003e800 f i scheduler.obj
 0001:0003d860       ?CancellationInfoPresent@internal@tbb@@YA_NAEAVtask@2@@Z 000000018003e860 f i scheduler.obj
 0001:0003d8c0       ?ConcurrentWaitsEnabled@internal@tbb@@YA_NAEAVtask@2@@Z 000000018003e8c0 f i scheduler.obj
 0001:0003d920       ?acquire_task_pool@generic_scheduler@internal@tbb@@QEBAXXZ 000000018003e920 f i scheduler.obj
 0001:0003db00       ?allocate_scheduler@?$custom_scheduler@UDefaultSchedulerTraits@internal@tbb@@@internal@tbb@@SAPEAVgeneric_scheduler@23@AEAVmarket@23@@Z 000000018003eb00 f i scheduler.obj
 0001:0003dbb0       ?allocate_scheduler@?$custom_scheduler@UIntelSchedulerTraits@internal@tbb@@@internal@tbb@@SAPEAVgeneric_scheduler@23@AEAVmarket@23@@Z 000000018003ebb0 f i scheduler.obj
 0001:0003dc60       ?allocate_scheduler@internal@tbb@@YAPEAVgeneric_scheduler@12@AEAVmarket@12@@Z 000000018003ec60 f i scheduler.obj
 0001:0003dc90       ?allocate_task_pool@arena_slot@internal@tbb@@QEAAX_K@Z 000000018003ec90 f i scheduler.obj
 0001:0003dd30       ?assert_ok@?$intrusive_list_base@V?$intrusive_list@Vgeneric_scheduler@internal@tbb@@@internal@tbb@@Vgeneric_scheduler@23@@internal@tbb@@AEBAXXZ 000000018003ed30 f i scheduler.obj
 0001:0003ddb0       ?bounded_pause@atomic_backoff@internal@tbb@@QEAA_NXZ 000000018003edb0 f i scheduler.obj
 0001:0003de10       ?can_steal@generic_scheduler@internal@tbb@@QEAA_NXZ 000000018003ee10 f i scheduler.obj
 0001:0003de60       ?commit_relocated_tasks@generic_scheduler@internal@tbb@@QEAAX_K@Z 000000018003ee60 f i scheduler.obj
 0001:0003df00       ?commit_spawned_tasks@generic_scheduler@internal@tbb@@QEAAX_K@Z 000000018003ef00 f i scheduler.obj
 0001:0003dfa0       ?compare_and_swap@?$atomic_impl@PEAPEAUtask_proxy@internal@tbb@@@internal@tbb@@QEAAPEAPEAUtask_proxy@23@PEAPEAU423@0@Z 000000018003efa0 f i scheduler.obj
 0001:0003dff0       ?compare_and_swap@?$atomic_impl@PEAPEAVtask@tbb@@@internal@tbb@@QEAAPEAPEAVtask@3@PEAPEAV43@0@Z 000000018003eff0 f i scheduler.obj
 0001:0003e040       ?copy_memory@?$fast_reverse_vector@PEAVtask@tbb@@$0BA@@internal@tbb@@QEBAXPEAPEAVtask@3@@Z 000000018003f040 f i scheduler.obj
 0001:0003e150       ?effective_reference_priority@generic_scheduler@internal@tbb@@QEBA_JXZ 000000018003f150 f i scheduler.obj
 0001:0003e1f0       ?empty@mail_inbox@internal@tbb@@QEAA_NXZ 000000018003f1f0 f i scheduler.obj
 0001:0003e230       ?empty@mail_outbox@internal@tbb@@QEAA_NXZ 000000018003f230 f i scheduler.obj
 0001:0003e280       ?fill_with_canary_pattern@arena_slot@internal@tbb@@QEAAX_K0@Z 000000018003f280 f i scheduler.obj
 0001:0003e300       ?front@?$deque@PEAVtask@tbb@@V?$tbb_allocator@PEAVtask@tbb@@@2@@std@@QEAAAEAPEAVtask@tbb@@XZ 000000018003f300 f i scheduler.obj
 0001:0003e370       ?get_task@generic_scheduler@internal@tbb@@QEAAPEAVtask@3@_J@Z 000000018003f370 f i scheduler.obj
 0001:0003e8e0       ?get_task@generic_scheduler@internal@tbb@@QEAAPEAVtask@3@_K_JAEA_N@Z 000000018003f8e0 f i scheduler.obj
 0001:0003eb50       ?init@FastRandom@internal@tbb@@QEAAXIU?$int_to_type@$03@23@@Z 000000018003fb50 f i scheduler.obj
 0001:0003eb90       ?init@FastRandom@internal@tbb@@QEAAX_KU?$int_to_type@$07@23@@Z 000000018003fb90 f i scheduler.obj
 0001:0003ebe0       ?internal_pop@mail_outbox@internal@tbb@@AEAAPEAUtask_proxy@23@_J@Z 000000018003fbe0 f i scheduler.obj
 0001:0003eda0       ?is_proxy@generic_scheduler@internal@tbb@@SA_NAEBVtask@3@@Z 000000018003fda0 f i scheduler.obj
 0001:0003edf0       ?is_quiescent_local_task_pool_empty@generic_scheduler@internal@tbb@@QEBA_NXZ 000000018003fdf0 f i scheduler.obj
 0001:0003eea0       ?is_shared@task_proxy@internal@tbb@@SA_N_J@Z 000000018003fea0 f i scheduler.obj
 0001:0003eef0       ?is_task_pool_published@generic_scheduler@internal@tbb@@QEBA_NXZ 000000018003fef0 f i scheduler.obj
 0001:0003ef70       ?is_version_3_task@generic_scheduler@internal@tbb@@SA_NAEAVtask@3@@Z 000000018003ff70 f i scheduler.obj
 0001:0003efd0       ?leave_task_pool@generic_scheduler@internal@tbb@@QEAAXXZ 000000018003ffd0 f i scheduler.obj
 0001:0003f120       ?load@?$machine_load_store_relaxed@PEAUtask_proxy@internal@tbb@@$07@internal@tbb@@SAPEAUtask_proxy@23@AEDSEAU423@@Z 0000000180040120 f i scheduler.obj
 0001:0003f130       ?local_wait_for_all@?$custom_scheduler@UDefaultSchedulerTraits@internal@tbb@@@internal@tbb@@EEAAXAEAVtask@3@PEAV43@@Z 0000000180040130 f i scheduler.obj
 0001:00040620       ?local_wait_for_all@?$custom_scheduler@UIntelSchedulerTraits@internal@tbb@@@internal@tbb@@EEAAXAEAVtask@3@PEAV43@@Z 0000000180041620 f i scheduler.obj
 0001:00041b10       ?lock_task_pool@generic_scheduler@internal@tbb@@QEBAPEAPEAVtask@3@PEAUarena_slot@23@@Z 0000000180042b10 f i scheduler.obj
 0001:00041c60       ?node@?$intrusive_list@Vgeneric_scheduler@internal@tbb@@@internal@tbb@@CAAEAUintrusive_list_node@23@AEAVgeneric_scheduler@23@@Z 0000000180042c60 f i scheduler.obj
 0001:00041c80       ?node@?$intrusive_list_base@V?$intrusive_list@Vgeneric_scheduler@internal@tbb@@@internal@tbb@@Vgeneric_scheduler@23@@internal@tbb@@CAAEAUintrusive_list_node@23@AEAVgeneric_scheduler@23@@Z 0000000180042c80 f i scheduler.obj
 0001:00041cb0       ?offload_task@generic_scheduler@internal@tbb@@QEAAXAEAVtask@3@_J@Z 0000000180042cb0 f i scheduler.obj
 0001:00041d90       ?outbox@mail_inbox@internal@tbb@@QEBAPEAXXZ 0000000180042d90 f i scheduler.obj
 0001:00041da0       ?plugged_return_list@generic_scheduler@internal@tbb@@SAPEAVtask@3@XZ 0000000180042da0 f i scheduler.obj
 0001:00041db0       ?pop@?$task_stream@$02@internal@tbb@@QEAAPEAVtask@3@HAEAI@Z 0000000180042db0 f i scheduler.obj
 0001:00041f70       ?pop@mail_inbox@internal@tbb@@QEAAPEAUtask_proxy@23@_J@Z 0000000180042f70 f i scheduler.obj
 0001:00041fb0       ?pop_front@?$deque@PEAVtask@tbb@@V?$tbb_allocator@PEAVtask@tbb@@@2@@std@@QEAAXXZ 0000000180042fb0 f i scheduler.obj
 0001:00042130       ?prepare_for_spawning@generic_scheduler@internal@tbb@@QEAAPEAVtask@3@PEAV43@@Z 0000000180043130 f i scheduler.obj
 0001:000423a0       ?prepare_task_pool@generic_scheduler@internal@tbb@@QEAA_K_K@Z 00000001800433a0 f i scheduler.obj
 0001:00042720       ?priority@internal@tbb@@YAAEA_JAEAVtask@2@@Z 0000000180043720 f i scheduler.obj
 0001:00042760       ?prolonged_pause@internal@tbb@@YAXXZ 0000000180043760 f i scheduler.obj
 0001:000427f0       ?publish_task_pool@generic_scheduler@internal@tbb@@QEAAXXZ 00000001800437f0 f i scheduler.obj
 0001:00042990       ?push@mail_outbox@internal@tbb@@QEAAXPEAUtask_proxy@23@@Z 0000000180043990 f i scheduler.obj
 0001:00042a20       ?push_back@?$fast_reverse_vector@PEAVtask@tbb@@$0BA@@internal@tbb@@QEAAXAEBQEAVtask@3@@Z 0000000180043a20 f i scheduler.obj
 0001:00042bb0       ?push_front@?$intrusive_list_base@V?$intrusive_list@Vgeneric_scheduler@internal@tbb@@@internal@tbb@@Vgeneric_scheduler@23@@internal@tbb@@QEAAXAEAVgeneric_scheduler@23@@Z 0000000180043bb0 f i scheduler.obj
 0001:00042cc0       ?receive_or_steal_task@?$custom_scheduler@UDefaultSchedulerTraits@internal@tbb@@@internal@tbb@@UEAAPEAVtask@3@AEA_J_J@Z 0000000180043cc0 f i scheduler.obj
 0001:00043900       ?receive_or_steal_task@?$custom_scheduler@UIntelSchedulerTraits@internal@tbb@@@internal@tbb@@UEAAPEAVtask@3@AEA_J_J@Z 0000000180044900 f i scheduler.obj
 0001:00044520       ?recipient_is_idle@mail_outbox@internal@tbb@@QEAA_NXZ 0000000180045520 f i scheduler.obj
 0001:00044540       ?register_master@market@internal@tbb@@QEAAXAEAPEAX@Z 0000000180045540 f i scheduler.obj
 0001:000445c0       ?release_task_pool@generic_scheduler@internal@tbb@@QEBAXXZ 00000001800455c0 f i scheduler.obj
 0001:000446a0       ?remove@?$intrusive_list_base@V?$intrusive_list@Vgeneric_scheduler@internal@tbb@@@internal@tbb@@Vgeneric_scheduler@23@@internal@tbb@@QEAAXAEAVgeneric_scheduler@23@@Z 00000001800456a0 f i scheduler.obj
 0001:00044850       ?reset_extra_state@internal@tbb@@YAXPEAVtask@2@@Z 0000000180045850 f i scheduler.obj
 0001:000448a0       ?reset_task_pool_and_leave@generic_scheduler@internal@tbb@@QEAAXXZ 00000001800458a0 f i scheduler.obj
 0001:00044930       ?restore_default@?$context_guard_helper@$00@internal@tbb@@QEAAXXZ 0000000180045930 f i scheduler.obj
 0001:00044990       ?set_ctx@?$context_guard_helper@$00@internal@tbb@@QEAAXPEBVtask_group_context@3@@Z 0000000180045990 f i scheduler.obj
 0001:00044a20       ?size@?$fast_reverse_vector@PEAVtask@tbb@@$0BA@@internal@tbb@@QEBA_KXZ 0000000180045a20 f i scheduler.obj
 0001:00044a50       ?store@?$machine_load_store_relaxed@PEAPEAVtask@tbb@@$07@internal@tbb@@SAXAECREAPEAVtask@3@PEAPEAV43@@Z 0000000180045a50 f i scheduler.obj
 0001:00044a70       ?store@?$machine_load_store_relaxed@PEAUtask_proxy@internal@tbb@@$07@internal@tbb@@SAXAECREAUtask_proxy@23@PEAU423@@Z 0000000180045a70 f i scheduler.obj
 0001:00044a90       ?store_with_release@?$machine_load_store@PEAPEAVtask@tbb@@$07@internal@tbb@@SAXAECREAPEAVtask@3@PEAPEAV43@@Z 0000000180045a90 f i scheduler.obj
 0001:00044ab0       ?tally_completion_of_predecessor@?$custom_scheduler@UDefaultSchedulerTraits@internal@tbb@@@internal@tbb@@AEAAXAEAVtask@3@AEAPEAV43@_J@Z 0000000180045ab0 f i scheduler.obj
 0001:00044c80       ?tally_completion_of_predecessor@?$custom_scheduler@UIntelSchedulerTraits@internal@tbb@@@internal@tbb@@AEAAXAEAVtask@3@AEAPEAV43@_J@Z 0000000180045c80 f i scheduler.obj
 0001:00044e50       ?task_ptr@task_proxy@internal@tbb@@SAPEAVtask@3@_J@Z 0000000180045e50 f i scheduler.obj
 0001:00044e70       ?unlock_task_pool@generic_scheduler@internal@tbb@@QEBAXPEAUarena_slot@23@PEAPEAVtask@3@@Z 0000000180045e70 f i scheduler.obj
 0001:00044f30       ?unregister_master@market@internal@tbb@@QEBAXAEAPEAX@Z 0000000180045f30 f i scheduler.obj
 0001:00044f80       ?wait_for_all@?$custom_scheduler@UDefaultSchedulerTraits@internal@tbb@@@internal@tbb@@EEAAXAEAVtask@3@PEAV43@@Z 0000000180045f80 f i scheduler.obj
 0001:00044fd0       ?wait_for_all@?$custom_scheduler@UIntelSchedulerTraits@internal@tbb@@@internal@tbb@@EEAAXAEAVtask@3@PEAV43@@Z 0000000180045fd0 f i scheduler.obj
 0001:00045020       NtCurrentTeb               0000000180046020 f i scheduler.obj
 0001:00045110       ?observe@task_scheduler_observer_v3@internal@tbb@@QEAAX_N@Z 0000000180046110 f   observer_proxy.obj
 0001:00045630       ?do_notify_entry_observers@observer_list@internal@tbb@@AEAAXAEAPEAVobserver_proxy@23@_N@Z 0000000180046630 f   observer_proxy.obj
 0001:00045950       ?do_notify_exit_observers@observer_list@internal@tbb@@AEAAXPEAVobserver_proxy@23@_N@Z 0000000180046950 f   observer_proxy.obj
 0001:00045c10       ?clear@observer_list@internal@tbb@@QEAAXXZ 0000000180046c10 f   observer_proxy.obj
 0001:00045eb0       ?insert@observer_list@internal@tbb@@QEAAXPEAVobserver_proxy@23@@Z 0000000180046eb0 f   observer_proxy.obj
 0001:00045f60       ?remove@observer_list@internal@tbb@@QEAAXPEAVobserver_proxy@23@@Z 0000000180046f60 f   observer_proxy.obj
 0001:00046150       ?remove_ref@observer_list@internal@tbb@@QEAAXPEAVobserver_proxy@23@@Z 0000000180047150 f   observer_proxy.obj
 0001:00046340       ?get_v6_observer@observer_proxy@internal@tbb@@AEAAPEAVtask_scheduler_observer@interface6@3@XZ 0000000180047340 f   observer_proxy.obj
 0001:00046370       ?is_global@observer_proxy@internal@tbb@@AEAA_NXZ 0000000180047370 f   observer_proxy.obj
 0001:000463e0       ??0observer_proxy@internal@tbb@@AEAA@AEAVtask_scheduler_observer_v3@12@@Z 00000001800473e0 f   observer_proxy.obj
 0001:000464f0       ??1observer_proxy@internal@tbb@@AEAA@XZ 00000001800474f0 f   observer_proxy.obj
 0001:00046590       ??$as_atomic@_N@internal@tbb@@YAAEAU?$atomic@_N@1@AEA_N@Z 0000000180047590 f i observer_proxy.obj
 0001:000465a0       ??$fetch_and_store@$01@?$atomic_impl@_N@internal@tbb@@QEAA_N_N@Z 00000001800475a0 f i observer_proxy.obj
 0001:000465f0       ??$load@$02@?$atomic_impl@_J@internal@tbb@@QEBA_JXZ 00000001800475f0 f i observer_proxy.obj
 0001:00046640       ??$load@$02_J@tbb@@YA_JAEBU?$atomic@_J@0@@Z 0000000180047640 f i observer_proxy.obj
 0001:00046670       ??$poison_pointer@Vobserver_proxy@internal@tbb@@@internal@tbb@@YAXAEAPEAVobserver_proxy@01@@Z 0000000180047670 f i observer_proxy.obj
 0001:00046690       ??$poison_value@U?$atomic@H@tbb@@@internal@tbb@@YAXAEAU?$atomic@H@1@@Z 0000000180047690 f i observer_proxy.obj
 0001:000466d0       ??$punned_cast@PEAU?$atomic@H@tbb@@$$CB_K@internal@tbb@@YAPEAU?$atomic@H@1@PEB_K@Z 00000001800476d0 f i observer_proxy.obj
 0001:00046710       ??$punned_cast@PEAVspin_rw_mutex_v3@tbb@@$$CBV?$aligned_space@Vspin_rw_mutex_v3@tbb@@$00@2@@internal@tbb@@YAPEAVspin_rw_mutex_v3@1@PEBV?$aligned_space@Vspin_rw_mutex_v3@tbb@@$00@1@@Z 0000000180047710 f i observer_proxy.obj
 0001:00046750       ??$to_bits@H@?$atomic_impl@H@internal@tbb@@SAHH@Z 0000000180047750 f i observer_proxy.obj
 0001:00046790       ??$to_bits_ref@$$CB_J@?$atomic_impl@_J@internal@tbb@@SAAEA_JAEB_J@Z 0000000180047790 f i observer_proxy.obj
 0001:000467d0       ??$to_bits_ref@H@?$atomic_impl@H@internal@tbb@@SAAEAHAEAH@Z 00000001800477d0 f i observer_proxy.obj
 0001:00046810       ??$to_bits_ref@_J@?$atomic_impl@_J@internal@tbb@@SAAEA_JAEA_J@Z 0000000180047810 f i observer_proxy.obj
 0001:00046850       ??0?$padded@Vobserver_list@internal@tbb@@$0IA@@internal@tbb@@QEAA@XZ 0000000180047850 f i observer_proxy.obj
 0001:00046890       ??0?$padded_base@Vobserver_list@internal@tbb@@$0IA@$0CA@@internal@tbb@@QEAA@XZ 0000000180047890 f i observer_proxy.obj
 0001:000468d0       ??0?$ptr_converter@PEA_J@?$atomic_impl@_J@internal@tbb@@QEAA@PEA_J@Z 00000001800478d0 f i observer_proxy.obj
 0001:000468f0       ??0?$ptr_converter@PEB_J@?$atomic_impl@_J@internal@tbb@@QEAA@PEB_J@Z 00000001800478f0 f i observer_proxy.obj
 0001:00046910       ??1check_observer_proxy_count@internal@tbb@@QEAA@XZ 0000000180047910 f i observer_proxy.obj
 0001:00046970       ??4?$atomic@H@tbb@@QEAAAEAU01@AEBU01@@Z 0000000180047970 f i observer_proxy.obj
 0001:000469c0       ??4?$atomic@_J@tbb@@QEAA_J_J@Z 00000001800479c0 f i observer_proxy.obj
 0001:00046a00       ??E?$atomic_impl_with_arithmetic@_J_JD@internal@tbb@@QEAA_JXZ 0000000180047a00 f i observer_proxy.obj
 0001:00046a40       ??F?$atomic_impl_with_arithmetic@_J_JD@internal@tbb@@QEAA_JXZ 0000000180047a40 f i observer_proxy.obj
 0001:00046a80       ??_Gobserver_proxy@internal@tbb@@AEAAPEAXI@Z 0000000180047a80 f i observer_proxy.obj
 0001:00046ae0       ?begin@?$aligned_space@Vspin_rw_mutex_v3@tbb@@$00@tbb@@QEBAPEAVspin_rw_mutex_v3@2@XZ 0000000180047ae0 f i observer_proxy.obj
 0001:00046b10       ?fetch_and_store@?$atomic_traits@$00$01@internal@tbb@@SACPECXC@Z 0000000180047b10 f i observer_proxy.obj
 0001:00046b50       ?initialize@task_arena@interface7@tbb@@QEAAXXZ 0000000180047b50 f i observer_proxy.obj
 0001:00046ba0       ?mark_initialized@task_arena@interface7@tbb@@AEAAXXZ 0000000180047ba0 f i observer_proxy.obj
 0001:00046c40       ?mutex@observer_list@internal@tbb@@QEAAAEAVspin_rw_mutex_v3@3@XZ 0000000180047c40 f i observer_proxy.obj
 0001:00046c90       ?remove_ref_fast@observer_list@internal@tbb@@CAXAEAPEAVobserver_proxy@23@@Z 0000000180047c90 f i observer_proxy.obj
 0001:00046d10       ?store_with_release@?$atomic_impl@_J@internal@tbb@@IEAA_J_J@Z 0000000180047d10 f i observer_proxy.obj
 0001:00046d70       ?internal_create@global_control@interface9@tbb@@AEAAXXZ 0000000180047d70 f   tbb_main.obj
 0001:00046eb0       ?internal_destroy@global_control@interface9@tbb@@AEAAXXZ 0000000180047eb0 f   tbb_main.obj
 0001:00047160       ?active_value@global_control@interface9@tbb@@CA_KH@Z 0000000180048160 f   tbb_main.obj
 0001:00047280       ?DoOneTimeInitializations@internal@tbb@@YAXXZ 0000000180048280 f   tbb_main.obj
 0001:00047360       ?ITT_DoUnsafeOneTimeInitialization@internal@tbb@@YAXXZ 0000000180048360 f   tbb_main.obj
 0001:000473f0       ?add_ref@__TBB_InitOnce@internal@tbb@@SAXXZ 00000001800483f0 f   tbb_main.obj
 0001:00047430       ?remove_ref@__TBB_InitOnce@internal@tbb@@SAXXZ 0000000180048430 f   tbb_main.obj
 0001:000474a0       ?itt_set_sync_name_v3@internal@tbb@@YAXPEAXPEB_W@Z 00000001800484a0 f   tbb_main.obj
 0001:00047500       ?call_itt_notify_v5@internal@tbb@@YAXHPEAX@Z 0000000180048500 f   tbb_main.obj
 0001:000475c0       ?itt_store_pointer_with_release_v3@internal@tbb@@YAXPEAX0@Z 00000001800485c0 f   tbb_main.obj
 0001:00047620       ?itt_load_pointer_with_acquire_v3@internal@tbb@@YAPEAXPEBX@Z 0000000180048620 f   tbb_main.obj
 0001:00047680       ?itt_load_pointer_v3@internal@tbb@@YAPEAXPEBX@Z 0000000180048680 f   tbb_main.obj
 0001:000476c0       ?app_parallelism_limit@market@internal@tbb@@SAIXZ 00000001800486c0 f   tbb_main.obj
 0001:000476f0       ITT_DoOneTimeInitialization 00000001800486f0 f   tbb_main.obj
 0001:00047720       DllMain                    0000000180048720 f   tbb_main.obj
 0001:000477a0       ??$__TBB_load_with_acquire@PEAX@internal@tbb@@YAPEAXAEDSEAX@Z 00000001800487a0 f i tbb_main.obj
 0001:000477d0       ??$__TBB_store_with_release@PEAXPEAX@internal@tbb@@YAXAECREAXPEAX@Z 00000001800487d0 f i tbb_main.obj
 0001:00047810       ??$min@_K@internal@tbb@@YA_KAEB_K0@Z 0000000180048810 f i tbb_main.obj
 0001:00047870       ??$suppress_unused_warning@$$BY0HM@D@internal@tbb@@YAXAEAY0HM@$$CBD@Z 0000000180048870 f i tbb_main.obj
 0001:00047880       ??$suppress_unused_warning@PEAXPEB_W@internal@tbb@@YAXAEBQEAXAEBQEB_W@Z 0000000180048880 f i tbb_main.obj
 0001:00047890       ??$to_bits@PEAVglobal_control@interface9@tbb@@@?$atomic_impl@PEAVglobal_control@interface9@tbb@@@internal@tbb@@CA_JPEAVglobal_control@interface9@2@@Z 0000000180048890 f i tbb_main.obj
 0001:000478d0       ??$to_bits_ref@PEAVglobal_control@interface9@tbb@@@?$atomic_impl@PEAVglobal_control@interface9@tbb@@@internal@tbb@@CAAEA_JAEAPEAVglobal_control@interface9@2@@Z 00000001800488d0 f i tbb_main.obj
 0001:00047910       ??$to_bits_ref@SEAVglobal_control@interface9@tbb@@@?$atomic_impl@PEAVglobal_control@interface9@tbb@@@internal@tbb@@CAAEA_JAEDSEAVglobal_control@interface9@2@@Z 0000000180048910 f i tbb_main.obj
 0001:00047950       ??$to_value@PEAVglobal_control@interface9@tbb@@@?$atomic_impl@PEAVglobal_control@interface9@tbb@@@internal@tbb@@CAPEAVglobal_control@interface9@2@_J@Z 0000000180048950 f i tbb_main.obj
 0001:000479b0       ??0?$converter@PEAVglobal_control@interface9@tbb@@@?$atomic_impl@PEAVglobal_control@interface9@tbb@@@internal@tbb@@QEAA@PEAVglobal_control@interface9@3@@Z 00000001800489b0 f i tbb_main.obj
 0001:000479d0       ??0?$converter@PEAVglobal_control@interface9@tbb@@@?$atomic_impl@PEAVglobal_control@interface9@tbb@@@internal@tbb@@QEAA@XZ 00000001800489d0 f i tbb_main.obj
 0001:000479e0       ??0?$padded@Vcontrol_storage@internal@tbb@@$0IA@@internal@tbb@@QEAA@XZ 00000001800489e0 f i tbb_main.obj
 0001:00047a30       ??0?$padded_base@Vcontrol_storage@internal@tbb@@$0IA@$0CA@@internal@tbb@@QEAA@XZ 0000000180048a30 f i tbb_main.obj
 0001:00047a80       ??0?$ptr_converter@PEAPEAVglobal_control@interface9@tbb@@@?$atomic_impl@PEAVglobal_control@interface9@tbb@@@internal@tbb@@QEAA@PEAPEAVglobal_control@interface9@3@@Z 0000000180048a80 f i tbb_main.obj
 0001:00047aa0       ??0?$ptr_converter@PEDSEAVglobal_control@interface9@tbb@@@?$atomic_impl@PEAVglobal_control@interface9@tbb@@@internal@tbb@@QEAA@PEDSEAVglobal_control@interface9@3@@Z 0000000180048aa0 f i tbb_main.obj
 0001:00047ac0       ??0allowed_parallelism_control@internal@tbb@@QEAA@XZ 0000000180048ac0 f i tbb_main.obj
 0001:00047b10       ??0control_storage@internal@tbb@@QEAA@XZ 0000000180048b10 f i tbb_main.obj
 0001:00047b60       ??0stack_size_control@internal@tbb@@QEAA@XZ 0000000180048b60 f i tbb_main.obj
 0001:00047bb0       ??4?$atomic@PEAVglobal_control@interface9@tbb@@@tbb@@QEAAPEAVglobal_control@interface9@1@PEAV231@@Z 0000000180048bb0 f i tbb_main.obj
 0001:00047bf0       ??B?$atomic_impl@PEAVglobal_control@interface9@tbb@@@internal@tbb@@QEDAPEAVglobal_control@interface9@2@XZ 0000000180048bf0 f i tbb_main.obj
 0001:00047c40       ??C?$atomic@PEAVglobal_control@interface9@tbb@@@tbb@@QEBAPEAVglobal_control@interface9@1@XZ 0000000180048c40 f i tbb_main.obj
 0001:00047c70       ?active_value@allowed_parallelism_control@internal@tbb@@EEBA_KXZ 0000000180048c70 f i tbb_main.obj
 0001:00047d10       ?active_value@control_storage@internal@tbb@@MEBA_KXZ 0000000180048d10 f i tbb_main.obj
 0001:00047d80       ?active_value_if_present@allowed_parallelism_control@internal@tbb@@QEBA_KXZ 0000000180048d80 f i tbb_main.obj
 0001:00047de0       ?apply_active@allowed_parallelism_control@internal@tbb@@EEBAXXZ 0000000180048de0 f i tbb_main.obj
 0001:00047e40       ?apply_active@control_storage@internal@tbb@@MEBAXXZ 0000000180048e40 f i tbb_main.obj
 0001:00047e50       ?apply_active@stack_size_control@internal@tbb@@EEBAXXZ 0000000180048e50 f i tbb_main.obj
 0001:00047e60       ?default_value@allowed_parallelism_control@internal@tbb@@EEBA_KXZ 0000000180048e60 f i tbb_main.obj
 0001:00047eb0       ?default_value@stack_size_control@internal@tbb@@EEBA_KXZ 0000000180048eb0 f i tbb_main.obj
 0001:00047ec0       ?is_first_arg_preferred@allowed_parallelism_control@internal@tbb@@EEBA_N_K0@Z 0000000180048ec0 f i tbb_main.obj
 0001:00047f10       ?is_first_arg_preferred@control_storage@internal@tbb@@MEBA_N_K0@Z 0000000180048f10 f i tbb_main.obj
 0001:00047f60       ?load_with_acquire@?$machine_load_store@PEAX$07@internal@tbb@@SAPEAXAEDSEAX@Z 0000000180048f60 f i tbb_main.obj
 0001:00047fa0       ?lock@__TBB_InitOnce@internal@tbb@@SAXXZ 0000000180048fa0 f i tbb_main.obj
 0001:00047fd0       ?max_num_workers@market@internal@tbb@@SAIXZ 0000000180048fd0 f i tbb_main.obj
 0001:00048050       ?store_with_release@?$atomic_impl@PEAVglobal_control@interface9@tbb@@@internal@tbb@@IEAAPEAVglobal_control@interface9@3@PEAV453@@Z 0000000180049050 f i tbb_main.obj
 0001:000480b0       ?store_with_release@?$machine_load_store@PEAX$07@internal@tbb@@SAXAECREAXPEAX@Z 00000001800490b0 f i tbb_main.obj
 0001:000480d0       ?terminate_auto_initialized_scheduler@governor@internal@tbb@@SAXXZ 00000001800490d0 f i tbb_main.obj
 0001:00048100       ?unlock@__TBB_InitOnce@internal@tbb@@SAXXZ 0000000180049100 f i tbb_main.obj
 0001:00048230       ?internal_reserve@concurrent_vector_base@internal@tbb@@IEAAX_K00@Z 0000000180049230 f   concurrent_vector_v2.obj
 0001:00048360       ?internal_capacity@concurrent_vector_base@internal@tbb@@IEBA_KXZ 0000000180049360 f   concurrent_vector_v2.obj
 0001:000483a0       ?internal_grow_to_at_least@concurrent_vector_base@internal@tbb@@IEAAX_K0P6AXPEAX0@Z@Z 00000001800493a0 f   concurrent_vector_v2.obj
 0001:00048450       ?internal_grow@concurrent_vector_base@internal@tbb@@IEAAX_K00P6AXPEAX0@Z@Z 0000000180049450 f   concurrent_vector_v2.obj
 0001:000486d0       ?internal_grow_by@concurrent_vector_base@internal@tbb@@IEAA_K_K0P6AXPEAX0@Z@Z 00000001800496d0 f   concurrent_vector_v2.obj
 0001:00048760       ?internal_push_back@concurrent_vector_base@internal@tbb@@IEAAPEAX_KAEA_K@Z 0000000180049760 f   concurrent_vector_v2.obj
 0001:00048950       ?internal_clear@concurrent_vector_base@internal@tbb@@IEAAXP6AXPEAX_K@Z_N@Z 0000000180049950 f   concurrent_vector_v2.obj
 0001:00048bd0       ?internal_copy@concurrent_vector_base@internal@tbb@@IEAAXAEBV123@_KP6AXPEAXPEBX1@Z@Z 0000000180049bd0 f   concurrent_vector_v2.obj
 0001:00048da0       ?internal_assign@concurrent_vector_base@internal@tbb@@IEAAXAEBV123@_KP6AXPEAX1@ZP6AX2PEBX1@Z5@Z 0000000180049da0 f   concurrent_vector_v2.obj
 0001:000491a0       ?extend_segment@helper@concurrent_vector_base@internal@tbb@@CAXAEAV234@@Z 000000018004a1a0 f   concurrent_vector_v2.obj
 0001:000492e0       ??$compare_and_swap@$0A@@?$atomic_impl@PEAUsegment_t@concurrent_vector_base@internal@tbb@@@internal@tbb@@QEAAPEAUsegment_t@concurrent_vector_base@12@PEAU3412@0@Z 000000018004a2e0 f i concurrent_vector_v2.obj
 0001:00049350       ??$spin_wait_while_eq@PEAXPEAX@internal@tbb@@YAXAEDSEAXPEAX@Z 000000018004a350 f i concurrent_vector_v2.obj
 0001:000493b0       ??$to_bits@PEAUsegment_t@concurrent_vector_base@internal@tbb@@@?$atomic_impl@PEAUsegment_t@concurrent_vector_base@internal@tbb@@@internal@tbb@@CA_JPEAUsegment_t@concurrent_vector_base@12@@Z 000000018004a3b0 f i concurrent_vector_v2.obj
 0001:000493f0       ??$to_bits_ref@PEAUsegment_t@concurrent_vector_base@internal@tbb@@@?$atomic_impl@PEAUsegment_t@concurrent_vector_base@internal@tbb@@@internal@tbb@@CAAEA_JAEAPEAUsegment_t@concurrent_vector_base@12@@Z 000000018004a3f0 f i concurrent_vector_v2.obj
 0001:00049430       ??$to_bits_ref@SEAUsegment_t@concurrent_vector_base@internal@tbb@@@?$atomic_impl@PEAUsegment_t@concurrent_vector_base@internal@tbb@@@internal@tbb@@CAAEA_JAEDSEAUsegment_t@concurrent_vector_base@12@@Z 000000018004a430 f i concurrent_vector_v2.obj
 0001:00049470       ??$to_value@PEAUsegment_t@concurrent_vector_base@internal@tbb@@@?$atomic_impl@PEAUsegment_t@concurrent_vector_base@internal@tbb@@@internal@tbb@@CAPEAUsegment_t@concurrent_vector_base@12@_J@Z 000000018004a470 f i concurrent_vector_v2.obj
 0001:000494d0       ??0?$converter@PEAUsegment_t@concurrent_vector_base@internal@tbb@@@?$atomic_impl@PEAUsegment_t@concurrent_vector_base@internal@tbb@@@internal@tbb@@QEAA@PEAUsegment_t@concurrent_vector_base@23@@Z 000000018004a4d0 f i concurrent_vector_v2.obj
 0001:000494f0       ??0?$converter@PEAUsegment_t@concurrent_vector_base@internal@tbb@@@?$atomic_impl@PEAUsegment_t@concurrent_vector_base@internal@tbb@@@internal@tbb@@QEAA@XZ 000000018004a4f0 f i concurrent_vector_v2.obj
 0001:00049500       ??0?$ptr_converter@PEAPEAUsegment_t@concurrent_vector_base@internal@tbb@@@?$atomic_impl@PEAUsegment_t@concurrent_vector_base@internal@tbb@@@internal@tbb@@QEAA@PEAPEAUsegment_t@concurrent_vector_base@23@@Z 000000018004a500 f i concurrent_vector_v2.obj
 0001:00049520       ??0?$ptr_converter@PEDSEAUsegment_t@concurrent_vector_base@internal@tbb@@@?$atomic_impl@PEAUsegment_t@concurrent_vector_base@internal@tbb@@@internal@tbb@@QEAA@PEDSEAUsegment_t@concurrent_vector_base@23@@Z 000000018004a520 f i concurrent_vector_v2.obj
 0001:00049540       ??4?$atomic@PEAUsegment_t@concurrent_vector_base@internal@tbb@@@tbb@@QEAAPEAUsegment_t@concurrent_vector_base@internal@1@PEAU2341@@Z 000000018004a540 f i concurrent_vector_v2.obj
 0001:00049580       ??4segment_t@concurrent_vector_base@internal@tbb@@QEAAAEAU0123@AEBU0123@@Z 000000018004a580 f i concurrent_vector_v2.obj
 0001:000495b0       ??B?$atomic_impl@PEAUsegment_t@concurrent_vector_base@internal@tbb@@@internal@tbb@@QEDAPEAUsegment_t@concurrent_vector_base@12@XZ 000000018004a5b0 f i concurrent_vector_v2.obj
 0001:00049600       ?compare_and_swap@?$atomic_impl@PEAUsegment_t@concurrent_vector_base@internal@tbb@@@internal@tbb@@QEAAPEAUsegment_t@concurrent_vector_base@23@PEAU4523@0@Z 000000018004a600 f i concurrent_vector_v2.obj
 0001:00049650       ?extend_segment_if_necessary@helper@concurrent_vector_base@internal@tbb@@SAXAEAV234@_K@Z 000000018004a650 f i concurrent_vector_v2.obj
 0001:000496c0       ?find_segment_end@helper@concurrent_vector_base@internal@tbb@@SAKAEBV234@@Z 000000018004a6c0 f i concurrent_vector_v2.obj
 0001:00049780       ?segment_base@concurrent_vector_base@internal@tbb@@KAKK@Z 000000018004a780 f i concurrent_vector_v2.obj
 0001:000497c0       ?segment_index_of@concurrent_vector_base@internal@tbb@@KAK_K@Z 000000018004a7c0 f i concurrent_vector_v2.obj
 0001:00049810       ?segment_size@concurrent_vector_base@internal@tbb@@KAKK@Z 000000018004a810 f i concurrent_vector_v2.obj
 0001:000498b0       ?store_with_release@?$atomic_impl@PEAUsegment_t@concurrent_vector_base@internal@tbb@@@internal@tbb@@IEAAPEAUsegment_t@concurrent_vector_base@23@PEAU4523@@Z 000000018004a8b0 f i concurrent_vector_v2.obj
 0001:00049910       ??0concurrent_queue_base@internal@tbb@@IEAA@_K@Z 000000018004a910 f   concurrent_queue_v2.obj
 0001:00049c10       ??1concurrent_queue_base@internal@tbb@@MEAA@XZ 000000018004ac10 f   concurrent_queue_v2.obj
 0001:00049d40       ?internal_push@concurrent_queue_base@internal@tbb@@IEAAXPEBX@Z 000000018004ad40 f   concurrent_queue_v2.obj
 0001:00049e20       ?internal_pop@concurrent_queue_base@internal@tbb@@IEAAXPEAX@Z 000000018004ae20 f   concurrent_queue_v2.obj
 0001:00049ea0       ?internal_push_if_not_full@concurrent_queue_base@internal@tbb@@IEAA_NPEBX@Z 000000018004aea0 f   concurrent_queue_v2.obj
 0001:00049fa0       ?internal_pop_if_present@concurrent_queue_base@internal@tbb@@IEAA_NPEAX@Z 000000018004afa0 f   concurrent_queue_v2.obj
 0001:0004a090       ?internal_size@concurrent_queue_base@internal@tbb@@IEBA_JXZ 000000018004b090 f   concurrent_queue_v2.obj
 0001:0004a120       ?internal_set_capacity@concurrent_queue_base@internal@tbb@@IEAAX_J_K@Z 000000018004b120 f   concurrent_queue_v2.obj
 0001:0004a190       ??0concurrent_queue_iterator_base@internal@tbb@@IEAA@AEBVconcurrent_queue_base@12@@Z 000000018004b190 f   concurrent_queue_v2.obj
 0001:0004a240       ?assign@concurrent_queue_iterator_base@internal@tbb@@IEAAXAEBV123@@Z 000000018004b240 f   concurrent_queue_v2.obj
 0001:0004a330       ?advance@concurrent_queue_iterator_base@internal@tbb@@IEAAXXZ 000000018004b330 f   concurrent_queue_v2.obj
 0001:0004a490       ??1concurrent_queue_iterator_base@internal@tbb@@IEAA@XZ 000000018004b490 f   concurrent_queue_v2.obj
 0001:0004a5a0       ?push@micro_queue@internal@tbb@@QEAAXPEBX_KAEAVconcurrent_queue_base@23@@Z 000000018004b5a0 f   concurrent_queue_v2.obj
 0001:0004a800       ?pop@micro_queue@internal@tbb@@QEAA_NPEAX_KAEAVconcurrent_queue_base@23@@Z 000000018004b800 f   concurrent_queue_v2.obj
 0001:0004a9d0       ??$to_bits@PEAUpage@concurrent_queue_base@internal@tbb@@@?$atomic_impl@PEAUpage@concurrent_queue_base@internal@tbb@@@internal@tbb@@CA_JPEAUpage@concurrent_queue_base@12@@Z 000000018004b9d0 f i concurrent_queue_v2.obj
 0001:0004aa10       ??$to_bits_ref@PEAUpage@concurrent_queue_base@internal@tbb@@@?$atomic_impl@PEAUpage@concurrent_queue_base@internal@tbb@@@internal@tbb@@CAAEA_JAEAPEAUpage@concurrent_queue_base@12@@Z 000000018004ba10 f i concurrent_queue_v2.obj
 0001:0004aa50       ??$to_bits_ref@SEAUpage@concurrent_queue_base@internal@tbb@@@?$atomic_impl@PEAUpage@concurrent_queue_base@internal@tbb@@@internal@tbb@@CAAEA_JAEDSEAUpage@concurrent_queue_base@12@@Z 000000018004ba50 f i concurrent_queue_v2.obj
 0001:0004aa90       ??$to_value@PEAUpage@concurrent_queue_base@internal@tbb@@@?$atomic_impl@PEAUpage@concurrent_queue_base@internal@tbb@@@internal@tbb@@CAPEAUpage@concurrent_queue_base@12@_J@Z 000000018004ba90 f i concurrent_queue_v2.obj
 0001:0004aaf0       ??0?$converter@PEAUpage@concurrent_queue_base@internal@tbb@@@?$atomic_impl@PEAUpage@concurrent_queue_base@internal@tbb@@@internal@tbb@@QEAA@PEAUpage@concurrent_queue_base@23@@Z 000000018004baf0 f i concurrent_queue_v2.obj
 0001:0004ab10       ??0?$converter@PEAUpage@concurrent_queue_base@internal@tbb@@@?$atomic_impl@PEAUpage@concurrent_queue_base@internal@tbb@@@internal@tbb@@QEAA@XZ 000000018004bb10 f i concurrent_queue_v2.obj
 0001:0004ab20       ??0?$ptr_converter@PEAPEAUpage@concurrent_queue_base@internal@tbb@@@?$atomic_impl@PEAUpage@concurrent_queue_base@internal@tbb@@@internal@tbb@@QEAA@PEAPEAUpage@concurrent_queue_base@23@@Z 000000018004bb20 f i concurrent_queue_v2.obj
 0001:0004ab40       ??0?$ptr_converter@PEDSEAUpage@concurrent_queue_base@internal@tbb@@@?$atomic_impl@PEAUpage@concurrent_queue_base@internal@tbb@@@internal@tbb@@QEAA@PEDSEAUpage@concurrent_queue_base@23@@Z 000000018004bb40 f i concurrent_queue_v2.obj
 0001:0004ab60       ??0concurrent_queue_iterator_rep@internal@tbb@@QEAA@AEBVconcurrent_queue_base@12@@Z 000000018004bb60 f i concurrent_queue_v2.obj
 0001:0004ac10       ??0pop_finalizer@micro_queue@internal@tbb@@QEAA@AEAU123@_KPEAUpage@concurrent_queue_base@23@@Z 000000018004bc10 f i concurrent_queue_v2.obj
 0001:0004ac80       ??0push_finalizer@micro_queue@internal@tbb@@QEAA@AEAU123@_K@Z 000000018004bc80 f i concurrent_queue_v2.obj
 0001:0004ace0       ??1pop_finalizer@micro_queue@internal@tbb@@QEAA@XZ 000000018004bce0 f i concurrent_queue_v2.obj
 0001:0004adf0       ??1push_finalizer@micro_queue@internal@tbb@@QEAA@XZ 000000018004bdf0 f i concurrent_queue_v2.obj
 0001:0004ae40       ??4?$atomic@PEAUpage@concurrent_queue_base@internal@tbb@@@tbb@@QEAAPEAUpage@concurrent_queue_base@internal@1@PEAU2341@@Z 000000018004be40 f i concurrent_queue_v2.obj
 0001:0004ae80       ??B?$atomic_impl@PEAUpage@concurrent_queue_base@internal@tbb@@@internal@tbb@@QEDAPEAUpage@concurrent_queue_base@12@XZ 000000018004be80 f i concurrent_queue_v2.obj
 0001:0004aed0       ??_Econcurrent_queue_base@internal@tbb@@MEAAPEAXI@Z 000000018004bed0 f i concurrent_queue_v2.obj
 0001:0004aed0       ??_Gconcurrent_queue_base@internal@tbb@@MEAAPEAXI@Z 000000018004bed0 f i concurrent_queue_v2.obj
 0001:0004af30       ?choose@concurrent_queue_iterator_rep@internal@tbb@@QEAAPEAX_K@Z 000000018004bf30 f i concurrent_queue_v2.obj
 0001:0004b020       ?store_with_release@?$atomic_impl@PEAUpage@concurrent_queue_base@internal@tbb@@@internal@tbb@@IEAAPEAUpage@concurrent_queue_base@23@PEAU4523@@Z 000000018004c020 f i concurrent_queue_v2.obj
 0001:0004b080       ?internal_itt_releasing@spin_rw_mutex@tbb@@CAXPEAV12@@Z 000000018004c080 f   spin_rw_mutex_v2.obj
 0001:0004b0f0       ?internal_acquire_writer@spin_rw_mutex@tbb@@CA_NPEAV12@@Z 000000018004c0f0 f   spin_rw_mutex_v2.obj
 0001:0004b220       ?internal_release_writer@spin_rw_mutex@tbb@@CAXPEAV12@@Z 000000018004c220 f   spin_rw_mutex_v2.obj
 0001:0004b2a0       ?internal_acquire_reader@spin_rw_mutex@tbb@@CAXPEAV12@@Z 000000018004c2a0 f   spin_rw_mutex_v2.obj
 0001:0004b3d0       ?internal_upgrade@spin_rw_mutex@tbb@@CA_NPEAV12@@Z 000000018004c3d0 f   spin_rw_mutex_v2.obj
 0001:0004b5c0       ?internal_downgrade@spin_rw_mutex@tbb@@CAXPEAV12@@Z 000000018004c5c0 f   spin_rw_mutex_v2.obj
 0001:0004b6b0       ?internal_release_reader@spin_rw_mutex@tbb@@CAXPEAV12@@Z 000000018004c6b0 f   spin_rw_mutex_v2.obj
 0001:0004b770       ?internal_try_acquire_writer@spin_rw_mutex@tbb@@CA_NPEAV12@@Z 000000018004c770 f   spin_rw_mutex_v2.obj
 0001:0004b7f0       ?internal_try_acquire_reader@spin_rw_mutex@tbb@@CA_NPEAV12@@Z 000000018004c7f0 f   spin_rw_mutex_v2.obj
 0001:0004b9d0       ??$as_atomic@$$CC_K@internal@tbb@@YAAEAU?$atomic@$$CC_K@1@AEC_K@Z 000000018004c9d0 f i spin_rw_mutex_v2.obj
 0001:0004b9e0       ??$compare_and_swap@$0A@@?$atomic_impl@$$CC_K@internal@tbb@@QEAA?C_K_K0@Z 000000018004c9e0 f i spin_rw_mutex_v2.obj
 0001:0004ba50       ??$to_bits@_K@?$atomic_impl@$$CC_K@internal@tbb@@CA_J_K@Z 000000018004ca50 f i spin_rw_mutex_v2.obj
 0001:0004ba90       ??$to_value@$$CC_K@?$atomic_impl@$$CC_K@internal@tbb@@CA?C_K_J@Z 000000018004ca90 f i spin_rw_mutex_v2.obj
 0001:0004baf0       ??0?$converter@$$CC_K@?$atomic_impl@$$CC_K@internal@tbb@@QEAA@XZ 000000018004caf0 f i spin_rw_mutex_v2.obj
 0001:0004bb00       ??0?$converter@_K@?$atomic_impl@$$CC_K@internal@tbb@@QEAA@_K@Z 000000018004cb00 f i spin_rw_mutex_v2.obj
 0001:0004bb20       ?compare_and_swap@?$atomic_impl@$$CC_K@internal@tbb@@QEAA?C_K_K0@Z 000000018004cb20 f i spin_rw_mutex_v2.obj
 0001:0004bb70       ?destroy@task@tbb@@QEAAXAEAV12@@Z 000000018004cb70 f   task_v2.obj
 0001:0004bba3       SwitchToThread             000000018004cba3 f   kernel32:KERNEL32.dll
 0001:0004bba9       CloseHandle                000000018004cba9 f   kernel32:KERNEL32.dll
 0001:0004bbaf       SetEvent                   000000018004cbaf f   kernel32:KERNEL32.dll
 0001:0004bbb5       WaitForSingleObjectEx      000000018004cbb5 f   kernel32:KERNEL32.dll
 0001:0004bbbb       GetLastError               000000018004cbbb f   kernel32:KERNEL32.dll
 0001:0004bbc1       SetErrorMode               000000018004cbc1 f   kernel32:KERNEL32.dll
 0001:0004bbc7       FreeLibrary                000000018004cbc7 f   kernel32:KERNEL32.dll
 0001:0004bbcd       GetModuleFileNameA         000000018004cbcd f   kernel32:KERNEL32.dll
 0001:0004bbd3       GetModuleHandleExA         000000018004cbd3 f   kernel32:KERNEL32.dll
 0001:0004bbd9       GetProcAddress             000000018004cbd9 f   kernel32:KERNEL32.dll
 0001:0004bbdf       LoadLibraryA               000000018004cbdf f   kernel32:KERNEL32.dll
 0001:0004bbe5       GetEnvironmentVariableA    000000018004cbe5 f   kernel32:KERNEL32.dll
 0001:0004bbeb       InitializeCriticalSection  000000018004cbeb f   kernel32:KERNEL32.dll
 0001:0004bbf1       EnterCriticalSection       000000018004cbf1 f   kernel32:KERNEL32.dll
 0001:0004bbf7       LeaveCriticalSection       000000018004cbf7 f   kernel32:KERNEL32.dll
 0001:0004bbfd       GetCurrentThreadId         000000018004cbfd f   kernel32:KERNEL32.dll
 0001:0004bc03       lstrcmpA                   000000018004cc03 f   kernel32:KERNEL32.dll
 0001:0004bc09       ReleaseSemaphore           000000018004cc09 f   kernel32:KERNEL32.dll
 0001:0004bc0f       CreateSemaphoreW           000000018004cc0f f   kernel32:KERNEL32.dll
 0001:0004bc15       TlsAlloc                   000000018004cc15 f   kernel32:KERNEL32.dll
 0001:0004bc1b       TlsGetValue                000000018004cc1b f   kernel32:KERNEL32.dll
 0001:0004bc21       TlsSetValue                000000018004cc21 f   kernel32:KERNEL32.dll
 0001:0004bc27       TlsFree                    000000018004cc27 f   kernel32:KERNEL32.dll
 0001:0004bc2d       InitializeCriticalSectionAndSpinCount 000000018004cc2d f   kernel32:KERNEL32.dll
 0001:0004bc33       TryEnterCriticalSection    000000018004cc33 f   kernel32:KERNEL32.dll
 0001:0004bc39       DeleteCriticalSection      000000018004cc39 f   kernel32:KERNEL32.dll
 0001:0004bc3f       SetLastError               000000018004cc3f f   kernel32:KERNEL32.dll
 0001:0004bc45       QueryPerformanceFrequency  000000018004cc45 f   kernel32:KERNEL32.dll
 0001:0004bc4b       ResetEvent                 000000018004cc4b f   kernel32:KERNEL32.dll
 0001:0004bc51       CreateEventA               000000018004cc51 f   kernel32:KERNEL32.dll
 0001:0004bc57       QueryPerformanceCounter    000000018004cc57 f   kernel32:KERNEL32.dll
 0001:0004bc5d       Sleep                      000000018004cc5d f   kernel32:KERNEL32.dll
 0001:0004bc63       ResumeThread               000000018004cc63 f   kernel32:KERNEL32.dll
 0001:0004bc69       FormatMessageA             000000018004cc69 f   kernel32:KERNEL32.dll
 0001:0004bc6f       GetCurrentProcess          000000018004cc6f f   kernel32:KERNEL32.dll
 0001:0004bc75       GetCurrentThread           000000018004cc75 f   kernel32:KERNEL32.dll
 0001:0004bc7b       GetNativeSystemInfo        000000018004cc7b f   kernel32:KERNEL32.dll
 0001:0004bc81       GetProcessAffinityMask     000000018004cc81 f   kernel32:KERNEL32.dll
 0001:0004bc87       CreateEventW               000000018004cc87 f   kernel32:KERNEL32.dll
 0001:0004bc8d       ?_Debug_message@std@@YAXPEB_W0I@Z 000000018004cc8d f   msvcprtd:MSVCP140D.dll
 0001:0004bc93       ?__ExceptionPtrCreate@@YAXPEAX@Z 000000018004cc93 f   msvcprtd:MSVCP140D.dll
 0001:0004bc99       ?__ExceptionPtrDestroy@@YAXPEAX@Z 000000018004cc99 f   msvcprtd:MSVCP140D.dll
 0001:0004bc9f       ?__ExceptionPtrCopy@@YAXPEAXPEBX@Z 000000018004cc9f f   msvcprtd:MSVCP140D.dll
 0001:0004bca5       ?__ExceptionPtrCurrentException@@YAXPEAX@Z 000000018004cca5 f   msvcprtd:MSVCP140D.dll
 0001:0004bcab       ?__ExceptionPtrCopyException@@YAXPEAXPEBX1@Z 000000018004ccab f   msvcprtd:MSVCP140D.dll
 0001:0004bcb1       ??0_Lockit@std@@QEAA@H@Z   000000018004ccb1 f   msvcprtd:MSVCP140D.dll
 0001:0004bcb7       ??1_Lockit@std@@QEAA@XZ    000000018004ccb7 f   msvcprtd:MSVCP140D.dll
 0001:0004bcbd       ?__ExceptionPtrRethrow@@YAXPEBX@Z 000000018004ccbd f   msvcprtd:MSVCP140D.dll
 0001:0004bcc3       ?_Xlength_error@std@@YAXPEBD@Z 000000018004ccc3 f   msvcprtd:MSVCP140D.dll
 0001:0004bcd0       _RTC_AllocaHelper          000000018004ccd0 f   MSVCRTD:_stack_.obj
 0001:0004bd10       _RTC_CheckStackVars        000000018004cd10 f   MSVCRTD:_stack_.obj
 0001:0004bda0       _RTC_CheckStackVars2       000000018004cda0 f   MSVCRTD:_stack_.obj
 0001:0004beb0       _CRT_RTC_INIT              000000018004ceb0 f   MSVCRTD:_init_.obj
 0001:0004bec0       _CRT_RTC_INITW             000000018004cec0 f   MSVCRTD:_init_.obj
 0001:0004bed0       _RTC_InitBase              000000018004ced0 f   MSVCRTD:_init_.obj
 0001:0004bf10       _RTC_Shutdown              000000018004cf10 f   MSVCRTD:_init_.obj
 0001:0004bf40       ??3@YAXPEAX_K@Z            000000018004cf40 f   MSVCRTD:delete_scalar_size.obj
 0001:0004bf60       __GSHandlerCheck_EH        000000018004cf60 f   MSVCRTD:gshandlereh.obj
 0001:0004c020       __security_check_cookie    000000018004d020 f   MSVCRTD:_amdsecgs_.obj
 0001:0004c050       ??1type_info@@UEAA@XZ      000000018004d050 f   MSVCRTD:std_type_info_static.obj
 0001:0004c070       ??_Etype_info@@UEAAPEAXI@Z 000000018004d070 f i MSVCRTD:std_type_info_static.obj
 0001:0004c070       ??_Gtype_info@@UEAAPEAXI@Z 000000018004d070 f i MSVCRTD:std_type_info_static.obj
 0001:0004c0b0       ??_M@YAXPEAX_K1P6AX0@Z@Z   000000018004d0b0 f   MSVCRTD:ehvecdtr.obj
 0001:0004c170       ??_M@YAXPEAX_KHP6AX0@Z@Z   000000018004d170 f   MSVCRTD:ehvecdtr.obj
 0001:0004c1f0       ?__ArrayUnwind@@YAXPEAX_K1P6AX0@Z@Z 000000018004d1f0 f   MSVCRTD:ehvecdtr.obj
 0001:0004c270       __GSHandlerCheck           000000018004d270 f   MSVCRTD:_gshandler_.obj
 0001:0004c2b0       __GSHandlerCheckCommon     000000018004d2b0 f   MSVCRTD:_gshandler_.obj
 0001:0004c3b0       __raise_securityfailure    000000018004d3b0 f   MSVCRTD:gs_report.obj
 0001:0004c3f0       __report_gsfailure         000000018004d3f0 f   MSVCRTD:gs_report.obj
 0001:0004c4d0       __report_rangecheckfailure 000000018004d4d0 f   MSVCRTD:gs_report.obj
 0001:0004c4f0       __report_securityfailure   000000018004d4f0 f   MSVCRTD:gs_report.obj
 0001:0004c590       __report_securityfailureEx 000000018004d590 f   MSVCRTD:gs_report.obj
 0001:0004c800       ??2@YAPEAX_K@Z             000000018004d800 f   MSVCRTD:new_scalar.obj
 0001:0004c860       __chkstk                   000000018004d860 f   MSVCRTD:_chkstk_.obj
 0001:0004c860       _alloca_probe              000000018004d860 f   MSVCRTD:_chkstk_.obj
 0001:0004c8c0       ?__scrt_initialize_type_info@@YAXXZ 000000018004d8c0 f   MSVCRTD:tncleanup.obj
 0001:0004c8e0       ?__scrt_uninitialize_type_info@@YAXXZ 000000018004d8e0 f   MSVCRTD:tncleanup.obj
 0001:0004c900       ??_L@YAXPEAX_K1P6AX0@Z2@Z  000000018004d900 f   MSVCRTD:ehvecctr.obj
 0001:0004c9a0       ??_L@YAXPEAX_KHP6AX0@Z2@Z  000000018004d9a0 f   MSVCRTD:ehvecctr.obj
 0001:0004c9f0       ??_U@YAPEAX_K@Z            000000018004d9f0 f   MSVCRTD:new_array.obj
 0001:0004ca10       ??_V@YAXPEAX_K@Z           000000018004da10 f   MSVCRTD:delete_array_size.obj
 0001:0004ca30       ??$__crt_fast_decode_pointer@PEAP6AXXZ@@YAPEAP6AXXZQEAP6AXXZ@Z 000000018004da30 f i MSVCRTD:utility.obj
 0001:0004ca70       ??$__crt_fast_encode_pointer@PEAP6AXXZ@@YAPEAP6AXXZQEAP6AXXZ@Z 000000018004da70 f i MSVCRTD:utility.obj
 0001:0004cab0       ?__crt_rotate_pointer_value@@YA_K_KH@Z 000000018004dab0 f i MSVCRTD:utility.obj
 0001:0004cad0       ?configure_argv@__scrt_narrow_argv_policy@@SAHXZ 000000018004dad0 f i MSVCRTD:utility.obj
 0001:0004cbc0       ?initialize_environment@__scrt_narrow_environment_policy@@SAHXZ 000000018004dbc0 f i MSVCRTD:utility.obj
 0001:0004cc60       __scrt_acquire_startup_lock 000000018004dc60 f   MSVCRTD:utility.obj
 0001:0004ccd0       __scrt_dllmain_after_initialize_c 000000018004dcd0 f   MSVCRTD:utility.obj
 0001:0004cd00       __scrt_dllmain_before_initialize_c 000000018004dd00 f   MSVCRTD:utility.obj
 0001:0004cd20       __scrt_dllmain_crt_thread_attach 000000018004dd20 f   MSVCRTD:utility.obj
 0001:0004cd50       __scrt_dllmain_crt_thread_detach 000000018004dd50 f   MSVCRTD:utility.obj
 0001:0004cd70       __scrt_dllmain_exception_filter 000000018004dd70 f   MSVCRTD:utility.obj
 0001:0004cdd0       __scrt_dllmain_uninitialize_c 000000018004ddd0 f   MSVCRTD:utility.obj
 0001:0004ce00       __scrt_dllmain_uninitialize_critical 000000018004de00 f   MSVCRTD:utility.obj
 0001:0004ce20       __scrt_initialize_crt      000000018004de20 f   MSVCRTD:utility.obj
 0001:0004ce70       __scrt_initialize_onexit_tables 000000018004de70 f   MSVCRTD:utility.obj
 0001:0004cf80       __scrt_is_nonwritable_in_current_image 000000018004df80 f   MSVCRTD:utility.obj
 0001:0004d010       __scrt_release_startup_lock 000000018004e010 f   MSVCRTD:utility.obj
 0001:0004d040       __scrt_uninitialize_crt    000000018004e040 f   MSVCRTD:utility.obj
 0001:0004d080       _onexit                    000000018004e080 f   MSVCRTD:utility.obj
 0001:0004d110       at_quick_exit              000000018004e110 f   MSVCRTD:utility.obj
 0001:0004d160       atexit                     000000018004e160 f   MSVCRTD:utility.obj
 0001:0004d1a0       ??3@YAXPEAX@Z              000000018004e1a0 f   MSVCRTD:delete_scalar.obj
 0001:0004d5a0       _CRT_INIT                  000000018004e5a0 f   MSVCRTD:dll_dllmain.obj
 0001:0004d5d0       _DllMainCRTStartup         000000018004e5d0 f   MSVCRTD:dll_dllmain.obj
 0001:0004d6a0       ?_RTC_AllocaFailure@@YAXPEAXPEAU_RTC_ALLOCA_NODE@@H@Z 000000018004e6a0 f   MSVCRTD:_error_.obj
 0001:0004d800       ?_RTC_Failure@@YAXPEAXH@Z  000000018004e800 f   MSVCRTD:_error_.obj
 0001:0004d850       ?_RTC_StackFailure@@YAXPEAXPEBD@Z 000000018004e850 f   MSVCRTD:_error_.obj
 0001:0004dc80       _RTC_UninitUse             000000018004ec80 f   MSVCRTD:_error_.obj
 0001:0004dd50       _vsprintf_s_l              000000018004ed50 f i MSVCRTD:_error_.obj
 0001:0004ddc0       sprintf_s                  000000018004edc0 f i MSVCRTD:_error_.obj
 0001:0004ddf0       ?_RTC_GetErrorFunc@@YAP6AHHPEBDH00ZZPEBX@Z 000000018004edf0 f   MSVCRTD:_userapi_.obj
 0001:0004de00       ?_RTC_GetErrorFuncW@@YAP6AHHPEB_WH00ZZPEBX@Z 000000018004ee00 f   MSVCRTD:_userapi_.obj
 0001:0004de10       _RTC_GetErrDesc            000000018004ee10 f   MSVCRTD:_userapi_.obj
 0001:0004de30       _RTC_NumErrors             000000018004ee30 f   MSVCRTD:_userapi_.obj
 0001:0004de40       _RTC_SetErrorFunc          000000018004ee40 f   MSVCRTD:_userapi_.obj
 0001:0004de60       _RTC_SetErrorFuncW         000000018004ee60 f   MSVCRTD:_userapi_.obj
 0001:0004de80       _RTC_SetErrorType          000000018004ee80 f   MSVCRTD:_userapi_.obj
 0001:0004dea0       _guard_check_icall_nop     000000018004eea0 f i MSVCRTD:guard_support.obj
 0001:0004deb0       ReadNoFence64              000000018004eeb0 f i MSVCRTD:guard_support.obj
 0001:0004ded0       ReadPointerNoFence         000000018004eed0 f i MSVCRTD:guard_support.obj
 0001:0004def0       _guard_icall_checks_enforced 000000018004eef0 f i MSVCRTD:guard_support.obj
 0001:0004df30       _guard_rf_checks_enforced  000000018004ef30 f i MSVCRTD:guard_support.obj
 0001:0004df40       ??0bad_alloc@std@@AEAA@QEBD@Z 000000018004ef40 f i MSVCRTD:throw_bad_alloc.obj
 0001:0004df80       ??0bad_array_new_length@std@@QEAA@AEBV01@@Z 000000018004ef80 f i MSVCRTD:throw_bad_alloc.obj
 0001:0004dfc0       ??0bad_array_new_length@std@@QEAA@XZ 000000018004efc0 f i MSVCRTD:throw_bad_alloc.obj
 0001:0004e000       ??1bad_array_new_length@std@@UEAA@XZ 000000018004f000 f i MSVCRTD:throw_bad_alloc.obj
 0001:0004e020       ??_Ebad_array_new_length@std@@UEAAPEAXI@Z 000000018004f020 f i MSVCRTD:throw_bad_alloc.obj
 0001:0004e020       ??_Gbad_array_new_length@std@@UEAAPEAXI@Z 000000018004f020 f i MSVCRTD:throw_bad_alloc.obj
 0001:0004e060       ?__scrt_throw_std_bad_alloc@@YAXXZ 000000018004f060 f   MSVCRTD:throw_bad_alloc.obj
 0001:0004e090       ?__scrt_throw_std_bad_array_new_length@@YAXXZ 000000018004f090 f   MSVCRTD:throw_bad_alloc.obj
 0001:0004e0c0       ??_V@YAXPEAX@Z             000000018004f0c0 f   MSVCRTD:delete_array.obj
 0001:0004e0e0       __isa_available_init       000000018004f0e0 f   MSVCRTD:_cpu_disp_.obj
 0001:0004e450       _get_startup_argv_mode     000000018004f450 f   MSVCRTD:argv_mode.obj
 0001:0004e460       __scrt_is_ucrt_dll_in_use  000000018004f460 f   MSVCRTD:ucrt_detection.obj
 0001:0004e490       __crt_debugger_hook        000000018004f490 f   MSVCRTD:utility_desktop.obj
 0001:0004e4a0       __scrt_fastfail            000000018004f4a0 f   MSVCRTD:utility_desktop.obj
 0001:0004e640       __scrt_get_show_window_mode 000000018004f640 f   MSVCRTD:utility_desktop.obj
 0001:0004e6a0       __scrt_initialize_winrt    000000018004f6a0 f   MSVCRTD:utility_desktop.obj
 0001:0004e6b0       __scrt_is_managed_app      000000018004f6b0 f   MSVCRTD:utility_desktop.obj
 0001:0004e760       __scrt_set_unhandled_exception_filter 000000018004f760 f   MSVCRTD:utility_desktop.obj
 0001:0004e780       __scrt_unhandled_exception_filter 000000018004f780 f   MSVCRTD:utility_desktop.obj
 0001:0004e8c0       __security_init_cookie     000000018004f8c0 f   MSVCRTD:gs_support.obj
 0001:0004e940       __local_stdio_scanf_options 000000018004f940 f i MSVCRTD:default_local_stdio_options.obj
 0001:0004e950       __scrt_initialize_default_local_stdio_options 000000018004f950 f   MSVCRTD:default_local_stdio_options.obj
 0001:0004e9a0       __scrt_get_dyn_tls_init_callback 000000018004f9a0 f   MSVCRTD:dyn_tls_init.obj
 0001:0004e9b0       _RTC_Initialize            000000018004f9b0 f   MSVCRTD:_initsect_.obj
 0001:0004ea00       _RTC_Terminate             000000018004fa00 f   MSVCRTD:_initsect_.obj
 0001:0004ef60       ?_RTC_GetSrcLine@@YAHPEAEPEA_WKPEAH1K@Z 000000018004ff60 f   MSVCRTD:_pdblkup_.obj
 0001:0004f330       _purecall                  0000000180050330 f   vcruntimed:VCRUNTIME140D.dll
 0001:0004f336       memset                     0000000180050336 f   vcruntimed:VCRUNTIME140D.dll
 0001:0004f33c       _CxxThrowException         000000018005033c f   vcruntimed:VCRUNTIME140D.dll
 0001:0004f342       __CxxFrameHandler3         0000000180050342 f   vcruntimed:VCRUNTIME140D.dll
 0001:0004f348       strrchr                    0000000180050348 f   vcruntimed:VCRUNTIME140D.dll
 0001:0004f34e       __std_exception_copy       000000018005034e f   vcruntimed:VCRUNTIME140D.dll
 0001:0004f354       __std_exception_destroy    0000000180050354 f   vcruntimed:VCRUNTIME140D.dll
 0001:0004f35a       __RTtypeid                 000000018005035a f   vcruntimed:VCRUNTIME140D.dll
 0001:0004f360       __std_type_info_name       0000000180050360 f   vcruntimed:VCRUNTIME140D.dll
 0001:0004f366       __RTDynamicCast            0000000180050366 f   vcruntimed:VCRUNTIME140D.dll
 0001:0004f36c       memcpy                     000000018005036c f   vcruntimed:VCRUNTIME140D.dll
 0001:0004f372       __C_specific_handler       0000000180050372 f   vcruntimed:VCRUNTIME140D.dll
 0001:0004f378       __std_type_info_destroy_list 0000000180050378 f   vcruntimed:VCRUNTIME140D.dll
 0001:0004f37e       __C_specific_handler_noexcept 000000018005037e f   vcruntimed:VCRUNTIME140D.dll
 0001:0004f384       __vcrt_GetModuleFileNameW  0000000180050384 f   vcruntimed:VCRUNTIME140D.dll
 0001:0004f38a       __vcrt_GetModuleHandleW    000000018005038a f   vcruntimed:VCRUNTIME140D.dll
 0001:0004f390       __vcrt_LoadLibraryExW      0000000180050390 f   vcruntimed:VCRUNTIME140D.dll
 0001:0004f396       _invalid_parameter         0000000180050396 f   ucrtd:ucrtbased.dll
 0001:0004f39c       strlen                     000000018005039c f   ucrtd:ucrtbased.dll
 0001:0004f3a2       strncpy                    00000001800503a2 f   ucrtd:ucrtbased.dll
 0001:0004f3a8       _wcsdup                    00000001800503a8 f   ucrtd:ucrtbased.dll
 0001:0004f3ae       wcscmp                     00000001800503ae f   ucrtd:ucrtbased.dll
 0001:0004f3b4       strncpy_s                  00000001800503b4 f   ucrtd:ucrtbased.dll
 0001:0004f3ba       _strdup                    00000001800503ba f   ucrtd:ucrtbased.dll
 0001:0004f3c0       malloc                     00000001800503c0 f   ucrtd:ucrtbased.dll
 0001:0004f3c6       free                       00000001800503c6 f   ucrtd:ucrtbased.dll
 0001:0004f3cc       _beginthreadex             00000001800503cc f   ucrtd:ucrtbased.dll
 0001:0004f3d2       _errno                     00000001800503d2 f   ucrtd:ucrtbased.dll
 0001:0004f3d8       exit                       00000001800503d8 f   ucrtd:ucrtbased.dll
 0001:0004f3de       __acrt_iob_func            00000001800503de f   ucrtd:ucrtbased.dll
 0001:0004f3e4       __stdio_common_vfprintf    00000001800503e4 f   ucrtd:ucrtbased.dll
 0001:0004f3ea       getenv                     00000001800503ea f   ucrtd:ucrtbased.dll
 0001:0004f3f0       fputs                      00000001800503f0 f   ucrtd:ucrtbased.dll
 0001:0004f3f6       __stdio_common_vsprintf    00000001800503f6 f   ucrtd:ucrtbased.dll
 0001:0004f3fc       strcmp                     00000001800503fc f   ucrtd:ucrtbased.dll
 0001:0004f402       strerror                   0000000180050402 f   ucrtd:ucrtbased.dll
 0001:0004f408       _CrtDbgReport              0000000180050408 f   ucrtd:ucrtbased.dll
 0001:0004f40e       _CrtDbgReportW             000000018005040e f   ucrtd:ucrtbased.dll
 0001:0004f414       terminate                  0000000180050414 f   ucrtd:ucrtbased.dll
 0001:0004f41a       _callnewh                  000000018005041a f   ucrtd:ucrtbased.dll
 0001:0004f420       _seh_filter_dll            0000000180050420 f   ucrtd:ucrtbased.dll
 0001:0004f426       _configure_narrow_argv     0000000180050426 f   ucrtd:ucrtbased.dll
 0001:0004f42c       _initialize_narrow_environment 000000018005042c f   ucrtd:ucrtbased.dll
 0001:0004f432       _initialize_onexit_table   0000000180050432 f   ucrtd:ucrtbased.dll
 0001:0004f438       _register_onexit_function  0000000180050438 f   ucrtd:ucrtbased.dll
 0001:0004f43e       _execute_onexit_table      000000018005043e f   ucrtd:ucrtbased.dll
 0001:0004f444       _crt_atexit                0000000180050444 f   ucrtd:ucrtbased.dll
 0001:0004f44a       _crt_at_quick_exit         000000018005044a f   ucrtd:ucrtbased.dll
 0001:0004f450       _cexit                     0000000180050450 f   ucrtd:ucrtbased.dll
 0001:0004f456       _free_dbg                  0000000180050456 f   ucrtd:ucrtbased.dll
 0001:0004f45c       _initterm                  000000018005045c f   ucrtd:ucrtbased.dll
 0001:0004f462       _initterm_e                0000000180050462 f   ucrtd:ucrtbased.dll
 0001:0004f468       strcpy_s                   0000000180050468 f   ucrtd:ucrtbased.dll
 0001:0004f46e       strcat_s                   000000018005046e f   ucrtd:ucrtbased.dll
 0001:0004f474       __stdio_common_vsprintf_s  0000000180050474 f   ucrtd:ucrtbased.dll
 0001:0004f47a       _wmakepath_s               000000018005047a f   ucrtd:ucrtbased.dll
 0001:0004f480       _wsplitpath_s              0000000180050480 f   ucrtd:ucrtbased.dll
 0001:0004f486       wcscpy_s                   0000000180050486 f   ucrtd:ucrtbased.dll
 0001:0004f48c       RtlCaptureContext          000000018005048c f   kernel32:KERNEL32.dll
 0001:0004f492       RtlLookupFunctionEntry     0000000180050492 f   kernel32:KERNEL32.dll
 0001:0004f498       RtlVirtualUnwind           0000000180050498 f   kernel32:KERNEL32.dll
 0001:0004f49e       UnhandledExceptionFilter   000000018005049e f   kernel32:KERNEL32.dll
 0001:0004f4a4       SetUnhandledExceptionFilter 00000001800504a4 f   kernel32:KERNEL32.dll
 0001:0004f4aa       TerminateProcess           00000001800504aa f   kernel32:KERNEL32.dll
 0001:0004f4b0       IsProcessorFeaturePresent  00000001800504b0 f   kernel32:KERNEL32.dll
 0001:0004f4b6       InitializeSListHead        00000001800504b6 f   kernel32:KERNEL32.dll
 0001:0004f4bc       IsDebuggerPresent          00000001800504bc f   kernel32:KERNEL32.dll
 0001:0004f4c2       RaiseException             00000001800504c2 f   kernel32:KERNEL32.dll
 0001:0004f4c8       MultiByteToWideChar        00000001800504c8 f   kernel32:KERNEL32.dll
 0001:0004f4ce       WideCharToMultiByte        00000001800504ce f   kernel32:KERNEL32.dll
 0001:0004f4d4       GetStartupInfoW            00000001800504d4 f   kernel32:KERNEL32.dll
 0001:0004f4da       GetModuleHandleW           00000001800504da f   kernel32:KERNEL32.dll
 0001:0004f4e0       GetCurrentProcessId        00000001800504e0 f   kernel32:KERNEL32.dll
 0001:0004f4e6       GetSystemTimeAsFileTime    00000001800504e6 f   kernel32:KERNEL32.dll
 0001:0004f4ec       HeapAlloc                  00000001800504ec f   kernel32:KERNEL32.dll
 0001:0004f4f2       HeapFree                   00000001800504f2 f   kernel32:KERNEL32.dll
 0001:0004f4f8       GetProcessHeap             00000001800504f8 f   kernel32:KERNEL32.dll
 0001:0004f4fe       VirtualQuery               00000001800504fe f   kernel32:KERNEL32.dll
 0001:0004f510       __vcrt_initialize          0000000180050510 f   MSVCRTD:ucrt_stubs.obj
 0001:0004f510       __acrt_initialize          0000000180050510 f   MSVCRTD:ucrt_stubs.obj
 0001:0004f510       __scrt_stub_for_acrt_initialize 0000000180050510 f   MSVCRTD:ucrt_stubs.obj
 0001:0004f520       __vcrt_thread_attach       0000000180050520 f   MSVCRTD:ucrt_stubs.obj
 0001:0004f520       __scrt_stub_for_acrt_thread_attach 0000000180050520 f   MSVCRTD:ucrt_stubs.obj
 0001:0004f520       __acrt_thread_attach       0000000180050520 f   MSVCRTD:ucrt_stubs.obj
 0001:0004f530       __scrt_stub_for_acrt_thread_detach 0000000180050530 f   MSVCRTD:ucrt_stubs.obj
 0001:0004f530       __acrt_thread_detach       0000000180050530 f   MSVCRTD:ucrt_stubs.obj
 0001:0004f530       __vcrt_thread_detach       0000000180050530 f   MSVCRTD:ucrt_stubs.obj
 0001:0004f540       __vcrt_uninitialize        0000000180050540 f   MSVCRTD:ucrt_stubs.obj
 0001:0004f540       __acrt_uninitialize        0000000180050540 f   MSVCRTD:ucrt_stubs.obj
 0001:0004f540       __scrt_stub_for_acrt_uninitialize 0000000180050540 f   MSVCRTD:ucrt_stubs.obj
 0001:0004f550       __acrt_uninitialize_critical 0000000180050550 f   MSVCRTD:ucrt_stubs.obj
 0001:0004f550       __vcrt_uninitialize_critical 0000000180050550 f   MSVCRTD:ucrt_stubs.obj
 0001:0004f550       __scrt_stub_for_acrt_uninitialize_critical 0000000180050550 f   MSVCRTD:ucrt_stubs.obj
 0001:0004f560       _is_c_termination_complete 0000000180050560 f   MSVCRTD:ucrt_stubs.obj
 0001:0004f560       __scrt_stub_for_is_c_termination_complete 0000000180050560 f   MSVCRTD:ucrt_stubs.obj
 0001:0004f580       _guard_dispatch_icall_nop  0000000180050580 f   MSVCRTD:_guard_dispatch_.obj
 0002:00000000       __imp_SwitchToThread       0000000180053000     kernel32:KERNEL32.dll
 0002:00000008       __imp_CloseHandle          0000000180053008     kernel32:KERNEL32.dll
 0002:00000010       __imp_SetEvent             0000000180053010     kernel32:KERNEL32.dll
 0002:00000018       __imp_WaitForSingleObjectEx 0000000180053018     kernel32:KERNEL32.dll
 0002:00000020       __imp_GetLastError         0000000180053020     kernel32:KERNEL32.dll
 0002:00000028       __imp_SetErrorMode         0000000180053028     kernel32:KERNEL32.dll
 0002:00000030       __imp_FreeLibrary          0000000180053030     kernel32:KERNEL32.dll
 0002:00000038       __imp_GetModuleFileNameA   0000000180053038     kernel32:KERNEL32.dll
 0002:00000040       __imp_GetModuleHandleExA   0000000180053040     kernel32:KERNEL32.dll
 0002:00000048       __imp_GetProcAddress       0000000180053048     kernel32:KERNEL32.dll
 0002:00000050       __imp_LoadLibraryA         0000000180053050     kernel32:KERNEL32.dll
 0002:00000058       __imp_GetEnvironmentVariableA 0000000180053058     kernel32:KERNEL32.dll
 0002:00000060       __imp_InitializeCriticalSection 0000000180053060     kernel32:KERNEL32.dll
 0002:00000068       __imp_EnterCriticalSection 0000000180053068     kernel32:KERNEL32.dll
 0002:00000070       __imp_LeaveCriticalSection 0000000180053070     kernel32:KERNEL32.dll
 0002:00000078       __imp_GetCurrentThreadId   0000000180053078     kernel32:KERNEL32.dll
 0002:00000080       __imp_lstrcmpA             0000000180053080     kernel32:KERNEL32.dll
 0002:00000088       __imp_ReleaseSemaphore     0000000180053088     kernel32:KERNEL32.dll
 0002:00000090       __imp_CreateSemaphoreW     0000000180053090     kernel32:KERNEL32.dll
 0002:00000098       __imp_TlsAlloc             0000000180053098     kernel32:KERNEL32.dll
 0002:000000a0       __imp_TlsGetValue          00000001800530a0     kernel32:KERNEL32.dll
 0002:000000a8       __imp_TlsSetValue          00000001800530a8     kernel32:KERNEL32.dll
 0002:000000b0       __imp_TlsFree              00000001800530b0     kernel32:KERNEL32.dll
 0002:000000b8       __imp_InitializeCriticalSectionAndSpinCount 00000001800530b8     kernel32:KERNEL32.dll
 0002:000000c0       __imp_TryEnterCriticalSection 00000001800530c0     kernel32:KERNEL32.dll
 0002:000000c8       __imp_DeleteCriticalSection 00000001800530c8     kernel32:KERNEL32.dll
 0002:000000d0       __imp_SetLastError         00000001800530d0     kernel32:KERNEL32.dll
 0002:000000d8       __imp_QueryPerformanceFrequency 00000001800530d8     kernel32:KERNEL32.dll
 0002:000000e0       __imp_ResetEvent           00000001800530e0     kernel32:KERNEL32.dll
 0002:000000e8       __imp_CreateEventA         00000001800530e8     kernel32:KERNEL32.dll
 0002:000000f0       __imp_QueryPerformanceCounter 00000001800530f0     kernel32:KERNEL32.dll
 0002:000000f8       __imp_Sleep                00000001800530f8     kernel32:KERNEL32.dll
 0002:00000100       __imp_ResumeThread         0000000180053100     kernel32:KERNEL32.dll
 0002:00000108       __imp_FormatMessageA       0000000180053108     kernel32:KERNEL32.dll
 0002:00000110       __imp_GetCurrentProcess    0000000180053110     kernel32:KERNEL32.dll
 0002:00000118       __imp_GetCurrentThread     0000000180053118     kernel32:KERNEL32.dll
 0002:00000120       __imp_GetNativeSystemInfo  0000000180053120     kernel32:KERNEL32.dll
 0002:00000128       __imp_GetProcessAffinityMask 0000000180053128     kernel32:KERNEL32.dll
 0002:00000130       __imp_CreateEventW         0000000180053130     kernel32:KERNEL32.dll
 0002:00000138       __imp_GetProcessHeap       0000000180053138     kernel32:KERNEL32.dll
 0002:00000140       __imp_HeapFree             0000000180053140     kernel32:KERNEL32.dll
 0002:00000148       __imp_HeapAlloc            0000000180053148     kernel32:KERNEL32.dll
 0002:00000150       __imp_GetSystemTimeAsFileTime 0000000180053150     kernel32:KERNEL32.dll
 0002:00000158       __imp_GetCurrentProcessId  0000000180053158     kernel32:KERNEL32.dll
 0002:00000160       __imp_GetModuleHandleW     0000000180053160     kernel32:KERNEL32.dll
 0002:00000168       __imp_GetStartupInfoW      0000000180053168     kernel32:KERNEL32.dll
 0002:00000170       __imp_WideCharToMultiByte  0000000180053170     kernel32:KERNEL32.dll
 0002:00000178       __imp_MultiByteToWideChar  0000000180053178     kernel32:KERNEL32.dll
 0002:00000180       __imp_RaiseException       0000000180053180     kernel32:KERNEL32.dll
 0002:00000188       __imp_IsDebuggerPresent    0000000180053188     kernel32:KERNEL32.dll
 0002:00000190       __imp_InitializeSListHead  0000000180053190     kernel32:KERNEL32.dll
 0002:00000198       __imp_IsProcessorFeaturePresent 0000000180053198     kernel32:KERNEL32.dll
 0002:000001a0       __imp_TerminateProcess     00000001800531a0     kernel32:KERNEL32.dll
 0002:000001a8       __imp_SetUnhandledExceptionFilter 00000001800531a8     kernel32:KERNEL32.dll
 0002:000001b0       __imp_UnhandledExceptionFilter 00000001800531b0     kernel32:KERNEL32.dll
 0002:000001b8       __imp_RtlVirtualUnwind     00000001800531b8     kernel32:KERNEL32.dll
 0002:000001c0       __imp_RtlLookupFunctionEntry 00000001800531c0     kernel32:KERNEL32.dll
 0002:000001c8       __imp_RtlCaptureContext    00000001800531c8     kernel32:KERNEL32.dll
 0002:000001d0       __imp_VirtualQuery         00000001800531d0     kernel32:KERNEL32.dll
 0002:000001d8       \177KERNEL32_NULL_THUNK_DATA 00000001800531d8     kernel32:KERNEL32.dll
 0002:000001e0       __imp_?_Xlength_error@std@@YAXPEBD@Z 00000001800531e0     msvcprtd:MSVCP140D.dll
 0002:000001e8       __imp_?__ExceptionPtrRethrow@@YAXPEBX@Z 00000001800531e8     msvcprtd:MSVCP140D.dll
 0002:000001f0       __imp_??1_Lockit@std@@QEAA@XZ 00000001800531f0     msvcprtd:MSVCP140D.dll
 0002:000001f8       __imp_??0_Lockit@std@@QEAA@H@Z 00000001800531f8     msvcprtd:MSVCP140D.dll
 0002:00000200       __imp_?__ExceptionPtrCopyException@@YAXPEAXPEBX1@Z 0000000180053200     msvcprtd:MSVCP140D.dll
 0002:00000208       __imp_?__ExceptionPtrCurrentException@@YAXPEAX@Z 0000000180053208     msvcprtd:MSVCP140D.dll
 0002:00000210       __imp_?__ExceptionPtrCopy@@YAXPEAXPEBX@Z 0000000180053210     msvcprtd:MSVCP140D.dll
 0002:00000218       __imp_?__ExceptionPtrDestroy@@YAXPEAX@Z 0000000180053218     msvcprtd:MSVCP140D.dll
 0002:00000220       __imp_?_Debug_message@std@@YAXPEB_W0I@Z 0000000180053220     msvcprtd:MSVCP140D.dll
 0002:00000228       __imp_?__ExceptionPtrCreate@@YAXPEAX@Z 0000000180053228     msvcprtd:MSVCP140D.dll
 0002:00000230       \177MSVCP140D_NULL_THUNK_DATA 0000000180053230     msvcprtd:MSVCP140D.dll
 0002:00000238       __imp___vcrt_LoadLibraryExW 0000000180053238     vcruntimed:VCRUNTIME140D.dll
 0002:00000240       __imp___vcrt_GetModuleHandleW 0000000180053240     vcruntimed:VCRUNTIME140D.dll
 0002:00000248       __imp___RTtypeid           0000000180053248     vcruntimed:VCRUNTIME140D.dll
 0002:00000250       __imp___C_specific_handler_noexcept 0000000180053250     vcruntimed:VCRUNTIME140D.dll
 0002:00000258       __imp___std_type_info_destroy_list 0000000180053258     vcruntimed:VCRUNTIME140D.dll
 0002:00000260       __imp___C_specific_handler 0000000180053260     vcruntimed:VCRUNTIME140D.dll
 0002:00000268       __imp_memcpy               0000000180053268     vcruntimed:VCRUNTIME140D.dll
 0002:00000270       __imp___RTDynamicCast      0000000180053270     vcruntimed:VCRUNTIME140D.dll
 0002:00000278       __imp___std_type_info_name 0000000180053278     vcruntimed:VCRUNTIME140D.dll
 0002:00000280       __imp__purecall            0000000180053280     vcruntimed:VCRUNTIME140D.dll
 0002:00000288       __imp_memset               0000000180053288     vcruntimed:VCRUNTIME140D.dll
 0002:00000290       __imp__CxxThrowException   0000000180053290     vcruntimed:VCRUNTIME140D.dll
 0002:00000298       __imp___CxxFrameHandler3   0000000180053298     vcruntimed:VCRUNTIME140D.dll
 0002:000002a0       __imp_strrchr              00000001800532a0     vcruntimed:VCRUNTIME140D.dll
 0002:000002a8       __imp___std_exception_copy 00000001800532a8     vcruntimed:VCRUNTIME140D.dll
 0002:000002b0       __imp___std_exception_destroy 00000001800532b0     vcruntimed:VCRUNTIME140D.dll
 0002:000002b8       __imp___vcrt_GetModuleFileNameW 00000001800532b8     vcruntimed:VCRUNTIME140D.dll
 0002:000002c0       \177VCRUNTIME140D_NULL_THUNK_DATA 00000001800532c0     vcruntimed:VCRUNTIME140D.dll
 0002:000002c8       __imp__CrtDbgReportW       00000001800532c8     ucrtd:ucrtbased.dll
 0002:000002d0       __imp_terminate            00000001800532d0     ucrtd:ucrtbased.dll
 0002:000002d8       __imp__callnewh            00000001800532d8     ucrtd:ucrtbased.dll
 0002:000002e0       __imp__seh_filter_dll      00000001800532e0     ucrtd:ucrtbased.dll
 0002:000002e8       __imp__configure_narrow_argv 00000001800532e8     ucrtd:ucrtbased.dll
 0002:000002f0       __imp__initialize_narrow_environment 00000001800532f0     ucrtd:ucrtbased.dll
 0002:000002f8       __imp_strerror             00000001800532f8     ucrtd:ucrtbased.dll
 0002:00000300       __imp__register_onexit_function 0000000180053300     ucrtd:ucrtbased.dll
 0002:00000308       __imp__execute_onexit_table 0000000180053308     ucrtd:ucrtbased.dll
 0002:00000310       __imp__crt_atexit          0000000180053310     ucrtd:ucrtbased.dll
 0002:00000318       __imp__crt_at_quick_exit   0000000180053318     ucrtd:ucrtbased.dll
 0002:00000320       __imp__cexit               0000000180053320     ucrtd:ucrtbased.dll
 0002:00000328       __imp__free_dbg            0000000180053328     ucrtd:ucrtbased.dll
 0002:00000330       __imp__initterm            0000000180053330     ucrtd:ucrtbased.dll
 0002:00000338       __imp__initterm_e          0000000180053338     ucrtd:ucrtbased.dll
 0002:00000340       __imp_strcpy_s             0000000180053340     ucrtd:ucrtbased.dll
 0002:00000348       __imp_strcat_s             0000000180053348     ucrtd:ucrtbased.dll
 0002:00000350       __imp___stdio_common_vsprintf_s 0000000180053350     ucrtd:ucrtbased.dll
 0002:00000358       __imp__wmakepath_s         0000000180053358     ucrtd:ucrtbased.dll
 0002:00000360       __imp__wsplitpath_s        0000000180053360     ucrtd:ucrtbased.dll
 0002:00000368       __imp_wcscpy_s             0000000180053368     ucrtd:ucrtbased.dll
 0002:00000370       __imp__CrtDbgReport        0000000180053370     ucrtd:ucrtbased.dll
 0002:00000378       __imp_strcmp               0000000180053378     ucrtd:ucrtbased.dll
 0002:00000380       __imp___stdio_common_vsprintf 0000000180053380     ucrtd:ucrtbased.dll
 0002:00000388       __imp_fputs                0000000180053388     ucrtd:ucrtbased.dll
 0002:00000390       __imp_getenv               0000000180053390     ucrtd:ucrtbased.dll
 0002:00000398       __imp___stdio_common_vfprintf 0000000180053398     ucrtd:ucrtbased.dll
 0002:000003a0       __imp___acrt_iob_func      00000001800533a0     ucrtd:ucrtbased.dll
 0002:000003a8       __imp_exit                 00000001800533a8     ucrtd:ucrtbased.dll
 0002:000003b0       __imp__errno               00000001800533b0     ucrtd:ucrtbased.dll
 0002:000003b8       __imp__beginthreadex       00000001800533b8     ucrtd:ucrtbased.dll
 0002:000003c0       __imp_free                 00000001800533c0     ucrtd:ucrtbased.dll
 0002:000003c8       __imp_malloc               00000001800533c8     ucrtd:ucrtbased.dll
 0002:000003d0       __imp__strdup              00000001800533d0     ucrtd:ucrtbased.dll
 0002:000003d8       __imp_strncpy_s            00000001800533d8     ucrtd:ucrtbased.dll
 0002:000003e0       __imp_wcscmp               00000001800533e0     ucrtd:ucrtbased.dll
 0002:000003e8       __imp__wcsdup              00000001800533e8     ucrtd:ucrtbased.dll
 0002:000003f0       __imp_strncpy              00000001800533f0     ucrtd:ucrtbased.dll
 0002:000003f8       __imp_strlen               00000001800533f8     ucrtd:ucrtbased.dll
 0002:00000400       __imp__invalid_parameter   0000000180053400     ucrtd:ucrtbased.dll
 0002:00000408       __imp__initialize_onexit_table 0000000180053408     ucrtd:ucrtbased.dll
 0002:00000410       \177ucrtbased_NULL_THUNK_DATA 0000000180053410     ucrtd:ucrtbased.dll
 0002:00000418       __guard_check_icall_fptr   0000000180053418     MSVCRTD:guard_support.obj
 0002:00000420       __guard_dispatch_icall_fptr 0000000180053420     MSVCRTD:guard_support.obj
 0002:00000428       __xc_a                     0000000180053428     MSVCRTD:initializers.obj
 0002:00000470       __xc_z                     0000000180053470     MSVCRTD:initializers.obj
 0002:00000478       __xi_a                     0000000180053478     MSVCRTD:initializers.obj
 0002:00000480       __xi_z                     0000000180053480     MSVCRTD:initializers.obj
 0002:00000488       __xp_a                     0000000180053488     MSVCRTD:initializers.obj
 0002:00000490       __xp_z                     0000000180053490     MSVCRTD:initializers.obj
 0002:00000498       __xt_a                     0000000180053498     MSVCRTD:initializers.obj
 0002:000004a0       __xt_z                     00000001800534a0     MSVCRTD:initializers.obj
 0002:00001340       ??_7concurrent_queue_base_v3@internal@tbb@@6B@ 0000000180054340     concurrent_queue.obj
 0002:00001370       ??_C@_0BG@NCNHOMPJ@the?5list?5is?5not?5empty?$AA@ 0000000180054370     concurrent_queue.obj
 0002:00001388       ??_C@_0CF@KIMHCJNJ@head?4next?$DN?$DN?$CGhead?5?$CG?$CG?5head?4prev?$DN?$DN?$CG@ 0000000180054388     concurrent_queue.obj
 0002:000013b0       ??_C@_0CI@HMAGEINM@d?3?2dev?2tbb?2src?2tbb?2concurrent_mo@ 00000001800543b0     concurrent_queue.obj
 0002:000013d8       ??_C@_0CN@PJOPKBDC@attempt?5to?5remove?5an?5item?5from?5a@ 00000001800543d8     concurrent_queue.obj
 0002:00001408       ??_C@_09DMMLFBJB@count?5?$DO?50?$AA@ 0000000180054408     concurrent_queue.obj
 0002:00001418       ??_C@_0DC@HHMBEOFF@use?5of?5commit_wait?$CI?$CJ?5without?5pri@ 0000000180054418     concurrent_queue.obj
 0002:00001450       ??_C@_09FABKCACJ@thr?4ready?$AA@ 0000000180054450     concurrent_queue.obj
 0002:00001460       ??_C@_0BE@EJJDCDNJ@still?5in?5the?5queue?$DP?$AA@ 0000000180054460     concurrent_queue.obj
 0002:00001478       ??_C@_0BA@CPHLNOGI@?$CBthr?4in_waitset?$AA@ 0000000180054478     concurrent_queue.obj
 0002:00001488       ??_C@_01JBBJJEPG@p?$AA@    0000000180054488     concurrent_queue.obj
 0002:00001490       ??_C@_0CI@CEOLAAGH@d?3?2dev?2tbb?2src?2tbb?2concurrent_qu@ 0000000180054490     concurrent_queue.obj
 0002:000014b8       ??_C@_0CB@NEAGOMBI@Divisor?5should?5be?5a?5power?5of?5two@ 00000001800544b8     concurrent_queue.obj
 0002:000014e0       ??_C@_0BJ@FFGCKCGK@is_power_of_two?$CIdivisor?$CJ?$AA@ 00000001800544e0     concurrent_queue.obj
 0002:00001500       ??_C@_0CE@KKPMNBHN@d?3?2dev?2tbb?2include?2tbb?2tbb_stdde@ 0000000180054500     concurrent_queue.obj
 0002:00002590       ??_C@_1NE@KPINEFNH@?$AAc?$AA?3?$AA?2?$AAp?$AAr?$AAo?$AAg?$AAr?$AAa?$AAm?$AA?5?$AAf?$AAi?$AAl?$AAe?$AAs?$AA?5?$AA?$CI?$AAx?$AA8?$AA6?$AA?$CJ?$AA?2?$AAm?$AAi?$AAc?$AAr?$AAo?$AAs?$AAo?$AAf?$AAt@ 0000000180055590     concurrent_vector.obj
 0002:00002668       ??_C@_0CA@LKPOEAOC@should?5have?5been?5freed?5by?5clear?$AA@ 0000000180055668     concurrent_vector.obj
 0002:00002688       ??_C@_0CH@LPHMJFBJ@load?$DMrelaxed?$DO?$CI?$CJ?5?$CB?$DN?5segment_alloc@ 0000000180055688     concurrent_vector.obj
 0002:000026b0       ??_C@_0CL@ECDMBFLP@d?3?2dev?2tbb?2include?2tbb?2concurren@ 00000001800556b0     concurrent_vector.obj
 0002:000026e0       ??_C@_0BA@LIFNIGJ@start?5?$DM?$DN?5finish?$AA@ 00000001800556e0     concurrent_vector.obj
 0002:000026f0       ??_C@_0CJ@HABLHIDJ@d?3?2dev?2tbb?2src?2tbb?2concurrent_ve@ 00000001800556f0     concurrent_vector.obj
 0002:00002720       ??_C@_0BH@JGMCJCL@first_block?5?$HM?$HM?5?$CBfinish?$AA@ 0000000180055720     concurrent_vector.obj
 0002:00002738       ??_C@_0O@KKLAEBPF@base?5?$DM?$DN?5start?$AA@ 0000000180055738     concurrent_vector.obj
 0002:00002750       ??_C@_0FN@KNAKKIKK@other?5overloads?5of?5store?5should?5@ 0000000180055750     concurrent_vector.obj
 0002:000027b0       ??_C@_0EC@MHPKPLNC@segment_value_t?$CIallocated_segmen@ 00000001800557b0     concurrent_vector.obj
 0002:000027f8       ??_C@_1CC@MFHBDGN@?$AAi?$AAn?$AAt?$AAe?$AAg?$AAe?$AAr?$AA?5?$AAo?$AAv?$AAe?$AAr?$AAf?$AAl?$AAo?$AAw?$AA?$AA@ 00000001800557f8     concurrent_vector.obj
 0002:00002820       ??_C@_1CG@OEBFJAHG@?$AAs?$AAt?$AAd?$AA?3?$AA?3?$AA_?$AAU?$AAn?$AAc?$AAh?$AAe?$AAc?$AAk?$AAe?$AAd?$AA_?$AAn?$AA1?$AA?$AA@ 0000000180055820     concurrent_vector.obj
 0002:00002848       ??_C@_1CG@NMONALKO@?$AA?$CC?$AAi?$AAn?$AAt?$AAe?$AAg?$AAe?$AAr?$AA?5?$AAo?$AAv?$AAe?$AAr?$AAf?$AAl?$AAo?$AAw?$AA?$CC?$AA?$AA@ 0000000180055848     concurrent_vector.obj
 0002:00002870       ??_C@_1CO@DGLIKNHI@?$AAi?$AAn?$AAv?$AAa?$AAl?$AAi?$AAd?$AA?5?$AAi?$AAt?$AAe?$AAr?$AAa?$AAt?$AAo?$AAr?$AA?5?$AAr?$AAa?$AAn?$AAg?$AAe?$AA?$AA@ 0000000180055870     concurrent_vector.obj
 0002:000028a0       ??_C@_1CG@MDICLDJA@?$AAs?$AAt?$AAd?$AA?3?$AA?3?$AA_?$AAD?$AAe?$AAb?$AAu?$AAg?$AA_?$AAr?$AAa?$AAn?$AAg?$AAe?$AA2?$AA?$AA@ 00000001800558a0     concurrent_vector.obj
 0002:000028c8       ??_C@_1DC@CHPPODDE@?$AA?$CC?$AAi?$AAn?$AAv?$AAa?$AAl?$AAi?$AAd?$AA?5?$AAi?$AAt?$AAe?$AAr?$AAa?$AAt?$AAo?$AAr?$AA?5?$AAr?$AAa?$AAn?$AAg?$AAe?$AA?$CC?$AA?$AA@ 00000001800558c8     concurrent_vector.obj
 0002:00002900       ??_C@_0EL@EBFKNEI@transition?5from?5?$CCallocated?$CC?5to?5?$CC@ 0000000180055900     concurrent_vector.obj
 0002:00002950       ??_C@_1EK@DOMCIFPO@?$AAa?$AAr?$AAr?$AAa?$AAy?$AA?5?$AAi?$AAt?$AAe?$AAr?$AAa?$AAt?$AAo?$AAr?$AA?5?$AA?$CL?$AA?5?$AAo?$AAf?$AAf?$AAs?$AAe?$AAt?$AA?5?$AAo?$AAu?$AAt?$AA?5?$AAo?$AAf?$AA?5?$AAr@ 0000000180055950     concurrent_vector.obj
 0002:000029a0       ??_C@_1MM@DLCDDMMG@?$AAs?$AAt?$AAd?$AA?3?$AA?3?$AA_?$AAA?$AAr?$AAr?$AAa?$AAy?$AA_?$AAc?$AAo?$AAn?$AAs?$AAt?$AA_?$AAi?$AAt?$AAe?$AAr?$AAa?$AAt?$AAo?$AAr?$AA?$DM?$AAc?$AAl?$AAa?$AAs?$AAs@ 00000001800559a0     concurrent_vector.obj
 0002:00002a70       ??_C@_1EO@PDLDJDOA@?$AA?$CC?$AAa?$AAr?$AAr?$AAa?$AAy?$AA?5?$AAi?$AAt?$AAe?$AAr?$AAa?$AAt?$AAo?$AAr?$AA?5?$AA?$CL?$AA?5?$AAo?$AAf?$AAf?$AAs?$AAe?$AAt?$AA?5?$AAo?$AAu?$AAt?$AA?5?$AAo?$AAf?$AA?5@ 0000000180055a70     concurrent_vector.obj
 0002:00002e70       ??_C@_0BM@JGJMBPHJ@Too?5many?5modules?5are?5loaded?$AA@ 0000000180055e70     dynamic_link.obj
 0002:00002e90       ??_C@_07EJHLHDPE@ind?5?$DM?58?$AA@ 0000000180055e90     dynamic_link.obj
 0002:00002e98       ??_C@_0CE@LGJGFDEG@d?3?2dev?2tbb?2src?2tbb?2dynamic_link?4@ 0000000180055e98     dynamic_link.obj
 0002:00005b58       ??_7task@tbb@@6B@          0000000180058b58     pipeline.obj
 0002:00005b70       ??_C@_0BF@FLEJEMAB@execute?5not?5running?$DP?$AA@ 0000000180058b70     pipeline.obj
 0002:00005b88       ??_C@_0BK@BLKDHJIK@prefix?$CI?$CJ?4state?$DN?$DNexecuting?$AA@ 0000000180058b88     pipeline.obj
 0002:00005ba8       ??_C@_0BO@PILDBFHF@d?3?2dev?2tbb?2include?2tbb?2task?4h?$AA@ 0000000180058ba8     pipeline.obj
 0002:00005bd0       ??_7filter@tbb@@6B@        0000000180058bd0     pipeline.obj
 0002:00005bf0       ??_7pipeline@tbb@@6B@      0000000180058bf0     pipeline.obj
 0002:00005bf8       ??_C@_07DEMLHIDL@?$CBmy_sem?$AA@ 0000000180058bf8     pipeline.obj
 0002:00005c00       ??_C@_0CA@DNACLPDC@d?3?2dev?2tbb?2src?2tbb?2pipeline?4cpp?$AA@ 0000000180058c00     pipeline.obj
 0002:00005c20       ??_C@_06PJFJBKOE@my_sem?$AA@ 0000000180058c20     pipeline.obj
 0002:00005c28       ??_C@_05HIFJDKLD@array?$AA@ 0000000180058c28     pipeline.obj
 0002:00005c30       ??_C@_0CC@OJFIPBCH@?$CItokendiff_t?$CJ?$CItoken?9low_token?$CJ?$DO?$DN@ 0000000180058c30     pipeline.obj
 0002:00005c58       ??_C@_0BN@OAIFFPEB@TLS?5not?5allocated?5for?5filter?$AA@ 0000000180058c58     pipeline.obj
 0002:00005c78       ??_C@_0BN@LCAOOCFI@Failed?5to?5destroy?5filter?5TLS?$AA@ 0000000180058c78     pipeline.obj
 0002:00005ca0       ??_7stage_task@internal@tbb@@6B@ 0000000180058ca0     pipeline.obj
 0002:00005cb8       ??_C@_0DC@FJGKNBB@Trying?5to?5finalize?5the?5task?5that@ 0000000180058cb8     pipeline.obj
 0002:00005cf0       ??_C@_0P@PMGHPDFJ@is_cancelled?$CI?$CJ?$AA@ 0000000180058cf0     pipeline.obj
 0002:00005d08       ??_7pipeline_root_task@internal@tbb@@6B@ 0000000180058d08     pipeline.obj
 0002:00005d20       ??_C@_0BI@HDJOOCC@filter?5is?5thread?9bound?$DP?$AA@ 0000000180058d20     pipeline.obj
 0002:00005d38       ??_C@_0BM@EKBMLCCI@?$CBcurrent_filter?9?$DOis_bound?$CI?$CJ?$AA@ 0000000180058d38     pipeline.obj
 0002:00005d58       ??_C@_0CF@ELPNJBIG@previous?5filter?5is?5not?5thread?9bo@ 0000000180058d58     pipeline.obj
 0002:00005d80       ??_C@_0DE@MFDJBKCP@current_filter?9?$DOprev_filter_in_p@ 0000000180058d80     pipeline.obj
 0002:00005db8       ??_C@_0BI@GHAGBPIJ@my_pipeline?4filter_list?$AA@ 0000000180058db8     pipeline.obj
 0002:000087f0       ??_C@_0CH@IAJCCAAC@d?3?2dev?2tbb?2include?2tbb?2spin_rw_m@ 000000018005b7f0     x86_rtm_rw_mutex.obj
 0002:00008818       ??_C@_0BG@BEFAEEMA@holding?5mutex?5already?$AA@ 000000018005b818     x86_rtm_rw_mutex.obj
 0002:00008830       ??_C@_06MDKGKMGM@?$CBmutex?$AA@ 000000018005b830     x86_rtm_rw_mutex.obj
 0002:00008838       ??_C@_0BF@MKDIKJIO@lock?5is?5not?5acquired?$AA@ 000000018005b838     x86_rtm_rw_mutex.obj
 0002:00008850       ??_C@_05IGMCOAJJ@mutex?$AA@ 000000018005b850     x86_rtm_rw_mutex.obj
 0002:00008858       ??_C@_0N@INFNDKAH@not?5a?5reader?$AA@ 000000018005b858     x86_rtm_rw_mutex.obj
 0002:00008868       ??_C@_0L@PHPPFNOD@?$CBis_writer?$AA@ 000000018005b868     x86_rtm_rw_mutex.obj
 0002:00008878       ??_C@_0N@KBNPDLNN@not?5a?5writer?$AA@ 000000018005b878     x86_rtm_rw_mutex.obj
 0002:00008888       ??_C@_09DIOANEGO@is_writer?$AA@ 000000018005b888     x86_rtm_rw_mutex.obj
 0002:000095d0       ??_C@_0CI@FKHHBFIM@QueryPerformanceFrequency?5return@ 000000018005c5d0     condition_variable.obj
 0002:000095f8       ??_C@_04HEMGMBLB@rval?$AA@ 000000018005c5f8     condition_variable.obj
 0002:00009600       ??_C@_0CE@COAOOKLF@d?3?2dev?2tbb?2include?2tbb?2tick_coun@ 000000018005c600     condition_variable.obj
 0002:00009628       __real@3ff0000000000000    000000018005c628     condition_variable.obj
 0002:00009630       __real@408f400000000000    000000018005c630     condition_variable.obj
 0002:00009888       ??_C@_0BP@PLJHCHPC@QueryPerformanceCounter?5failed?$AA@ 000000018005c888     tbb_thread.obj
 0002:000098a8       ??_C@_0BC@DBAKKFEN@Invalid?5parameter?$AA@ 000000018005c8a8     tbb_thread.obj
 0002:000098c0       ??_C@_0CI@LOOBMKEP@d?3?2dev?2tbb?2include?2tbb?2global_co@ 000000018005c8c0     tbb_thread.obj
 0002:000098e8       ??_C@_0BC@JJJOOGFM@p?5?$DM?5parameter_max?$AA@ 000000018005c8e8     tbb_thread.obj
 0002:00009900       __real@41efffffffe00000    000000018005c900     tbb_thread.obj
 0002:0000a358       ??_7versioned_object@rml@@6B@ 000000018005d358     private_server.obj
 0002:0000a368       ??_7server@rml@@6B@        000000018005d368     private_server.obj
 0002:0000a398       ??_7tbb_server@rml@internal@tbb@@6B@ 000000018005d398     private_server.obj
 0002:0000a3d8       ??_C@_0CP@ECLIENFE@thread_monitor?3?3launch?3?5_beginth@ 000000018005d3d8     private_server.obj
 0002:0000a408       ??_C@_05LAPONLG@false?$AA@ 000000018005d408     private_server.obj
 0002:0000a418       ??_7private_server@rml@internal@tbb@@6B@ 000000018005d418     private_server.obj
 0002:0000a460       ??_C@_0CG@OGBHLGKP@d?3?2dev?2tbb?2src?2tbb?2private_serve@ 000000018005d460     private_server.obj
 0002:0000a488       ??_C@_0L@OCONFJAJ@s?$DN?$DNst_quit?$AA@ 000000018005d488     private_server.obj
 0002:0000af08       ??_7exception@std@@6B@     000000018005df08     tbb_misc.obj
 0002:0000af18       ??_C@_0BC@EOODALEL@Unknown?5exception?$AA@ 000000018005df18     tbb_misc.obj
 0002:0000af38       ??_7bad_alloc@std@@6B@     000000018005df38     tbb_misc.obj
 0002:0000af48       ??_C@_0P@GHFPNOJB@bad?5allocation?$AA@ 000000018005df48     tbb_misc.obj
 0002:0000af60       ??_7logic_error@std@@6B@   000000018005df60     tbb_misc.obj
 0002:0000af78       ??_7invalid_argument@std@@6B@ 000000018005df78     tbb_misc.obj
 0002:0000af90       ??_7length_error@std@@6B@  000000018005df90     tbb_misc.obj
 0002:0000afa8       ??_7out_of_range@std@@6B@  000000018005dfa8     tbb_misc.obj
 0002:0000afc0       ??_7runtime_error@std@@6B@ 000000018005dfc0     tbb_misc.obj
 0002:0000afd8       ??_7range_error@std@@6B@   000000018005dfd8     tbb_misc.obj
 0002:0000aff0       ??_7bad_last_alloc@tbb@@6B@ 000000018005dff0     tbb_misc.obj
 0002:0000b008       ??_7improper_lock@tbb@@6B@ 000000018005e008     tbb_misc.obj
 0002:0000b020       ??_7user_abort@tbb@@6B@    000000018005e020     tbb_misc.obj
 0002:0000b038       ??_7missing_wait@tbb@@6B@  000000018005e038     tbb_misc.obj
 0002:0000b050       ??_7invalid_multiple_scheduling@tbb@@6B@ 000000018005e050     tbb_misc.obj
 0002:0000be78       ??_C@_0CG@MPEFGNEN@d?3?2dev?2tbb?2src?2tbb?2scheduler_com@ 000000018005ee78     task.obj
 0002:0000bea0       ??_C@_07BHCJEJPF@task?$CB?$DN0?$AA@ 000000018005eea0     task.obj
 0002:0000bea8       ??_C@_0BE@NMBEFKAA@?$CBis_poisoned?$CI?$CGtask?$CJ?$AA@ 000000018005eea8     task.obj
 0002:0000bec0       ??_C@_0BA@EMBLABKF@misaligned?5task?$AA@ 000000018005eec0     task.obj
 0002:0000bed0       ??_C@_0CG@BKBHDKDA@?$CIuintptr_t?$CJtask?5?$CF?5task_alignment@ 000000018005eed0     task.obj
 0002:0000bef8       ??_C@_0BN@EHGLMPPM@corrupt?5task?5?$CIinvalid?5state?$CJ?$AA@ 000000018005eef8     task.obj
 0002:0000bf18       ??_C@_0DE@JCDKAFFI@?$CIunsigned?$CJtask?9?$DOstate?$CI?$CJ?$DM?$DN?$CIunsign@ 000000018005ef18     task.obj
 0002:0000bf50       ??_C@_0BP@GOLGKFOF@d?3?2dev?2tbb?2src?2tbb?2scheduler?4h?$AA@ 000000018005ef50     task.obj
 0002:0000bf70       ??_C@_08KALFEKOK@my_arena?$AA@ 000000018005ef70     task.obj
 0002:0000d108       ??_7tbb_exception@tbb@@6B@ 0000000180060108     task_group_context.obj
 0002:0000d140       ??_7captured_exception@tbb@@6B@ 0000000180060140     task_group_context.obj
 0002:0000fa80       ??_C@_0CC@MFNMDHO@p?5?$DO?$DN?50?5?$CG?$CG?5p?5?$DM?5num_priority_level@ 0000000180062a80     market.obj
 0002:0000faa8       ??_C@_0CB@HMEIPHJN@destruction?5of?5an?5acquired?5mutex@ 0000000180062aa8     market.obj
 0002:0000facc       ??_C@_06ECFFOEMB@?$CBstate?$AA@ 0000000180062acc     market.obj
 0002:0000fae0       ??_7client@rml@@6B@        0000000180062ae0     market.obj
 0002:0000fb20       ??_7tbb_client@rml@internal@tbb@@6B@ 0000000180062b20     market.obj
 0002:0000fb68       ??_7market@internal@tbb@@6B@ 0000000180062b68     market.obj
 0002:0000fbb0       ??_C@_0PC@JBKCGBCI@?$CImy_priority_levels?$FLmy_global_to@ 0000000180062bb0     market.obj
 0002:0000fca8       ??_C@_0BM@INNAAIIO@d?3?2dev?2tbb?2src?2tbb?2market?4h?$AA@ 0000000180062ca8     market.obj
 0002:0000fcc8       ??_C@_0CF@JJLIEOOD@Element?5to?5remove?5is?5not?5in?5the?5@ 0000000180062cc8     market.obj
 0002:0000fcf0       ??_C@_0EN@OJCEBKLC@node?$CIval?$CJ?4my_prev_node?5?$CB?$DN?5?$CGnode?$CI@ 0000000180062cf0     market.obj
 0002:0000fd40       ??_C@_0CE@DKGGONJ@d?3?2dev?2tbb?2src?2tbb?2intrusive_lis@ 0000000180062d40     market.obj
 0002:0000fd70       ??_C@_0GJ@MCBNLHDF@node?$CIval?$CJ?4my_prev_node?9?$DOmy_next_@ 0000000180062d70     market.obj
 0002:0000fde0       ??_C@_0FG@ECMKMFAA@Object?5with?5intrusive?5list?5node?5@ 0000000180062de0     market.obj
 0002:0000fe40       ??_C@_0EN@LEICMHPL@node?$CIval?$CJ?4my_prev_node?5?$DN?$DN?5?$CGnode?$CI@ 0000000180062e40     market.obj
 0002:0000fe90       ??_C@_0BO@ECOGGHIB@intrusive_list_base?5corrupted?$AA@ 0000000180062e90     market.obj
 0002:0000feb0       ??_C@_0GD@OJFKBGDC@?$CImy_head?4my_prev_node?5?$DN?$DN?5?$CGmy_hea@ 0000000180062eb0     market.obj
 0002:00012e20       ??_C@_1DC@POOIKBAO@?$AAI?$AAT?$AAE?$AAR?$AAA?$AAT?$AAO?$AAR?$AA?5?$AAL?$AAI?$AAS?$AAT?$AA?5?$AAC?$AAO?$AAR?$AAR?$AAU?$AAP?$AAT?$AAE?$AAD?$AA?$CB?$AA?$AA@ 0000000180065e20     arena.obj
 0002:00012e60       ??_C@_1EE@KLDMFDFL@?$AAs?$AAt?$AAd?$AA?3?$AA?3?$AA_?$AAI?$AAt?$AAe?$AAr?$AAa?$AAt?$AAo?$AAr?$AA_?$AAb?$AAa?$AAs?$AAe?$AA1?$AA2?$AA?3?$AA?3?$AA_?$AAO?$AAr?$AAp?$AAh?$AAa?$AAn?$AA_?$AAm@ 0000000180065e60     arena.obj
 0002:00012ea8       ??_C@_1DG@PLBPCAEM@?$AA?$CC?$AAI?$AAT?$AAE?$AAR?$AAA?$AAT?$AAO?$AAR?$AA?5?$AAL?$AAI?$AAS?$AAT?$AA?5?$AAC?$AAO?$AAR?$AAR?$AAU?$AAP?$AAT?$AAE?$AAD?$AA?$CB?$AA?$CC?$AA?$AA@ 0000000180065ea8     arena.obj
 0002:00012ee0       ??_C@_0BH@CBDGOEGG@integer?5overflow?5error?$AA@ 0000000180065ee0     arena.obj
 0002:00012ef8       ??_C@_0BM@NOGDGACD@ref_count_?$DN?$DNint?$CIref_count_?$CJ?$AA@ 0000000180065ef8     arena.obj
 0002:00012f20       ??_7empty_task@tbb@@6B@    0000000180065f20     arena.obj
 0002:00012f38       ??_C@_0BC@JDFJEHHM@my_task_pool_size?$AA@ 0000000180065f38     arena.obj
 0002:00012f50       ??_C@_0BN@NDJLLLFE@d?3?2dev?2tbb?2src?2tbb?2mailbox?4h?$AA@ 0000000180065f50     arena.obj
 0002:00012f70       ??_C@_0BP@MNEAKMKM@sizeof?$CI?$CKthis?$CJ?$DN?$DNNFS_MaxLineSize?$AA@ 0000000180065f70     arena.obj
 0002:00012f90       ??_C@_09OBBJHBOG@?$CBmy_first?$AA@ 0000000180065f90     arena.obj
 0002:00012fa0       ??_C@_08IBAGIHNA@?$CBmy_last?$AA@ 0000000180065fa0     arena.obj
 0002:00012fb0       ??_C@_0M@KNJEEGAH@?$CBmy_is_idle?$AA@ 0000000180065fb0     arena.obj
 0002:00012fc0       ??_C@_0N@IIPOOJBI@not?5attached?$AA@ 0000000180065fc0     arena.obj
 0002:00012fd0       ??_C@_09OEPHKDIP@my_putter?$AA@ 0000000180065fd0     arena.obj
 0002:00012fe0       ??_C@_0DA@EJPFNHBC@attempt?5to?5redundantly?5mark?5mail@ 0000000180065fe0     arena.obj
 0002:00013010       ??_C@_0BP@JDMDBFAC@my_putter?9?$DOmy_is_idle?5?$HM?$HM?5value?$AA@ 0000000180066010     arena.obj
 0002:00013030       ??_C@_0CB@KDJNNNFJ@c?5must?5be?5odd?5for?5big?5rng?5period@ 0000000180066030     arena.obj
 0002:00013054       ??_C@_03NLFEFOO@c?$CG1?$AA@ 0000000180066054     arena.obj
 0002:00013058       ??_C@_0BO@DMMCLHIA@d?3?2dev?2tbb?2src?2tbb?2tbb_misc?4h?$AA@ 0000000180066058     arena.obj
 0002:00013078       ??_C@_0BO@KFDPICNO@task_group_context?5is?5invalid?$AA@ 0000000180066078     arena.obj
 0002:00013098       ??_C@_03DJKOPCOJ@tgc?$AA@  0000000180066098     arena.obj
 0002:000130a0       ??_C@_0CM@HLNMPAJN@referenced?5task_group_context?5wa@ 00000001800660a0     arena.obj
 0002:000130d0       ??_C@_0O@JDHKFJME@is_alive?$CIctx?$CJ?$AA@ 00000001800660d0     arena.obj
 0002:000130e0       ??_C@_0DD@GCCMCKLJ@?$CB?$CIctx?$CG?$HO?$CI3?$HM?$CI7?$DM?$DMtask_group_context@ 00000001800660e0     arena.obj
 0002:00013118       ??_C@_0CJ@LFPFLKGK@tgc?9?$DOmy_kind?5?$DM?5task_group_contex@ 0000000180066118     arena.obj
 0002:00013150       ??_C@_0EL@PBLIFOPJ@tgc?9?$DOmy_cancellation_requested?5?$DN@ 0000000180066150     arena.obj
 0002:000131a0       ??_C@_0DJ@LDNDIAH@tgc?9?$DOmy_state?5?$DM?5task_group_conte@ 00000001800661a0     arena.obj
 0002:000131e0       ??_C@_0O@DLOLMOAK@tgc?9?$DOmy_owner?$AA@ 00000001800661e0     arena.obj
 0002:000131f0       ??_C@_0CN@NLACLNGC@tgc?9?$DOmy_node?4my_next?5?$CG?$CG?5tgc?9?$DOmy_@ 00000001800661f0     arena.obj
 0002:00013220       ??_C@_0DA@NDIDNFBO@is_alive?$CItgc?9?$DOmy_parent?9?$DOmy_vers@ 0000000180066220     arena.obj
 0002:00013250       ??_C@_06CKCKBIJI@pos?$DO?$DN0?$AA@ 0000000180066250     arena.obj
 0002:00013258       ??_C@_0CB@CNKPEMFA@d?3?2dev?2tbb?2src?2tbb?2task_stream?4h@ 0000000180066258     arena.obj
 0002:00013280       ??_C@_0CA@GILKEELP@pos?$DMint?$CIsizeof?$CIpopulation_t?$CJ?$CK8?$CJ?$AA@ 0000000180066280     arena.obj
 0002:000132a0       ??_C@_0CE@ICKEAHKO@d?3?2dev?2tbb?2src?2tbb?2observer_prox@ 00000001800662a0     arena.obj
 0002:000132c8       ??_C@_0BK@FFKPNNPE@is_alive?$CI?$CIuintptr_t?$CJlast?$CJ?$AA@ 00000001800662c8     arena.obj
 0002:000132e4       ??_C@_04PLGBGIDD@last?$AA@ 00000001800662e4     arena.obj
 0002:000132f0       ??_C@_0CF@KAJGPIBO@affinity?5id?5must?5be?5positive?5int@ 00000001800662f0     arena.obj
 0002:00013318       ??_C@_04GEJGKJHB@0?$DMid?$AA@ 0000000180066318     arena.obj
 0002:00013320       ??_C@_0BL@EKMGIII@d?3?2dev?2tbb?2src?2tbb?2arena?4h?$AA@ 0000000180066320     arena.obj
 0002:00013340       ??_C@_0BK@FLEGBGKI@affinity?5id?5out?5of?5bounds?$AA@ 0000000180066340     arena.obj
 0002:00013360       ??_C@_0BD@OMMHHPPG@id?5?$DM?$DN?5my_num_slots?$AA@ 0000000180066360     arena.obj
 0002:00013378       ??_C@_0O@MBNNLPFM@my_arena_slot?$AA@ 0000000180066378     arena.obj
 0002:00013388       ??_C@_0BL@ODPIFFEN@Task?5pool?5is?5not?5quiescent?$AA@ 0000000180066388     arena.obj
 0002:000133a8       ??_C@_0BP@GAMMILEG@is_local_task_pool_quiescent?$CI?$CJ?$AA@ 00000001800663a8     arena.obj
 0002:000133c8       ??_C@_04OIAIIDOD@id?$DO0?$AA@ 00000001800663c8     arena.obj
 0002:000133d8       ??_7delegated_task@internal@interface7@tbb@@6B@ 00000001800663d8     arena.obj
 0002:000133f0       ??_C@_0CB@OMHFKCP@s?4my_innermost_running_task?5?$DN?$DN?5t@ 00000001800663f0     arena.obj
 0002:00013418       ??_C@_0BN@BMPMGJCC@d?3?2dev?2tbb?2src?2tbb?2arena?4cpp?$AA@ 0000000180066418     arena.obj
 0002:00013438       ??_C@_0DM@HNNILCFL@expected?5to?5be?5enqueued?5and?5rece@ 0000000180066438     arena.obj
 0002:00013478       ??_C@_0BE@CFOCPJGK@s?4outermost_level?$CI?$CJ?$AA@ 0000000180066478     arena.obj
 0002:00013490       ??_C@_0BI@CIDBMGBG@my_root?9?$DOref_count?$CI?$CJ?$DN?$DN2?$AA@ 0000000180066490     arena.obj
 0002:000134b0       ??_7?$function_task@Vspawn_functor@graph@interface10@flow@tbb@@@internal@tbb@@6B@ 00000001800664b0     arena.obj
 0002:000134d0       ??_7wait_task@internal@interface7@tbb@@6B@ 00000001800664d0     arena.obj
 0002:000134e8       ??_C@_01LKDEMHDF@s?$AA@    00000001800664e8     arena.obj
 0002:000134f0       ??_C@_0DL@KFGKEBJE@The?5enqueued?5task?5can?5be?5process@ 00000001800664f0     arena.obj
 0002:00013530       ??_C@_0BF@OHGECEBE@s?9?$DOoutermost_level?$CI?$CJ?$AA@ 0000000180066530     arena.obj
 0002:00013548       ??_C@_0CF@ODNGAPM@s?9?$DOmy_innermost_running_task?5?$DN?$DN?5@ 0000000180066548     arena.obj
 0002:00013570       ??_C@_0CD@OFNAHHEA@is_bit_set?$CI?5population?$FLlevel?$FN?0?5i@ 0000000180066570     arena.obj
 0002:00013598       ??_C@_0BO@CBFHELNN@number?5of?5lanes?5miscalculated?$AA@ 0000000180066598     arena.obj
 0002:000135b8       ??_C@_0CL@NIIKOCAN@N?$DN?$DNmax_lanes?5?$HM?$HM?5N?$DO?$DNn_lanes?5?$CG?$CG?5?$CI?$CI@ 00000001800665b8     arena.obj
 0002:000135e8       ??_C@_0BO@GMMHLBMM@N?5?$DM?$DN?5sizeof?$CIpopulation_t?$CJ?5?$CK?58?$AA@ 00000001800665e8     arena.obj
 0002:00013608       ??_C@_0BD@KHCHLJLI@?$CBpopulation?$FLlevel?$FN?$AA@ 0000000180066608     arena.obj
 0002:00013620       ??_C@_1MO@MODNMCKF@?$AAc?$AA?3?$AA?2?$AAp?$AAr?$AAo?$AAg?$AAr?$AAa?$AAm?$AA?5?$AAf?$AAi?$AAl?$AAe?$AAs?$AA?5?$AA?$CI?$AAx?$AA8?$AA6?$AA?$CJ?$AA?2?$AAm?$AAi?$AAc?$AAr?$AAo?$AAs?$AAo?$AAf?$AAt@ 0000000180066620     arena.obj
 0002:000136f0       ??_C@_1EC@CEAHEOFL@?$AAd?$AAe?$AAq?$AAu?$AAe?$AA?5?$AAi?$AAt?$AAe?$AAr?$AAa?$AAt?$AAo?$AAr?$AA?5?$AAn?$AAo?$AAt?$AA?5?$AAi?$AAn?$AAc?$AAr?$AAe?$AAm?$AAe?$AAn?$AAt?$AAa?$AAb?$AAl?$AAe@ 00000001800666f0     arena.obj
 0002:00013740       ??_C@_1OK@IPOEJLAK@?$AAs?$AAt?$AAd?$AA?3?$AA?3?$AA_?$AAD?$AAe?$AAq?$AAu?$AAe?$AA_?$AAc?$AAo?$AAn?$AAs?$AAt?$AA_?$AAi?$AAt?$AAe?$AAr?$AAa?$AAt?$AAo?$AAr?$AA?$DM?$AAc?$AAl?$AAa?$AAs?$AAs@ 0000000180066740     arena.obj
 0002:00013830       ??_C@_1EG@GHGJBFLN@?$AA?$CC?$AAd?$AAe?$AAq?$AAu?$AAe?$AA?5?$AAi?$AAt?$AAe?$AAr?$AAa?$AAt?$AAo?$AAr?$AA?5?$AAn?$AAo?$AAt?$AA?5?$AAi?$AAn?$AAc?$AAr?$AAe?$AAm?$AAe?$AAn?$AAt?$AAa?$AAb?$AAl@ 0000000180066830     arena.obj
 0002:00013880       ??_C@_1EE@INPCGGNP@?$AAd?$AAe?$AAq?$AAu?$AAe?$AA?5?$AAi?$AAt?$AAe?$AAr?$AAa?$AAt?$AAo?$AAr?$AA?5?$AAn?$AAo?$AAt?$AA?5?$AAd?$AAe?$AAr?$AAe?$AAf?$AAe?$AAr?$AAe?$AAn?$AAc?$AAa?$AAb?$AAl@ 0000000180066880     arena.obj
 0002:000138d0       ??_C@_1OI@HFCPILNI@?$AAs?$AAt?$AAd?$AA?3?$AA?3?$AA_?$AAD?$AAe?$AAq?$AAu?$AAe?$AA_?$AAc?$AAo?$AAn?$AAs?$AAt?$AA_?$AAi?$AAt?$AAe?$AAr?$AAa?$AAt?$AAo?$AAr?$AA?$DM?$AAc?$AAl?$AAa?$AAs?$AAs@ 00000001800668d0     arena.obj
 0002:000139c0       ??_C@_1EI@MLNCFKMP@?$AA?$CC?$AAd?$AAe?$AAq?$AAu?$AAe?$AA?5?$AAi?$AAt?$AAe?$AAr?$AAa?$AAt?$AAo?$AAr?$AA?5?$AAn?$AAo?$AAt?$AA?5?$AAd?$AAe?$AAr?$AAe?$AAf?$AAe?$AAr?$AAe?$AAn?$AAc?$AAa?$AAb@ 00000001800669c0     arena.obj
 0002:00013a08       ??_C@_1DK@CNDLFKCJ@?$AAd?$AAe?$AAq?$AAu?$AAe?$AA?5?$AAi?$AAt?$AAe?$AAr?$AAa?$AAt?$AAo?$AAr?$AAs?$AA?5?$AAi?$AAn?$AAc?$AAo?$AAm?$AAp?$AAa?$AAt?$AAi?$AAb?$AAl?$AAe?$AA?$AA@ 0000000180066a08     arena.obj
 0002:00013a50       ??_C@_1OC@EJJJDGHM@?$AAs?$AAt?$AAd?$AA?3?$AA?3?$AA_?$AAD?$AAe?$AAq?$AAu?$AAe?$AA_?$AAc?$AAo?$AAn?$AAs?$AAt?$AA_?$AAi?$AAt?$AAe?$AAr?$AAa?$AAt?$AAo?$AAr?$AA?$DM?$AAc?$AAl?$AAa?$AAs?$AAs@ 0000000180066a50     arena.obj
 0002:00013b38       ??_C@_1DO@MEEAMOJI@?$AA?$CC?$AAd?$AAe?$AAq?$AAu?$AAe?$AA?5?$AAi?$AAt?$AAe?$AAr?$AAa?$AAt?$AAo?$AAr?$AAs?$AA?5?$AAi?$AAn?$AAc?$AAo?$AAm?$AAp?$AAa?$AAt?$AAi?$AAb?$AAl?$AAe?$AA?$CC?$AA?$AA@ 0000000180066b38     arena.obj
 0002:00013b78       ??_C@_0BC@KBDMBKEH@deque?$DMT?$DO?5too?5long?$AA@ 0000000180066b78     arena.obj
 0002:00013b90       ??_C@_1CO@FNIDKHMC@?$AAd?$AAe?$AAq?$AAu?$AAe?$AA?5?$AAe?$AAm?$AAp?$AAt?$AAy?$AA?5?$AAb?$AAe?$AAf?$AAo?$AAr?$AAe?$AA?5?$AAp?$AAo?$AAp?$AA?$AA@ 0000000180066b90     arena.obj
 0002:00013bc0       ??_C@_1KK@IPLLCLGI@?$AAs?$AAt?$AAd?$AA?3?$AA?3?$AAd?$AAe?$AAq?$AAu?$AAe?$AA?$DM?$AAc?$AAl?$AAa?$AAs?$AAs?$AA?5?$AAt?$AAb?$AAb?$AA?3?$AA?3?$AAt?$AAa?$AAs?$AAk?$AA?5?$AA?$CK?$AA?0?$AAc?$AAl?$AAa@ 0000000180066bc0     arena.obj
 0002:00013c70       ??_C@_1DC@NJAACHCD@?$AA?$CC?$AAd?$AAe?$AAq?$AAu?$AAe?$AA?5?$AAe?$AAm?$AAp?$AAt?$AAy?$AA?5?$AAb?$AAe?$AAf?$AAo?$AAr?$AAe?$AA?5?$AAp?$AAo?$AAp?$AA?$CC?$AA?$AA@ 0000000180066c70     arena.obj
 0002:00013ca8       ??_C@_0BP@CBDJMBJD@broken?5arena?5reference?5counter?$AA@ 0000000180066ca8     arena.obj
 0002:00013cc8       ??_C@_0BL@GOOCMMAL@my_references?5?$DO?$DN?5ref_param?$AA@ 0000000180066cc8     arena.obj
 0002:00018260       ??_7scheduler@internal@tbb@@6B@ 000000018006b260     scheduler.obj
 0002:00018288       ??_C@_0BH@PJCFOIOF@?$CBcurr?9?$DOnext_in_mailbox?$AA@ 000000018006b288     scheduler.obj
 0002:000182a0       ??_C@_04PBNCPCJL@curr?$AA@ 000000018006b2a0     scheduler.obj
 0002:000182a8       ??_C@_01PFHFFBPC@t?$AA@    000000018006b2a8     scheduler.obj
 0002:000182b8       ??_7generic_scheduler@internal@tbb@@6B@ 000000018006b2b8     scheduler.obj
 0002:000182f0       ??_C@_0BI@CMOLMDHH@RML?5server?5not?5defined?$DP?$AA@ 000000018006b2f0     scheduler.obj
 0002:00018308       ??_C@_09PDIAIGKC@my_server?$AA@ 000000018006b308     scheduler.obj
 0002:00018318       ??_C@_0DC@OMPMODAI@Task?5pool?5must?5be?5locked?5when?5re@ 000000018006b318     scheduler.obj
 0002:00018350       ??_C@_0DD@IHALEKFF@my_arena_slot?9?$DOtask_pool?5?$DN?$DN?5?$CI?$CIta@ 000000018006b350     scheduler.obj
 0002:00018388       ??_C@_0BP@DLJALJOC@task?5deque?5end?5was?5overwritten?$AA@ 000000018006b388     scheduler.obj
 0002:000183a8       ??_C@_0CN@ICKPEFI@new_tail?5?$DM?$DN?5my_arena_slot?9?$DOmy_ta@ 000000018006b3a8     scheduler.obj
 0002:000183d8       ??_C@_0DP@GHBJMLBA@Task?5pool?5must?5be?5locked?5when?5ca@ 000000018006b3d8     scheduler.obj
 0002:00018418       ??_C@_0CD@CFIANOHN@The?5proxy?5task?5cannot?5be?5offload@ 000000018006b418     scheduler.obj
 0002:00018440       ??_C@_0N@GOECIDD@?$CBis_proxy?$CIt?$CJ?$AA@ 000000018006b440     scheduler.obj
 0002:00018450       ??_C@_0EH@OANICANA@my_offloaded_task_list_tail_link@ 000000018006b450     scheduler.obj
 0002:000184a0       ??_7?$custom_scheduler@UDefaultSchedulerTraits@internal@tbb@@@internal@tbb@@6B@ 000000018006b4a0     scheduler.obj
 0002:000184e0       ??_7?$custom_scheduler@UIntelSchedulerTraits@internal@tbb@@@internal@tbb@@6B@ 000000018006b4e0     scheduler.obj
 0002:00018520       ??_C@_0EC@JPJKCONO@?$CBis_task_pool_published?$CI?$CJ?5?$CG?$CG?5is_@ 000000018006b520     scheduler.obj
 0002:00018568       ??_C@_0CB@CJHKKINP@d?3?2dev?2tbb?2src?2tbb?2scheduler?4cpp@ 000000018006b568     scheduler.obj
 0002:00018590       ??_C@_0BO@FFGMFFKH@?$CBmy_arena_slot?9?$DOtask_pool_ptr?$AA@ 000000018006b590     scheduler.obj
 0002:000185b0       ??_C@_0DH@BMPONNCM@my_arena_slot?9?$DOmy_task_pool_size@ 000000018006b5b0     scheduler.obj
 0002:000185e8       ??_C@_0BJ@EBNAOIPB@invalid?5arena?5slot?5index?$AA@ 000000018006b5e8     scheduler.obj
 0002:00018608       ??_C@_0DF@OAKHJCHO@my_arena_slot?5?$DN?$DN?5my_arena?9?$DOmy_sl@ 000000018006b608     scheduler.obj
 0002:00018640       ??_C@_0BI@DDHEOPJ@slot?5ownership?5corrupt?$DP?$AA@ 000000018006b640     scheduler.obj
 0002:00018660       ??_C@_0ED@DPOFMDLB@tp?5?$DN?$DN?5?$CI?$CItask?$CK?$CK?$CJ?$HO?$CIintptr_t?$CJ0?$CJ?5?$HM?$HM?5@ 000000018006b660     scheduler.obj
 0002:000186a8       ??_C@_0BO@BPAKPMEK@not?5really?5acquired?5task?5pool?$AA@ 000000018006b6a8     scheduler.obj
 0002:000186c8       ??_C@_0BE@OBDANAJJ@we?5are?5not?5in?5arena?$AA@ 000000018006b6c8     scheduler.obj
 0002:000186e0       ??_C@_0BJ@KAKOPABB@arena?5slot?5is?5not?5locked?$AA@ 000000018006b6e0     scheduler.obj
 0002:00018700       ??_C@_0CG@DLNDAJCB@not?5really?5locked?5victim?8s?5task?5@ 000000018006b700     scheduler.obj
 0002:00018730       ??_C@_0IK@MGPPBPLF@victim_task_pool?5?$DN?$DN?5?$CI?$CItask?$CK?$CK?$CJ0?$CJ?5@ 000000018006b730     scheduler.obj
 0002:000187c0       ??_C@_0CA@KPJJIGGI@empty?5victim?5arena?5slot?5pointer?$AA@ 000000018006b7c0     scheduler.obj
 0002:000187e0       ??_C@_0BC@FDIBDHCF@victim_arena_slot?$AA@ 000000018006b7e0     scheduler.obj
 0002:000187f8       ??_C@_0CA@PNKDECOB@victim?5arena?5slot?5is?5not?5locked?$AA@ 000000018006b7f8     scheduler.obj
 0002:00018818       ??_C@_0DH@EKDIAKJL@victim_arena_slot?9?$DOtask_pool?5?$DN?$DN?5@ 000000018006b818     scheduler.obj
 0002:00018850       ??_C@_0DH@EOPIIHGK@attempt?5to?5spawn?5task?5that?5is?5no@ 000000018006b850     scheduler.obj
 0002:00018888       ??_C@_0BM@PKOLENLD@t?9?$DOstate?$CI?$CJ?$DN?$DNtask?3?3allocated?$AA@ 000000018006b888     scheduler.obj
 0002:000188a8       ??_C@_0DF@OEIDPLN@attempt?5to?5spawn?5task?5whose?5pare@ 000000018006b8a8     scheduler.obj
 0002:000188e0       ??_C@_0N@GFHEPNGJ@ref_count?$DO?$DN0?$AA@ 000000018006b8e0     scheduler.obj
 0002:000188f0       ??_C@_0FB@KLFGCIGA@attempt?5to?5spawn?5task?5whose?5pare@ 000000018006b8f0     scheduler.obj
 0002:00018948       ??_C@_0N@GNAOLKKA@ref_count?$CB?$DN0?$AA@ 000000018006b948     scheduler.obj
 0002:00018958       ??_C@_0DD@DBDAGODG@backwards?5compatibility?5to?5TBB?52@ 000000018006b958     scheduler.obj
 0002:00018990       ??_C@_0CJ@OADHCJIC@dst_thread?5?$DN?$DN?50?5?$HM?$HM?5is_version_3_@ 000000018006b990     scheduler.obj
 0002:000189c0       ??_C@_0CI@GLNIEMEP@Is?5it?5safe?5to?5get?5a?5task?5at?5posi@ 000000018006b9c0     scheduler.obj
 0002:000189f0       ??_C@_0FB@PEEIAAKN@__TBB_load_relaxed?$CI?5my_arena_slo@ 000000018006b9f0     scheduler.obj
 0002:00018a48       ??_C@_0CL@NKJHBMDP@The?5poisoned?5task?5is?5going?5to?5be@ 000000018006ba48     scheduler.obj
 0002:00018a78       ??_C@_0BH@JBFJDMFK@?$CBis_poisoned?$CI?5result?5?$CJ?$AA@ 000000018006ba78     scheduler.obj
 0002:00018a90       ??_C@_0CM@FLLAMAOI@backwards?5compatibility?5with?5TBB@ 000000018006ba90     scheduler.obj
 0002:00018ac0       ??_C@_0BI@LOLDPLBP@is_version_3_task?$CI?5?$CKt?5?$CJ?$AA@ 000000018006bac0     scheduler.obj
 0002:00018ad8       ??_C@_0BP@BDLOPJOA@my_innermost_running_task?5?$CB?$DN?5t?$AA@ 000000018006bad8     scheduler.obj
 0002:00018af8       ??_C@_0BJ@HJENMGEB@is_task_pool_published?$CI?$CJ?$AA@ 000000018006baf8     scheduler.obj
 0002:00018b18       ??_C@_07GEMCFJLC@?$CBresult?$AA@ 000000018006bb18     scheduler.obj
 0002:00018b20       ??_C@_0CL@JFLKFHKK@victim?1thief?5arbitration?5algorit@ 000000018006bb20     scheduler.obj
 0002:00018b50       ??_C@_0HB@FMCKPCFE@H0?5?$DN?$DN?5__TBB_load_relaxed?$CI?5my_are@ 000000018006bb50     scheduler.obj
 0002:00018bc8       ??_C@_09HNHGNKJM@T0?5?$DN?$DN?5T?$CL1?$AA@ 000000018006bbc8     scheduler.obj
 0002:00018bd8       ??_C@_0CF@LDHNFBMB@is_quiescent_local_task_pool_res@ 000000018006bbd8     scheduler.obj
 0002:00018c00       ??_C@_07HCAANLFB@H0?5?$DN?$DN?5T?$AA@ 000000018006bc00     scheduler.obj
 0002:00018c08       ??_C@_08IAEIEOP@H0?5?$DM?$DN?5T0?$AA@ 000000018006bc08     scheduler.obj
 0002:00018c14       ??_C@_06KJFADLGN@result?$AA@ 000000018006bc14     scheduler.obj
 0002:00018c20       ??_C@_0DJ@MBBCHFFI@?$CIintptr_t?$CJ__TBB_load_relaxed?$CI?5my@ 000000018006bc20     scheduler.obj
 0002:00018c60       ??_C@_0EA@DGLADJAL@result?5?$HM?$HM?5tasks_omitted?5?$HM?$HM?5is_qu@ 000000018006bc60     scheduler.obj
 0002:00018ca0       ??_C@_0CI@FKMLHL@no?5arena?3?5initialization?5not?5com@ 000000018006bca0     scheduler.obj
 0002:00018cc8       ??_C@_0CB@LPMOJLPE@arena?5slot?5index?5is?5out?9of?9bound@ 000000018006bcc8     scheduler.obj
 0002:00018cf0       ??_C@_0CI@OHFLOHIC@my_arena_index?5?$DM?5my_arena?9?$DOmy_nu@ 000000018006bcf0     scheduler.obj
 0002:00018d18       ??_C@_0DF@PGIDHDB@my_arena_slot?5?$DN?$DN?5?$CGmy_arena?9?$DOmy_s@ 000000018006bd18     scheduler.obj
 0002:00018d50       ??_C@_0CE@INOMDMEC@someone?5else?5grabbed?5my?5arena?5sl@ 000000018006bd50     scheduler.obj
 0002:00018d78       ??_C@_0CI@LGNJBBEB@my_arena_slot?9?$DOtask_pool?5?$DN?$DN?5?$CI?$CIta@ 000000018006bd78     scheduler.obj
 0002:00018da0       ??_C@_0CG@GFMBLNBF@entering?5arena?5without?5tasks?5to?5@ 000000018006bda0     scheduler.obj
 0002:00018dd0       ??_C@_0FC@HABCALHI@__TBB_load_relaxed?$CImy_arena_slot@ 000000018006bdd0     scheduler.obj
 0002:00018e28       ??_C@_0N@GEHBJNPJ@Not?5in?5arena?$AA@ 000000018006be28     scheduler.obj
 0002:00018e38       ??_C@_0CD@GJBBKPKF@arena?5slot?5and?5slot?5index?5mismat@ 000000018006be38     scheduler.obj
 0002:00018e60       ??_C@_0DF@MEJMMJFG@?$CGmy_arena?9?$DOmy_slots?$FLmy_arena_ind@ 000000018006be60     scheduler.obj
 0002:00018e98       ??_C@_0CM@PKMMCBAO@Task?5pool?5must?5be?5locked?5when?5le@ 000000018006be98     scheduler.obj
 0002:00018ec8       ??_C@_0DD@NMGIJENM@Cannot?5leave?5arena?5when?5the?5task@ 000000018006bec8     scheduler.obj
 0002:00018f00       ??_C@_0CF@NPJCDDNF@is_quiescent_local_task_pool_emp@ 000000018006bf00     scheduler.obj
 0002:00018f28       ??_C@_0BK@LFACAHON@Maximal?5capacity?5exceeded?$AA@ 000000018006bf28     scheduler.obj
 0002:00018f48       ??_C@_0BO@MDAELBIO@m_num_segments?5?$DM?5max_segments?$AA@ 000000018006bf48     scheduler.obj
 0002:00018f68       ??_C@_0CH@FNFKBLPF@d?3?2dev?2tbb?2src?2tbb?2scheduler_uti@ 000000018006bf68     scheduler.obj
 0002:00018f90       ??_C@_0CK@LELAGDPJ@Nonempty?5initial?5segment?5must?5be@ 000000018006bf90     scheduler.obj
 0002:00018fc0       ??_C@_0CA@KCKFCMBB@initial_segment?5?$CG?$CG?5segment_size?$AA@ 000000018006bfc0     scheduler.obj
 0002:00018fe0       ??_C@_0CH@JEFMPKMI@Normal?5task?5misinterpreted?5as?5a?5@ 000000018006bfe0     scheduler.obj
 0002:00019008       ??_C@_0CG@CFHFCKPM@prefix?$CI?$CJ?4extra_state?5?$DN?$DN?5es_task_@ 000000018006c008     scheduler.obj
 0002:00019030       ??_C@_0GI@GIJCFNCK@Proxy?8s?5tag?5cannot?5specify?5both?5@ 000000018006c030     scheduler.obj
 0002:00019098       ??_C@_0DF@OJCBPOPH@tat?5?$DN?$DN?5from_bit?5?$HM?$HM?5?$CIis_shared?$CIta@ 000000018006c098     scheduler.obj
 0002:000190d0       ??_C@_0DB@IMPNEGJF@Empty?5proxy?5cannot?5contain?5non?9z@ 000000018006c0d0     scheduler.obj
 0002:00019108       ??_C@_0BJ@NAOIKHFB@task_and_tag?5?$DN?$DN?5from_bit?$AA@ 000000018006c108     scheduler.obj
 0002:00019130       ??_C@_0EF@DFJMMIPF@completion?5of?5task?5caused?5predec@ 000000018006c130     scheduler.obj
 0002:00019178       ??_C@_0P@KPMFOABG@p?4ref_count?$DN?$DN0?$AA@ 000000018006c178     scheduler.obj
 0002:00019188       ??_C@_0CG@MAPAMPPH@d?3?2dev?2tbb?2src?2tbb?2custom_schedu@ 000000018006c188     scheduler.obj
 0002:000191b0       ??_C@_0DI@KEOEKCDJ@p?4isolation?5?$DN?$DN?5no_isolation?5?$HM?$HM?5p@ 000000018006c1b0     scheduler.obj
 0002:000191f0       ??_C@_1KM@CNDICFPH@?$AAs?$AAt?$AAd?$AA?3?$AA?3?$AAd?$AAe?$AAq?$AAu?$AAe?$AA?$DM?$AAc?$AAl?$AAa?$AAs?$AAs?$AA?5?$AAt?$AAb?$AAb?$AA?3?$AA?3?$AAt?$AAa?$AAs?$AAk?$AA?5?$AA?$CK?$AA?0?$AAc?$AAl?$AAa@ 000000018006c1f0     scheduler.obj
 0002:0001a1d8       ??_C@_0CI@PMFFFLKG@task_arena?5initialization?5is?5inc@ 000000018006d1d8     observer_proxy.obj
 0002:0001a200       ??_C@_0CE@KGMJAHMF@d?3?2dev?2tbb?2include?2tbb?2task_aren@ 000000018006d200     observer_proxy.obj
 0002:0001a228       ??_C@_0L@KIPAIEID@my_context?$AA@ 000000018006d228     observer_proxy.obj
 0002:0001a234       ??_C@_01KDCPPGHE@r?$AA@    000000018006d234     observer_proxy.obj
 0002:0001a238       ??_C@_0CD@KLDPKFDL@Leaked?5?$CFld?5observer_proxy?5object@ 000000018006d238     observer_proxy.obj
 0002:0001a6a8       ??_7control_storage@internal@tbb@@6B@ 000000018006d6a8     tbb_main.obj
 0002:0001a6d0       ??_7?$padded_base@Vcontrol_storage@internal@tbb@@$0IA@$0CA@@internal@tbb@@6B@ 000000018006d6d0     tbb_main.obj
 0002:0001a6f8       ??_7?$padded@Vcontrol_storage@internal@tbb@@$0IA@@internal@tbb@@6B@ 000000018006d6f8     tbb_main.obj
 0002:0001a720       ??_7allowed_parallelism_control@internal@tbb@@6B@ 000000018006d720     tbb_main.obj
 0002:0001a740       ??_C@_0BD@PLEDMFOC@my_active_value?$DO?$DN1?$AA@ 000000018006d740     tbb_main.obj
 0002:0001a758       ??_C@_0CA@GOJMNPOK@d?3?2dev?2tbb?2src?2tbb?2tbb_main?4cpp?$AA@ 000000018006d758     tbb_main.obj
 0002:0001a780       ??_7stack_size_control@internal@tbb@@6B@ 000000018006d780     tbb_main.obj
 0002:0001ad50       ??_C@_0CK@MILFLHAC@result?$DN?$DNsegment_base?$CIk?$CL1?$CJ?9segmen@ 000000018006dd50     concurrent_vector_v2.obj
 0002:0001ad80       ??_C@_0CK@ODFOOLPC@d?3?2dev?2tbb?2src?2old?2concurrent_ve@ 000000018006dd80     concurrent_vector_v2.obj
 0002:0001b508       ??_7concurrent_queue_base@internal@tbb@@6B@ 000000018006e508     concurrent_queue_v2.obj
 0002:0001b520       ??_C@_0CL@ONJJDPHD@d?3?2dev?2tbb?2src?2old?2concurrent_qu@ 000000018006e520     concurrent_queue_v2.obj
 0002:0001bcb8       ??_7type_info@@6B@         000000018006ecb8     MSVCRTD:std_type_info_static.obj
 0002:0001bcd0       _pDefaultRawDllMain        000000018006ecd0     MSVCRTD:dll_dllmain.obj
 0002:0001bcd0       _pRawDllMain               000000018006ecd0     MSVCRTD:dll_dllmain.obj
 0002:0001bda0       ??_C@_0NN@NGPKDKPD@The?5value?5of?5ESP?5was?5not?5properl@ 000000018006eda0     MSVCRTD:_error_.obj
 0002:0001be80       ??_C@_0BBN@GPMLNJCF@A?5cast?5to?5a?5smaller?5data?5type?5ha@ 000000018006ee80     MSVCRTD:_error_.obj
 0002:0001bfa0       ??_C@_0BN@FFOINMNJ@Stack?5memory?5was?5corrupted?6?$AN?$AA@ 000000018006efa0     MSVCRTD:_error_.obj
 0002:0001bfc0       ??_C@_0DG@HKJMLLLP@A?5local?5variable?5was?5used?5before@ 000000018006efc0     MSVCRTD:_error_.obj
 0002:0001bff8       ??_C@_0CM@NGINOKPC@Stack?5memory?5around?5_alloca?5was?5@ 000000018006eff8     MSVCRTD:_error_.obj
 0002:0001c028       ??_C@_0BO@GNIAFIKK@Unknown?5Runtime?5Check?5Error?6?$AN?$AA@ 000000018006f028     MSVCRTD:_error_.obj
 0002:0001c050       ??_C@_1GM@OLMCBDMB@?$AAR?$AAu?$AAn?$AAt?$AAi?$AAm?$AAe?$AA?5?$AAC?$AAh?$AAe?$AAc?$AAk?$AA?5?$AAE?$AAr?$AAr?$AAo?$AAr?$AA?4?$AA?6?$AA?$AN?$AA?5?$AAU?$AAn?$AAa?$AAb?$AAl?$AAe?$AA?5?$AAt?$AAo@ 000000018006f050     MSVCRTD:_error_.obj
 0002:0001c0c0       ??_C@_1EA@NFKNIFJP@?$AAR?$AAu?$AAn?$AA?9?$AAT?$AAi?$AAm?$AAe?$AA?5?$AAC?$AAh?$AAe?$AAc?$AAk?$AA?5?$AAF?$AAa?$AAi?$AAl?$AAu?$AAr?$AAe?$AA?5?$AA?$CD?$AA?$CF?$AAd?$AA?5?$AA?9?$AA?5?$AA?$CF?$AAs?$AA?$AA@ 000000018006f0c0     MSVCRTD:_error_.obj
 0002:0001c100       ??_C@_0BB@PFFGGCJP@Unknown?5Filename?$AA@ 000000018006f100     MSVCRTD:_error_.obj
 0002:0001c118       ??_C@_0BE@GNBOBNCK@Unknown?5Module?5Name?$AA@ 000000018006f118     MSVCRTD:_error_.obj
 0002:0001c130       ??_C@_0CA@IODNCDPG@Run?9Time?5Check?5Failure?5?$CD?$CFd?5?9?5?$CFs?$AA@ 000000018006f130     MSVCRTD:_error_.obj
 0002:0001c150       ??_C@_0CG@IAFNJNEE@Stack?5corrupted?5near?5unknown?5var@ 000000018006f150     MSVCRTD:_error_.obj
 0002:0001c178       ??_C@_05MKKEDADM@?$CF?42X?5?$AA@ 000000018006f178     MSVCRTD:_error_.obj
 0002:0001c180       ??_C@_0EJ@LJKNEOLN@Stack?5area?5around?5_alloca?5memory@ 000000018006f180     MSVCRTD:_error_.obj
 0002:0001c1cc       ??_C@_01EEMJAFIK@?6?$AA@   000000018006f1cc     MSVCRTD:_error_.obj
 0002:0001c1d0       ??_C@_02LLMPMKNF@?$DO?5?$AA@ 000000018006f1d0     MSVCRTD:_error_.obj
 0002:0001c1d8       ??_C@_08OMAHNMHJ@?6Data?3?5?$DM?$AA@ 000000018006f1d8     MSVCRTD:_error_.obj
 0002:0001c1e8       ??_C@_0CK@DKGBICFE@?6Allocation?5number?5within?5this?5f@ 000000018006f1e8     MSVCRTD:_error_.obj
 0002:0001c218       ??_C@_07DFDJCKFN@?6Size?3?5?$AA@ 000000018006f218     MSVCRTD:_error_.obj
 0002:0001c220       ??_C@_0N@MHFFIMFG@?6Address?3?50x?$AA@ 000000018006f220     MSVCRTD:_error_.obj
 0002:0001c230       ??_C@_0EI@CLEPFNGI@Stack?5area?5around?5_alloca?5memory@ 000000018006f230     MSVCRTD:_error_.obj
 0002:0001c278       ??_C@_0BK@ODNDAGKB@?$CFs?$CFs?$CFp?$CFs?$CFzd?$CFs?$CFd?$CFs?$CFs?$CFs?$CFs?$CFs?$AA@ 000000018006f278     MSVCRTD:_error_.obj
 0002:0001c298       ??_C@_0DE@OHJBPMBP@A?5variable?5is?5being?5used?5without@ 000000018006f298     MSVCRTD:_error_.obj
 0002:0001c2f8       ??_C@_0BJ@HEGAHDFO@Stack?5pointer?5corruption?$AA@ 000000018006f2f8     MSVCRTD:_userapi_.obj
 0002:0001c318       ??_C@_0CK@FEGOIOPB@Cast?5to?5smaller?5type?5causing?5los@ 000000018006f318     MSVCRTD:_userapi_.obj
 0002:0001c348       ??_C@_0BI@CIGMDCBH@Stack?5memory?5corruption?$AA@ 000000018006f348     MSVCRTD:_userapi_.obj
 0002:0001c360       ??_C@_0CK@CNLNOEPB@Local?5variable?5used?5before?5initi@ 000000018006f360     MSVCRTD:_userapi_.obj
 0002:0001c390       ??_C@_0BP@OGBCLIBO@Stack?5around?5_alloca?5corrupted?$AA@ 000000018006f390     MSVCRTD:_userapi_.obj
 0002:0001c3b8       ??_7bad_array_new_length@std@@6B@ 000000018006f3b8     MSVCRTD:throw_bad_alloc.obj
 0002:0001c3c8       ??_C@_0BF@KINCDENJ@bad?5array?5new?5length?$AA@ 000000018006f3c8     MSVCRTD:throw_bad_alloc.obj
 0002:0001c440       ??_C@_1EI@MLPKHBGE@?$AAa?$AAp?$AAi?$AA?9?$AAm?$AAs?$AA?9?$AAw?$AAi?$AAn?$AA?9?$AAc?$AAo?$AAr?$AAe?$AA?9?$AAr?$AAe?$AAg?$AAi?$AAs?$AAt?$AAr?$AAy?$AA?9?$AAl?$AA1?$AA?9?$AA1?$AA?9?$AA0?$AA?4@ 000000018006f440     MSVCRTD:_pdblkup_.obj
 0002:0001c488       ??_C@_1BK@JHLNAEJL@?$AAa?$AAd?$AAv?$AAa?$AAp?$AAi?$AA3?$AA2?$AA?4?$AAd?$AAl?$AAl?$AA?$AA@ 000000018006f488     MSVCRTD:_pdblkup_.obj
 0002:0001c4a8       ??_C@_0O@COHOBMLB@RegOpenKeyExW?$AA@ 000000018006f4a8     MSVCRTD:_pdblkup_.obj
 0002:0001c4b8       ??_C@_0BB@GLNAEDBD@RegQueryValueExW?$AA@ 000000018006f4b8     MSVCRTD:_pdblkup_.obj
 0002:0001c4d0       ??_C@_0M@HLOHPNFA@RegCloseKey?$AA@ 000000018006f4d0     MSVCRTD:_pdblkup_.obj
 0002:0001c4e0       ??_C@_1HE@EBEAGLFB@?$AAS?$AAO?$AAF?$AAT?$AAW?$AAA?$AAR?$AAE?$AA?2?$AAW?$AAo?$AAw?$AA6?$AA4?$AA3?$AA2?$AAN?$AAo?$AAd?$AAe?$AA?2?$AAM?$AAi?$AAc?$AAr?$AAo?$AAs?$AAo?$AAf?$AAt?$AA?2?$AAV@ 000000018006f4e0     MSVCRTD:_pdblkup_.obj
 0002:0001c558       ??_C@_1BG@EABPBLLF@?$AAP?$AAr?$AAo?$AAd?$AAu?$AAc?$AAt?$AAD?$AAi?$AAr?$AA?$AA@ 000000018006f558     MSVCRTD:_pdblkup_.obj
 0002:0001c590       ??_C@_1BC@JINFINNJ@?$AAM?$AAS?$AAP?$AAD?$AAB?$AA1?$AA4?$AA0?$AA?$AA@ 000000018006f590     MSVCRTD:_pdblkup_.obj
 0002:0001c5a8       ??_C@_0BB@KCIACLNC@PDBOpenValidate5?$AA@ 000000018006f5a8     MSVCRTD:_pdblkup_.obj
 0002:0001c620       _load_config_used          000000018006f620     MSVCRTD:loadcfg.obj
 0002:0001c720       ??_R4concurrent_queue_base_v3@internal@tbb@@6B@ 000000018006f720     concurrent_queue.obj
 0002:0001c748       ??_R3concurrent_queue_base_v3@internal@tbb@@8 000000018006f748     concurrent_queue.obj
 0002:0001c760       ??_R2concurrent_queue_base_v3@internal@tbb@@8 000000018006f760     concurrent_queue.obj
 0002:0001c780       ??_R1A@?0A@EA@concurrent_queue_base_v3@internal@tbb@@8 000000018006f780     concurrent_queue.obj
 0002:0001c7a8       ??_R17?0A@EN@no_copy@internal@tbb@@8 000000018006f7a8     concurrent_queue.obj
 0002:0001c7d0       ??_R3no_copy@internal@tbb@@8 000000018006f7d0     concurrent_queue.obj
 0002:0001c7e8       ??_R2no_copy@internal@tbb@@8 000000018006f7e8     concurrent_queue.obj
 0002:0001c800       ??_R1A@?0A@EA@no_copy@internal@tbb@@8 000000018006f800     concurrent_queue.obj
 0002:0001c828       ??_R1A@?0A@EN@no_assign@internal@tbb@@8 000000018006f828     concurrent_queue.obj
 0002:0001c850       ??_R3no_assign@internal@tbb@@8 000000018006f850     concurrent_queue.obj
 0002:0001c868       ??_R2no_assign@internal@tbb@@8 000000018006f868     concurrent_queue.obj
 0002:0001c878       ??_R1A@?0A@EA@no_assign@internal@tbb@@8 000000018006f878     concurrent_queue.obj
 0002:0001c8a0       ??_R17?0A@EN@no_assign@internal@tbb@@8 000000018006f8a0     concurrent_queue.obj
 0002:0001c8c8       ??_R4task@tbb@@6B@         000000018006f8c8     pipeline.obj
 0002:0001c8f0       ??_R3task@tbb@@8           000000018006f8f0     pipeline.obj
 0002:0001c908       ??_R2task@tbb@@8           000000018006f908     pipeline.obj
 0002:0001c930       ??_R1A@?0A@EA@task@tbb@@8  000000018006f930     pipeline.obj
 0002:0001c958       ??_R17?0A@EA@task_base@internal@interface5@tbb@@8 000000018006f958     pipeline.obj
 0002:0001c980       ??_R3task_base@internal@interface5@tbb@@8 000000018006f980     pipeline.obj
 0002:0001c998       ??_R2task_base@internal@interface5@tbb@@8 000000018006f998     pipeline.obj
 0002:0001c9b8       ??_R1A@?0A@EA@task_base@internal@interface5@tbb@@8 000000018006f9b8     pipeline.obj
 0002:0001c9e0       ??_R1A@?0A@EN@no_copy@internal@tbb@@8 000000018006f9e0     pipeline.obj
 0002:0001ca08       ??_R4pipeline@tbb@@6B@     000000018006fa08     pipeline.obj
 0002:0001ca30       ??_R3pipeline@tbb@@8       000000018006fa30     pipeline.obj
 0002:0001ca48       ??_R2pipeline@tbb@@8       000000018006fa48     pipeline.obj
 0002:0001ca58       ??_R1A@?0A@EA@pipeline@tbb@@8 000000018006fa58     pipeline.obj
 0002:0001ca80       ??_R4filter@tbb@@6B@       000000018006fa80     pipeline.obj
 0002:0001caa8       ??_R3filter@tbb@@8         000000018006faa8     pipeline.obj
 0002:0001cac0       ??_R2filter@tbb@@8         000000018006fac0     pipeline.obj
 0002:0001cae0       ??_R1A@?0A@EA@filter@tbb@@8 000000018006fae0     pipeline.obj
 0002:0001cb08       ??_R4stage_task@internal@tbb@@6B@ 000000018006fb08     pipeline.obj
 0002:0001cb30       ??_R3stage_task@internal@tbb@@8 000000018006fb30     pipeline.obj
 0002:0001cb48       ??_R2stage_task@internal@tbb@@8 000000018006fb48     pipeline.obj
 0002:0001cb80       ??_R1A@?0A@EA@stage_task@internal@tbb@@8 000000018006fb80     pipeline.obj
 0002:0001cba8       ??_R17?0A@EA@task_info@internal@tbb@@8 000000018006fba8     pipeline.obj
 0002:0001cbd0       ??_R3task_info@internal@tbb@@8 000000018006fbd0     pipeline.obj
 0002:0001cbe8       ??_R2task_info@internal@tbb@@8 000000018006fbe8     pipeline.obj
 0002:0001cbf8       ??_R1A@?0A@EA@task_info@internal@tbb@@8 000000018006fbf8     pipeline.obj
 0002:0001cc20       ??_R4pipeline_root_task@internal@tbb@@6B@ 000000018006fc20     pipeline.obj
 0002:0001cc48       ??_R3pipeline_root_task@internal@tbb@@8 000000018006fc48     pipeline.obj
 0002:0001cc60       ??_R2pipeline_root_task@internal@tbb@@8 000000018006fc60     pipeline.obj
 0002:0001cc90       ??_R1A@?0A@EA@pipeline_root_task@internal@tbb@@8 000000018006fc90     pipeline.obj
 0002:0001ccb8       ??_R4server@rml@@6B@       000000018006fcb8     private_server.obj
 0002:0001cce0       ??_R3server@rml@@8         000000018006fce0     private_server.obj
 0002:0001ccf8       ??_R2server@rml@@8         000000018006fcf8     private_server.obj
 0002:0001cd10       ??_R1A@?0A@EA@server@rml@@8 000000018006fd10     private_server.obj
 0002:0001cd38       ??_R1A@?0A@EA@versioned_object@rml@@8 000000018006fd38     private_server.obj
 0002:0001cd60       ??_R3versioned_object@rml@@8 000000018006fd60     private_server.obj
 0002:0001cd78       ??_R2versioned_object@rml@@8 000000018006fd78     private_server.obj
 0002:0001cd88       ??_R4versioned_object@rml@@6B@ 000000018006fd88     private_server.obj
 0002:0001cdb0       ??_R4tbb_server@rml@internal@tbb@@6B@ 000000018006fdb0     private_server.obj
 0002:0001cdd8       ??_R3tbb_server@rml@internal@tbb@@8 000000018006fdd8     private_server.obj
 0002:0001cdf0       ??_R2tbb_server@rml@internal@tbb@@8 000000018006fdf0     private_server.obj
 0002:0001ce10       ??_R1A@?0A@EA@tbb_server@rml@internal@tbb@@8 000000018006fe10     private_server.obj
 0002:0001ce38       ??_R4private_server@rml@internal@tbb@@6B@ 000000018006fe38     private_server.obj
 0002:0001ce60       ??_R3private_server@rml@internal@tbb@@8 000000018006fe60     private_server.obj
 0002:0001ce78       ??_R2private_server@rml@internal@tbb@@8 000000018006fe78     private_server.obj
 0002:0001ceb0       ??_R1A@?0A@EA@private_server@rml@internal@tbb@@8 000000018006feb0     private_server.obj
 0002:0001ced8       ??_R4exception@std@@6B@    000000018006fed8     tbb_misc.obj
 0002:0001cf00       ??_R3exception@std@@8      000000018006ff00     tbb_misc.obj
 0002:0001cf18       ??_R2exception@std@@8      000000018006ff18     tbb_misc.obj
 0002:0001cf28       ??_R1A@?0A@EA@exception@std@@8 000000018006ff28     tbb_misc.obj
 0002:0001cf50       ??_R4bad_alloc@std@@6B@    000000018006ff50     tbb_misc.obj
 0002:0001cf78       ??_R3bad_alloc@std@@8      000000018006ff78     tbb_misc.obj
 0002:0001cf90       ??_R2bad_alloc@std@@8      000000018006ff90     tbb_misc.obj
 0002:0001cfa8       ??_R1A@?0A@EA@bad_alloc@std@@8 000000018006ffa8     tbb_misc.obj
 0002:0001cfd0       ??_R4logic_error@std@@6B@  000000018006ffd0     tbb_misc.obj
 0002:0001cff8       ??_R3logic_error@std@@8    000000018006fff8     tbb_misc.obj
 0002:0001d010       ??_R2logic_error@std@@8    0000000180070010     tbb_misc.obj
 0002:0001d028       ??_R1A@?0A@EA@logic_error@std@@8 0000000180070028     tbb_misc.obj
 0002:0001d050       ??_R4invalid_argument@std@@6B@ 0000000180070050     tbb_misc.obj
 0002:0001d078       ??_R3invalid_argument@std@@8 0000000180070078     tbb_misc.obj
 0002:0001d090       ??_R2invalid_argument@std@@8 0000000180070090     tbb_misc.obj
 0002:0001d0b0       ??_R1A@?0A@EA@invalid_argument@std@@8 00000001800700b0     tbb_misc.obj
 0002:0001d0d8       ??_R4length_error@std@@6B@ 00000001800700d8     tbb_misc.obj
 0002:0001d100       ??_R3length_error@std@@8   0000000180070100     tbb_misc.obj
 0002:0001d118       ??_R2length_error@std@@8   0000000180070118     tbb_misc.obj
 0002:0001d138       ??_R1A@?0A@EA@length_error@std@@8 0000000180070138     tbb_misc.obj
 0002:0001d160       ??_R4out_of_range@std@@6B@ 0000000180070160     tbb_misc.obj
 0002:0001d188       ??_R3out_of_range@std@@8   0000000180070188     tbb_misc.obj
 0002:0001d1a0       ??_R2out_of_range@std@@8   00000001800701a0     tbb_misc.obj
 0002:0001d1c0       ??_R1A@?0A@EA@out_of_range@std@@8 00000001800701c0     tbb_misc.obj
 0002:0001d1e8       ??_R4runtime_error@std@@6B@ 00000001800701e8     tbb_misc.obj
 0002:0001d210       ??_R3runtime_error@std@@8  0000000180070210     tbb_misc.obj
 0002:0001d228       ??_R2runtime_error@std@@8  0000000180070228     tbb_misc.obj
 0002:0001d240       ??_R1A@?0A@EA@runtime_error@std@@8 0000000180070240     tbb_misc.obj
 0002:0001d268       ??_R4range_error@std@@6B@  0000000180070268     tbb_misc.obj
 0002:0001d290       ??_R3range_error@std@@8    0000000180070290     tbb_misc.obj
 0002:0001d2a8       ??_R2range_error@std@@8    00000001800702a8     tbb_misc.obj
 0002:0001d2c8       ??_R1A@?0A@EA@range_error@std@@8 00000001800702c8     tbb_misc.obj
 0002:0001d2f0       ??_R4bad_last_alloc@tbb@@6B@ 00000001800702f0     tbb_misc.obj
 0002:0001d318       ??_R3bad_last_alloc@tbb@@8 0000000180070318     tbb_misc.obj
 0002:0001d330       ??_R2bad_last_alloc@tbb@@8 0000000180070330     tbb_misc.obj
 0002:0001d350       ??_R1A@?0A@EA@bad_last_alloc@tbb@@8 0000000180070350     tbb_misc.obj
 0002:0001d378       ??_R4improper_lock@tbb@@6B@ 0000000180070378     tbb_misc.obj
 0002:0001d3a0       ??_R3improper_lock@tbb@@8  00000001800703a0     tbb_misc.obj
 0002:0001d3b8       ??_R2improper_lock@tbb@@8  00000001800703b8     tbb_misc.obj
 0002:0001d3d0       ??_R1A@?0A@EA@improper_lock@tbb@@8 00000001800703d0     tbb_misc.obj
 0002:0001d3f8       ??_R4user_abort@tbb@@6B@   00000001800703f8     tbb_misc.obj
 0002:0001d420       ??_R3user_abort@tbb@@8     0000000180070420     tbb_misc.obj
 0002:0001d438       ??_R2user_abort@tbb@@8     0000000180070438     tbb_misc.obj
 0002:0001d450       ??_R1A@?0A@EA@user_abort@tbb@@8 0000000180070450     tbb_misc.obj
 0002:0001d478       ??_R4missing_wait@tbb@@6B@ 0000000180070478     tbb_misc.obj
 0002:0001d4a0       ??_R3missing_wait@tbb@@8   00000001800704a0     tbb_misc.obj
 0002:0001d4b8       ??_R2missing_wait@tbb@@8   00000001800704b8     tbb_misc.obj
 0002:0001d4d0       ??_R1A@?0A@EA@missing_wait@tbb@@8 00000001800704d0     tbb_misc.obj
 0002:0001d4f8       ??_R4invalid_multiple_scheduling@tbb@@6B@ 00000001800704f8     tbb_misc.obj
 0002:0001d520       ??_R3invalid_multiple_scheduling@tbb@@8 0000000180070520     tbb_misc.obj
 0002:0001d538       ??_R2invalid_multiple_scheduling@tbb@@8 0000000180070538     tbb_misc.obj
 0002:0001d550       ??_R1A@?0A@EA@invalid_multiple_scheduling@tbb@@8 0000000180070550     tbb_misc.obj
 0002:0001d578       ??_R4tbb_exception@tbb@@6B@ 0000000180070578     task_group_context.obj
 0002:0001d5a0       ??_R3tbb_exception@tbb@@8  00000001800705a0     task_group_context.obj
 0002:0001d5b8       ??_R2tbb_exception@tbb@@8  00000001800705b8     task_group_context.obj
 0002:0001d5d0       ??_R1A@?0A@EA@tbb_exception@tbb@@8 00000001800705d0     task_group_context.obj
 0002:0001d5f8       ??_R4captured_exception@tbb@@6B@ 00000001800705f8     task_group_context.obj
 0002:0001d620       ??_R3captured_exception@tbb@@8 0000000180070620     task_group_context.obj
 0002:0001d638       ??_R2captured_exception@tbb@@8 0000000180070638     task_group_context.obj
 0002:0001d658       ??_R1A@?0A@EA@captured_exception@tbb@@8 0000000180070658     task_group_context.obj
 0002:0001d680       ??_R4market@internal@tbb@@6B@ 0000000180070680     market.obj
 0002:0001d6a8       ??_R3market@internal@tbb@@8 00000001800706a8     market.obj
 0002:0001d6c0       ??_R2market@internal@tbb@@8 00000001800706c0     market.obj
 0002:0001d6f8       ??_R1A@?0A@EA@market@internal@tbb@@8 00000001800706f8     market.obj
 0002:0001d720       ??_R1A@?0A@EN@tbb_client@rml@internal@tbb@@8 0000000180070720     market.obj
 0002:0001d748       ??_R3tbb_client@rml@internal@tbb@@8 0000000180070748     market.obj
 0002:0001d760       ??_R2tbb_client@rml@internal@tbb@@8 0000000180070760     market.obj
 0002:0001d780       ??_R1A@?0A@EA@tbb_client@rml@internal@tbb@@8 0000000180070780     market.obj
 0002:0001d7a8       ??_R1A@?0A@EA@client@rml@@8 00000001800707a8     market.obj
 0002:0001d7d0       ??_R3client@rml@@8         00000001800707d0     market.obj
 0002:0001d7e8       ??_R2client@rml@@8         00000001800707e8     market.obj
 0002:0001d800       ??_R1A@?0A@EJ@client@rml@@8 0000000180070800     market.obj
 0002:0001d828       ??_R1A@?0A@EJ@versioned_object@rml@@8 0000000180070828     market.obj
 0002:0001d850       ??_R4client@rml@@6B@       0000000180070850     market.obj
 0002:0001d878       ??_R4tbb_client@rml@internal@tbb@@6B@ 0000000180070878     market.obj
 0002:0001d8a0       ??_R4empty_task@tbb@@6B@   00000001800708a0     arena.obj
 0002:0001d8c8       ??_R3empty_task@tbb@@8     00000001800708c8     arena.obj
 0002:0001d8e0       ??_R2empty_task@tbb@@8     00000001800708e0     arena.obj
 0002:0001d910       ??_R1A@?0A@EA@empty_task@tbb@@8 0000000180070910     arena.obj
 0002:0001d938       ??_R4delegated_task@internal@interface7@tbb@@6B@ 0000000180070938     arena.obj
 0002:0001d960       ??_R3delegated_task@internal@interface7@tbb@@8 0000000180070960     arena.obj
 0002:0001d978       ??_R2delegated_task@internal@interface7@tbb@@8 0000000180070978     arena.obj
 0002:0001d9a8       ??_R1A@?0A@EA@delegated_task@internal@interface7@tbb@@8 00000001800709a8     arena.obj
 0002:0001d9d0       ??_R4wait_task@internal@interface7@tbb@@6B@ 00000001800709d0     arena.obj
 0002:0001d9f8       ??_R3wait_task@internal@interface7@tbb@@8 00000001800709f8     arena.obj
 0002:0001da10       ??_R2wait_task@internal@interface7@tbb@@8 0000000180070a10     arena.obj
 0002:0001da40       ??_R1A@?0A@EA@wait_task@internal@interface7@tbb@@8 0000000180070a40     arena.obj
 0002:0001da68       ??_R4?$function_task@Vspawn_functor@graph@interface10@flow@tbb@@@internal@tbb@@6B@ 0000000180070a68     arena.obj
 0002:0001da90       ??_R3?$function_task@Vspawn_functor@graph@interface10@flow@tbb@@@internal@tbb@@8 0000000180070a90     arena.obj
 0002:0001daa8       ??_R2?$function_task@Vspawn_functor@graph@interface10@flow@tbb@@@internal@tbb@@8 0000000180070aa8     arena.obj
 0002:0001dad8       ??_R1A@?0A@EA@?$function_task@Vspawn_functor@graph@interface10@flow@tbb@@@internal@tbb@@8 0000000180070ad8     arena.obj
 0002:0001db00       ??_R4scheduler@internal@tbb@@6B@ 0000000180070b00     scheduler.obj
 0002:0001db28       ??_R3scheduler@internal@tbb@@8 0000000180070b28     scheduler.obj
 0002:0001db40       ??_R2scheduler@internal@tbb@@8 0000000180070b40     scheduler.obj
 0002:0001db60       ??_R1A@?0A@EA@scheduler@internal@tbb@@8 0000000180070b60     scheduler.obj
 0002:0001db88       ??_R4generic_scheduler@internal@tbb@@6B@ 0000000180070b88     scheduler.obj
 0002:0001dbb0       ??_R3generic_scheduler@internal@tbb@@8 0000000180070bb0     scheduler.obj
 0002:0001dbc8       ??_R2generic_scheduler@internal@tbb@@8 0000000180070bc8     scheduler.obj
 0002:0001dc08       ??_R1A@?0A@EA@generic_scheduler@internal@tbb@@8 0000000180070c08     scheduler.obj
 0002:0001dc30       ??_R17?0A@EA@job@rml@@8    0000000180070c30     scheduler.obj
 0002:0001dc58       ??_R3job@rml@@8            0000000180070c58     scheduler.obj
 0002:0001dc70       ??_R2job@rml@@8            0000000180070c70     scheduler.obj
 0002:0001dc80       ??_R1A@?0A@EA@job@rml@@8   0000000180070c80     scheduler.obj
 0002:0001dca8       ??_R1BA@?0A@EA@intrusive_list_node@internal@tbb@@8 0000000180070ca8     scheduler.obj
 0002:0001dcd0       ??_R3intrusive_list_node@internal@tbb@@8 0000000180070cd0     scheduler.obj
 0002:0001dce8       ??_R2intrusive_list_node@internal@tbb@@8 0000000180070ce8     scheduler.obj
 0002:0001dcf8       ??_R1A@?0A@EA@intrusive_list_node@internal@tbb@@8 0000000180070cf8     scheduler.obj
 0002:0001dd20       ??_R1CA@?0A@EA@scheduler_state@internal@tbb@@8 0000000180070d20     scheduler.obj
 0002:0001dd48       ??_R3scheduler_state@internal@tbb@@8 0000000180070d48     scheduler.obj
 0002:0001dd60       ??_R2scheduler_state@internal@tbb@@8 0000000180070d60     scheduler.obj
 0002:0001dd70       ??_R1A@?0A@EA@scheduler_state@internal@tbb@@8 0000000180070d70     scheduler.obj
 0002:0001dd98       ??_R4?$custom_scheduler@UDefaultSchedulerTraits@internal@tbb@@@internal@tbb@@6B@ 0000000180070d98     scheduler.obj
 0002:0001ddc0       ??_R3?$custom_scheduler@UDefaultSchedulerTraits@internal@tbb@@@internal@tbb@@8 0000000180070dc0     scheduler.obj
 0002:0001dde0       ??_R2?$custom_scheduler@UDefaultSchedulerTraits@internal@tbb@@@internal@tbb@@8 0000000180070de0     scheduler.obj
 0002:0001de28       ??_R1A@?0A@EA@?$custom_scheduler@UDefaultSchedulerTraits@internal@tbb@@@internal@tbb@@8 0000000180070e28     scheduler.obj
 0002:0001de50       ??_R1A@?0A@EN@generic_scheduler@internal@tbb@@8 0000000180070e50     scheduler.obj
 0002:0001de78       ??_R1A@?0A@EJ@scheduler@internal@tbb@@8 0000000180070e78     scheduler.obj
 0002:0001dea0       ??_R17?0A@EJ@job@rml@@8    0000000180070ea0     scheduler.obj
 0002:0001dec8       ??_R1BA@?0A@EJ@intrusive_list_node@internal@tbb@@8 0000000180070ec8     scheduler.obj
 0002:0001def0       ??_R1CA@?0A@EJ@scheduler_state@internal@tbb@@8 0000000180070ef0     scheduler.obj
 0002:0001df18       ??_R4?$custom_scheduler@UIntelSchedulerTraits@internal@tbb@@@internal@tbb@@6B@ 0000000180070f18     scheduler.obj
 0002:0001df40       ??_R3?$custom_scheduler@UIntelSchedulerTraits@internal@tbb@@@internal@tbb@@8 0000000180070f40     scheduler.obj
 0002:0001df60       ??_R2?$custom_scheduler@UIntelSchedulerTraits@internal@tbb@@@internal@tbb@@8 0000000180070f60     scheduler.obj
 0002:0001dfa8       ??_R1A@?0A@EA@?$custom_scheduler@UIntelSchedulerTraits@internal@tbb@@@internal@tbb@@8 0000000180070fa8     scheduler.obj
 0002:0001dfd0       ??_R4control_storage@internal@tbb@@6B@ 0000000180070fd0     tbb_main.obj
 0002:0001dff8       ??_R3control_storage@internal@tbb@@8 0000000180070ff8     tbb_main.obj
 0002:0001e010       ??_R2control_storage@internal@tbb@@8 0000000180071010     tbb_main.obj
 0002:0001e020       ??_R1A@?0A@EA@control_storage@internal@tbb@@8 0000000180071020     tbb_main.obj
 0002:0001e048       ??_R4allowed_parallelism_control@internal@tbb@@6B@ 0000000180071048     tbb_main.obj
 0002:0001e070       ??_R3allowed_parallelism_control@internal@tbb@@8 0000000180071070     tbb_main.obj
 0002:0001e088       ??_R2allowed_parallelism_control@internal@tbb@@8 0000000180071088     tbb_main.obj
 0002:0001e0b0       ??_R1A@?0A@EA@allowed_parallelism_control@internal@tbb@@8 00000001800710b0     tbb_main.obj
 0002:0001e0d8       ??_R1A@?0A@EA@?$padded@Vcontrol_storage@internal@tbb@@$0IA@@internal@tbb@@8 00000001800710d8     tbb_main.obj
 0002:0001e100       ??_R3?$padded@Vcontrol_storage@internal@tbb@@$0IA@@internal@tbb@@8 0000000180071100     tbb_main.obj
 0002:0001e118       ??_R2?$padded@Vcontrol_storage@internal@tbb@@$0IA@@internal@tbb@@8 0000000180071118     tbb_main.obj
 0002:0001e138       ??_R1A@?0A@EA@?$padded_base@Vcontrol_storage@internal@tbb@@$0IA@$0CA@@internal@tbb@@8 0000000180071138     tbb_main.obj
 0002:0001e160       ??_R3?$padded_base@Vcontrol_storage@internal@tbb@@$0IA@$0CA@@internal@tbb@@8 0000000180071160     tbb_main.obj
 0002:0001e178       ??_R2?$padded_base@Vcontrol_storage@internal@tbb@@$0IA@$0CA@@internal@tbb@@8 0000000180071178     tbb_main.obj
 0002:0001e190       ??_R4?$padded@Vcontrol_storage@internal@tbb@@$0IA@@internal@tbb@@6B@ 0000000180071190     tbb_main.obj
 0002:0001e1b8       ??_R4?$padded_base@Vcontrol_storage@internal@tbb@@$0IA@$0CA@@internal@tbb@@6B@ 00000001800711b8     tbb_main.obj
 0002:0001e1e0       ??_R4stack_size_control@internal@tbb@@6B@ 00000001800711e0     tbb_main.obj
 0002:0001e208       ??_R3stack_size_control@internal@tbb@@8 0000000180071208     tbb_main.obj
 0002:0001e220       ??_R2stack_size_control@internal@tbb@@8 0000000180071220     tbb_main.obj
 0002:0001e248       ??_R1A@?0A@EA@stack_size_control@internal@tbb@@8 0000000180071248     tbb_main.obj
 0002:0001e270       ??_R4concurrent_queue_base@internal@tbb@@6B@ 0000000180071270     concurrent_queue_v2.obj
 0002:0001e298       ??_R3concurrent_queue_base@internal@tbb@@8 0000000180071298     concurrent_queue_v2.obj
 0002:0001e2b0       ??_R2concurrent_queue_base@internal@tbb@@8 00000001800712b0     concurrent_queue_v2.obj
 0002:0001e2d0       ??_R1A@?0A@EA@concurrent_queue_base@internal@tbb@@8 00000001800712d0     concurrent_queue_v2.obj
 0002:0001e2f8       ??_R4type_info@@6B@        00000001800712f8     MSVCRTD:std_type_info_static.obj
 0002:0001e320       ??_R3type_info@@8          0000000180071320     MSVCRTD:std_type_info_static.obj
 0002:0001e338       ??_R2type_info@@8          0000000180071338     MSVCRTD:std_type_info_static.obj
 0002:0001e348       ??_R1A@?0A@EA@type_info@@8 0000000180071348     MSVCRTD:std_type_info_static.obj
 0002:0001e370       ??_R4bad_array_new_length@std@@6B@ 0000000180071370     MSVCRTD:throw_bad_alloc.obj
 0002:0001e398       ??_R3bad_array_new_length@std@@8 0000000180071398     MSVCRTD:throw_bad_alloc.obj
 0002:0001e3b0       ??_R2bad_array_new_length@std@@8 00000001800713b0     MSVCRTD:throw_bad_alloc.obj
 0002:0001e3d0       ??_R1A@?0A@EA@bad_array_new_length@std@@8 00000001800713d0     MSVCRTD:throw_bad_alloc.obj
 0002:0001e728       __rtc_iaa                  0000000180071728     MSVCRTD:_initsect_.obj
 0002:0001e848       __rtc_izz                  0000000180071848     MSVCRTD:_initsect_.obj
 0002:0001e850       __rtc_taa                  0000000180071850     MSVCRTD:_initsect_.obj
 0002:0001e970       __rtc_tzz                  0000000180071970     MSVCRTD:_initsect_.obj
 0002:000257d8       _TI2?AVruntime_error@std@@ 00000001800787d8     tbb_misc.obj
 0002:000257f8       _CTA2?AVruntime_error@std@@ 00000001800787f8     tbb_misc.obj
 0002:00025810       _CT??_R0?AVruntime_error@std@@@8??0runtime_error@std@@QEAA@AEBV01@@Z24 0000000180078810     tbb_misc.obj
 0002:00025838       _CT??_R0?AVexception@std@@@8??0exception@std@@QEAA@AEBV01@@Z24 0000000180078838     tbb_misc.obj
 0002:00025860       _TI2?AVbad_alloc@std@@     0000000180078860     tbb_misc.obj
 0002:00025880       _CTA2?AVbad_alloc@std@@    0000000180078880     tbb_misc.obj
 0002:00025898       _CT??_R0?AVbad_alloc@std@@@8??0bad_alloc@std@@QEAA@AEBV01@@Z24 0000000180078898     tbb_misc.obj
 0002:000258c0       _TI3?AVbad_last_alloc@tbb@@ 00000001800788c0     tbb_misc.obj
 0002:000258e0       _CTA3?AVbad_last_alloc@tbb@@ 00000001800788e0     tbb_misc.obj
 0002:00025900       _CT??_R0?AVbad_last_alloc@tbb@@@8??0bad_last_alloc@tbb@@QEAA@AEBV01@@Z24 0000000180078900     tbb_misc.obj
 0002:00025928       _TI3?AVinvalid_argument@std@@ 0000000180078928     tbb_misc.obj
 0002:00025948       _CTA3?AVinvalid_argument@std@@ 0000000180078948     tbb_misc.obj
 0002:00025968       _CT??_R0?AVinvalid_argument@std@@@8??0invalid_argument@std@@QEAA@AEBV01@@Z24 0000000180078968     tbb_misc.obj
 0002:00025990       _CT??_R0?AVlogic_error@std@@@8??0logic_error@std@@QEAA@AEBV01@@Z24 0000000180078990     tbb_misc.obj
 0002:000259b8       _TI3?AVout_of_range@std@@  00000001800789b8     tbb_misc.obj
 0002:000259d8       _CTA3?AVout_of_range@std@@ 00000001800789d8     tbb_misc.obj
 0002:000259f8       _CT??_R0?AVout_of_range@std@@@8??0out_of_range@std@@QEAA@AEBV01@@Z24 00000001800789f8     tbb_misc.obj
 0002:00025a20       _TI3?AVrange_error@std@@   0000000180078a20     tbb_misc.obj
 0002:00025a40       _CTA3?AVrange_error@std@@  0000000180078a40     tbb_misc.obj
 0002:00025a60       _CT??_R0?AVrange_error@std@@@8??0range_error@std@@QEAA@AEBV01@@Z24 0000000180078a60     tbb_misc.obj
 0002:00025a88       _TI2?AVmissing_wait@tbb@@  0000000180078a88     tbb_misc.obj
 0002:00025aa8       _CTA2?AVmissing_wait@tbb@@ 0000000180078aa8     tbb_misc.obj
 0002:00025ac0       _CT??_R0?AVmissing_wait@tbb@@@8??0missing_wait@tbb@@QEAA@AEBV01@@Z24 0000000180078ac0     tbb_misc.obj
 0002:00025ae8       _TI2?AVinvalid_multiple_scheduling@tbb@@ 0000000180078ae8     tbb_misc.obj
 0002:00025b08       _CTA2?AVinvalid_multiple_scheduling@tbb@@ 0000000180078b08     tbb_misc.obj
 0002:00025b20       _CT??_R0?AVinvalid_multiple_scheduling@tbb@@@8??0invalid_multiple_scheduling@tbb@@QEAA@AEBV01@@Z24 0000000180078b20     tbb_misc.obj
 0002:00025b48       _TI2?AVimproper_lock@tbb@@ 0000000180078b48     tbb_misc.obj
 0002:00025b68       _CTA2?AVimproper_lock@tbb@@ 0000000180078b68     tbb_misc.obj
 0002:00025b80       _CT??_R0?AVimproper_lock@tbb@@@8??0improper_lock@tbb@@QEAA@AEBV01@@Z24 0000000180078b80     tbb_misc.obj
 0002:00025ba8       _TI3?AVlength_error@std@@  0000000180078ba8     tbb_misc.obj
 0002:00025bc8       _CTA3?AVlength_error@std@@ 0000000180078bc8     tbb_misc.obj
 0002:00025be8       _CT??_R0?AVlength_error@std@@@8??0length_error@std@@QEAA@AEBV01@@Z24 0000000180078be8     tbb_misc.obj
 0002:00025c10       _TI2?AVuser_abort@tbb@@    0000000180078c10     tbb_misc.obj
 0002:00025c30       _CTA2?AVuser_abort@tbb@@   0000000180078c30     tbb_misc.obj
 0002:00025c48       _CT??_R0?AVuser_abort@tbb@@@8??0user_abort@tbb@@QEAA@AEBV01@@Z24 0000000180078c48     tbb_misc.obj
 0002:00025c70       _TI3?AVcaptured_exception@tbb@@ 0000000180078c70     task_group_context.obj
 0002:00025c90       _CTA3?AVcaptured_exception@tbb@@ 0000000180078c90     task_group_context.obj
 0002:00025cb0       _CT??_R0?AVcaptured_exception@tbb@@@8??0captured_exception@tbb@@QEAA@AEBV01@@Z48 0000000180078cb0     task_group_context.obj
 0002:00025cd8       _CT??_R0?AVtbb_exception@tbb@@@8??0tbb_exception@tbb@@QEAA@AEBV01@@Z24 0000000180078cd8     task_group_context.obj
 0002:00025d00       _TI3?AVbad_array_new_length@std@@ 0000000180078d00     MSVCRTD:throw_bad_alloc.obj
 0002:00025d20       _CTA3?AVbad_array_new_length@std@@ 0000000180078d20     MSVCRTD:throw_bad_alloc.obj
 0002:00025d40       _CT??_R0?AVbad_array_new_length@std@@@8??0bad_array_new_length@std@@QEAA@AEBV01@@Z24 0000000180078d40     MSVCRTD:throw_bad_alloc.obj
 0002:00029c40       __IMPORT_DESCRIPTOR_KERNEL32 000000018007cc40     kernel32:KERNEL32.dll
 0002:00029c54       __IMPORT_DESCRIPTOR_MSVCP140D 000000018007cc54     msvcprtd:MSVCP140D.dll
 0002:00029c68       __IMPORT_DESCRIPTOR_VCRUNTIME140D 000000018007cc68     vcruntimed:VCRUNTIME140D.dll
 0002:00029c7c       __IMPORT_DESCRIPTOR_ucrtbased 000000018007cc7c     ucrtd:ucrtbased.dll
 0002:00029c90       __NULL_IMPORT_DESCRIPTOR   000000018007cc90     kernel32:KERNEL32.dll
 0003:00000010       ?SyncType_GlobalLock@tbb@@3PEB_WEB 000000018007e010     itt_notify.obj
 0003:00000018       ?SyncType_Scheduler@tbb@@3PEB_WEB 000000018007e018     itt_notify.obj
 0003:00000020       ?SyncObj_SchedulerInitialization@tbb@@3PEB_WEB 000000018007e020     itt_notify.obj
 0003:00000028       ?SyncObj_SchedulersList@tbb@@3PEB_WEB 000000018007e028     itt_notify.obj
 0003:00000030       ?SyncObj_WorkerLifeCycleMgmt@tbb@@3PEB_WEB 000000018007e030     itt_notify.obj
 0003:00000038       ?SyncObj_TaskStealingLoop@tbb@@3PEB_WEB 000000018007e038     itt_notify.obj
 0003:00000040       ?SyncObj_WorkerTaskPool@tbb@@3PEB_WEB 000000018007e040     itt_notify.obj
 0003:00000048       ?SyncObj_MasterTaskPool@tbb@@3PEB_WEB 000000018007e048     itt_notify.obj
 0003:00000050       ?SyncObj_TaskPoolSpinning@tbb@@3PEB_WEB 000000018007e050     itt_notify.obj
 0003:00000058       ?SyncObj_Mailbox@tbb@@3PEB_WEB 000000018007e058     itt_notify.obj
 0003:00000060       ?SyncObj_TaskReturnList@tbb@@3PEB_WEB 000000018007e060     itt_notify.obj
 0003:00000068       ?SyncObj_TaskStream@tbb@@3PEB_WEB 000000018007e068     itt_notify.obj
 0003:00000070       ?SyncObj_ContextsList@tbb@@3PEB_WEB 000000018007e070     itt_notify.obj
 0003:00000078       __itt_detach_ptr__3_0      000000018007e078     itt_notify.obj
 0003:00000080       __itt_sync_createA_ptr__3_0 000000018007e080     itt_notify.obj
 0003:00000088       __itt_sync_createW_ptr__3_0 000000018007e088     itt_notify.obj
 0003:00000090       __itt_sync_renameA_ptr__3_0 000000018007e090     itt_notify.obj
 0003:00000098       __itt_sync_renameW_ptr__3_0 000000018007e098     itt_notify.obj
 0003:000000a0       __itt_sync_destroy_ptr__3_0 000000018007e0a0     itt_notify.obj
 0003:000000a8       __itt_sync_prepare_ptr__3_0 000000018007e0a8     itt_notify.obj
 0003:000000b0       __itt_sync_cancel_ptr__3_0 000000018007e0b0     itt_notify.obj
 0003:000000b8       __itt_sync_acquired_ptr__3_0 000000018007e0b8     itt_notify.obj
 0003:000000c0       __itt_sync_releasing_ptr__3_0 000000018007e0c0     itt_notify.obj
 0003:000000c8       __itt_suppress_push_ptr__3_0 000000018007e0c8     itt_notify.obj
 0003:000000d0       __itt_suppress_pop_ptr__3_0 000000018007e0d0     itt_notify.obj
 0003:000000d8       __itt_suppress_mark_range_ptr__3_0 000000018007e0d8     itt_notify.obj
 0003:000000e0       __itt_suppress_clear_range_ptr__3_0 000000018007e0e0     itt_notify.obj
 0003:000000e8       __itt_fsync_prepare_ptr__3_0 000000018007e0e8     itt_notify.obj
 0003:000000f0       __itt_fsync_cancel_ptr__3_0 000000018007e0f0     itt_notify.obj
 0003:000000f8       __itt_fsync_acquired_ptr__3_0 000000018007e0f8     itt_notify.obj
 0003:00000100       __itt_fsync_releasing_ptr__3_0 000000018007e100     itt_notify.obj
 0003:00000108       __itt_model_site_begin_ptr__3_0 000000018007e108     itt_notify.obj
 0003:00000110       __itt_model_site_end_ptr__3_0 000000018007e110     itt_notify.obj
 0003:00000118       __itt_model_task_begin_ptr__3_0 000000018007e118     itt_notify.obj
 0003:00000120       __itt_model_task_end_ptr__3_0 000000018007e120     itt_notify.obj
 0003:00000128       __itt_model_lock_acquire_ptr__3_0 000000018007e128     itt_notify.obj
 0003:00000130       __itt_model_lock_release_ptr__3_0 000000018007e130     itt_notify.obj
 0003:00000138       __itt_model_record_allocation_ptr__3_0 000000018007e138     itt_notify.obj
 0003:00000140       __itt_model_record_deallocation_ptr__3_0 000000018007e140     itt_notify.obj
 0003:00000148       __itt_model_induction_uses_ptr__3_0 000000018007e148     itt_notify.obj
 0003:00000150       __itt_model_reduction_uses_ptr__3_0 000000018007e150     itt_notify.obj
 0003:00000158       __itt_model_observe_uses_ptr__3_0 000000018007e158     itt_notify.obj
 0003:00000160       __itt_model_clear_uses_ptr__3_0 000000018007e160     itt_notify.obj
 0003:00000168       __itt_model_site_beginW_ptr__3_0 000000018007e168     itt_notify.obj
 0003:00000170       __itt_model_task_beginW_ptr__3_0 000000018007e170     itt_notify.obj
 0003:00000178       __itt_model_iteration_taskW_ptr__3_0 000000018007e178     itt_notify.obj
 0003:00000180       __itt_model_site_beginA_ptr__3_0 000000018007e180     itt_notify.obj
 0003:00000188       __itt_model_site_beginAL_ptr__3_0 000000018007e188     itt_notify.obj
 0003:00000190       __itt_model_task_beginA_ptr__3_0 000000018007e190     itt_notify.obj
 0003:00000198       __itt_model_task_beginAL_ptr__3_0 000000018007e198     itt_notify.obj
 0003:000001a0       __itt_model_iteration_taskA_ptr__3_0 000000018007e1a0     itt_notify.obj
 0003:000001a8       __itt_model_iteration_taskAL_ptr__3_0 000000018007e1a8     itt_notify.obj
 0003:000001b0       __itt_model_site_end_2_ptr__3_0 000000018007e1b0     itt_notify.obj
 0003:000001b8       __itt_model_task_end_2_ptr__3_0 000000018007e1b8     itt_notify.obj
 0003:000001c0       __itt_model_lock_acquire_2_ptr__3_0 000000018007e1c0     itt_notify.obj
 0003:000001c8       __itt_model_lock_release_2_ptr__3_0 000000018007e1c8     itt_notify.obj
 0003:000001d0       __itt_model_aggregate_task_ptr__3_0 000000018007e1d0     itt_notify.obj
 0003:000001d8       __itt_model_disable_push_ptr__3_0 000000018007e1d8     itt_notify.obj
 0003:000001e0       __itt_model_disable_pop_ptr__3_0 000000018007e1e0     itt_notify.obj
 0003:000001e8       __itt_heap_function_createA_ptr__3_0 000000018007e1e8     itt_notify.obj
 0003:000001f0       __itt_heap_function_createW_ptr__3_0 000000018007e1f0     itt_notify.obj
 0003:000001f8       __itt_heap_allocate_begin_ptr__3_0 000000018007e1f8     itt_notify.obj
 0003:00000200       __itt_heap_allocate_end_ptr__3_0 000000018007e200     itt_notify.obj
 0003:00000208       __itt_heap_free_begin_ptr__3_0 000000018007e208     itt_notify.obj
 0003:00000210       __itt_heap_free_end_ptr__3_0 000000018007e210     itt_notify.obj
 0003:00000218       __itt_heap_reallocate_begin_ptr__3_0 000000018007e218     itt_notify.obj
 0003:00000220       __itt_heap_reallocate_end_ptr__3_0 000000018007e220     itt_notify.obj
 0003:00000228       __itt_heap_internal_access_begin_ptr__3_0 000000018007e228     itt_notify.obj
 0003:00000230       __itt_heap_internal_access_end_ptr__3_0 000000018007e230     itt_notify.obj
 0003:00000238       __itt_heap_record_memory_growth_begin_ptr__3_0 000000018007e238     itt_notify.obj
 0003:00000240       __itt_heap_record_memory_growth_end_ptr__3_0 000000018007e240     itt_notify.obj
 0003:00000248       __itt_heap_reset_detection_ptr__3_0 000000018007e248     itt_notify.obj
 0003:00000250       __itt_heap_record_ptr__3_0 000000018007e250     itt_notify.obj
 0003:00000258       __itt_id_create_ptr__3_0   000000018007e258     itt_notify.obj
 0003:00000260       __itt_id_destroy_ptr__3_0  000000018007e260     itt_notify.obj
 0003:00000268       __itt_get_timestamp_ptr__3_0 000000018007e268     itt_notify.obj
 0003:00000270       __itt_region_begin_ptr__3_0 000000018007e270     itt_notify.obj
 0003:00000278       __itt_region_end_ptr__3_0  000000018007e278     itt_notify.obj
 0003:00000280       __itt_frame_begin_v3_ptr__3_0 000000018007e280     itt_notify.obj
 0003:00000288       __itt_frame_end_v3_ptr__3_0 000000018007e288     itt_notify.obj
 0003:00000290       __itt_frame_submit_v3_ptr__3_0 000000018007e290     itt_notify.obj
 0003:00000298       __itt_task_group_ptr__3_0  000000018007e298     itt_notify.obj
 0003:000002a0       __itt_task_begin_ptr__3_0  000000018007e2a0     itt_notify.obj
 0003:000002a8       __itt_task_begin_fn_ptr__3_0 000000018007e2a8     itt_notify.obj
 0003:000002b0       __itt_task_end_ptr__3_0    000000018007e2b0     itt_notify.obj
 0003:000002b8       __itt_counter_inc_v3_ptr__3_0 000000018007e2b8     itt_notify.obj
 0003:000002c0       __itt_counter_inc_delta_v3_ptr__3_0 000000018007e2c0     itt_notify.obj
 0003:000002c8       __itt_marker_ptr__3_0      000000018007e2c8     itt_notify.obj
 0003:000002d0       __itt_metadata_add_ptr__3_0 000000018007e2d0     itt_notify.obj
 0003:000002d8       __itt_metadata_str_addA_ptr__3_0 000000018007e2d8     itt_notify.obj
 0003:000002e0       __itt_metadata_str_addW_ptr__3_0 000000018007e2e0     itt_notify.obj
 0003:000002e8       __itt_relation_add_to_current_ptr__3_0 000000018007e2e8     itt_notify.obj
 0003:000002f0       __itt_relation_add_ptr__3_0 000000018007e2f0     itt_notify.obj
 0003:000002f8       __itt_event_createA_ptr__3_0 000000018007e2f8     itt_notify.obj
 0003:00000300       __itt_event_createW_ptr__3_0 000000018007e300     itt_notify.obj
 0003:00000308       __itt_event_start_ptr__3_0 000000018007e308     itt_notify.obj
 0003:00000310       __itt_event_end_ptr__3_0   000000018007e310     itt_notify.obj
 0003:00000318       __itt_sync_set_nameA_ptr__3_0 000000018007e318     itt_notify.obj
 0003:00000320       __itt_sync_set_nameW_ptr__3_0 000000018007e320     itt_notify.obj
 0003:00000328       __itt_notify_sync_nameA_ptr__3_0 000000018007e328     itt_notify.obj
 0003:00000330       __itt_notify_sync_nameW_ptr__3_0 000000018007e330     itt_notify.obj
 0003:00000338       __itt_notify_sync_prepare_ptr__3_0 000000018007e338     itt_notify.obj
 0003:00000340       __itt_notify_sync_cancel_ptr__3_0 000000018007e340     itt_notify.obj
 0003:00000348       __itt_notify_sync_acquired_ptr__3_0 000000018007e348     itt_notify.obj
 0003:00000350       __itt_notify_sync_releasing_ptr__3_0 000000018007e350     itt_notify.obj
 0003:00000358       __itt_memory_read_ptr__3_0 000000018007e358     itt_notify.obj
 0003:00000360       __itt_memory_write_ptr__3_0 000000018007e360     itt_notify.obj
 0003:00000368       __itt_memory_update_ptr__3_0 000000018007e368     itt_notify.obj
 0003:00000370       __itt_state_get_ptr__3_0   000000018007e370     itt_notify.obj
 0003:00000378       __itt_state_set_ptr__3_0   000000018007e378     itt_notify.obj
 0003:00000380       __itt_obj_mode_set_ptr__3_0 000000018007e380     itt_notify.obj
 0003:00000388       __itt_thr_mode_set_ptr__3_0 000000018007e388     itt_notify.obj
 0003:00000390       __itt_frame_createA_ptr__3_0 000000018007e390     itt_notify.obj
 0003:00000398       __itt_frame_createW_ptr__3_0 000000018007e398     itt_notify.obj
 0003:000003a0       __itt_frame_begin_ptr__3_0 000000018007e3a0     itt_notify.obj
 0003:000003a8       __itt_frame_end_ptr__3_0   000000018007e3a8     itt_notify.obj
 0003:000003b0       __itt_counter_createA_ptr__3_0 000000018007e3b0     itt_notify.obj
 0003:000003b8       __itt_counter_createW_ptr__3_0 000000018007e3b8     itt_notify.obj
 0003:000003c0       __itt_counter_destroy_ptr__3_0 000000018007e3c0     itt_notify.obj
 0003:000003c8       __itt_counter_inc_ptr__3_0 000000018007e3c8     itt_notify.obj
 0003:000003d0       __itt_counter_inc_delta_ptr__3_0 000000018007e3d0     itt_notify.obj
 0003:000003d8       __itt_mark_createA_ptr__3_0 000000018007e3d8     itt_notify.obj
 0003:000003e0       __itt_mark_createW_ptr__3_0 000000018007e3e0     itt_notify.obj
 0003:000003e8       __itt_markA_ptr__3_0       000000018007e3e8     itt_notify.obj
 0003:000003f0       __itt_markW_ptr__3_0       000000018007e3f0     itt_notify.obj
 0003:000003f8       __itt_mark_off_ptr__3_0    000000018007e3f8     itt_notify.obj
 0003:00000400       __itt_mark_globalA_ptr__3_0 000000018007e400     itt_notify.obj
 0003:00000408       __itt_mark_globalW_ptr__3_0 000000018007e408     itt_notify.obj
 0003:00000410       __itt_mark_global_off_ptr__3_0 000000018007e410     itt_notify.obj
 0003:00000418       __itt_stack_caller_create_ptr__3_0 000000018007e418     itt_notify.obj
 0003:00000420       __itt_stack_caller_destroy_ptr__3_0 000000018007e420     itt_notify.obj
 0003:00000428       __itt_stack_callee_enter_ptr__3_0 000000018007e428     itt_notify.obj
 0003:00000430       __itt_stack_callee_leave_ptr__3_0 000000018007e430     itt_notify.obj
 0003:00000438       __itt_clock_domain_create_ptr__3_0 000000018007e438     itt_notify.obj
 0003:00000440       __itt_clock_domain_reset_ptr__3_0 000000018007e440     itt_notify.obj
 0003:00000448       __itt_id_create_ex_ptr__3_0 000000018007e448     itt_notify.obj
 0003:00000450       __itt_id_destroy_ex_ptr__3_0 000000018007e450     itt_notify.obj
 0003:00000458       __itt_task_begin_ex_ptr__3_0 000000018007e458     itt_notify.obj
 0003:00000460       __itt_task_begin_fn_ex_ptr__3_0 000000018007e460     itt_notify.obj
 0003:00000468       __itt_task_end_ex_ptr__3_0 000000018007e468     itt_notify.obj
 0003:00000470       __itt_task_begin_overlapped_ptr__3_0 000000018007e470     itt_notify.obj
 0003:00000478       __itt_task_begin_overlapped_ex_ptr__3_0 000000018007e478     itt_notify.obj
 0003:00000480       __itt_task_end_overlapped_ptr__3_0 000000018007e480     itt_notify.obj
 0003:00000488       __itt_task_end_overlapped_ex_ptr__3_0 000000018007e488     itt_notify.obj
 0003:00000490       __itt_marker_ex_ptr__3_0   000000018007e490     itt_notify.obj
 0003:00000498       __itt_metadata_add_with_scope_ptr__3_0 000000018007e498     itt_notify.obj
 0003:000004a0       __itt_metadata_str_add_with_scopeA_ptr__3_0 000000018007e4a0     itt_notify.obj
 0003:000004a8       __itt_metadata_str_add_with_scopeW_ptr__3_0 000000018007e4a8     itt_notify.obj
 0003:000004b0       __itt_relation_add_to_current_ex_ptr__3_0 000000018007e4b0     itt_notify.obj
 0003:000004b8       __itt_relation_add_ex_ptr__3_0 000000018007e4b8     itt_notify.obj
 0003:000004c0       __itt_track_group_create_ptr__3_0 000000018007e4c0     itt_notify.obj
 0003:000004c8       __itt_track_create_ptr__3_0 000000018007e4c8     itt_notify.obj
 0003:000004d0       __itt_set_track_ptr__3_0   000000018007e4d0     itt_notify.obj
 0003:000004d8       __itt_api_version_ptr__3_0 000000018007e4d8     itt_notify.obj
 0003:000004e0       __itt_av_saveA_ptr__3_0    000000018007e4e0     itt_notify.obj
 0003:000004e8       __itt_av_saveW_ptr__3_0    000000018007e4e8     itt_notify.obj
 0003:000004f0       __itt_domain_createA_ptr__3_0 000000018007e4f0     itt_notify.obj
 0003:000004f8       __itt_domain_createW_ptr__3_0 000000018007e4f8     itt_notify.obj
 0003:00000500       __itt_string_handle_createA_ptr__3_0 000000018007e500     itt_notify.obj
 0003:00000508       __itt_string_handle_createW_ptr__3_0 000000018007e508     itt_notify.obj
 0003:00000510       __itt_pause_ptr__3_0       000000018007e510     itt_notify.obj
 0003:00000518       __itt_resume_ptr__3_0      000000018007e518     itt_notify.obj
 0003:00000520       __itt_thread_set_nameA_ptr__3_0 000000018007e520     itt_notify.obj
 0003:00000528       __itt_thread_set_nameW_ptr__3_0 000000018007e528     itt_notify.obj
 0003:00000530       __itt_thread_ignore_ptr__3_0 000000018007e530     itt_notify.obj
 0003:00000538       __itt_thr_name_setA_ptr__3_0 000000018007e538     itt_notify.obj
 0003:00000540       __itt_thr_name_setW_ptr__3_0 000000018007e540     itt_notify.obj
 0003:00000548       __itt_thr_ignore_ptr__3_0  000000018007e548     itt_notify.obj
 0003:00000550       __itt_enable_attach_ptr__3_0 000000018007e550     itt_notify.obj
 0003:00001df0       ?__itt__ittapi_global@@3U___itt_global@@A 000000018007fdf0     itt_notify.obj
 0003:00002038       ?NumGroups@ProcessorGroupInfo@internal@tbb@@2HA 0000000180080038     tbb_misc_ex.obj
 0003:00002040       ?msg@?1??assert_context_valid@generic_scheduler@internal@tbb@@SAXPEBVtask_group_context@4@@Z@4PEBDEB 0000000180080040     arena.obj
 0003:00002060       __security_cookie          0000000180080060     MSVCRTD:gs_cookie.obj
 0003:00002068       __security_cookie_complement 0000000180080068     MSVCRTD:gs_cookie.obj
 0003:00002070       _fltused                   0000000180080070     MSVCRTD:fltused.obj
 0003:00002080       __scrt_native_dllmain_reason 0000000180080080     MSVCRTD:utility.obj
 0003:00002088       ?_RTC_ErrorLevels@@3PAHA   0000000180080088     MSVCRTD:_error_.obj
 0003:000020a0       __isa_available            00000001800800a0     MSVCRTD:_cpu_disp_.obj
 0003:000020a4       __isa_enabled              00000001800800a4     MSVCRTD:_cpu_disp_.obj
 0003:000020a8       __memcpy_nt_iters          00000001800800a8     MSVCRTD:_cpu_disp_.obj
 0003:000020b0       __scrt_ucrt_dll_is_in_use  00000001800800b0     MSVCRTD:ucrt_stubs.obj
 0003:000020c0       ??_R0?AVuser_abort@tbb@@@8 00000001800800c0     concurrent_queue.obj
 0003:000020e8       ??_R0?AVconcurrent_queue_base_v3@internal@tbb@@@8 00000001800800e8     concurrent_queue.obj
 0003:00002128       ??_R0?AVno_copy@internal@tbb@@@8 0000000180080128     concurrent_queue.obj
 0003:00002158       ??_R0?AVno_assign@internal@tbb@@@8 0000000180080158     concurrent_queue.obj
 0003:00002188       ??_R0?AVtask@tbb@@@8       0000000180080188     pipeline.obj
 0003:000021a8       ??_R0?AVtask_base@internal@interface5@tbb@@@8 00000001800801a8     pipeline.obj
 0003:000021e0       ??_R0?AVpipeline@tbb@@@8   00000001800801e0     pipeline.obj
 0003:00002208       ??_R0?AVfilter@tbb@@@8     0000000180080208     pipeline.obj
 0003:00002230       ??_R0?AVstage_task@internal@tbb@@@8 0000000180080230     pipeline.obj
 0003:00002260       ??_R0?AUtask_info@internal@tbb@@@8 0000000180080260     pipeline.obj
 0003:00002290       ??_R0?AVpipeline_root_task@internal@tbb@@@8 0000000180080290     pipeline.obj
 0003:000022c8       ??_R0?AVserver@rml@@@8     00000001800802c8     private_server.obj
 0003:000022f0       ??_R0?AVversioned_object@rml@@@8 00000001800802f0     private_server.obj
 0003:00002320       ??_R0?AVtbb_server@rml@internal@tbb@@@8 0000000180080320     private_server.obj
 0003:00002358       ??_R0?AVprivate_server@rml@internal@tbb@@@8 0000000180080358     private_server.obj
 0003:00002390       ??_R0?AVruntime_error@std@@@8 0000000180080390     tbb_misc.obj
 0003:000023b8       ??_R0?AVexception@std@@@8  00000001800803b8     tbb_misc.obj
 0003:000023e0       ??_R0?AVbad_alloc@std@@@8  00000001800803e0     tbb_misc.obj
 0003:00002408       ??_R0?AVbad_last_alloc@tbb@@@8 0000000180080408     tbb_misc.obj
 0003:00002438       ??_R0?AVinvalid_argument@std@@@8 0000000180080438     tbb_misc.obj
 0003:00002468       ??_R0?AVlogic_error@std@@@8 0000000180080468     tbb_misc.obj
 0003:00002490       ??_R0?AVout_of_range@std@@@8 0000000180080490     tbb_misc.obj
 0003:000024b8       ??_R0?AVrange_error@std@@@8 00000001800804b8     tbb_misc.obj
 0003:000024e0       ??_R0?AVmissing_wait@tbb@@@8 00000001800804e0     tbb_misc.obj
 0003:00002508       ??_R0?AVinvalid_multiple_scheduling@tbb@@@8 0000000180080508     tbb_misc.obj
 0003:00002540       ??_R0?AVimproper_lock@tbb@@@8 0000000180080540     tbb_misc.obj
 0003:00002568       ??_R0?AVlength_error@std@@@8 0000000180080568     tbb_misc.obj
 0003:00002590       ??_R0?AVcaptured_exception@tbb@@@8 0000000180080590     task_group_context.obj
 0003:000025c0       ??_R0?AVtbb_exception@tbb@@@8 00000001800805c0     task_group_context.obj
 0003:000025e8       ??_R0?AVmarket@internal@tbb@@@8 00000001800805e8     market.obj
 0003:00002618       ??_R0?AVtbb_client@rml@internal@tbb@@@8 0000000180080618     market.obj
 0003:00002650       ??_R0?AVclient@rml@@@8     0000000180080650     market.obj
 0003:00002678       ??_R0?AVdelegate_base@internal@interface7@tbb@@@8 0000000180080678     arena.obj
 0003:000026c0       ??_R0?AV?$delegated_function@Vspawn_functor@graph@interface10@flow@tbb@@X@internal@interface7@tbb@@@8 00000001800806c0     arena.obj
 0003:00002730       ??_R0?AVempty_task@tbb@@@8 0000000180080730     arena.obj
 0003:00002758       ??_R0?AVdelegated_task@internal@interface7@tbb@@@8 0000000180080758     arena.obj
 0003:00002798       ??_R0?AVwait_task@internal@interface7@tbb@@@8 0000000180080798     arena.obj
 0003:000027d0       ??_R0?AV?$function_task@Vspawn_functor@graph@interface10@flow@tbb@@@internal@tbb@@@8 00000001800807d0     arena.obj
 0003:00002830       ??_R0?AVscheduler@internal@tbb@@@8 0000000180080830     scheduler.obj
 0003:00002860       ??_R0?AVgeneric_scheduler@internal@tbb@@@8 0000000180080860     scheduler.obj
 0003:00002898       ??_R0?AVjob@rml@@@8        0000000180080898     scheduler.obj
 0003:000028b8       ??_R0?AUintrusive_list_node@internal@tbb@@@8 00000001800808b8     scheduler.obj
 0003:000028f0       ??_R0?AUscheduler_state@internal@tbb@@@8 00000001800808f0     scheduler.obj
 0003:00002930       ??_R0?AV?$custom_scheduler@UDefaultSchedulerTraits@internal@tbb@@@internal@tbb@@@8 0000000180080930     scheduler.obj
 0003:00002990       ??_R0?AV?$custom_scheduler@UIntelSchedulerTraits@internal@tbb@@@internal@tbb@@@8 0000000180080990     scheduler.obj
 0003:000029f0       ??_R0?AVcontrol_storage@internal@tbb@@@8 00000001800809f0     tbb_main.obj
 0003:00002a28       ??_R0?AVallowed_parallelism_control@internal@tbb@@@8 0000000180080a28     tbb_main.obj
 0003:00002a70       ??_R0?AU?$padded@Vcontrol_storage@internal@tbb@@$0IA@@internal@tbb@@@8 0000000180080a70     tbb_main.obj
 0003:00002ad0       ??_R0?AU?$padded_base@Vcontrol_storage@internal@tbb@@$0IA@$0CA@@internal@tbb@@@8 0000000180080ad0     tbb_main.obj
 0003:00002b30       ??_R0?AVstack_size_control@internal@tbb@@@8 0000000180080b30     tbb_main.obj
 0003:00002b68       ??_R0?AVconcurrent_queue_base@internal@tbb@@@8 0000000180080b68     concurrent_queue_v2.obj
 0003:00002ba8       ??_R0?AVtype_info@@@8      0000000180080ba8     MSVCRTD:std_type_info_static.obj
 0003:00002bc8       ??_R0?AVbad_array_new_length@std@@@8 0000000180080bc8     MSVCRTD:throw_bad_alloc.obj
 0003:00002c10       ?handles@internal@tbb@@3Uhandles_t@12@A 0000000180080c10     dynamic_link.obj
 0003:00002c58       ?init_dl_data_state@internal@tbb@@3U?$atomic@W4do_once_state@internal@tbb@@@2@A 0000000180080c58     dynamic_link.obj
 0003:00003d78       ?_OptionsStorage@?1??__local_stdio_printf_options@@9@4_KA 0000000180081d78     private_server.obj
 0003:00003d90       ?HoleIndex@ProcessorGroupInfo@internal@tbb@@2HA 0000000180081d90     tbb_misc_ex.obj
 0003:00003da0       ?theProcessorGroups@internal@tbb@@3PAUProcessorGroupInfo@12@A 0000000180081da0     tbb_misc_ex.obj
 0003:000041e0       ?the_context_state_propagation_epoch@internal@tbb@@3_KA 00000001800821e0     scheduler.obj
 0003:000041e8       ?the_context_state_propagation_mutex@internal@tbb@@3Vspin_mutex@2@A 00000001800821e8     scheduler.obj
 0003:000042f0       ?the_global_observer_list@internal@tbb@@3U?$padded@Vobserver_list@internal@tbb@@$0IA@@12@A 00000001800822f0     observer_proxy.obj
 0003:00004378       ?theTLS@governor@internal@tbb@@0V?$basic_tls@_K@23@A 0000000180082378     tbb_main.obj
 0003:0000437c       ?DefaultNumberOfThreads@governor@internal@tbb@@0IA 000000018008237c     tbb_main.obj
 0003:00004380       ?theRMLServerFactory@governor@internal@tbb@@0Vtbb_factory@rml@23@A 0000000180082380     tbb_main.obj
 0003:000043a8       ?UsePrivateRML@governor@internal@tbb@@0_NA 00000001800823a8     tbb_main.obj
 0003:000043a9       ?is_speculation_enabled@governor@internal@tbb@@0_NA 00000001800823a9     tbb_main.obj
 0003:000043aa       ?is_rethrow_broken@governor@internal@tbb@@0_NA 00000001800823aa     tbb_main.obj
 0003:000043ab       ?InitializationDone@__TBB_InitOnce@internal@tbb@@0_NA 00000001800823ab     tbb_main.obj
 0003:000043ac       ?count@__TBB_InitOnce@internal@tbb@@0U?$atomic@H@3@A 00000001800823ac     tbb_main.obj
 0003:000043b0       ?InitializationLock@__TBB_InitOnce@internal@tbb@@0EA 00000001800823b0     tbb_main.obj
 0003:000043b8       ?AllocateSchedulerPtr@internal@tbb@@3P6APEAVgeneric_scheduler@12@AEAVmarket@12@@ZEA 00000001800823b8     tbb_main.obj
 0003:000043c0       ?theMarket@market@internal@tbb@@0PEAV123@EA 00000001800823c0     tbb_main.obj
 0003:000043c8       ?theMarketMutex@market@internal@tbb@@0Vspin_mutex@3@A 00000001800823c8     tbb_main.obj
 0003:00004a50       ?__type_info_root_node@@3U__type_info_node@@A 0000000180082a50     MSVCRTD:tncleanup.obj
 0003:00004a60       __scrt_current_native_startup_state 0000000180082a60     MSVCRTD:utility.obj
 0003:00004a68       __scrt_native_startup_lock 0000000180082a68     MSVCRTD:utility.obj
 0003:00004ab8       __favor                    0000000180082ab8     MSVCRTD:_cpu_disp_.obj
 0003:00004abc       __scrt_debugger_hook_flag  0000000180082abc     MSVCRTD:utility_desktop.obj
 0003:00004ac0       ?_OptionsStorage@?1??__local_stdio_scanf_options@@9@4_KA 0000000180082ac0     MSVCRTD:default_local_stdio_options.obj
 0003:00004ad8       __dyn_tls_init_callback    0000000180082ad8     <common>

 entry point at        0001:0004d5d0

 Static symbols

 0004:fff7d000       $pdata$??$compare_and_swap@$0A@@?$atomic_impl@PEAVtask@tbb@@@internal@tbb@@QEAAPEAVtask@2@PEAV32@0@Z 0000000180000000     scheduler.obj
 0002:fffad000       $unwind$??_Gtask@tbb@@UEAAPEAXI@Z 0000000180000000     arena.obj
 0004:fff7d000       $pdata$?prefix@task@tbb@@QEBAAEAVtask_prefix@internal@2@PEAUversion_tag_v3@42@@Z 0000000180000000     arena.obj
 0002:fffad000       $unwind$??2@YAPEAX_KAEBVallocate_root_with_context_proxy@internal@tbb@@@Z 0000000180000000     arena.obj
 0004:fff7d000       $pdata$??2@YAPEAX_KAEBVallocate_root_with_context_proxy@internal@tbb@@@Z 0000000180000000     arena.obj
 0002:fffad000       $unwind$??3@YAXPEAXAEBVallocate_root_with_context_proxy@internal@tbb@@@Z 0000000180000000     arena.obj
 0004:fff7d000       $pdata$??3@YAXPEAXAEBVallocate_root_with_context_proxy@internal@tbb@@@Z 0000000180000000     arena.obj
 0002:fffad000       $cppxdata$??3@YAXPEAXAEBVallocate_root_with_context_proxy@internal@tbb@@@Z 0000000180000000     arena.obj
 0002:fffad000       $ip2state$??3@YAXPEAXAEBVallocate_root_with_context_proxy@internal@tbb@@@Z 0000000180000000     arena.obj
 0002:fffad000       $unwind$?throw_exception@internal@tbb@@YAXW4exception_id@12@@Z 0000000180000000     arena.obj
 0004:fff7d000       $pdata$?throw_exception@internal@tbb@@YAXW4exception_id@12@@Z 0000000180000000     arena.obj
 0002:fffad000       $unwind$?prefix@task@tbb@@QEBAAEAVtask_prefix@internal@2@PEAUversion_tag_v3@42@@Z 0000000180000000     arena.obj
 0004:fff7d000       $pdata$?state@task@tbb@@QEBA?AW4state_type@12@XZ 0000000180000000     arena.obj
 0002:fffad000       $unwind$??0spin_mutex@tbb@@QEAA@XZ 0000000180000000     arena.obj
 0004:fff7d000       $pdata$??0spin_mutex@tbb@@QEAA@XZ 0000000180000000     arena.obj
 0002:fffad000       $unwind$??0scoped_lock@spin_mutex@tbb@@QEAA@XZ 0000000180000000     arena.obj
 0004:fff7d000       $pdata$??0scoped_lock@spin_mutex@tbb@@QEAA@XZ 0000000180000000     arena.obj
 0002:fffad000       $unwind$??0scoped_lock@spin_mutex@tbb@@QEAA@AEAV12@@Z 0000000180000000     arena.obj
 0004:fff7d000       $pdata$??0scoped_lock@spin_mutex@tbb@@QEAA@AEAV12@@Z 0000000180000000     arena.obj
 0002:fffad000       $unwind$?try_acquire@scoped_lock@spin_mutex@tbb@@QEAA_NAEAV23@@Z 0000000180000000     arena.obj
 0004:fff7d000       $pdata$?try_acquire@scoped_lock@spin_mutex@tbb@@QEAA_NAEAV23@@Z 0000000180000000     arena.obj
 0002:fffad000       $unwind$??1scoped_lock@spin_mutex@tbb@@QEAA@XZ 0000000180000000     arena.obj
 0004:fff7d000       $pdata$??1scoped_lock@spin_mutex@tbb@@QEAA@XZ 0000000180000000     arena.obj
 0002:fffad000       $cppxdata$??1scoped_lock@spin_mutex@tbb@@QEAA@XZ 0000000180000000     arena.obj
 0002:fffad000       $ip2state$??1scoped_lock@spin_mutex@tbb@@QEAA@XZ 0000000180000000     arena.obj
 0002:fffad000       ?lock@spin_mutex@tbb@@QEAAXXZ$rtcName$0 0000000180000000     arena.obj
 0002:fffad000       $unwind$?lock@spin_mutex@tbb@@QEAAXXZ 0000000180000000     arena.obj
 0004:fff7d000       $pdata$?lock@spin_mutex@tbb@@QEAAXXZ 0000000180000000     arena.obj
 0002:fffad000       ?unlock@spin_mutex@tbb@@QEAAXXZ$rtcName$0 0000000180000000     arena.obj
 0002:fffad000       $unwind$?unlock@spin_mutex@tbb@@QEAAXXZ 0000000180000000     arena.obj
 0004:fff7d000       $pdata$?unlock@spin_mutex@tbb@@QEAAXXZ 0000000180000000     arena.obj
 0002:fffad000       $unwind$??$suppress_unused_warning@E@internal@tbb@@YAXAEBE@Z 0000000180000000     arena.obj
 0004:fff7d000       $pdata$??$suppress_unused_warning@E@internal@tbb@@YAXAEBE@Z 0000000180000000     arena.obj
 0002:fffad000       $unwind$?begin@?$aligned_space@Vscoped_lock@spin_mutex@tbb@@$00@tbb@@QEBAPEAVscoped_lock@spin_mutex@2@XZ 0000000180000000     arena.obj
 0004:fff7d000       $pdata$?begin@?$aligned_space@Vscoped_lock@spin_mutex@tbb@@$00@tbb@@QEBAPEAVscoped_lock@spin_mutex@2@XZ 0000000180000000     arena.obj
 0002:fffad000       $unwind$?normalize_priority@internal@tbb@@YA_JW4priority_t@2@@Z 0000000180000000     arena.obj
 0004:fff7d000       $pdata$?normalize_priority@internal@tbb@@YA_JW4priority_t@2@@Z 0000000180000000     arena.obj
 0002:fffad000       $unwind$?assert_priority_valid@internal@tbb@@YAX_J@Z 0000000180000000     arena.obj
 0004:fff7d000       $pdata$?assert_priority_valid@internal@tbb@@YAX_J@Z 0000000180000000     arena.obj
 0002:fffad000       $unwind$?is_alive@internal@tbb@@YA_N_K@Z 0000000180000000     arena.obj
 0004:fff7d000       $pdata$?is_alive@internal@tbb@@YA_N_K@Z 0000000180000000     arena.obj
 0002:fffad000       $unwind$?state@task@tbb@@QEBA?AW4state_type@12@XZ 0000000180000000     arena.obj
 0004:fff7d000       $pdata$?parent@task@tbb@@QEBAPEAV12@XZ 0000000180000000     arena.obj
 0002:fffad000       $unwind$??$poison_pointer@Vtask@tbb@@@internal@tbb@@YAXAEAPEAVtask@1@@Z 0000000180000000     arena.obj
 0004:fff7d000       $pdata$??$poison_pointer@Vtask@tbb@@@internal@tbb@@YAXAEAPEAVtask@1@@Z 0000000180000000     arena.obj
 0002:fffad000       $unwind$?parent@task@tbb@@QEBAPEAV12@XZ 0000000180000000     arena.obj
 0004:fff7d000       $pdata$?allocate_root@task@tbb@@SA?AVallocate_root_with_context_proxy@internal@2@AEAVtask_group_context@2@@Z 0000000180000000     arena.obj
 0002:fffad000       $unwind$?allocate_root@task@tbb@@SA?AVallocate_root_with_context_proxy@internal@2@AEAVtask_group_context@2@@Z 0000000180000000     arena.obj
 0004:fff7d000       $pdata$??1task@tbb@@UEAA@XZ 0000000180000000     arena.obj
 0002:fffad000       $unwind$??1task@tbb@@UEAA@XZ 0000000180000000     arena.obj
 0004:fff7d000       $pdata$??0task@tbb@@IEAA@XZ 0000000180000000     arena.obj
 0002:fffad000       $unwind$??0task@tbb@@IEAA@XZ 0000000180000000     arena.obj
 0004:fff7d000       $pdata$??0task_group_context@tbb@@QEAA@W4kind_type@01@_K@Z 0000000180000000     arena.obj
 0002:fffad000       $unwind$??0task_group_context@tbb@@QEAA@W4kind_type@01@_K@Z 0000000180000000     arena.obj
 0004:fff7d000       $pdata$??0allocate_root_with_context_proxy@internal@tbb@@QEAA@AEAVtask_group_context@2@@Z 0000000180000000     arena.obj
 0002:fffad000       $unwind$??0allocate_root_with_context_proxy@internal@tbb@@QEAA@AEAVtask_group_context@2@@Z 0000000180000000     arena.obj
 0004:fff7d000       $pdata$??0task_base@internal@interface5@tbb@@QEAA@XZ 0000000180000000     arena.obj
 0002:fffad000       $unwind$??0task_base@internal@interface5@tbb@@QEAA@XZ 0000000180000000     arena.obj
 0004:fff7d000       $pdata$?spawn@task_base@internal@interface5@tbb@@SAXAEAVtask@4@@Z 0000000180000000     arena.obj
 0002:fffad000       $unwind$?spawn@task_base@internal@interface5@tbb@@SAXAEAVtask@4@@Z 0000000180000000     arena.obj
 0004:fff7d000       $pdata$??Y?$atomic_impl_with_arithmetic@IID@internal@tbb@@QEAAII@Z 0000000180000000     arena.obj
 0002:fffad000       $unwind$??Y?$atomic_impl_with_arithmetic@IID@internal@tbb@@QEAAII@Z 0000000180000000     arena.obj
 0004:fff7d000       $pdata$?fetch_and_add@?$atomic_impl_with_arithmetic@IID@internal@tbb@@QEAAII@Z 0000000180000000     arena.obj
 0002:fffad000       $unwind$?fetch_and_add@?$atomic_impl_with_arithmetic@IID@internal@tbb@@QEAAII@Z 0000000180000000     arena.obj
 0004:fff7d000       $pdata$?store_with_release@?$atomic_impl@I@internal@tbb@@IEAAII@Z 0000000180000000     arena.obj
 0002:fffad000       $unwind$??0intrusive_list_node@internal@tbb@@QEAA@XZ 0000000180000000     arena.obj
 0004:fff7d000       $pdata$??0intrusive_list_node@internal@tbb@@QEAA@XZ 0000000180000000     arena.obj
 0002:fffad000       $unwind$?store_with_release@?$atomic_impl@I@internal@tbb@@IEAAII@Z 0000000180000000     arena.obj
 0004:fff7d000       $pdata$??B?$atomic_impl@I@internal@tbb@@QEDAIXZ 0000000180000000     arena.obj
 0002:fffad000       $unwind$??B?$atomic_impl@I@internal@tbb@@QEDAIXZ 0000000180000000     arena.obj
 0004:fff7d000       $pdata$?compare_and_swap@?$atomic_impl@I@internal@tbb@@QEAAIII@Z 0000000180000000     arena.obj
 0002:fffad000       $unwind$?compare_and_swap@?$atomic_impl@I@internal@tbb@@QEAAIII@Z 0000000180000000     arena.obj
 0004:fff7d000       $pdata$??4?$atomic@_K@tbb@@QEAA_K_K@Z 0000000180000000     arena.obj
 0002:fffad000       $unwind$?__empty_global_delete@@YAXPEAX@Z 0000000180000000     concurrent_queue.obj
 0004:fff7d000       $pdata$?__empty_global_delete@@YAXPEAX@Z 0000000180000000     concurrent_queue.obj
 0002:fffad000       $unwind$?__empty_global_delete@@YAXPEAX_K@Z 0000000180000000     concurrent_queue.obj
 0004:fff7d000       $pdata$?__empty_global_delete@@YAXPEAX_K@Z 0000000180000000     concurrent_queue.obj
 0002:fffad000       $unwind$??B?$atomic_impl@_K@internal@tbb@@QEDA_KXZ 0000000180000000     concurrent_queue.obj
 0004:fff7d000       $pdata$??B?$atomic_impl@_K@internal@tbb@@QEDA_KXZ 0000000180000000     concurrent_queue.obj
 0002:fffad000       $unwind$??4?$atomic@_K@tbb@@QEAA_K_K@Z 0000000180000000     arena.obj
 0004:fff7d000       $pdata$??E?$atomic_impl_with_arithmetic@_K_KD@internal@tbb@@QEAA_KXZ 0000000180000000     arena.obj
 0002:fffad000       $unwind$??E?$atomic_impl_with_arithmetic@_K_KD@internal@tbb@@QEAA_KXZ 0000000180000000     arena.obj
 0004:fff7d000       $pdata$?fetch_and_add@?$atomic_impl_with_arithmetic@_K_KD@internal@tbb@@QEAA_K_K@Z 0000000180000000     arena.obj
 0002:fffad000       $unwind$?fetch_and_add@?$atomic_impl_with_arithmetic@_K_KD@internal@tbb@@QEAA_K_K@Z 0000000180000000     arena.obj
 0004:fff7d000       $pdata$?store_with_release@?$atomic_impl@_K@internal@tbb@@IEAA_K_K@Z 0000000180000000     arena.obj
 0002:fffad000       $unwind$?store_with_release@?$atomic_impl@_K@internal@tbb@@IEAA_K_K@Z 0000000180000000     arena.obj
 0004:fff7d000       $pdata$??B?$atomic_impl@_K@internal@tbb@@QEDA_KXZ 0000000180000000     arena.obj
 0002:fffad000       $unwind$??B?$atomic_impl@_K@internal@tbb@@QEDA_KXZ 0000000180000000     arena.obj
 0004:fff7d000       $pdata$?compare_and_swap@?$atomic_impl@_K@internal@tbb@@QEAA_K_K0@Z 0000000180000000     arena.obj
 0002:fffad000       $unwind$?deallocate_task@generic_scheduler@internal@tbb@@QEAAXAEAVtask@3@@Z 0000000180000000     arena.obj
 0004:fff7d000       $pdata$?deallocate_task@generic_scheduler@internal@tbb@@QEAAXAEAVtask@3@@Z 0000000180000000     arena.obj
 0002:fffad000       $unwind$?is_worker@generic_scheduler@internal@tbb@@QEBA_NXZ 0000000180000000     arena.obj
 0004:fff7d000       $pdata$?is_worker@generic_scheduler@internal@tbb@@QEBA_NXZ 0000000180000000     arena.obj
 0002:fffad000       $unwind$?outermost_level@generic_scheduler@internal@tbb@@QEBA_NXZ 0000000180000000     arena.obj
 0004:fff7d000       $pdata$?outermost_level@generic_scheduler@internal@tbb@@QEBA_NXZ 0000000180000000     arena.obj
 0002:fffad000       $unwind$?master_outermost_level@generic_scheduler@internal@tbb@@QEBA_NXZ 0000000180000000     arena.obj
 0004:fff7d000       $pdata$?master_outermost_level@generic_scheduler@internal@tbb@@QEBA_NXZ 0000000180000000     arena.obj
 0002:fffad000       $unwind$?compare_and_swap@?$atomic_impl@_K@internal@tbb@@QEAA_K_K0@Z 0000000180000000     arena.obj
 0004:fff7d000       $pdata$??B?$atomic_impl@_J@internal@tbb@@QEDA_JXZ 0000000180000000     arena.obj
 0002:fffad000       $unwind$??B?$atomic_impl@_J@internal@tbb@@QEDA_JXZ 0000000180000000     arena.obj
 0004:fff7d000       $pdata$?store@?$machine_load_store_relaxed@_K$07@internal@tbb@@SAXAEC_K_K@Z 0000000180000000     arena.obj
 0002:fffad000       $unwind$?store@?$machine_load_store_relaxed@_K$07@internal@tbb@@SAXAEC_K_K@Z 0000000180000000     arena.obj
 0004:fff7d000       $pdata$?load@?$machine_load_store_relaxed@_K$07@internal@tbb@@SA_KAED_K@Z 0000000180000000     arena.obj
 0002:fffad000       $unwind$?load@?$machine_load_store_relaxed@_K$07@internal@tbb@@SA_KAED_K@Z 0000000180000000     arena.obj
 0004:fff7d000       $pdata$?__TBB_store_relaxed@internal@tbb@@YAXAEC_K_K@Z 0000000180000000     arena.obj
 0002:fffad000       $unwind$?__TBB_store_relaxed@internal@tbb@@YAXAEC_K_K@Z 0000000180000000     arena.obj
 0004:fff7d000       $pdata$?load_with_acquire@?$machine_load_store@_K$07@internal@tbb@@SA_KAED_K@Z 0000000180000000     arena.obj
 0002:fffad000       $unwind$?load_with_acquire@?$machine_load_store@_K$07@internal@tbb@@SA_KAED_K@Z 0000000180000000     arena.obj
 0004:fff7d000       $pdata$?pause@atomic_backoff@internal@tbb@@QEAAXXZ 0000000180000000     arena.obj
 0002:fffad000       $unwind$?pause@atomic_backoff@internal@tbb@@QEAAXXZ 0000000180000000     arena.obj
 0004:fff7d000       $pdata$??0atomic_backoff@internal@tbb@@QEAA@XZ 0000000180000000     arena.obj
 0002:fffad000       $unwind$??0atomic_backoff@internal@tbb@@QEAA@XZ 0000000180000000     arena.obj
 0004:fff7d000       $pdata$?atomic_fence@tbb@@YAXXZ 0000000180000000     arena.obj
 0002:fffad000       $unwind$?atomic_fence@tbb@@YAXXZ 0000000180000000     arena.obj
 0004:fff7d000       $pdata$?get_env@cpu_ctl_env@internal@tbb@@QEAAXXZ 0000000180000000     arena.obj
 0002:fffad000       $unwind$?get_env@cpu_ctl_env@internal@tbb@@QEAAXXZ 0000000180000000     arena.obj
 0004:fff7d000       $pdata$??2@YAPEAX_KPEAX@Z  0000000180000000     arena.obj
 0002:fffad000       $unwind$??2@YAPEAX_KPEAX@Z 0000000180000000     arena.obj
 0002:fffad000       $ip2state$??0exception_ptr@std@@QEAA@AEBV01@@Z 0000000180000000     arena.obj
 0002:fffad000       $cppxdata$??0exception_ptr@std@@QEAA@AEBV01@@Z 0000000180000000     arena.obj
 0004:fff7d000       $pdata$??0exception_ptr@std@@QEAA@AEBV01@@Z 0000000180000000     arena.obj
 0002:fffad000       $unwind$??0exception_ptr@std@@QEAA@AEBV01@@Z 0000000180000000     arena.obj
 0002:fffad000       $ip2state$??1exception_ptr@std@@QEAA@XZ 0000000180000000     arena.obj
 0002:fffad000       $cppxdata$??1exception_ptr@std@@QEAA@XZ 0000000180000000     arena.obj
 0002:fffad000       $unwind$??$__TBB_load_with_acquire@_J@internal@tbb@@YA_JAED_J@Z 0000000180000000     concurrent_queue.obj
 0004:fff7d000       $pdata$??$__TBB_load_with_acquire@_J@internal@tbb@@YA_JAED_J@Z 0000000180000000     concurrent_queue.obj
 0004:fff7d000       $pdata$??1exception_ptr@std@@QEAA@XZ 0000000180000000     arena.obj
 0002:fffad000       $unwind$??1exception_ptr@std@@QEAA@XZ 0000000180000000     arena.obj
 0004:fff7d000       $pdata$??0mutex_copy_deprecated_and_disabled@internal@tbb@@QEAA@XZ 0000000180000000     arena.obj
 0002:fffad000       $unwind$??0mutex_copy_deprecated_and_disabled@internal@tbb@@QEAA@XZ 0000000180000000     arena.obj
 0004:fff7d000       $pdata$??0no_copy@internal@tbb@@QEAA@XZ 0000000180000000     arena.obj
 0002:fffad000       $unwind$??0no_copy@internal@tbb@@QEAA@XZ 0000000180000000     arena.obj
 0004:fff7d000       $pdata$?__empty_global_delete@@YAXPEAX_K@Z 0000000180000000     arena.obj
 0002:fffad000       $unwind$?__empty_global_delete@@YAXPEAX_K@Z 0000000180000000     arena.obj
 0004:fff7d000       $pdata$?__empty_global_delete@@YAXPEAX@Z 0000000180000000     arena.obj
 0002:fffad000       $unwind$??0?$converter@_K@?$atomic_impl@_K@internal@tbb@@QEAA@XZ 0000000180000000     concurrent_queue.obj
 0004:fff7d000       $pdata$??0?$converter@_K@?$atomic_impl@_K@internal@tbb@@QEAA@XZ 0000000180000000     concurrent_queue.obj
 0002:fffad000       $unwind$??$to_bits_ref@$$CD_K@?$atomic_impl@_K@internal@tbb@@CAAEA_JAED_K@Z 0000000180000000     concurrent_queue.obj
 0004:fff7d000       $pdata$??$to_bits_ref@$$CD_K@?$atomic_impl@_K@internal@tbb@@CAAEA_JAED_K@Z 0000000180000000     concurrent_queue.obj
 0002:fffad000       ??$to_value@_K@?$atomic_impl@_K@internal@tbb@@CA_K_J@Z$rtcName$0 0000000180000000     concurrent_queue.obj
 0002:fffad000       $unwind$?__empty_global_delete@@YAXPEAX@Z 0000000180000000     arena.obj
 0001:fffff000       ?dtor$0@?0???0concurrent_monitor@internal@tbb@@QEAA@XZ@4HA 0000000180000000 f   arena.obj
 0002:fffad000       $unwind$??$to_value@_K@?$atomic_impl@_K@internal@tbb@@CA_K_J@Z 0000000180000000     concurrent_queue.obj
 0004:fff7d000       $pdata$??$to_value@_K@?$atomic_impl@_K@internal@tbb@@CA_K_J@Z 0000000180000000     concurrent_queue.obj
 0004:fff7d000       $pdata$??0?$ptr_converter@PED_K@?$atomic_impl@_K@internal@tbb@@QEAA@PED_K@Z 0000000180000000     market.obj
 0002:fffad000       $unwind$??0?$ptr_converter@PED_K@?$atomic_impl@_K@internal@tbb@@QEAA@PED_K@Z 0000000180000000     market.obj
 0004:fff7d000       $pdata$?fetch_and_add@?$atomic_traits@$03$0A@@internal@tbb@@SAHPECXH@Z 0000000180000000     market.obj
 0002:fffad000       $unwind$?fetch_and_add@?$atomic_traits@$03$0A@@internal@tbb@@SAHPECXH@Z 0000000180000000     market.obj
 0004:fff7d000       $pdata$?compare_and_swap@?$atomic_traits@$03$0A@@internal@tbb@@SAHPECXHH@Z 0000000180000000     market.obj
 0002:fffad000       $unwind$?load_with_acquire@?$machine_load_store@_J$07@internal@tbb@@SA_JAED_J@Z 0000000180000000     concurrent_queue.obj
 0004:fff7d000       $pdata$?load_with_acquire@?$machine_load_store@_J$07@internal@tbb@@SA_JAED_J@Z 0000000180000000     concurrent_queue.obj
 0002:fffad000       $unwind$??0?$ptr_converter@PED_K@?$atomic_impl@_K@internal@tbb@@QEAA@PED_K@Z 0000000180000000     concurrent_queue.obj
 0004:fff7d000       $pdata$??0?$ptr_converter@PED_K@?$atomic_impl@_K@internal@tbb@@QEAA@PED_K@Z 0000000180000000     concurrent_queue.obj
 0002:fffad000       $unwind$??B?$atomic_impl@_N@internal@tbb@@QEDA_NXZ 0000000180000000     arena.obj
 0004:fff7d000       $pdata$??B?$atomic_impl@_N@internal@tbb@@QEDA_NXZ 0000000180000000     arena.obj
 0002:fffad000       $unwind$?store_with_release@?$atomic_impl@_N@internal@tbb@@IEAA_N_N@Z 0000000180000000     arena.obj
 0004:fff7d000       $pdata$?store_with_release@?$atomic_impl@_N@internal@tbb@@IEAA_N_N@Z 0000000180000000     arena.obj
 0002:fffad000       $unwind$??4?$atomic@_N@tbb@@QEAA_N_N@Z 0000000180000000     arena.obj
 0004:fff7d000       $pdata$??4?$atomic@_N@tbb@@QEAA_N_N@Z 0000000180000000     arena.obj
 0002:fffad000       $unwind$?compare_and_swap@?$atomic_traits@$03$0A@@internal@tbb@@SAHPECXHH@Z 0000000180000000     market.obj
 0004:fff7d000       $pdata$??0?$ptr_converter@PEDI@?$atomic_impl@I@internal@tbb@@QEAA@PEDI@Z 0000000180000000     market.obj
 0002:fffad000       $unwind$??0?$ptr_converter@PEDI@?$atomic_impl@I@internal@tbb@@QEAA@PEDI@Z 0000000180000000     market.obj
 0004:fff7d000       $pdata$??0?$ptr_converter@PEDH@?$atomic_impl@H@internal@tbb@@QEAA@PEDH@Z 0000000180000000     market.obj
 0002:fffad000       $unwind$??0?$ptr_converter@PEDH@?$atomic_impl@H@internal@tbb@@QEAA@PEDH@Z 0000000180000000     market.obj
 0004:fff7d000       $pdata$?load_with_acquire@?$machine_load_store@H$03@internal@tbb@@SAHAEDH@Z 0000000180000000     market.obj
 0002:fffad000       $unwind$?load_with_acquire@?$machine_load_store@H$03@internal@tbb@@SAHAEDH@Z 0000000180000000     market.obj
 0004:fff7d000       $pdata$?store_with_release@?$machine_load_store@_J$07@internal@tbb@@SAXAEC_J_J@Z 0000000180000000     market.obj
 0002:fffad000       $unwind$?store_with_release@?$machine_load_store@_J$07@internal@tbb@@SAXAEC_J_J@Z 0000000180000000     market.obj
 0004:fff7d000       $pdata$?load_with_acquire@?$machine_load_store@_J$07@internal@tbb@@SA_JAED_J@Z 0000000180000000     market.obj
 0002:fffad000       $unwind$?load_with_acquire@?$machine_load_store@_J$07@internal@tbb@@SA_JAED_J@Z 0000000180000000     market.obj
 0004:fff7d000       $pdata$??$fetch_and_add@$0A@@?$atomic_impl_with_arithmetic@IID@internal@tbb@@QEAAII@Z 0000000180000000     market.obj
 0002:fffad000       $unwind$??$poison_pointer@Vscheduler@internal@tbb@@@internal@tbb@@YAXAEAPEAVscheduler@01@@Z 0000000180000000     arena.obj
 0004:fff7d000       $pdata$??$poison_pointer@Vscheduler@internal@tbb@@@internal@tbb@@YAXAEAPEAVscheduler@01@@Z 0000000180000000     arena.obj
 0002:fffad000       $unwind$??$fetch_and_add@$0A@@?$atomic_impl_with_arithmetic@IID@internal@tbb@@QEAAII@Z 0000000180000000     market.obj
 0004:fff7d000       $pdata$??$to_value@_K@?$atomic_impl@_K@internal@tbb@@SA_K_J@Z 0000000180000000     market.obj
 0002:fffad000       $unwind$?default_num_threads@governor@internal@tbb@@SAIXZ 0000000180000000     arena.obj
 0004:fff7d000       $pdata$?default_num_threads@governor@internal@tbb@@SAIXZ 0000000180000000     arena.obj
 0002:fffad000       $unwind$?tls_scheduler_of@governor@internal@tbb@@SAPEAVgeneric_scheduler@23@_K@Z 0000000180000000     arena.obj
 0004:fff7d000       $pdata$?tls_scheduler_of@governor@internal@tbb@@SAPEAVgeneric_scheduler@23@_K@Z 0000000180000000     arena.obj
 0002:fffad000       $unwind$?local_scheduler@governor@internal@tbb@@SAPEAVgeneric_scheduler@23@XZ 0000000180000000     arena.obj
 0004:fff7d000       $pdata$?local_scheduler@governor@internal@tbb@@SAPEAVgeneric_scheduler@23@XZ 0000000180000000     arena.obj
 0002:fffad000       $unwind$?local_scheduler_weak@governor@internal@tbb@@SAPEAVgeneric_scheduler@23@XZ 0000000180000000     arena.obj
 0004:fff7d000       $pdata$?local_scheduler_weak@governor@internal@tbb@@SAPEAVgeneric_scheduler@23@XZ 0000000180000000     arena.obj
 0002:fffad000       $unwind$?local_scheduler_if_initialized@governor@internal@tbb@@SAPEAVgeneric_scheduler@23@XZ 0000000180000000     arena.obj
 0004:fff7d000       $pdata$?local_scheduler_if_initialized@governor@internal@tbb@@SAPEAVgeneric_scheduler@23@XZ 0000000180000000     arena.obj
 0002:fffad000       $unwind$??$to_value@_K@?$atomic_impl@_K@internal@tbb@@SA_K_J@Z 0000000180000000     market.obj
 0002:fffad000       $unwind$?get@?$basic_tls@_K@internal@tbb@@QEAA_KXZ 0000000180000000     arena.obj
 0004:fff7d000       $pdata$?get@?$basic_tls@_K@internal@tbb@@QEAA_KXZ 0000000180000000     arena.obj
 0002:fffad000       $unwind$??0binary_semaphore@internal@tbb@@QEAA@XZ 0000000180000000     arena.obj
 0004:fff7d000       $pdata$??0binary_semaphore@internal@tbb@@QEAA@XZ 0000000180000000     arena.obj
 0002:fffad000       $unwind$??1binary_semaphore@internal@tbb@@QEAA@XZ 0000000180000000     arena.obj
 0004:fff7d000       $pdata$??1binary_semaphore@internal@tbb@@QEAA@XZ 0000000180000000     arena.obj
 0002:fffad000       $unwind$?P@binary_semaphore@internal@tbb@@QEAAXXZ 0000000180000000     arena.obj
 0004:fff7d000       $pdata$?P@binary_semaphore@internal@tbb@@QEAAXXZ 0000000180000000     arena.obj
 0002:fffad000       $unwind$?V@binary_semaphore@internal@tbb@@QEAAXXZ 0000000180000000     arena.obj
 0004:fff7d000       $pdata$?V@binary_semaphore@internal@tbb@@QEAAXXZ 0000000180000000     arena.obj
 0002:fffad000       $unwind$??_Gbinary_semaphore@internal@tbb@@QEAAPEAXI@Z 0000000180000000     arena.obj
 0004:fff7d000       $pdata$??_Gbinary_semaphore@internal@tbb@@QEAAPEAXI@Z 0000000180000000     arena.obj
 0002:fffad000       $unwind$??0node_t@circular_doubly_linked_list_with_sentinel@internal@tbb@@QEAA@XZ 0000000180000000     arena.obj
 0004:fff7d000       $pdata$??0node_t@circular_doubly_linked_list_with_sentinel@internal@tbb@@QEAA@XZ 0000000180000000     arena.obj
 0002:fffad000       $unwind$??0circular_doubly_linked_list_with_sentinel@internal@tbb@@QEAA@XZ 0000000180000000     arena.obj
 0004:fff7d000       $pdata$??0circular_doubly_linked_list_with_sentinel@internal@tbb@@QEAA@XZ 0000000180000000     arena.obj
 0002:fffad000       $unwind$??1circular_doubly_linked_list_with_sentinel@internal@tbb@@QEAA@XZ 0000000180000000     arena.obj
 0004:fff7d000       $pdata$??1circular_doubly_linked_list_with_sentinel@internal@tbb@@QEAA@XZ 0000000180000000     arena.obj
 0002:fffad000       $cppxdata$??1circular_doubly_linked_list_with_sentinel@internal@tbb@@QEAA@XZ 0000000180000000     arena.obj
 0002:fffad000       $ip2state$??1circular_doubly_linked_list_with_sentinel@internal@tbb@@QEAA@XZ 0000000180000000     arena.obj
 0002:fffad000       $unwind$?__empty_global_delete@@YAXPEAX@Z 0000000180000000     concurrent_vector.obj
 0004:fff7d000       $pdata$?__empty_global_delete@@YAXPEAX@Z 0000000180000000     concurrent_vector.obj
 0002:fffad000       $unwind$?__empty_global_delete@@YAXPEAX_K@Z 0000000180000000     concurrent_vector.obj
 0004:fff7d000       $pdata$?__empty_global_delete@@YAXPEAX_K@Z 0000000180000000     concurrent_vector.obj
 0002:fffad000       $unwind$??0no_copy@internal@tbb@@QEAA@XZ 0000000180000000     concurrent_vector.obj
 0004:fff7d000       $pdata$??0no_copy@internal@tbb@@QEAA@XZ 0000000180000000     concurrent_vector.obj
 0002:fffad000       $unwind$??2@YAPEAX_KPEAX@Z 0000000180000000     concurrent_vector.obj
 0004:fff7d000       $pdata$??2@YAPEAX_KPEAX@Z  0000000180000000     concurrent_vector.obj
 0002:fffad000       $unwind$?throw_exception@internal@tbb@@YAXW4exception_id@12@@Z 0000000180000000     concurrent_vector.obj
 0004:fff7d000       $pdata$?throw_exception@internal@tbb@@YAXW4exception_id@12@@Z 0000000180000000     concurrent_vector.obj
 0002:fffad000       $unwind$?size@circular_doubly_linked_list_with_sentinel@internal@tbb@@QEBA_KXZ 0000000180000000     arena.obj
 0004:fff7d000       $pdata$?size@circular_doubly_linked_list_with_sentinel@internal@tbb@@QEBA_KXZ 0000000180000000     arena.obj
 0002:fffad000       $unwind$?empty@circular_doubly_linked_list_with_sentinel@internal@tbb@@QEBA_NXZ 0000000180000000     arena.obj
 0002:fffad000       $unwind$??0atomic_backoff@internal@tbb@@QEAA@XZ 0000000180000000     concurrent_vector.obj
 0004:fff7d000       $pdata$??0atomic_backoff@internal@tbb@@QEAA@XZ 0000000180000000     concurrent_vector.obj
 0002:fffad000       $unwind$??0atomic_backoff@internal@tbb@@QEAA@_N@Z 0000000180000000     concurrent_vector.obj
 0004:fff7d000       $pdata$??0atomic_backoff@internal@tbb@@QEAA@_N@Z 0000000180000000     concurrent_vector.obj
 0002:fffad000       $unwind$?pause@atomic_backoff@internal@tbb@@QEAAXXZ 0000000180000000     concurrent_vector.obj
 0004:fff7d000       $pdata$?pause@atomic_backoff@internal@tbb@@QEAAXXZ 0000000180000000     concurrent_vector.obj
 0002:fffad000       $unwind$?compare_and_swap@?$atomic_impl@_K@internal@tbb@@QEAA_K_K0@Z 0000000180000000     concurrent_vector.obj
 0004:fff7d000       $pdata$?compare_and_swap@?$atomic_impl@_K@internal@tbb@@QEAA_K_K0@Z 0000000180000000     concurrent_vector.obj
 0002:fffad000       $unwind$??B?$atomic_impl@_K@internal@tbb@@QEDA_KXZ 0000000180000000     concurrent_vector.obj
 0004:fff7d000       $pdata$??B?$atomic_impl@_K@internal@tbb@@QEDA_KXZ 0000000180000000     concurrent_vector.obj
 0002:fffad000       $unwind$?store_with_release@?$atomic_impl@_K@internal@tbb@@IEAA_K_K@Z 0000000180000000     concurrent_vector.obj
 0004:fff7d000       $pdata$?store_with_release@?$atomic_impl@_K@internal@tbb@@IEAA_K_K@Z 0000000180000000     concurrent_vector.obj
 0002:fffad000       $unwind$?fetch_and_add@?$atomic_impl_with_arithmetic@_K_KD@internal@tbb@@QEAA_K_K@Z 0000000180000000     concurrent_vector.obj
 0004:fff7d000       $pdata$?fetch_and_add@?$atomic_impl_with_arithmetic@_K_KD@internal@tbb@@QEAA_K_K@Z 0000000180000000     concurrent_vector.obj
 0002:fffad000       $unwind$??4?$atomic@_K@tbb@@QEAA_K_K@Z 0000000180000000     concurrent_vector.obj
 0004:fff7d000       $pdata$??4?$atomic@_K@tbb@@QEAA_K_K@Z 0000000180000000     concurrent_vector.obj
 0004:fff7d000       $pdata$?empty@circular_doubly_linked_list_with_sentinel@internal@tbb@@QEBA_NXZ 0000000180000000     arena.obj
 0002:fffad000       $unwind$?front@circular_doubly_linked_list_with_sentinel@internal@tbb@@QEBAPEAUnode_t@123@XZ 0000000180000000     arena.obj
 0004:fff7d000       $pdata$?front@circular_doubly_linked_list_with_sentinel@internal@tbb@@QEBAPEAUnode_t@123@XZ 0000000180000000     arena.obj
 0000:fff72000       .debug$S                   0000000180000000     tbb_debug.exp
 0002:fffad000       $unwind$?last@circular_doubly_linked_list_with_sentinel@internal@tbb@@QEBAPEAUnode_t@123@XZ 0000000180000000     arena.obj
 0000:fff72000       .debug$S                   0000000180000000     kernel32:KERNEL32.dll
 0000:fff72000       .debug$S                   0000000180000000     kernel32:KERNEL32.dll
 0000:fff72000       .debug$S                   0000000180000000     kernel32:KERNEL32.dll
 0000:fff72000       .debug$S                   0000000180000000     kernel32:KERNEL32.dll
 0000:fff72000       .debug$S                   0000000180000000     kernel32:KERNEL32.dll
 0000:fff72000       .debug$S                   0000000180000000     kernel32:KERNEL32.dll
 0000:fff72000       .debug$S                   0000000180000000     kernel32:KERNEL32.dll
 0000:fff72000       .debug$S                   0000000180000000     kernel32:KERNEL32.dll
 0000:fff72000       .debug$S                   0000000180000000     kernel32:KERNEL32.dll
 0000:fff72000       .debug$S                   0000000180000000     kernel32:KERNEL32.dll
 0000:fff72000       .debug$S                   0000000180000000     kernel32:KERNEL32.dll
 0000:fff72000       .debug$S                   0000000180000000     kernel32:KERNEL32.dll
 0000:fff72000       .debug$S                   0000000180000000     kernel32:KERNEL32.dll
 0000:fff72000       .debug$S                   0000000180000000     kernel32:KERNEL32.dll
 0000:fff72000       .debug$S                   0000000180000000     kernel32:KERNEL32.dll
 0000:fff72000       .debug$S                   0000000180000000     kernel32:KERNEL32.dll
 0000:fff72000       .debug$S                   0000000180000000     kernel32:KERNEL32.dll
 0000:fff72000       .debug$S                   0000000180000000     kernel32:KERNEL32.dll
 0000:fff72000       .debug$S                   0000000180000000     kernel32:KERNEL32.dll
 0000:fff72000       .debug$S                   0000000180000000     kernel32:KERNEL32.dll
 0004:fff7d000       $pdata$?last@circular_doubly_linked_list_with_sentinel@internal@tbb@@QEBAPEAUnode_t@123@XZ 0000000180000000     arena.obj
 0000:fff72000       .debug$S                   0000000180000000     ucrtd:ucrtbased.dll
 0000:fff72000       .debug$S                   0000000180000000     ucrtd:ucrtbased.dll
 0000:fff72000       .debug$S                   0000000180000000     ucrtd:ucrtbased.dll
 0000:fff72000       .debug$S                   0000000180000000     ucrtd:ucrtbased.dll
 0000:fff72000       .debug$S                   0000000180000000     ucrtd:ucrtbased.dll
 0000:fff72000       .debug$S                   0000000180000000     ucrtd:ucrtbased.dll
 0000:fff72000       .debug$S                   0000000180000000     ucrtd:ucrtbased.dll
 0000:fff72000       .debug$S                   0000000180000000     ucrtd:ucrtbased.dll
 0000:fff72000       .debug$S                   0000000180000000     ucrtd:ucrtbased.dll
 0000:fff72000       .debug$S                   0000000180000000     ucrtd:ucrtbased.dll
 0000:fff72000       .debug$S                   0000000180000000     ucrtd:ucrtbased.dll
 0000:fff72000       .debug$S                   0000000180000000     ucrtd:ucrtbased.dll
 0000:fff72000       .debug$S                   0000000180000000     ucrtd:ucrtbased.dll
 0000:fff72000       .debug$S                   0000000180000000     ucrtd:ucrtbased.dll
 0000:fff72000       .debug$S                   0000000180000000     ucrtd:ucrtbased.dll
 0000:fff72000       .debug$S                   0000000180000000     ucrtd:ucrtbased.dll
 0000:fff72000       .debug$S                   0000000180000000     ucrtd:ucrtbased.dll
 0000:fff72000       .debug$S                   0000000180000000     ucrtd:ucrtbased.dll
 0000:fff72000       .debug$S                   0000000180000000     ucrtd:ucrtbased.dll
 0000:fff72000       .debug$S                   0000000180000000     ucrtd:ucrtbased.dll
 0000:fff72000       .debug$S                   0000000180000000     ucrtd:ucrtbased.dll
 0000:fff72000       .debug$S                   0000000180000000     ucrtd:ucrtbased.dll
 0000:fff72000       .debug$S                   0000000180000000     ucrtd:ucrtbased.dll
 0000:fff72000       .debug$S                   0000000180000000     ucrtd:ucrtbased.dll
 0000:fff72000       .debug$S                   0000000180000000     ucrtd:ucrtbased.dll
 0000:fff72000       .debug$S                   0000000180000000     ucrtd:ucrtbased.dll
 0000:fff72000       .debug$S                   0000000180000000     ucrtd:ucrtbased.dll
 0000:fff72000       .debug$S                   0000000180000000     ucrtd:ucrtbased.dll
 0000:fff72000       .debug$S                   0000000180000000     ucrtd:ucrtbased.dll
 0000:fff72000       .debug$S                   0000000180000000     ucrtd:ucrtbased.dll
 0000:fff72000       .debug$S                   0000000180000000     ucrtd:ucrtbased.dll
 0000:fff72000       .debug$S                   0000000180000000     ucrtd:ucrtbased.dll
 0000:fff72000       .debug$S                   0000000180000000     ucrtd:ucrtbased.dll
 0000:fff72000       .debug$S                   0000000180000000     ucrtd:ucrtbased.dll
 0000:fff72000       .debug$S                   0000000180000000     ucrtd:ucrtbased.dll
 0000:fff72000       .debug$S                   0000000180000000     ucrtd:ucrtbased.dll
 0000:fff72000       .debug$S                   0000000180000000     ucrtd:ucrtbased.dll
 0000:fff72000       .debug$S                   0000000180000000     ucrtd:ucrtbased.dll
 0000:fff72000       .debug$S                   0000000180000000     ucrtd:ucrtbased.dll
 0000:fff72000       .debug$S                   0000000180000000     ucrtd:ucrtbased.dll
 0000:fff72000       .debug$S                   0000000180000000     ucrtd:ucrtbased.dll
 0002:fffad000       $unwind$?end@circular_doubly_linked_list_with_sentinel@internal@tbb@@QEBAPEBUnode_t@123@XZ 0000000180000000     arena.obj
 0000:fff72000       .debug$S                   0000000180000000     vcruntimed:VCRUNTIME140D.dll
 0000:fff72000       .debug$S                   0000000180000000     vcruntimed:VCRUNTIME140D.dll
 0000:fff72000       .debug$S                   0000000180000000     vcruntimed:VCRUNTIME140D.dll
 0000:fff72000       .debug$S                   0000000180000000     vcruntimed:VCRUNTIME140D.dll
 0000:fff72000       .debug$S                   0000000180000000     vcruntimed:VCRUNTIME140D.dll
 0000:fff72000       .debug$S                   0000000180000000     vcruntimed:VCRUNTIME140D.dll
 0000:fff72000       .debug$S                   0000000180000000     vcruntimed:VCRUNTIME140D.dll
 0000:fff72000       .debug$S                   0000000180000000     vcruntimed:VCRUNTIME140D.dll
 0000:fff72000       .debug$S                   0000000180000000     vcruntimed:VCRUNTIME140D.dll
 0000:fff72000       .debug$S                   0000000180000000     vcruntimed:VCRUNTIME140D.dll
 0000:fff72000       .debug$S                   0000000180000000     vcruntimed:VCRUNTIME140D.dll
 0000:fff72000       .debug$S                   0000000180000000     vcruntimed:VCRUNTIME140D.dll
 0000:fff72000       .debug$S                   0000000180000000     vcruntimed:VCRUNTIME140D.dll
 0000:fff72000       .debug$S                   0000000180000000     vcruntimed:VCRUNTIME140D.dll
 0000:fff72000       .debug$S                   0000000180000000     vcruntimed:VCRUNTIME140D.dll
 0000:fff72000       .debug$S                   0000000180000000     vcruntimed:VCRUNTIME140D.dll
 0000:fff72000       .debug$S                   0000000180000000     vcruntimed:VCRUNTIME140D.dll
 0004:fff7d000       $pdata$?end@circular_doubly_linked_list_with_sentinel@internal@tbb@@QEBAPEBUnode_t@123@XZ 0000000180000000     arena.obj
 0002:fffad000       $unwind$?add@circular_doubly_linked_list_with_sentinel@internal@tbb@@QEAAXPEAUnode_t@123@@Z 0000000180000000     arena.obj
 0004:fff7d000       $pdata$?add@circular_doubly_linked_list_with_sentinel@internal@tbb@@QEAAXPEAUnode_t@123@@Z 0000000180000000     arena.obj
 0002:fffad000       $unwind$?remove@circular_doubly_linked_list_with_sentinel@internal@tbb@@QEAAXAEAUnode_t@123@@Z 0000000180000000     arena.obj
 0004:fff7d000       $pdata$?remove@circular_doubly_linked_list_with_sentinel@internal@tbb@@QEAAXAEAUnode_t@123@@Z 0000000180000000     arena.obj
 0002:fffad000       $unwind$?clear@circular_doubly_linked_list_with_sentinel@internal@tbb@@QEAAXXZ 0000000180000000     arena.obj
 0004:fff7d000       $pdata$?clear@circular_doubly_linked_list_with_sentinel@internal@tbb@@QEAAXXZ 0000000180000000     arena.obj
 0002:fffad000       $unwind$??$__TBB_load_relaxed@_K@internal@tbb@@YA_KAED_K@Z 0000000180000000     arena.obj
 0004:fff7d000       $pdata$??$__TBB_load_relaxed@_K@internal@tbb@@YA_KAED_K@Z 0000000180000000     arena.obj
 0002:fffad000       $unwind$??$__TBB_store_relaxed@_KH@internal@tbb@@YAXAEC_KH@Z 0000000180000000     arena.obj
 0004:fff7d000       $pdata$??$__TBB_store_relaxed@_KH@internal@tbb@@YAXAEC_KH@Z 0000000180000000     arena.obj
 0002:fffad000       $unwind$??0thread_context@concurrent_monitor@internal@tbb@@QEAA@XZ 0000000180000000     arena.obj
 0004:fff7d000       $pdata$??0thread_context@concurrent_monitor@internal@tbb@@QEAA@XZ 0000000180000000     arena.obj
 0002:fffad000       $unwind$??1thread_context@concurrent_monitor@internal@tbb@@QEAA@XZ 0000000180000000     arena.obj
 0004:fff7d000       $pdata$??1thread_context@concurrent_monitor@internal@tbb@@QEAA@XZ 0000000180000000     arena.obj
 0002:fffad000       $cppxdata$??1thread_context@concurrent_monitor@internal@tbb@@QEAA@XZ 0000000180000000     arena.obj
 0002:fffad000       $ip2state$??1thread_context@concurrent_monitor@internal@tbb@@QEAA@XZ 0000000180000000     arena.obj
 0002:fffad000       $unwind$?semaphore@thread_context@concurrent_monitor@internal@tbb@@QEAAAEAVbinary_semaphore@34@XZ 0000000180000000     arena.obj
 0004:fff7d000       $pdata$?semaphore@thread_context@concurrent_monitor@internal@tbb@@QEAAAEAVbinary_semaphore@34@XZ 0000000180000000     arena.obj
 0002:fffad000       $unwind$?begin@?$aligned_space@Vbinary_semaphore@internal@tbb@@$00@tbb@@QEBAPEAVbinary_semaphore@internal@2@XZ 0000000180000000     arena.obj
 0004:fff7d000       $pdata$?begin@?$aligned_space@Vbinary_semaphore@internal@tbb@@$00@tbb@@QEBAPEAVbinary_semaphore@internal@2@XZ 0000000180000000     arena.obj
 0002:fffad000       $unwind$??0concurrent_monitor@internal@tbb@@QEAA@XZ 0000000180000000     arena.obj
 0004:fff7d000       $pdata$??0concurrent_monitor@internal@tbb@@QEAA@XZ 0000000180000000     arena.obj
 0002:fffad000       $cppxdata$??0concurrent_monitor@internal@tbb@@QEAA@XZ 0000000180000000     arena.obj
 0002:fffad000       $stateUnwindMap$??0concurrent_monitor@internal@tbb@@QEAA@XZ 0000000180000000     arena.obj
 0002:fffad000       $ip2state$??0concurrent_monitor@internal@tbb@@QEAA@XZ 0000000180000000     arena.obj
 0002:fffad000       $unwind$?dtor$0@?0???0concurrent_monitor@internal@tbb@@QEAA@XZ@4HA 0000000180000000     arena.obj
 0004:fff7d000       $pdata$?dtor$0@?0???0concurrent_monitor@internal@tbb@@QEAA@XZ@4HA 0000000180000000     arena.obj
 0002:fffad000       $unwind$?commit_wait@concurrent_monitor@internal@tbb@@QEAA_NAEAVthread_context@123@@Z 0000000180000000     arena.obj
 0004:fff7d000       $pdata$?commit_wait@concurrent_monitor@internal@tbb@@QEAA_NAEAVthread_context@123@@Z 0000000180000000     arena.obj
 0002:fffad000       ??$to_value@_K@?$atomic_impl@_K@internal@tbb@@SA_K_J@Z$rtcName$0 0000000180000000     market.obj
 0002:fffad000       $unwind$?to_thread_context@concurrent_monitor@internal@tbb@@AEAAPEAVthread_context@123@PEAUnode_t@circular_doubly_linked_list_with_sentinel@23@@Z 0000000180000000     arena.obj
 0004:fff7d000       $pdata$?to_thread_context@concurrent_monitor@internal@tbb@@AEAAPEAVthread_context@123@PEAUnode_t@circular_doubly_linked_list_with_sentinel@23@@Z 0000000180000000     arena.obj
 0002:fffad000       $unwind$??$__TBB_store_relaxed@IH@internal@tbb@@YAXAECIH@Z 0000000180000000     arena.obj
 0004:fff7d000       $pdata$??$__TBB_store_relaxed@IH@internal@tbb@@YAXAECIH@Z 0000000180000000     arena.obj
 0002:fffad000       $unwind$??$__TBB_load_relaxed@I@internal@tbb@@YAIAEDI@Z 0000000180000000     arena.obj
 0004:fff7d000       $pdata$??$__TBB_load_relaxed@I@internal@tbb@@YAIAEDI@Z 0000000180000000     arena.obj
 0002:fffad000       __guard_fids___scrt_set_unhandled_exception_filter 0000000180000000     MSVCRTD:utility_desktop.obj
 0004:fff7d000       $pdata$??$to_bits_ref@$$CD_K@?$atomic_impl@_K@internal@tbb@@SAAEA_JAED_K@Z 0000000180000000     market.obj
 0002:fffad000       $unwind$??$to_bits_ref@$$CD_K@?$atomic_impl@_K@internal@tbb@@SAAEA_JAED_K@Z 0000000180000000     market.obj
 0004:fff7d000       $pdata$??0?$converter@_K@?$atomic_impl@_K@internal@tbb@@QEAA@XZ 0000000180000000     market.obj
 0002:fffad000       $unwind$??0?$converter@_K@?$atomic_impl@_K@internal@tbb@@QEAA@XZ 0000000180000000     market.obj
 0004:fff7d000       $pdata$??$to_value@I@?$atomic_impl@I@internal@tbb@@SAIH@Z 0000000180000000     market.obj
 0002:fffad000       $unwind$??$to_value@I@?$atomic_impl@I@internal@tbb@@SAIH@Z 0000000180000000     market.obj
 0002:fffad000       ??$to_value@I@?$atomic_impl@I@internal@tbb@@SAIH@Z$rtcName$0 0000000180000000     market.obj
 0004:fff7d000       $pdata$??$to_bits_ref@$$CDI@?$atomic_impl@I@internal@tbb@@SAAEAHAEDI@Z 0000000180000000     market.obj
 0002:fffad000       ??$spin_wait_while_eq@U?$atomic@_K@tbb@@_K@internal@tbb@@YAXAEDU?$atomic@_K@1@_K@Z$rtcName$0 0000000180000000     concurrent_vector.obj
 0002:fffad000       $unwind$??$to_bits_ref@$$CDI@?$atomic_impl@I@internal@tbb@@SAAEAHAEDI@Z 0000000180000000     market.obj
 0002:fffad000       __guard_fids__             0000000180000000     MSVCRTD:throw_bad_alloc.obj
 0002:fffad000       __guard_fids__             0000000180000000     MSVCRTD:throw_bad_alloc.obj
 0002:fffad000       __guard_fids__             0000000180000000     MSVCRTD:throw_bad_alloc.obj
 0004:fff7d000       $pdata$??0?$converter@I@?$atomic_impl@I@internal@tbb@@QEAA@I@Z 0000000180000000     market.obj
 0002:fffad000       $unwind$??$spin_wait_while_eq@U?$atomic@_K@tbb@@_K@internal@tbb@@YAXAEDU?$atomic@_K@1@_K@Z 0000000180000000     concurrent_vector.obj
 0004:fff7d000       $pdata$??$spin_wait_while_eq@U?$atomic@_K@tbb@@_K@internal@tbb@@YAXAEDU?$atomic@_K@1@_K@Z 0000000180000000     concurrent_vector.obj
 0002:fffad000       $unwind$??0?$converter@I@?$atomic_impl@I@internal@tbb@@QEAA@I@Z 0000000180000000     market.obj
 0004:fff7d000       $pdata$??0?$converter@I@?$atomic_impl@I@internal@tbb@@QEAA@XZ 0000000180000000     market.obj
 0002:fffad000       $unwind$??0?$converter@I@?$atomic_impl@I@internal@tbb@@QEAA@XZ 0000000180000000     market.obj
 0002:fffad000       $unwind$??$__TBB_load_with_acquire@_J@internal@tbb@@YA_JAED_J@Z 0000000180000000     concurrent_vector.obj
 0004:fff7d000       $pdata$??$__TBB_load_with_acquire@_J@internal@tbb@@YA_JAED_J@Z 0000000180000000     concurrent_vector.obj
 0004:fff7d000       $pdata$??$__TBB_load_with_acquire@H@internal@tbb@@YAHAEDH@Z 0000000180000000     market.obj
 0002:fffad000       $unwind$??$__TBB_load_with_acquire@H@internal@tbb@@YAHAEDH@Z 0000000180000000     market.obj
 0004:fff7d000       $pdata$??0?$converter@H@?$atomic_impl@H@internal@tbb@@QEAA@XZ 0000000180000000     market.obj
 0002:fffad000       $unwind$??$__TBB_store_with_release@_J_J@internal@tbb@@YAXAEC_J_J@Z 0000000180000000     concurrent_vector.obj
 0004:fff7d000       $pdata$??_Gbad_alloc@std@@UEAAPEAXI@Z 0000000180000000     MSVCRTD:throw_bad_alloc.obj
 0002:fffad000       $unwind$??_Gbad_alloc@std@@UEAAPEAXI@Z 0000000180000000     MSVCRTD:throw_bad_alloc.obj
 0004:fff7d000       $pdata$??0bad_alloc@std@@QEAA@AEBV01@@Z 0000000180000000     MSVCRTD:throw_bad_alloc.obj
 0002:fffad000       $unwind$??0bad_alloc@std@@QEAA@AEBV01@@Z 0000000180000000     MSVCRTD:throw_bad_alloc.obj
 0004:fff7d000       $pdata$??1bad_alloc@std@@UEAA@XZ 0000000180000000     MSVCRTD:throw_bad_alloc.obj
 0002:fffad000       $unwind$??1bad_alloc@std@@UEAA@XZ 0000000180000000     MSVCRTD:throw_bad_alloc.obj
 0004:fff7d000       $pdata$??$__TBB_store_with_release@_J_J@internal@tbb@@YAXAEC_J_J@Z 0000000180000000     concurrent_vector.obj
 0002:fffad000       $unwind$??0?$converter@H@?$atomic_impl@H@internal@tbb@@QEAA@XZ 0000000180000000     market.obj
 0004:fff7d000       $pdata$??0bad_alloc@std@@QEAA@XZ 0000000180000000     MSVCRTD:throw_bad_alloc.obj
 0002:fffad000       $unwind$??0bad_alloc@std@@QEAA@XZ 0000000180000000     MSVCRTD:throw_bad_alloc.obj
 0004:fff7d000       $pdata$??_Gexception@std@@UEAAPEAXI@Z 0000000180000000     MSVCRTD:throw_bad_alloc.obj
 0002:fffad000       $unwind$??_Gexception@std@@UEAAPEAXI@Z 0000000180000000     MSVCRTD:throw_bad_alloc.obj
 0004:fff7d000       $pdata$?what@exception@std@@UEBAPEBDXZ 0000000180000000     MSVCRTD:throw_bad_alloc.obj
 0002:fffad000       $unwind$?what@exception@std@@UEBAPEBDXZ 0000000180000000     MSVCRTD:throw_bad_alloc.obj
 0004:fff7d000       $pdata$??1exception@std@@UEAA@XZ 0000000180000000     MSVCRTD:throw_bad_alloc.obj
 0002:fffad000       $unwind$??1exception@std@@UEAA@XZ 0000000180000000     MSVCRTD:throw_bad_alloc.obj
 0004:fff7d000       $pdata$??0exception@std@@QEAA@AEBV01@@Z 0000000180000000     MSVCRTD:throw_bad_alloc.obj
 0002:fffad000       $unwind$??0exception@std@@QEAA@AEBV01@@Z 0000000180000000     MSVCRTD:throw_bad_alloc.obj
 0004:fff7d000       $pdata$??0exception@std@@QEAA@QEBDH@Z 0000000180000000     MSVCRTD:throw_bad_alloc.obj
 0002:fffad000       $unwind$??0exception@std@@QEAA@QEBDH@Z 0000000180000000     MSVCRTD:throw_bad_alloc.obj
 0004:fff7d000       $pdata$??$__TBB_load_with_acquire@_J@internal@tbb@@YA_JAED_J@Z 0000000180000000     market.obj
 0002:fffad000       $unwind$??$__TBB_load_with_acquire@_J@internal@tbb@@YA_JAED_J@Z 0000000180000000     market.obj
 0002:fffad000       __guard_fids__guard_icall_checks_enforced 0000000180000000     MSVCRTD:guard_support.obj
 0002:fffad000       $unwind$??0?$converter@_K@?$atomic_impl@_K@internal@tbb@@QEAA@XZ 0000000180000000     concurrent_vector.obj
 0004:fff7d000       $pdata$??0?$converter@_K@?$atomic_impl@_K@internal@tbb@@QEAA@XZ 0000000180000000     concurrent_vector.obj
 0002:fffad000       $unwind$??0?$converter@_K@?$atomic_impl@_K@internal@tbb@@QEAA@_K@Z 0000000180000000     concurrent_vector.obj
 0004:fff7d000       $pdata$??0?$converter@_K@?$atomic_impl@_K@internal@tbb@@QEAA@_K@Z 0000000180000000     concurrent_vector.obj
 0002:fffad000       __guard_fids__             0000000180000000     MSVCRTD:guard_support.obj
 0002:fffad000       $unwind$??$to_bits_ref@_K@?$atomic_impl@_K@internal@tbb@@CAAEA_JAEA_K@Z 0000000180000000     concurrent_vector.obj
 0004:fff7d000       $pdata$??$to_bits_ref@_K@?$atomic_impl@_K@internal@tbb@@CAAEA_JAEA_K@Z 0000000180000000     concurrent_vector.obj
 0002:fffad000       $unwind$??$to_bits@_K@?$atomic_impl@_K@internal@tbb@@CA_J_K@Z 0000000180000000     concurrent_vector.obj
 0004:fff7d000       $pdata$??$to_bits@_K@?$atomic_impl@_K@internal@tbb@@CA_J_K@Z 0000000180000000     concurrent_vector.obj
 0002:fffad000       $unwind$??$to_bits_ref@$$CD_K@?$atomic_impl@_K@internal@tbb@@CAAEA_JAED_K@Z 0000000180000000     concurrent_vector.obj
 0004:fff7d000       $pdata$??$to_bits_ref@$$CD_K@?$atomic_impl@_K@internal@tbb@@CAAEA_JAED_K@Z 0000000180000000     concurrent_vector.obj
 0002:fffad000       ??$to_value@_K@?$atomic_impl@_K@internal@tbb@@CA_K_J@Z$rtcName$0 0000000180000000     concurrent_vector.obj
 0004:fff7d000       $pdata$??$__TBB_store_with_release@_J_J@internal@tbb@@YAXAEC_J_J@Z 0000000180000000     market.obj
 0002:fffad000       $unwind$??$__TBB_store_with_release@_J_J@internal@tbb@@YAXAEC_J_J@Z 0000000180000000     market.obj
 0002:fffad000       $unwind$??$to_value@_K@?$atomic_impl@_K@internal@tbb@@CA_K_J@Z 0000000180000000     concurrent_vector.obj
 0004:fff7d000       $pdata$??$to_value@_K@?$atomic_impl@_K@internal@tbb@@CA_K_J@Z 0000000180000000     concurrent_vector.obj
 0002:fffad000       $unwind$??$compare_and_swap@$0A@@?$atomic_impl@_K@internal@tbb@@QEAA_K_K0@Z 0000000180000000     concurrent_vector.obj
 0004:fff7d000       $pdata$??$compare_and_swap@$0A@@?$atomic_impl@_K@internal@tbb@@QEAA_K_K0@Z 0000000180000000     concurrent_vector.obj
 0002:fffad000       $unwind$??$fetch_and_add@$0A@@?$atomic_impl_with_arithmetic@_K_KD@internal@tbb@@QEAA_K_K@Z 0000000180000000     concurrent_vector.obj
 0004:fff7d000       $pdata$??$fetch_and_add@$0A@@?$atomic_impl_with_arithmetic@_K_KD@internal@tbb@@QEAA_K_K@Z 0000000180000000     concurrent_vector.obj
 0004:fff7d000       $pdata$??$as_atomic@_K@internal@tbb@@YAAEAU?$atomic@_K@1@AEA_K@Z 0000000180000000     market.obj
 0002:fffad000       $unwind$??$as_atomic@_K@internal@tbb@@YAAEAU?$atomic@_K@1@AEA_K@Z 0000000180000000     market.obj
 0002:fffad000       $unwind$?empty@?$task_stream@$02@internal@tbb@@QEAA_NH@Z 0000000180000000     arena.obj
 0004:fff7d000       $pdata$?empty@?$task_stream@$02@internal@tbb@@QEAA_NH@Z 0000000180000000     arena.obj
 0004:fff7d000       $pdata$?is_worker@generic_scheduler@internal@tbb@@QEBA_NXZ 0000000180000000     market.obj
 0002:fffad000       $unwind$?is_worker@generic_scheduler@internal@tbb@@QEBA_NXZ 0000000180000000     market.obj
 0004:fff7d000       $pdata$?get@?$basic_tls@_K@internal@tbb@@QEAA_KXZ 0000000180000000     market.obj
 0002:fffad000       $unwind$?get@?$basic_tls@_K@internal@tbb@@QEAA_KXZ 0000000180000000     market.obj
 0004:fff7d000       $pdata$?local_scheduler_if_initialized@governor@internal@tbb@@SAPEAVgeneric_scheduler@23@XZ 0000000180000000     market.obj
 0002:fffad000       $unwind$?local_scheduler_if_initialized@governor@internal@tbb@@SAPEAVgeneric_scheduler@23@XZ 0000000180000000     market.obj
 0004:fff7d000       $pdata$?tls_scheduler_of@governor@internal@tbb@@SAPEAVgeneric_scheduler@23@_K@Z 0000000180000000     market.obj
 0002:fffad000       $unwind$?tls_scheduler_of@governor@internal@tbb@@SAPEAVgeneric_scheduler@23@_K@Z 0000000180000000     market.obj
 0004:fff7d000       $pdata$?default_num_threads@governor@internal@tbb@@SAIXZ 0000000180000000     market.obj
 0002:fffad000       $unwind$?default_num_threads@governor@internal@tbb@@SAIXZ 0000000180000000     market.obj
 0004:fff7d000       $pdata$??0versioned_object@rml@@QEAA@XZ 0000000180000000     market.obj
 0002:fffad000       $unwind$??0versioned_object@rml@@QEAA@XZ 0000000180000000     market.obj
 0002:fffad000       $unwind$?load_with_acquire@?$machine_load_store@_J$07@internal@tbb@@SA_JAED_J@Z 0000000180000000     concurrent_vector.obj
 0004:fff7d000       $pdata$?load_with_acquire@?$machine_load_store@_J$07@internal@tbb@@SA_JAED_J@Z 0000000180000000     concurrent_vector.obj
 0004:fff7d000       $pdata$?release@scoped_lock@spin_rw_mutex_v3@tbb@@QEAAXXZ 0000000180000000     market.obj
 0002:fffad000       $unwind$?release@scoped_lock@spin_rw_mutex_v3@tbb@@QEAAXXZ 0000000180000000     market.obj
 0004:fff7d000       $pdata$?acquire@scoped_lock@spin_rw_mutex_v3@tbb@@QEAAXAEAV23@_N@Z 0000000180000000     market.obj
 0002:fffad000       $unwind$?acquire@scoped_lock@spin_rw_mutex_v3@tbb@@QEAAXAEAV23@_N@Z 0000000180000000     market.obj
 0004:fff7d000       $pdata$??$suppress_unused_warning@E@internal@tbb@@YAXAEBE@Z 0000000180000000     market.obj
 0002:fffad000       $unwind$??$suppress_unused_warning@E@internal@tbb@@YAXAEBE@Z 0000000180000000     market.obj
 0002:fffad000       $ip2state$??1scoped_lock@spin_mutex@tbb@@QEAA@XZ 0000000180000000     market.obj
 0002:fffad000       $unwind$?store_with_release@?$machine_load_store@_J$07@internal@tbb@@SAXAEC_J_J@Z 0000000180000000     concurrent_vector.obj
 0004:fff7d000       $pdata$?store_with_release@?$machine_load_store@_J$07@internal@tbb@@SAXAEC_J_J@Z 0000000180000000     concurrent_vector.obj
 0002:fffad000       $unwind$?compare_and_swap@?$atomic_traits@$07$0A@@internal@tbb@@SA_JPECX_J1@Z 0000000180000000     concurrent_vector.obj
 0004:fff7d000       $pdata$?compare_and_swap@?$atomic_traits@$07$0A@@internal@tbb@@SA_JPECX_J1@Z 0000000180000000     concurrent_vector.obj
 0002:fffad000       $unwind$?fetch_and_add@?$atomic_traits@$07$0A@@internal@tbb@@SA_JPECX_J@Z 0000000180000000     concurrent_vector.obj
 0004:fff7d000       $pdata$?fetch_and_add@?$atomic_traits@$07$0A@@internal@tbb@@SA_JPECX_J@Z 0000000180000000     concurrent_vector.obj
 0002:fffad000       $unwind$??0?$ptr_converter@PEA_K@?$atomic_impl@_K@internal@tbb@@QEAA@PEA_K@Z 0000000180000000     concurrent_vector.obj
 0004:fff7d000       $pdata$??0?$ptr_converter@PEA_K@?$atomic_impl@_K@internal@tbb@@QEAA@PEA_K@Z 0000000180000000     concurrent_vector.obj
 0002:fffad000       $unwind$??0?$ptr_converter@PED_K@?$atomic_impl@_K@internal@tbb@@QEAA@PED_K@Z 0000000180000000     concurrent_vector.obj
 0004:fff7d000       $pdata$??0?$ptr_converter@PED_K@?$atomic_impl@_K@internal@tbb@@QEAA@PED_K@Z 0000000180000000     concurrent_vector.obj
 0002:fffad000       $cppxdata$??1scoped_lock@spin_mutex@tbb@@QEAA@XZ 0000000180000000     market.obj
 0004:fff7d000       $pdata$??1scoped_lock@spin_mutex@tbb@@QEAA@XZ 0000000180000000     market.obj
 0002:fffad000       __guard_fids_?dllmain_dispatch@@YAHQEAUHINSTANCE__@@KQEAX@Z 0000000180000000     MSVCRTD:dll_dllmain.obj
 0002:fffad000       $unwind$??1scoped_lock@spin_mutex@tbb@@QEAA@XZ 0000000180000000     market.obj
 0004:fff7d000       $pdata$??0scoped_lock@spin_mutex@tbb@@QEAA@AEAV12@@Z 0000000180000000     market.obj
 0002:fffad000       $unwind$??0scoped_lock@spin_mutex@tbb@@QEAA@AEAV12@@Z 0000000180000000     market.obj
 0004:fff7d000       $pdata$??B?$atomic_impl@H@internal@tbb@@QEDAHXZ 0000000180000000     market.obj
 0002:fffad000       $unwind$??B?$atomic_impl@H@internal@tbb@@QEDAHXZ 0000000180000000     market.obj
 0004:fff7d000       $pdata$??E?$atomic_impl_with_arithmetic@IID@internal@tbb@@QEAAIXZ 0000000180000000     market.obj
 0002:fffad000       $unwind$??E?$atomic_impl_with_arithmetic@IID@internal@tbb@@QEAAIXZ 0000000180000000     market.obj
 0004:fff7d000       $pdata$?fetch_and_add@?$atomic_impl_with_arithmetic@IID@internal@tbb@@QEAAII@Z 0000000180000000     market.obj
 0002:fffad000       $unwind$?fetch_and_add@?$atomic_impl_with_arithmetic@IID@internal@tbb@@QEAAII@Z 0000000180000000     market.obj
 0004:fff7d000       $pdata$??B?$atomic_impl@I@internal@tbb@@QEDAIXZ 0000000180000000     market.obj
 0002:fffad000       $unwind$??B?$atomic_impl@I@internal@tbb@@QEDAIXZ 0000000180000000     market.obj
 0004:fff7d000       $pdata$??B?$atomic_impl@_K@internal@tbb@@QEDA_KXZ 0000000180000000     market.obj
 0002:fffad000       $unwind$??B?$atomic_impl@_K@internal@tbb@@QEDA_KXZ 0000000180000000     market.obj
 0004:fff7d000       $pdata$?store_with_release@?$machine_load_store@_K$07@internal@tbb@@SAXAEC_K_K@Z 0000000180000000     market.obj
 0002:fffad000       $unwind$?store_with_release@?$machine_load_store@_K$07@internal@tbb@@SAXAEC_K_K@Z 0000000180000000     market.obj
 0004:fff7d000       $pdata$?__TBB_store_with_release@internal@tbb@@YAXAEC_K_K@Z 0000000180000000     market.obj
 0002:fffad000       $unwind$?__TBB_store_with_release@internal@tbb@@YAXAEC_K_K@Z 0000000180000000     market.obj
 0004:fff7d000       $pdata$?active_value@global_control@interface9@tbb@@SA_KW4parameter@123@@Z 0000000180000000     market.obj
 0002:fffad000       $unwind$?active_value@global_control@interface9@tbb@@SA_KW4parameter@123@@Z 0000000180000000     market.obj
 0004:fff7d000       $pdata$??2@YAPEAX_KPEAX@Z  0000000180000000     market.obj
 0002:fffad000       $unwind$??2@YAPEAX_KPEAX@Z 0000000180000000     market.obj
 0004:fff7d000       $pdata$??0mutex_copy_deprecated_and_disabled@internal@tbb@@QEAA@XZ 0000000180000000     market.obj
 0002:fffad000       $unwind$??0mutex_copy_deprecated_and_disabled@internal@tbb@@QEAA@XZ 0000000180000000     market.obj
 0004:fff7d000       $pdata$??0no_copy@internal@tbb@@QEAA@XZ 0000000180000000     market.obj
 0002:fffad000       $unwind$??0no_copy@internal@tbb@@QEAA@XZ 0000000180000000     market.obj
 0004:fff7d000       $pdata$?__empty_global_delete@@YAXPEAX_K@Z 0000000180000000     market.obj
 0002:fffad000       $unwind$?__empty_global_delete@@YAXPEAX_K@Z 0000000180000000     market.obj
 0004:fff7d000       $pdata$?__empty_global_delete@@YAXPEAX@Z 0000000180000000     market.obj
 0002:fffad000       $unwind$?__empty_global_delete@@YAXPEAX@Z 0000000180000000     market.obj
 0002:fffad000       $unwind$?num_workers_active@arena@internal@tbb@@QEAAIXZ 0000000180000000     arena.obj
 0004:fff7d000       $pdata$?num_workers_active@arena@internal@tbb@@QEAAIXZ 0000000180000000     arena.obj
 0004:fff7d000       $pdata$??0?$ptr_converter@PEDW4do_once_state@internal@tbb@@@?$atomic_impl@W4do_once_state@internal@tbb@@@internal@tbb@@QEAA@PEDW4do_once_state@23@@Z 0000000180000000     governor.obj
 0002:fffad000       $unwind$??0?$ptr_converter@PEDW4do_once_state@internal@tbb@@@?$atomic_impl@W4do_once_state@internal@tbb@@@internal@tbb@@QEAA@PEDW4do_once_state@23@@Z 0000000180000000     governor.obj
 0004:fff7d000       $pdata$??$compare_and_swap@$0A@@?$atomic_impl@W4do_once_state@internal@tbb@@@internal@tbb@@QEAA?AW4do_once_state@12@W4312@0@Z 0000000180000000     governor.obj
 0002:fffad000       $unwind$??0no_copy@internal@tbb@@QEAA@XZ 0000000180000000     dynamic_link.obj
 0004:fff7d000       $pdata$??0no_copy@internal@tbb@@QEAA@XZ 0000000180000000     dynamic_link.obj
 0002:fffad000       $unwind$??0atomic_backoff@internal@tbb@@QEAA@XZ 0000000180000000     dynamic_link.obj
 0004:fff7d000       $pdata$??0atomic_backoff@internal@tbb@@QEAA@XZ 0000000180000000     dynamic_link.obj
 0002:fffad000       $unwind$?pause@atomic_backoff@internal@tbb@@QEAAXXZ 0000000180000000     dynamic_link.obj
 0004:fff7d000       $pdata$?pause@atomic_backoff@internal@tbb@@QEAAXXZ 0000000180000000     dynamic_link.obj
 0002:fffad000       $unwind$??B?$atomic_impl@_K@internal@tbb@@QEDA_KXZ 0000000180000000     dynamic_link.obj
 0004:fff7d000       $pdata$??B?$atomic_impl@_K@internal@tbb@@QEDA_KXZ 0000000180000000     dynamic_link.obj
 0002:fffad000       $unwind$?fetch_and_add@?$atomic_impl_with_arithmetic@_K_KD@internal@tbb@@QEAA_K_K@Z 0000000180000000     dynamic_link.obj
 0004:fff7d000       $pdata$?fetch_and_add@?$atomic_impl_with_arithmetic@_K_KD@internal@tbb@@QEAA_K_K@Z 0000000180000000     dynamic_link.obj
 0002:fffad000       $unwind$??E?$atomic_impl_with_arithmetic@_K_KD@internal@tbb@@QEAA_KH@Z 0000000180000000     dynamic_link.obj
 0004:fff7d000       $pdata$??E?$atomic_impl_with_arithmetic@_K_KD@internal@tbb@@QEAA_KH@Z 0000000180000000     dynamic_link.obj
 0002:fffad000       $unwind$??$compare_and_swap@$0A@@?$atomic_impl@W4do_once_state@internal@tbb@@@internal@tbb@@QEAA?AW4do_once_state@12@W4312@0@Z 0000000180000000     governor.obj
 0004:fff7d000       $pdata$??$to_value@W4do_once_state@internal@tbb@@@?$atomic_impl@W4do_once_state@internal@tbb@@@internal@tbb@@CA?AW4do_once_state@12@H@Z 0000000180000000     governor.obj
 0002:fffad000       $unwind$??$to_value@W4do_once_state@internal@tbb@@@?$atomic_impl@W4do_once_state@internal@tbb@@@internal@tbb@@CA?AW4do_once_state@12@H@Z 0000000180000000     governor.obj
 0002:fffad000       $unwind$?recall_by_mandatory_request@arena@internal@tbb@@QEBA_NXZ 0000000180000000     arena.obj
 0004:fff7d000       $pdata$?recall_by_mandatory_request@arena@internal@tbb@@QEBA_NXZ 0000000180000000     arena.obj
 0002:fffad000       ??$to_value@W4do_once_state@internal@tbb@@@?$atomic_impl@W4do_once_state@internal@tbb@@@internal@tbb@@CA?AW4do_once_state@12@H@Z$rtcName$0 0000000180000000     governor.obj
 0004:fff7d000       $pdata$??$to_bits_ref@$$CDW4do_once_state@internal@tbb@@@?$atomic_impl@W4do_once_state@internal@tbb@@@internal@tbb@@CAAEAHAEDW4do_once_state@12@@Z 0000000180000000     governor.obj
 0002:fffad000       $unwind$??$to_bits_ref@$$CDW4do_once_state@internal@tbb@@@?$atomic_impl@W4do_once_state@internal@tbb@@@internal@tbb@@CAAEAHAEDW4do_once_state@12@@Z 0000000180000000     governor.obj
 0004:fff7d000       $pdata$?compare_and_swap@?$atomic_traits@$03$0A@@internal@tbb@@SAHPECXHH@Z 0000000180000000     governor.obj
 0002:fffad000       $unwind$?compare_and_swap@?$atomic_traits@$03$0A@@internal@tbb@@SAHPECXHH@Z 0000000180000000     governor.obj
 0004:fff7d000       $pdata$??0?$ptr_converter@PEAW4do_once_state@internal@tbb@@@?$atomic_impl@W4do_once_state@internal@tbb@@@internal@tbb@@QEAA@PEAW4do_once_state@23@@Z 0000000180000000     governor.obj
 0002:fffad000       $unwind$??0?$ptr_converter@PEAW4do_once_state@internal@tbb@@@?$atomic_impl@W4do_once_state@internal@tbb@@@internal@tbb@@QEAA@PEAW4do_once_state@23@@Z 0000000180000000     governor.obj
 0002:fffad000       $unwind$??$__TBB_load_with_acquire@_J@internal@tbb@@YA_JAED_J@Z 0000000180000000     dynamic_link.obj
 0004:fff7d000       $pdata$??$__TBB_load_with_acquire@_J@internal@tbb@@YA_JAED_J@Z 0000000180000000     dynamic_link.obj
 0002:fffad000       $unwind$??$__TBB_store_with_release@HH@internal@tbb@@YAXAECHH@Z 0000000180000000     dynamic_link.obj
 0004:fff7d000       $pdata$??$__TBB_store_with_release@HH@internal@tbb@@YAXAECHH@Z 0000000180000000     dynamic_link.obj
 0002:fffad000       $unwind$??$__TBB_load_with_acquire@H@internal@tbb@@YAHAEDH@Z 0000000180000000     dynamic_link.obj
 0004:fff7d000       $pdata$??$__TBB_load_with_acquire@H@internal@tbb@@YAHAEDH@Z 0000000180000000     dynamic_link.obj
 0002:fffad000       $unwind$??0?$converter@_K@?$atomic_impl@_K@internal@tbb@@QEAA@XZ 0000000180000000     dynamic_link.obj
 0004:fff7d000       $pdata$??0?$converter@_K@?$atomic_impl@_K@internal@tbb@@QEAA@XZ 0000000180000000     dynamic_link.obj
 0002:fffad000       $unwind$??$to_bits_ref@$$CD_K@?$atomic_impl@_K@internal@tbb@@CAAEA_JAED_K@Z 0000000180000000     dynamic_link.obj
 0004:fff7d000       $pdata$??$to_bits_ref@$$CD_K@?$atomic_impl@_K@internal@tbb@@CAAEA_JAED_K@Z 0000000180000000     dynamic_link.obj
 0002:fffad000       ??$to_value@_K@?$atomic_impl@_K@internal@tbb@@CA_K_J@Z$rtcName$0 0000000180000000     dynamic_link.obj
 0004:fff7d000       $pdata$?store_with_release@?$machine_load_store@H$03@internal@tbb@@SAXAECHH@Z 0000000180000000     governor.obj
 0002:fffad000       $unwind$?store_with_release@?$machine_load_store@H$03@internal@tbb@@SAXAECHH@Z 0000000180000000     governor.obj
 0002:fffad000       $unwind$??$to_value@_K@?$atomic_impl@_K@internal@tbb@@CA_K_J@Z 0000000180000000     dynamic_link.obj
 0004:fff7d000       $pdata$?load_with_acquire@?$machine_load_store@H$03@internal@tbb@@SAHAEDH@Z 0000000180000000     governor.obj
 0002:fffad000       $unwind$?load_with_acquire@?$machine_load_store@H$03@internal@tbb@@SAHAEDH@Z 0000000180000000     governor.obj
 0004:fff7d000       $pdata$??$spin_wait_while_eq@U?$atomic@W4do_once_state@internal@tbb@@@tbb@@W4do_once_state@internal@2@@internal@tbb@@YAXAEDU?$atomic@W4do_once_state@internal@tbb@@@1@W4do_once_state@01@@Z 0000000180000000     governor.obj
 0004:fff7d000       $pdata$??$to_value@_K@?$atomic_impl@_K@internal@tbb@@CA_K_J@Z 0000000180000000     dynamic_link.obj
 0002:fffad000       $unwind$??$fetch_and_add@$0A@@?$atomic_impl_with_arithmetic@_K_KD@internal@tbb@@QEAA_K_K@Z 0000000180000000     dynamic_link.obj
 0004:fff7d000       $pdata$??$fetch_and_add@$0A@@?$atomic_impl_with_arithmetic@_K_KD@internal@tbb@@QEAA_K_K@Z 0000000180000000     dynamic_link.obj
 0002:fffad000       $unwind$??$spin_wait_while_eq@U?$atomic@W4do_once_state@internal@tbb@@@tbb@@W4do_once_state@internal@2@@internal@tbb@@YAXAEDU?$atomic@W4do_once_state@internal@tbb@@@1@W4do_once_state@01@@Z 0000000180000000     governor.obj
 0002:fffad000       ??$spin_wait_while_eq@U?$atomic@W4do_once_state@internal@tbb@@@tbb@@W4do_once_state@internal@2@@internal@tbb@@YAXAEDU?$atomic@W4do_once_state@internal@tbb@@@1@W4do_once_state@01@@Z$rtcName$0 0000000180000000     governor.obj
 0004:fff7d000       $pdata$??$to_bits@W4do_once_state@internal@tbb@@@?$atomic_impl@W4do_once_state@internal@tbb@@@internal@tbb@@CAHW4do_once_state@12@@Z 0000000180000000     governor.obj
 0002:fffad000       $unwind$?load_with_acquire@?$machine_load_store@_J$07@internal@tbb@@SA_JAED_J@Z 0000000180000000     dynamic_link.obj
 0004:fff7d000       $pdata$?load_with_acquire@?$machine_load_store@_J$07@internal@tbb@@SA_JAED_J@Z 0000000180000000     dynamic_link.obj
 0002:fffad000       $unwind$?load_with_acquire@?$machine_load_store@H$03@internal@tbb@@SAHAEDH@Z 0000000180000000     dynamic_link.obj
 0004:fff7d000       $pdata$?load_with_acquire@?$machine_load_store@H$03@internal@tbb@@SAHAEDH@Z 0000000180000000     dynamic_link.obj
 0002:fffad000       $unwind$?store_with_release@?$machine_load_store@H$03@internal@tbb@@SAXAECHH@Z 0000000180000000     dynamic_link.obj
 0004:fff7d000       $pdata$?store_with_release@?$machine_load_store@H$03@internal@tbb@@SAXAECHH@Z 0000000180000000     dynamic_link.obj
 0002:fffad000       $unwind$??0?$ptr_converter@PED_K@?$atomic_impl@_K@internal@tbb@@QEAA@PED_K@Z 0000000180000000     dynamic_link.obj
 0002:fffad000       $unwind$??$to_bits@W4do_once_state@internal@tbb@@@?$atomic_impl@W4do_once_state@internal@tbb@@@internal@tbb@@CAHW4do_once_state@12@@Z 0000000180000000     governor.obj
 0004:fff7d000       $pdata$??0?$ptr_converter@PED_K@?$atomic_impl@_K@internal@tbb@@QEAA@PED_K@Z 0000000180000000     dynamic_link.obj
 0002:fffad000       $unwind$?fetch_and_add@?$atomic_traits@$07$0A@@internal@tbb@@SA_JPECX_J@Z 0000000180000000     dynamic_link.obj
 0004:fff7d000       $pdata$?fetch_and_add@?$atomic_traits@$07$0A@@internal@tbb@@SA_JPECX_J@Z 0000000180000000     dynamic_link.obj
 0004:fff7d000       $pdata$??$to_bits_ref@W4do_once_state@internal@tbb@@@?$atomic_impl@W4do_once_state@internal@tbb@@@internal@tbb@@CAAEAHAEAW4do_once_state@12@@Z 0000000180000000     governor.obj
 0002:fffad000       $unwind$??$to_bits_ref@W4do_once_state@internal@tbb@@@?$atomic_impl@W4do_once_state@internal@tbb@@@internal@tbb@@CAAEAHAEAW4do_once_state@12@@Z 0000000180000000     governor.obj
 0002:fffad000       $unwind$??$poison_value@_K@internal@tbb@@YAXAEA_K@Z 0000000180000000     arena.obj
 0004:fff7d000       $pdata$??$poison_value@_K@internal@tbb@@YAXAEA_K@Z 0000000180000000     arena.obj
 0004:fff7d000       $pdata$??0?$converter@W4do_once_state@internal@tbb@@@?$atomic_impl@W4do_once_state@internal@tbb@@@internal@tbb@@QEAA@W4do_once_state@23@@Z 0000000180000000     governor.obj
 0002:fffad000       $unwind$??0?$converter@W4do_once_state@internal@tbb@@@?$atomic_impl@W4do_once_state@internal@tbb@@@internal@tbb@@QEAA@W4do_once_state@23@@Z 0000000180000000     governor.obj
 0004:fff7d000       $pdata$??0?$converter@W4do_once_state@internal@tbb@@@?$atomic_impl@W4do_once_state@internal@tbb@@@internal@tbb@@QEAA@XZ 0000000180000000     governor.obj
 0002:fffad000       $unwind$??0?$converter@W4do_once_state@internal@tbb@@@?$atomic_impl@W4do_once_state@internal@tbb@@@internal@tbb@@QEAA@XZ 0000000180000000     governor.obj
 0004:fff7d000       $pdata$??$__TBB_load_with_acquire@H@internal@tbb@@YAHAEDH@Z 0000000180000000     governor.obj
 0002:fffad000       $unwind$??$__TBB_load_with_acquire@H@internal@tbb@@YAHAEDH@Z 0000000180000000     governor.obj
 0002:fffad000       $unwind$??$__TBB_load_with_acquire@_K@internal@tbb@@YA_KAED_K@Z 0000000180000000     arena.obj
 0004:fff7d000       $pdata$??$__TBB_load_with_acquire@_K@internal@tbb@@YA_KAED_K@Z 0000000180000000     arena.obj
 0004:fff7d000       $pdata$??$__TBB_store_with_release@HH@internal@tbb@@YAXAECHH@Z 0000000180000000     governor.obj
 0002:fffad000       $unwind$??$__TBB_store_with_release@HH@internal@tbb@@YAXAECHH@Z 0000000180000000     governor.obj
 0004:fff7d000       $pdata$?default_context@generic_scheduler@internal@tbb@@QEAAPEAVtask_group_context@3@XZ 0000000180000000     governor.obj
 0002:fffad000       $unwind$?default_context@generic_scheduler@internal@tbb@@QEAAPEAVtask_group_context@3@XZ 0000000180000000     governor.obj
 0004:fff7d000       $pdata$?master_outermost_level@generic_scheduler@internal@tbb@@QEBA_NXZ 0000000180000000     governor.obj
 0002:fffad000       $unwind$?master_outermost_level@generic_scheduler@internal@tbb@@QEBA_NXZ 0000000180000000     governor.obj
 0004:fff7d000       $pdata$?outermost_level@generic_scheduler@internal@tbb@@QEBA_NXZ 0000000180000000     governor.obj
 0002:fffad000       $unwind$?outermost_level@generic_scheduler@internal@tbb@@QEBA_NXZ 0000000180000000     governor.obj
 0004:fff7d000       $pdata$?is_worker@generic_scheduler@internal@tbb@@QEBA_NXZ 0000000180000000     governor.obj
 0002:fffad000       $unwind$?is_worker@generic_scheduler@internal@tbb@@QEBA_NXZ 0000000180000000     governor.obj
 0004:fff7d000       $pdata$?throw_exception@internal@tbb@@YAXW4exception_id@12@@Z 0000000180000000     governor.obj
 0002:fffad000       $unwind$?throw_exception@internal@tbb@@YAXW4exception_id@12@@Z 0000000180000000     governor.obj
 0004:fff7d000       $pdata$?prefix@task@tbb@@QEBAAEAVtask_prefix@internal@2@PEAUversion_tag_v3@42@@Z 0000000180000000     governor.obj
 0002:fffad000       $unwind$?prefix@task@tbb@@QEBAAEAVtask_prefix@internal@2@PEAUversion_tag_v3@42@@Z 0000000180000000     governor.obj
 0004:fff7d000       $pdata$?get@?$basic_tls@_K@internal@tbb@@QEAA_KXZ 0000000180000000     governor.obj
 0002:fffad000       $unwind$?get@?$basic_tls@_K@internal@tbb@@QEAA_KXZ 0000000180000000     governor.obj
 0004:fff7d000       $pdata$?local_scheduler_if_initialized@governor@internal@tbb@@SAPEAVgeneric_scheduler@23@XZ 0000000180000000     governor.obj
 0002:fffad000       $unwind$?local_scheduler_if_initialized@governor@internal@tbb@@SAPEAVgeneric_scheduler@23@XZ 0000000180000000     governor.obj
 0004:fff7d000       $pdata$?tls_scheduler_of@governor@internal@tbb@@SAPEAVgeneric_scheduler@23@_K@Z 0000000180000000     governor.obj
 0002:fffad000       $unwind$?tls_scheduler_of@governor@internal@tbb@@SAPEAVgeneric_scheduler@23@_K@Z 0000000180000000     governor.obj
 0004:fff7d000       $pdata$?default_num_threads@governor@internal@tbb@@SAIXZ 0000000180000000     governor.obj
 0002:fffad000       $unwind$?default_num_threads@governor@internal@tbb@@SAIXZ 0000000180000000     governor.obj
 0004:fff7d000       $pdata$??4?$atomic@W4do_once_state@internal@tbb@@@tbb@@QEAA?AW4do_once_state@internal@1@W4231@@Z 0000000180000000     governor.obj
 0002:fffad000       $unwind$??4?$atomic@W4do_once_state@internal@tbb@@@tbb@@QEAA?AW4do_once_state@internal@1@W4231@@Z 0000000180000000     governor.obj
 0004:fff7d000       $pdata$?store_with_release@?$atomic_impl@W4do_once_state@internal@tbb@@@internal@tbb@@IEAA?AW4do_once_state@23@W4423@@Z 0000000180000000     governor.obj
 0002:fffad000       $unwind$?store_with_release@?$atomic_impl@W4do_once_state@internal@tbb@@@internal@tbb@@IEAA?AW4do_once_state@23@W4423@@Z 0000000180000000     governor.obj
 0004:fff7d000       $pdata$??B?$atomic_impl@W4do_once_state@internal@tbb@@@internal@tbb@@QEDA?AW4do_once_state@12@XZ 0000000180000000     governor.obj
 0002:fffad000       $unwind$??B?$atomic_impl@W4do_once_state@internal@tbb@@@internal@tbb@@QEDA?AW4do_once_state@12@XZ 0000000180000000     governor.obj
 0004:fff7d000       $pdata$?compare_and_swap@?$atomic_impl@W4do_once_state@internal@tbb@@@internal@tbb@@QEAA?AW4do_once_state@23@W4423@0@Z 0000000180000000     governor.obj
 0002:fffad000       $unwind$?compare_and_swap@?$atomic_impl@W4do_once_state@internal@tbb@@@internal@tbb@@QEAA?AW4do_once_state@23@W4423@0@Z 0000000180000000     governor.obj
 0004:fff7d000       $pdata$?pause@atomic_backoff@internal@tbb@@QEAAXXZ 0000000180000000     governor.obj
 0002:fffad000       __guard_fids__             0000000180000000     MSVCRTD:std_type_info_static.obj
 0002:fffad000       $unwind$??$as_atomic@PEAVarena@internal@tbb@@@internal@tbb@@YAAEAU?$atomic@PEAVarena@internal@tbb@@@1@AEAPEAVarena@01@@Z 0000000180000000     arena.obj
 0004:fff7d000       $pdata$??$as_atomic@PEAVarena@internal@tbb@@@internal@tbb@@YAAEAU?$atomic@PEAVarena@internal@tbb@@@1@AEAPEAVarena@01@@Z 0000000180000000     arena.obj
 0002:fffad000       $unwind$?pause@atomic_backoff@internal@tbb@@QEAAXXZ 0000000180000000     governor.obj
 0004:fff7d000       $pdata$??0atomic_backoff@internal@tbb@@QEAA@XZ 0000000180000000     governor.obj
 0002:fffad000       $unwind$??0atomic_backoff@internal@tbb@@QEAA@XZ 0000000180000000     governor.obj
 0004:fff7d000       $pdata$??0no_copy@internal@tbb@@QEAA@XZ 0000000180000000     governor.obj
 0002:fffad000       $unwind$??0no_copy@internal@tbb@@QEAA@XZ 0000000180000000     governor.obj
 0004:fff7d000       $pdata$?__empty_global_delete@@YAXPEAX_K@Z 0000000180000000     governor.obj
 0002:fffad000       $unwind$?__empty_global_delete@@YAXPEAX_K@Z 0000000180000000     governor.obj
 0004:fff7d000       $pdata$?__empty_global_delete@@YAXPEAX@Z 0000000180000000     governor.obj
 0002:fffad000       $unwind$?__empty_global_delete@@YAXPEAX@Z 0000000180000000     governor.obj
 0004:fff7d000       $pdata$?store@?$machine_load_store_relaxed@_J$07@internal@tbb@@SAXAEC_J_J@Z 0000000180000000     task_group_context.obj
 0002:fffad000       $unwind$?store@?$machine_load_store_relaxed@_J$07@internal@tbb@@SAXAEC_J_J@Z 0000000180000000     task_group_context.obj
 0002:fffad000       __guard_fids__CRT_RTC_INITW 0000000180000000     MSVCRTD:_init_.obj
 0002:fffad000       __guard_fids__CRT_RTC_INIT 0000000180000000     MSVCRTD:_init_.obj
 0004:fff7d000       $pdata$?load@?$machine_load_store_relaxed@_J$07@internal@tbb@@SA_JAED_J@Z 0000000180000000     task_group_context.obj
 0002:fffad000       $unwind$?load@?$machine_load_store_relaxed@_J$07@internal@tbb@@SA_JAED_J@Z 0000000180000000     task_group_context.obj
 0004:fff7d000       $pdata$??$__TBB_load_relaxed@_J@internal@tbb@@YA_JAED_J@Z 0000000180000000     task_group_context.obj
 0002:fffad000       $unwind$??$__TBB_load_relaxed@_J@internal@tbb@@YA_JAED_J@Z 0000000180000000     task_group_context.obj
 0004:fff7d000       $pdata$??0?$ptr_converter@PEB_K@?$atomic_impl@_K@internal@tbb@@QEAA@PEB_K@Z 0000000180000000     task_group_context.obj
 0002:fffad000       $unwind$??0?$ptr_converter@PEB_K@?$atomic_impl@_K@internal@tbb@@QEAA@PEB_K@Z 0000000180000000     task_group_context.obj
 0004:fff7d000       $pdata$??$__TBB_store_relaxed@_J_J@internal@tbb@@YAXAEC_J_J@Z 0000000180000000     task_group_context.obj
 0002:fffad000       $unwind$??$__TBB_store_relaxed@_J_J@internal@tbb@@YAXAEC_J_J@Z 0000000180000000     task_group_context.obj
 0004:fff7d000       $pdata$??0?$ptr_converter@PED_K@?$atomic_impl@_K@internal@tbb@@QEAA@PED_K@Z 0000000180000000     task_group_context.obj
 0002:fffad000       $unwind$??0?$ptr_converter@PED_K@?$atomic_impl@_K@internal@tbb@@QEAA@PED_K@Z 0000000180000000     task_group_context.obj
 0004:fff7d000       $pdata$??0?$ptr_converter@PEA_K@?$atomic_impl@_K@internal@tbb@@QEAA@PEA_K@Z 0000000180000000     task_group_context.obj
 0002:fffad000       $unwind$??0?$ptr_converter@PEA_K@?$atomic_impl@_K@internal@tbb@@QEAA@PEA_K@Z 0000000180000000     task_group_context.obj
 0004:fff7d000       $pdata$??0?$ptr_converter@PEDI@?$atomic_impl@I@internal@tbb@@QEAA@PEDI@Z 0000000180000000     task_group_context.obj
 0002:fffad000       $unwind$??0?$ptr_converter@PEDI@?$atomic_impl@I@internal@tbb@@QEAA@PEDI@Z 0000000180000000     task_group_context.obj
 0004:fff7d000       $pdata$?load_with_acquire@?$machine_load_store@H$03@internal@tbb@@SAHAEDH@Z 0000000180000000     task_group_context.obj
 0002:fffad000       $unwind$?load_with_acquire@?$machine_load_store@H$03@internal@tbb@@SAHAEDH@Z 0000000180000000     task_group_context.obj
 0004:fff7d000       $pdata$?store_with_release@?$machine_load_store@_J$07@internal@tbb@@SAXAEC_J_J@Z 0000000180000000     task_group_context.obj
 0002:fffad000       $unwind$?store_with_release@?$machine_load_store@_J$07@internal@tbb@@SAXAEC_J_J@Z 0000000180000000     task_group_context.obj
 0004:fff7d000       $pdata$?load_with_acquire@?$machine_load_store@_J$07@internal@tbb@@SA_JAED_J@Z 0000000180000000     task_group_context.obj
 0002:fffad000       $unwind$?load_with_acquire@?$machine_load_store@_J$07@internal@tbb@@SA_JAED_J@Z 0000000180000000     task_group_context.obj
 0004:fff7d000       $pdata$?fetch_and_add@?$atomic_traits@$07$0A@@internal@tbb@@SA_JPECX_J@Z 0000000180000000     task_group_context.obj
 0002:fffad000       $unwind$?fetch_and_add@?$atomic_traits@$07$0A@@internal@tbb@@SA_JPECX_J@Z 0000000180000000     task_group_context.obj
 0004:fff7d000       $pdata$?compare_and_swap@?$atomic_traits@$07$0A@@internal@tbb@@SA_JPECX_J1@Z 0000000180000000     task_group_context.obj
 0002:fffad000       $unwind$?compare_and_swap@?$atomic_traits@$07$0A@@internal@tbb@@SA_JPECX_J1@Z 0000000180000000     task_group_context.obj
 0004:fff7d000       $pdata$??$fetch_and_add@$0A@@?$atomic_impl_with_arithmetic@_K_KD@internal@tbb@@QEAA_K_K@Z 0000000180000000     task_group_context.obj
 0002:fffad000       $unwind$??$fetch_and_add@$0A@@?$atomic_impl_with_arithmetic@_K_KD@internal@tbb@@QEAA_K_K@Z 0000000180000000     task_group_context.obj
 0004:fff7d000       $pdata$??$store@_J@?$atomic_load_store_traits@$01@internal@tbb@@SAXAEC_J_J@Z 0000000180000000     task_group_context.obj
 0000:fff72000       .debug$S                   0000000180000000     msvcprtd:MSVCP140D.dll
 0000:fff72000       .debug$S                   0000000180000000     msvcprtd:MSVCP140D.dll
 0000:fff72000       .debug$S                   0000000180000000     msvcprtd:MSVCP140D.dll
 0000:fff72000       .debug$S                   0000000180000000     msvcprtd:MSVCP140D.dll
 0000:fff72000       .debug$S                   0000000180000000     msvcprtd:MSVCP140D.dll
 0000:fff72000       .debug$S                   0000000180000000     msvcprtd:MSVCP140D.dll
 0000:fff72000       .debug$S                   0000000180000000     msvcprtd:MSVCP140D.dll
 0000:fff72000       .debug$S                   0000000180000000     msvcprtd:MSVCP140D.dll
 0000:fff72000       .debug$S                   0000000180000000     msvcprtd:MSVCP140D.dll
 0000:fff72000       .debug$S                   0000000180000000     msvcprtd:MSVCP140D.dll
 0002:fffad000       $unwind$??$store@_J@?$atomic_load_store_traits@$01@internal@tbb@@SAXAEC_J_J@Z 0000000180000000     task_group_context.obj
 0000:fff72000       .debug$S                   0000000180000000     kernel32:KERNEL32.dll
 0000:fff72000       .debug$S                   0000000180000000     kernel32:KERNEL32.dll
 0000:fff72000       .debug$S                   0000000180000000     kernel32:KERNEL32.dll
 0000:fff72000       .debug$S                   0000000180000000     kernel32:KERNEL32.dll
 0000:fff72000       .debug$S                   0000000180000000     kernel32:KERNEL32.dll
 0000:fff72000       .debug$S                   0000000180000000     kernel32:KERNEL32.dll
 0000:fff72000       .debug$S                   0000000180000000     kernel32:KERNEL32.dll
 0000:fff72000       .debug$S                   0000000180000000     kernel32:KERNEL32.dll
 0000:fff72000       .debug$S                   0000000180000000     kernel32:KERNEL32.dll
 0000:fff72000       .debug$S                   0000000180000000     kernel32:KERNEL32.dll
 0000:fff72000       .debug$S                   0000000180000000     kernel32:KERNEL32.dll
 0000:fff72000       .debug$S                   0000000180000000     kernel32:KERNEL32.dll
 0000:fff72000       .debug$S                   0000000180000000     kernel32:KERNEL32.dll
 0000:fff72000       .debug$S                   0000000180000000     kernel32:KERNEL32.dll
 0000:fff72000       .debug$S                   0000000180000000     kernel32:KERNEL32.dll
 0000:fff72000       .debug$S                   0000000180000000     kernel32:KERNEL32.dll
 0000:fff72000       .debug$S                   0000000180000000     kernel32:KERNEL32.dll
 0000:fff72000       .debug$S                   0000000180000000     kernel32:KERNEL32.dll
 0000:fff72000       .debug$S                   0000000180000000     kernel32:KERNEL32.dll
 0000:fff72000       .debug$S                   0000000180000000     kernel32:KERNEL32.dll
 0000:fff72000       .debug$S                   0000000180000000     kernel32:KERNEL32.dll
 0000:fff72000       .debug$S                   0000000180000000     kernel32:KERNEL32.dll
 0000:fff72000       .debug$S                   0000000180000000     kernel32:KERNEL32.dll
 0000:fff72000       .debug$S                   0000000180000000     kernel32:KERNEL32.dll
 0000:fff72000       .debug$S                   0000000180000000     kernel32:KERNEL32.dll
 0000:fff72000       .debug$S                   0000000180000000     kernel32:KERNEL32.dll
 0000:fff72000       .debug$S                   0000000180000000     kernel32:KERNEL32.dll
 0000:fff72000       .debug$S                   0000000180000000     kernel32:KERNEL32.dll
 0000:fff72000       .debug$S                   0000000180000000     kernel32:KERNEL32.dll
 0000:fff72000       .debug$S                   0000000180000000     kernel32:KERNEL32.dll
 0000:fff72000       .debug$S                   0000000180000000     kernel32:KERNEL32.dll
 0000:fff72000       .debug$S                   0000000180000000     kernel32:KERNEL32.dll
 0000:fff72000       .debug$S                   0000000180000000     kernel32:KERNEL32.dll
 0000:fff72000       .debug$S                   0000000180000000     kernel32:KERNEL32.dll
 0000:fff72000       .debug$S                   0000000180000000     kernel32:KERNEL32.dll
 0000:fff72000       .debug$S                   0000000180000000     kernel32:KERNEL32.dll
 0000:fff72000       .debug$S                   0000000180000000     kernel32:KERNEL32.dll
 0000:fff72000       .debug$S                   0000000180000000     kernel32:KERNEL32.dll
 0000:fff72000       .debug$S                   0000000180000000     kernel32:KERNEL32.dll
 0004:fff7d000       $pdata$??$load@_J@?$atomic_load_store_traits@$02@internal@tbb@@SA_JAED_J@Z 0000000180000000     task_group_context.obj
 0002:fffad000       $unwind$??$load@_J@?$atomic_load_store_traits@$02@internal@tbb@@SA_JAED_J@Z 0000000180000000     task_group_context.obj
 0002:fffad000       $unwind$??$__TBB_load_with_acquire@_J@internal@tbb@@YA_JAED_J@Z 0000000180000000     arena.obj
 0004:fff7d000       $pdata$??$__TBB_load_with_acquire@_J@internal@tbb@@YA_JAED_J@Z 0000000180000000     arena.obj
 0004:fff7d000       $pdata$?store@?$machine_load_store_relaxed@W4kind_type@task_group_context@tbb@@$03@internal@tbb@@SAXAECW4kind_type@task_group_context@3@W4453@@Z 0000000180000000     task_group_context.obj
 0002:fffad000       $unwind$?store@?$machine_load_store_relaxed@W4kind_type@task_group_context@tbb@@$03@internal@tbb@@SAXAECW4kind_type@task_group_context@3@W4453@@Z 0000000180000000     task_group_context.obj
 0004:fff7d000       $pdata$?load@?$machine_load_store_relaxed@W4kind_type@task_group_context@tbb@@$03@internal@tbb@@SA?AW4kind_type@task_group_context@3@AEDW4453@@Z 0000000180000000     task_group_context.obj
 0002:fffad000       $unwind$?load@?$machine_load_store_relaxed@W4kind_type@task_group_context@tbb@@$03@internal@tbb@@SA?AW4kind_type@task_group_context@3@AEDW4453@@Z 0000000180000000     task_group_context.obj
 0004:fff7d000       $pdata$??$store@_J@?$atomic_load_store_traits@$02@internal@tbb@@SAXAEC_J_J@Z 0000000180000000     task_group_context.obj
 0002:fffad000       $unwind$??$store@_J@?$atomic_load_store_traits@$02@internal@tbb@@SAXAEC_J_J@Z 0000000180000000     task_group_context.obj
 0004:fff7d000       $pdata$??$compare_and_swap@$0A@@?$atomic_impl@_K@internal@tbb@@QEAA_K_K0@Z 0000000180000000     task_group_context.obj
 0002:fffad000       $unwind$??$compare_and_swap@$0A@@?$atomic_impl@_K@internal@tbb@@QEAA_K_K0@Z 0000000180000000     task_group_context.obj
 0004:fff7d000       $pdata$??0?$converter@_K@?$atomic_impl@_K@internal@tbb@@QEAA@_K@Z 0000000180000000     task_group_context.obj
 0002:fffad000       $unwind$??0?$converter@_K@?$atomic_impl@_K@internal@tbb@@QEAA@_K@Z 0000000180000000     task_group_context.obj
 0004:fff7d000       $pdata$??0?$converter@_K@?$atomic_impl@_K@internal@tbb@@QEAA@XZ 0000000180000000     task_group_context.obj
 0002:fffad000       $unwind$??0?$converter@_K@?$atomic_impl@_K@internal@tbb@@QEAA@XZ 0000000180000000     task_group_context.obj
 0004:fff7d000       $pdata$??0?$converter@I@?$atomic_impl@I@internal@tbb@@QEAA@XZ 0000000180000000     task_group_context.obj
 0004:fff7d000       $pdata$?compare_and_swap@?$atomic_traits@$07$0A@@internal@tbb@@SA_JPECX_J1@Z 0000000180000000     spin_rw_mutex_v2.obj
 0002:fffad000       $unwind$?compare_and_swap@?$atomic_traits@$07$0A@@internal@tbb@@SA_JPECX_J1@Z 0000000180000000     spin_rw_mutex_v2.obj
 0002:fffad000       $unwind$??0?$converter@I@?$atomic_impl@I@internal@tbb@@QEAA@XZ 0000000180000000     task_group_context.obj
 0004:fff7d000       $pdata$??$__TBB_load_with_acquire@H@internal@tbb@@YAHAEDH@Z 0000000180000000     task_group_context.obj
 0002:fffad000       $unwind$??$__TBB_load_with_acquire@H@internal@tbb@@YAHAEDH@Z 0000000180000000     task_group_context.obj
 0004:fff7d000       $pdata$??$__TBB_load_with_acquire@_J@internal@tbb@@YA_JAED_J@Z 0000000180000000     task_group_context.obj
 0002:fffad000       $unwind$??$__TBB_load_with_acquire@_J@internal@tbb@@YA_JAED_J@Z 0000000180000000     task_group_context.obj
 0002:fffad000       $unwind$??$punned_cast@PEAVcpu_ctl_env@internal@tbb@@$$CBUcpu_ctl_env_space@23@@internal@tbb@@YAPEAVcpu_ctl_env@01@PEBUcpu_ctl_env_space@01@@Z 0000000180000000     arena.obj
 0004:fff7d000       $pdata$??$punned_cast@PEAVcpu_ctl_env@internal@tbb@@$$CBUcpu_ctl_env_space@23@@internal@tbb@@YAPEAVcpu_ctl_env@01@PEBUcpu_ctl_env_space@01@@Z 0000000180000000     arena.obj
 0004:fff7d000       $pdata$??$__TBB_store_with_release@_J_J@internal@tbb@@YAXAEC_J_J@Z 0000000180000000     task_group_context.obj
 0004:fff7d000       $pdata$?reset@atomic_backoff@internal@tbb@@QEAAXXZ 0000000180000000     spin_rw_mutex_v2.obj
 0002:fffad000       $unwind$?reset@atomic_backoff@internal@tbb@@QEAAXXZ 0000000180000000     spin_rw_mutex_v2.obj
 0004:fff7d000       $pdata$?pause@atomic_backoff@internal@tbb@@QEAAXXZ 0000000180000000     spin_rw_mutex_v2.obj
 0002:fffad000       $unwind$?pause@atomic_backoff@internal@tbb@@QEAAXXZ 0000000180000000     spin_rw_mutex_v2.obj
 0004:fff7d000       $pdata$??0atomic_backoff@internal@tbb@@QEAA@XZ 0000000180000000     spin_rw_mutex_v2.obj
 0002:fffad000       $unwind$??0atomic_backoff@internal@tbb@@QEAA@XZ 0000000180000000     spin_rw_mutex_v2.obj
 0002:fffad000       $unwind$??$__TBB_store_with_release@_J_J@internal@tbb@@YAXAEC_J_J@Z 0000000180000000     task_group_context.obj
 0004:fff7d000       $pdata$??$__TBB_store_relaxed@W4kind_type@task_group_context@tbb@@W4123@@internal@tbb@@YAXAECW4kind_type@task_group_context@1@W4231@@Z 0000000180000000     task_group_context.obj
 0002:fffad000       $unwind$??$__TBB_store_relaxed@W4kind_type@task_group_context@tbb@@W4123@@internal@tbb@@YAXAECW4kind_type@task_group_context@1@W4231@@Z 0000000180000000     task_group_context.obj
 0004:fff7d000       $pdata$??$__TBB_load_with_acquire@_K@internal@tbb@@YA_KAED_K@Z 0000000180000000     task_group_context.obj
 0002:fffad000       $unwind$??$__TBB_load_with_acquire@_K@internal@tbb@@YA_KAED_K@Z 0000000180000000     task_group_context.obj
 0004:fff7d000       $pdata$??$store@$01@?$atomic_impl@_K@internal@tbb@@QEAAX_K@Z 0000000180000000     task_group_context.obj
 0002:fffad000       $unwind$??$store@$01@?$atomic_impl@_K@internal@tbb@@QEAAX_K@Z 0000000180000000     task_group_context.obj
 0004:fff7d000       $pdata$??$load@$02@?$atomic_impl@_K@internal@tbb@@QEBA_KXZ 0000000180000000     task_group_context.obj
 0002:fffad000       $unwind$??$load@$02@?$atomic_impl@_K@internal@tbb@@QEBA_KXZ 0000000180000000     task_group_context.obj
 0004:fff7d000       $pdata$??$store@$02@?$atomic_impl@_K@internal@tbb@@QEAAX_K@Z 0000000180000000     task_group_context.obj
 0002:fffad000       $unwind$??$store@$02@?$atomic_impl@_K@internal@tbb@@QEAAX_K@Z 0000000180000000     task_group_context.obj
 0004:fff7d000       $pdata$??$__TBB_load_relaxed@W4kind_type@task_group_context@tbb@@@internal@tbb@@YA?AW4kind_type@task_group_context@1@AEDW4231@@Z 0000000180000000     task_group_context.obj
 0002:fffad000       $unwind$??$__TBB_load_relaxed@W4kind_type@task_group_context@tbb@@@internal@tbb@@YA?AW4kind_type@task_group_context@1@AEDW4231@@Z 0000000180000000     task_group_context.obj
 0004:fff7d000       $pdata$?get@?$basic_tls@_K@internal@tbb@@QEAA_KXZ 0000000180000000     task_group_context.obj
 0002:fffad000       $unwind$?get@?$basic_tls@_K@internal@tbb@@QEAA_KXZ 0000000180000000     task_group_context.obj
 0004:fff7d000       $pdata$?local_scheduler_weak@governor@internal@tbb@@SAPEAVgeneric_scheduler@23@XZ 0000000180000000     task_group_context.obj
 0002:fffad000       $unwind$?local_scheduler_weak@governor@internal@tbb@@SAPEAVgeneric_scheduler@23@XZ 0000000180000000     task_group_context.obj
 0004:fff7d000       $pdata$?tls_scheduler_of@governor@internal@tbb@@SAPEAVgeneric_scheduler@23@_K@Z 0000000180000000     task_group_context.obj
 0002:fffad000       $unwind$?tls_scheduler_of@governor@internal@tbb@@SAPEAVgeneric_scheduler@23@_K@Z 0000000180000000     task_group_context.obj
 0004:fff7d000       $pdata$??$suppress_unused_warning@E@internal@tbb@@YAXAEBE@Z 0000000180000000     task_group_context.obj
 0002:fffad000       $unwind$??$suppress_unused_warning@E@internal@tbb@@YAXAEBE@Z 0000000180000000     task_group_context.obj
 0002:fffad000       $ip2state$??1scoped_lock@spin_mutex@tbb@@QEAA@XZ 0000000180000000     task_group_context.obj
 0002:fffad000       $cppxdata$??1scoped_lock@spin_mutex@tbb@@QEAA@XZ 0000000180000000     task_group_context.obj
 0004:fff7d000       $pdata$??1scoped_lock@spin_mutex@tbb@@QEAA@XZ 0000000180000000     task_group_context.obj
 0002:fffad000       $unwind$??1scoped_lock@spin_mutex@tbb@@QEAA@XZ 0000000180000000     task_group_context.obj
 0004:fff7d000       $pdata$??0scoped_lock@spin_mutex@tbb@@QEAA@AEAV12@@Z 0000000180000000     task_group_context.obj
 0002:fffad000       $unwind$??0scoped_lock@spin_mutex@tbb@@QEAA@AEAV12@@Z 0000000180000000     task_group_context.obj
 0004:fff7d000       $pdata$?prefix@task@tbb@@QEBAAEAVtask_prefix@internal@2@PEAUversion_tag_v3@42@@Z 0000000180000000     task_group_context.obj
 0002:fffad000       $unwind$?prefix@task@tbb@@QEBAAEAVtask_prefix@internal@2@PEAUversion_tag_v3@42@@Z 0000000180000000     task_group_context.obj
 0004:fff7d000       $pdata$?state@task@tbb@@QEBA?AW4state_type@12@XZ 0000000180000000     task_group_context.obj
 0002:fffad000       $unwind$?state@task@tbb@@QEBA?AW4state_type@12@XZ 0000000180000000     task_group_context.obj
 0004:fff7d000       $pdata$??B?$atomic_impl@I@internal@tbb@@QEDAIXZ 0000000180000000     task_group_context.obj
 0002:fffad000       $unwind$??B?$atomic_impl@I@internal@tbb@@QEDAIXZ 0000000180000000     task_group_context.obj
 0004:fff7d000       $pdata$??B?$atomic_impl@_K@internal@tbb@@QEDA_KXZ 0000000180000000     task_group_context.obj
 0002:fffad000       $unwind$??B?$atomic_impl@_K@internal@tbb@@QEDA_KXZ 0000000180000000     task_group_context.obj
 0004:fff7d000       $pdata$??0no_copy@internal@tbb@@QEAA@XZ 0000000180000000     spin_rw_mutex_v2.obj
 0002:fffad000       $unwind$??0no_copy@internal@tbb@@QEAA@XZ 0000000180000000     spin_rw_mutex_v2.obj
 0004:fff7d000       $pdata$?compare_and_swap@?$atomic_impl@_K@internal@tbb@@QEAA_K_K0@Z 0000000180000000     task_group_context.obj
 0002:fffad000       $unwind$?compare_and_swap@?$atomic_impl@_K@internal@tbb@@QEAA_K_K0@Z 0000000180000000     task_group_context.obj
 0004:fff7d000       $pdata$?store_with_release@?$machine_load_store@_K$07@internal@tbb@@SAXAEC_K_K@Z 0000000180000000     task_group_context.obj
 0002:fffad000       $unwind$?store_with_release@?$machine_load_store@_K$07@internal@tbb@@SAXAEC_K_K@Z 0000000180000000     task_group_context.obj
 0004:fff7d000       $pdata$?load_with_acquire@?$machine_load_store@_K$07@internal@tbb@@SA_KAED_K@Z 0000000180000000     task_group_context.obj
 0002:fffad000       $unwind$?load_with_acquire@?$machine_load_store@_K$07@internal@tbb@@SA_KAED_K@Z 0000000180000000     task_group_context.obj
 0004:fff7d000       $pdata$?pause@atomic_backoff@internal@tbb@@QEAAXXZ 0000000180000000     task_group_context.obj
 0002:fffad000       $unwind$?pause@atomic_backoff@internal@tbb@@QEAAXXZ 0000000180000000     task_group_context.obj
 0004:fff7d000       $pdata$??0atomic_backoff@internal@tbb@@QEAA@XZ 0000000180000000     task_group_context.obj
 0002:fffad000       $unwind$??0atomic_backoff@internal@tbb@@QEAA@XZ 0000000180000000     task_group_context.obj
 0004:fff7d000       $pdata$?atomic_fence@tbb@@YAXXZ 0000000180000000     task_group_context.obj
 0002:fffad000       $unwind$?atomic_fence@tbb@@YAXXZ 0000000180000000     task_group_context.obj
 0004:fff7d000       $pdata$??2@YAPEAX_KPEAX@Z  0000000180000000     task_group_context.obj
 0002:fffad000       $unwind$??2@YAPEAX_KPEAX@Z 0000000180000000     task_group_context.obj
 0004:fff7d000       $pdata$??_Gexception@std@@UEAAPEAXI@Z 0000000180000000     task_group_context.obj
 0002:fffad000       $unwind$??_Gexception@std@@UEAAPEAXI@Z 0000000180000000     task_group_context.obj
 0004:fff7d000       $pdata$?what@exception@std@@UEBAPEBDXZ 0000000180000000     task_group_context.obj
 0002:fffad000       $unwind$?what@exception@std@@UEBAPEBDXZ 0000000180000000     task_group_context.obj
 0004:fff7d000       $pdata$??1exception@std@@UEAA@XZ 0000000180000000     task_group_context.obj
 0002:fffad000       $unwind$??1exception@std@@UEAA@XZ 0000000180000000     task_group_context.obj
 0004:fff7d000       $pdata$??0exception@std@@QEAA@AEBV01@@Z 0000000180000000     task_group_context.obj
 0002:fffad000       $unwind$??0exception@std@@QEAA@AEBV01@@Z 0000000180000000     task_group_context.obj
 0004:fff7d000       $pdata$??0exception@std@@QEAA@XZ 0000000180000000     task_group_context.obj
 0002:fffad000       $unwind$??0exception@std@@QEAA@XZ 0000000180000000     task_group_context.obj
 0004:fff7d000       $pdata$??0no_copy@internal@tbb@@QEAA@XZ 0000000180000000     task_group_context.obj
 0002:fffad000       $unwind$??0no_copy@internal@tbb@@QEAA@XZ 0000000180000000     task_group_context.obj
 0004:fff7d000       $pdata$?__empty_global_delete@@YAXPEAX_K@Z 0000000180000000     task_group_context.obj
 0002:fffad000       $unwind$?__empty_global_delete@@YAXPEAX_K@Z 0000000180000000     task_group_context.obj
 0004:fff7d000       $pdata$?__empty_global_delete@@YAXPEAX@Z 0000000180000000     task_group_context.obj
 0002:fffad000       $unwind$?__empty_global_delete@@YAXPEAX@Z 0000000180000000     task_group_context.obj
 0004:fff7d000       $pdata$?parent@task@tbb@@QEBAPEAV12@XZ 0000000180000000     task.obj
 0002:fffad000       $unwind$??$punned_cast@PEAVbinary_semaphore@internal@tbb@@$$CBV?$aligned_space@Vbinary_semaphore@internal@tbb@@$00@3@@internal@tbb@@YAPEAVbinary_semaphore@01@PEBV?$aligned_space@Vbinary_semaphore@internal@tbb@@$00@1@@Z 0000000180000000     arena.obj
 0004:fff7d000       $pdata$??$punned_cast@PEAVbinary_semaphore@internal@tbb@@$$CBV?$aligned_space@Vbinary_semaphore@internal@tbb@@$00@3@@internal@tbb@@YAPEAVbinary_semaphore@01@PEBV?$aligned_space@Vbinary_semaphore@internal@tbb@@$00@1@@Z 0000000180000000     arena.obj
 0002:fffad000       $unwind$?parent@task@tbb@@QEBAPEAV12@XZ 0000000180000000     task.obj
 0004:fff7d000       $pdata$?__empty_global_delete@@YAXPEAX_K@Z 0000000180000000     task.obj
 0002:fffad000       $unwind$??$__TBB_load_with_acquire@C@internal@tbb@@YACAEDC@Z 0000000180000000     arena.obj
 0004:fff7d000       $pdata$??$__TBB_load_with_acquire@C@internal@tbb@@YACAEDC@Z 0000000180000000     arena.obj
 0002:fffad000       $unwind$??0?$converter@_N@?$atomic_impl@_N@internal@tbb@@QEAA@XZ 0000000180000000     arena.obj
 0004:fff7d000       $pdata$??0?$converter@_N@?$atomic_impl@_N@internal@tbb@@QEAA@XZ 0000000180000000     arena.obj
 0002:fffad000       $unwind$??0?$converter@_N@?$atomic_impl@_N@internal@tbb@@QEAA@_N@Z 0000000180000000     arena.obj
 0004:fff7d000       $pdata$??0?$converter@_N@?$atomic_impl@_N@internal@tbb@@QEAA@_N@Z 0000000180000000     arena.obj
 0002:fffad000       $unwind$?__empty_global_delete@@YAXPEAX_K@Z 0000000180000000     task.obj
 0004:fff7d000       $pdata$?__empty_global_delete@@YAXPEAX@Z 0000000180000000     task.obj
 0002:fffad000       $unwind$?__empty_global_delete@@YAXPEAX@Z 0000000180000000     task.obj
 0002:fffad000       $unwind$??$punned_cast@PEAVscoped_lock@spin_mutex@tbb@@$$CBV?$aligned_space@Vscoped_lock@spin_mutex@tbb@@$00@3@@internal@tbb@@YAPEAVscoped_lock@spin_mutex@1@PEBV?$aligned_space@Vscoped_lock@spin_mutex@tbb@@$00@1@@Z 0000000180000000     arena.obj
 0004:fff7d000       $pdata$??$punned_cast@PEAVscoped_lock@spin_mutex@tbb@@$$CBV?$aligned_space@Vscoped_lock@spin_mutex@tbb@@$00@3@@internal@tbb@@YAPEAVscoped_lock@spin_mutex@1@PEBV?$aligned_space@Vscoped_lock@spin_mutex@tbb@@$00@1@@Z 0000000180000000     arena.obj
 0002:fffad000       $unwind$??$__TBB_store_with_release@_J_J@internal@tbb@@YAXAEC_J_J@Z 0000000180000000     arena.obj
 0004:fff7d000       $pdata$??$__TBB_store_with_release@_J_J@internal@tbb@@YAXAEC_J_J@Z 0000000180000000     arena.obj
 0002:fffad000       $unwind$??$__TBB_store_with_release@CC@internal@tbb@@YAXAECCC@Z 0000000180000000     arena.obj
 0004:fff7d000       $pdata$??$__TBB_store_with_release@CC@internal@tbb@@YAXAECCC@Z 0000000180000000     arena.obj
 0002:fffad000       $unwind$??$__TBB_store_with_release@HH@internal@tbb@@YAXAECHH@Z 0000000180000000     arena.obj
 0004:fff7d000       $pdata$?fetch_and_add@?$atomic_traits@$07$0A@@internal@tbb@@SA_JPECX_J@Z 0000000180000000     concurrent_queue_v2.obj
 0002:fffad000       $unwind$?fetch_and_add@?$atomic_traits@$07$0A@@internal@tbb@@SA_JPECX_J@Z 0000000180000000     concurrent_queue_v2.obj
 0004:fff7d000       $pdata$?compare_and_swap@?$atomic_traits@$07$0A@@internal@tbb@@SA_JPECX_J1@Z 0000000180000000     concurrent_queue_v2.obj
 0002:fffad000       $unwind$?compare_and_swap@?$atomic_traits@$07$0A@@internal@tbb@@SA_JPECX_J1@Z 0000000180000000     concurrent_queue_v2.obj
 0004:fff7d000       $pdata$??0?$ptr_converter@PED_K@?$atomic_impl@_K@internal@tbb@@QEAA@PED_K@Z 0000000180000000     concurrent_queue_v2.obj
 0002:fffad000       $unwind$??0?$ptr_converter@PED_K@?$atomic_impl@_K@internal@tbb@@QEAA@PED_K@Z 0000000180000000     concurrent_queue_v2.obj
 0004:fff7d000       $pdata$??0?$ptr_converter@PEA_K@?$atomic_impl@_K@internal@tbb@@QEAA@PEA_K@Z 0000000180000000     concurrent_queue_v2.obj
 0002:fffad000       $unwind$??0?$ptr_converter@PEA_K@?$atomic_impl@_K@internal@tbb@@QEAA@PEA_K@Z 0000000180000000     concurrent_queue_v2.obj
 0004:fff7d000       $pdata$?store_with_release@?$machine_load_store@_J$07@internal@tbb@@SAXAEC_J_J@Z 0000000180000000     concurrent_queue_v2.obj
 0002:fffad000       $unwind$?store_with_release@?$machine_load_store@_J$07@internal@tbb@@SAXAEC_J_J@Z 0000000180000000     concurrent_queue_v2.obj
 0004:fff7d000       $pdata$?load_with_acquire@?$machine_load_store@_J$07@internal@tbb@@SA_JAED_J@Z 0000000180000000     concurrent_queue_v2.obj
 0002:fffad000       $unwind$?load_with_acquire@?$machine_load_store@_J$07@internal@tbb@@SA_JAED_J@Z 0000000180000000     concurrent_queue_v2.obj
 0004:fff7d000       $pdata$??$__TBB_store_with_release@HH@internal@tbb@@YAXAECHH@Z 0000000180000000     arena.obj
 0002:fffad000       $unwind$??$__TBB_load_with_acquire@H@internal@tbb@@YAHAEDH@Z 0000000180000000     arena.obj
 0004:fff7d000       $pdata$??$is_power_of_two@_K@internal@tbb@@YA_N_K@Z 0000000180000000     concurrent_queue_v2.obj
 0002:fffad000       $unwind$??$is_power_of_two@_K@internal@tbb@@YA_N_K@Z 0000000180000000     concurrent_queue_v2.obj
 0004:fff7d000       $pdata$??$fetch_and_add@$0A@@?$atomic_impl_with_arithmetic@_K_KD@internal@tbb@@QEAA_K_K@Z 0000000180000000     concurrent_queue_v2.obj
 0002:fffad000       $unwind$??$fetch_and_add@$0A@@?$atomic_impl_with_arithmetic@_K_KD@internal@tbb@@QEAA_K_K@Z 0000000180000000     concurrent_queue_v2.obj
 0004:fff7d000       $pdata$??$__TBB_load_with_acquire@H@internal@tbb@@YAHAEDH@Z 0000000180000000     arena.obj
 0002:fffad000       $unwind$??0?$converter@I@?$atomic_impl@I@internal@tbb@@QEAA@XZ 0000000180000000     arena.obj
 0004:fff7d000       $pdata$??0?$converter@I@?$atomic_impl@I@internal@tbb@@QEAA@XZ 0000000180000000     arena.obj
 0002:fffad000       $unwind$??0?$converter@I@?$atomic_impl@I@internal@tbb@@QEAA@I@Z 0000000180000000     arena.obj
 0004:fff7d000       $pdata$??$compare_and_swap@$0A@@?$atomic_impl@_K@internal@tbb@@QEAA_K_K0@Z 0000000180000000     concurrent_queue_v2.obj
 0002:fffad000       $unwind$??$compare_and_swap@$0A@@?$atomic_impl@_K@internal@tbb@@QEAA_K_K0@Z 0000000180000000     concurrent_queue_v2.obj
 0004:fff7d000       $pdata$??$to_value@_K@?$atomic_impl@_K@internal@tbb@@CA_K_J@Z 0000000180000000     concurrent_queue_v2.obj
