 tbb_debug

 Timestamp is 5b3cd387 (Wed Jul  4 23:02:47 2018)

 Preferred load address is 10000000

 Start         Length     Name                   Class
 0001:00000000 00000110H .text$di                CODE
 0001:00000110 000425c0H .text$mn                CODE
 0001:000426d0 000018b0H .text$x                 CODE
 0001:00043f80 00000036H .text$yd                CODE
 0002:00000000 00000200H .idata$5                DATA
 0002:00000200 00000004H .00cfg                  DATA
 0002:00000204 00000004H .CRT$XCA                DATA
 0002:00000208 00000020H .CRT$XCU                DATA
 0002:00000228 00000004H .CRT$XCZ                DATA
 0002:0000022c 00000004H .CRT$XIA                DATA
 0002:00000230 00000004H .CRT$XIZ                DATA
 0002:00000234 00000004H .CRT$XPA                DATA
 0002:00000238 00000004H .CRT$XPZ                DATA
 0002:0000023c 00000004H .CRT$XTA                DATA
 0002:00000240 00000010H .CRT$XTZ                DATA
 0002:00000244 00000000H .gfids$y                DATA
 0002:00000250 00013558H .rdata                  DATA
 0002:000137a8 00001158H .rdata$r                DATA
 0002:00014900 00000280H .rdata$sxdata           DATA
 0002:00014b80 00000318H .rdata$zzzdbg           DATA
 0002:00014e98 00000004H .rtc$IAA                DATA
 0002:00014e9c 0000008cH .rtc$IMZ                DATA
 0002:00014f28 00000004H .rtc$IZZ                DATA
 0002:00014f2c 00000004H .rtc$TAA                DATA
 0002:00014f30 0000008cH .rtc$TMZ                DATA
 0002:00014fbc 00000004H .rtc$TZZ                DATA
 0002:00014fc0 000020e0H .xdata$x                DATA
 0002:000170a0 00003d48H .edata                  DATA
 0002:0001ade8 00000050H .idata$2                DATA
 0002:0001ae38 00000014H .idata$3                DATA
 0002:0001ae4c 00000200H .idata$4                DATA
 0002:0001b04c 000009c8H .idata$6                DATA
 0003:00000000 00001098H .data                   DATA
 0003:00001098 00000928H .data$r                 DATA
 0003:000019c0 00001adcH .bss                    DATA
 0004:00000000 000000a0H .rsrc$01                DATA
 0004:000000a0 00000560H .rsrc$02                DATA

  Address         Publics by Value              Rva+Base       Lib:Object

 0000:00000000       ___hybrid_auxiliary_iat    00000000     <absolute>
 0000:00000000       ___guard_longjmp_count     00000000     <absolute>
 0000:00000000       ___guard_longjmp_table     00000000     <absolute>
 0000:00000000       ___guard_iat_count         00000000     <absolute>
 0000:00000000       ___dynamic_value_reloc_table 00000000     <absolute>
 0000:00000000       ___guard_iat_table         00000000     <absolute>
 0000:00000000       ___guard_fids_count        00000000     <absolute>
 0000:00000000       ___hybrid_code_map_count   00000000     <absolute>
 0000:00000000       ___enclave_config          00000000     <absolute>
 0000:00000000       ___guard_fids_table        00000000     <absolute>
 0000:00000000       ___hybrid_code_map         00000000     <absolute>
 0000:000000a0       ___safe_se_handler_count   000000a0     <absolute>
 0000:00000100       ___guard_flags             00000100     <absolute>
 0000:00000000       ___ImageBase               10000000     <linker-defined>
 0001:00000110       ?internal_grow_predicate@hash_map_segment_base@internal@tbb@@QBE_NXZ 10001110 f   concurrent_hash_map.obj
 0001:00000170       ??$__TBB_load_with_acquire@H@internal@tbb@@YAHADH@Z 10001170 f i concurrent_hash_map.obj
 0001:00000190       ??$to_bits_ref@$$CDI@?$atomic_impl@I@internal@tbb@@CAAAHADI@Z 10001190 f i concurrent_hash_map.obj
 0001:000001c0       ??$to_value@I@?$atomic_impl@I@internal@tbb@@CAIH@Z 100011c0 f i concurrent_hash_map.obj
 0001:00000230       ??0?$converter@I@?$atomic_impl@I@internal@tbb@@QAE@XZ 10001230 f i concurrent_hash_map.obj
 0001:00000250       ??0?$ptr_converter@PDI@?$atomic_impl@I@internal@tbb@@QAE@PDI@Z 10001250 f i concurrent_hash_map.obj
 0001:00000270       ??B?$atomic_impl@I@internal@tbb@@QDEIXZ 10001270 f i concurrent_hash_map.obj
 0001:000002b0       ?__empty_global_delete@@YAXPAX@Z 100012b0 f i concurrent_hash_map.obj
 0001:000002c0       ?__global_delete@@YAXPAXI@Z 100012c0 f i concurrent_hash_map.obj
 0001:000002c0       ?__empty_global_delete@@YAXPAXI@Z 100012c0 f i concurrent_hash_map.obj
 0001:000002d0       ?load_with_acquire@?$machine_load_store@H$03@internal@tbb@@SAHADH@Z 100012d0 f i concurrent_hash_map.obj
 0001:00000340       ??0concurrent_queue_base_v3@internal@tbb@@IAE@I@Z 10001340 f   concurrent_queue.obj
 0001:00000590       ??1concurrent_queue_base_v3@internal@tbb@@MAE@XZ 10001590 f   concurrent_queue.obj
 0001:00000660       ?internal_push@concurrent_queue_base_v3@internal@tbb@@IAEXPBX@Z 10001660 f   concurrent_queue.obj
 0001:00000690       ?internal_pop@concurrent_queue_base_v3@internal@tbb@@IAEXPAX@Z 10001690 f   concurrent_queue.obj
 0001:00000930       ?internal_abort@concurrent_queue_base_v3@internal@tbb@@IAEXXZ 10001930 f   concurrent_queue.obj
 0001:00000990       ?internal_push_if_not_full@concurrent_queue_base_v3@internal@tbb@@IAE_NPBX@Z 10001990 f   concurrent_queue.obj
 0001:000009c0       ?internal_pop_if_present@concurrent_queue_base_v3@internal@tbb@@IAE_NPAX@Z 100019c0 f   concurrent_queue.obj
 0001:00000a90       ?internal_size@concurrent_queue_base_v3@internal@tbb@@IBEHXZ 10001a90 f   concurrent_queue.obj
 0001:00000b10       ?internal_empty@concurrent_queue_base_v3@internal@tbb@@IBE_NXZ 10001b10 f   concurrent_queue.obj
 0001:00000ba0       ?internal_set_capacity@concurrent_queue_base_v3@internal@tbb@@IAEXHI@Z 10001ba0 f   concurrent_queue.obj
 0001:00000be0       ?internal_finish_clear@concurrent_queue_base_v3@internal@tbb@@IAEXXZ 10001be0 f   concurrent_queue.obj
 0001:00000cd0       ?internal_throw_exception@concurrent_queue_base_v3@internal@tbb@@IBEXXZ 10001cd0 f   concurrent_queue.obj
 0001:00000d00       ?assign@concurrent_queue_base_v3@internal@tbb@@IAEXABV123@@Z 10001d00 f   concurrent_queue.obj
 0001:00000d30       ?internal_insert_item@concurrent_queue_base_v3@internal@tbb@@IAEXPBXW4copy_specifics@123@@Z 10001d30 f   concurrent_queue.obj
 0001:00001040       ?internal_insert_if_not_full@concurrent_queue_base_v3@internal@tbb@@IAE_NPBXW4copy_specifics@123@@Z 10002040 f   concurrent_queue.obj
 0001:00001110       ?internal_assign@concurrent_queue_base_v3@internal@tbb@@IAEXABV123@W4copy_specifics@123@@Z 10002110 f   concurrent_queue.obj
 0001:00001270       ?move_content@concurrent_queue_base_v8@internal@tbb@@IAEXAAV123@@Z 10002270 f   concurrent_queue.obj
 0001:000012a0       ?internal_push_move_if_not_full@concurrent_queue_base_v8@internal@tbb@@IAE_NPBX@Z 100022a0 f   concurrent_queue.obj
 0001:000012d0       ?internal_push_move@concurrent_queue_base_v8@internal@tbb@@IAEXPBX@Z 100022d0 f   concurrent_queue.obj
 0001:00001300       ?initialize@concurrent_queue_iterator_base_v3@internal@tbb@@AAEXABVconcurrent_queue_base_v3@23@I@Z 10002300 f   concurrent_queue.obj
 0001:000013a0       ??0concurrent_queue_iterator_base_v3@internal@tbb@@IAE@ABVconcurrent_queue_base_v3@12@@Z 100023a0 f   concurrent_queue.obj
 0001:000013d0       ??0concurrent_queue_iterator_base_v3@internal@tbb@@IAE@ABVconcurrent_queue_base_v3@12@I@Z 100023d0 f   concurrent_queue.obj
 0001:00001410       ?assign@concurrent_queue_iterator_base_v3@internal@tbb@@IAEXABV123@@Z 10002410 f   concurrent_queue.obj
 0001:000014d0       ?advance@concurrent_queue_iterator_base_v3@internal@tbb@@IAEXXZ 100024d0 f   concurrent_queue.obj
 0001:00001630       ??1concurrent_queue_iterator_base_v3@internal@tbb@@IAE@XZ 10002630 f   concurrent_queue.obj
 0001:000016a0       ?push@micro_queue@internal@tbb@@QAEXPBXIAAVconcurrent_queue_base_v3@23@W4copy_specifics@423@@Z 100026a0 f   concurrent_queue.obj
 0001:000019e0       ?abort_push@micro_queue@internal@tbb@@QAEXIAAVconcurrent_queue_base_v3@23@@Z 100029e0 f   concurrent_queue.obj
 0001:00001a20       ?pop@micro_queue@internal@tbb@@QAE_NPAXIAAVconcurrent_queue_base_v3@23@@Z 10002a20 f   concurrent_queue.obj
 0001:00001c30       ?assign@micro_queue@internal@tbb@@QAEAAU123@ABU123@AAVconcurrent_queue_base_v3@23@W4copy_specifics@423@@Z 10002c30 f   concurrent_queue.obj
 0001:00001f40       ?make_copy@micro_queue@internal@tbb@@QAEPAUpage@concurrent_queue_base_v3@23@AAV523@PBU4523@IIAAIW4copy_specifics@523@@Z 10002f40 f   concurrent_queue.obj
 0001:00002050       ?make_invalid@micro_queue@internal@tbb@@QAEXI@Z 10003050 f   concurrent_queue.obj
 0001:00002160       ??$__TBB_load_relaxed@I@internal@tbb@@YAIADI@Z 10003160 f i concurrent_queue.obj
 0001:00002180       ??$__TBB_load_with_acquire@C@internal@tbb@@YACADC@Z 10003180 f i concurrent_queue.obj
 0001:000021a0       ??$__TBB_store_relaxed@IH@internal@tbb@@YAXACIH@Z 100031a0 f i concurrent_queue.obj
 0001:000021c0       ??$__TBB_store_with_release@CC@internal@tbb@@YAXACCC@Z 100031c0 f i concurrent_queue.obj
 0001:000021e0       ??$__TBB_store_with_release@HH@internal@tbb@@YAXACHH@Z 100031e0 f i concurrent_queue.obj
 0001:00002200       ??$compare_and_swap@$0A@@?$atomic_impl@I@internal@tbb@@QAEIII@Z 10003200 f i concurrent_queue.obj
 0001:00002250       ??$fetch_and_add@$0A@@?$atomic_impl_with_arithmetic@IID@internal@tbb@@QAEII@Z 10003250 f i concurrent_queue.obj
 0001:00002280       ??$is_aligned@$$BY07Umicro_queue@internal@tbb@@@internal@tbb@@YA_NPAY07Umicro_queue@01@I@Z 10003280 f i concurrent_queue.obj
 0001:000022b0       ??$is_aligned@U?$atomic@I@tbb@@@internal@tbb@@YA_NPAU?$atomic@I@1@I@Z 100032b0 f i concurrent_queue.obj
 0001:000022e0       ??$is_aligned@Vconcurrent_queue_rep@internal@tbb@@@internal@tbb@@YA_NPAVconcurrent_queue_rep@01@I@Z 100032e0 f i concurrent_queue.obj
 0001:00002310       ??$is_power_of_two@I@internal@tbb@@YA_NI@Z 10003310 f i concurrent_queue.obj
 0001:00002350       ??$modulo_power_of_two@II@internal@tbb@@YAIII@Z 10003350 f i concurrent_queue.obj
 0001:000023a0       ??$notify@Upredicate_leq@internal@tbb@@@concurrent_monitor@internal@tbb@@QAEXABUpredicate_leq@12@@Z 100033a0 f i concurrent_queue.obj
 0001:000023d0       ??$notify_relaxed@Upredicate_leq@internal@tbb@@@concurrent_monitor@internal@tbb@@QAEXABUpredicate_leq@12@@Z 100033d0 f i concurrent_queue.obj
 0001:000025b0       ??$punned_cast@PAVbinary_semaphore@internal@tbb@@$$CBV?$aligned_space@Vbinary_semaphore@internal@tbb@@$00@3@@internal@tbb@@YAPAVbinary_semaphore@01@PBV?$aligned_space@Vbinary_semaphore@internal@tbb@@$00@1@@Z 100035b0 f i concurrent_queue.obj
 0001:000025d0       ??$spin_wait_until_eq@U?$atomic@I@tbb@@I@internal@tbb@@YAXADU?$atomic@I@1@I@Z 100035d0 f i concurrent_queue.obj
 0001:00002650       ??$spin_wait_while_eq@U?$atomic@I@tbb@@I@internal@tbb@@YAXADU?$atomic@I@1@I@Z 10003650 f i concurrent_queue.obj
 0001:000026d0       ??$suppress_unused_warning@E@internal@tbb@@YAXABE@Z 100036d0 f i concurrent_queue.obj
 0001:000026e0       ??$to_bits@I@?$atomic_impl@I@internal@tbb@@CAHI@Z 100036e0 f i concurrent_queue.obj
 0001:00002710       ??$to_bits@PAUpage@concurrent_queue_base_v3@internal@tbb@@@?$atomic_impl@PAUpage@concurrent_queue_base_v3@internal@tbb@@@internal@tbb@@CAHPAUpage@concurrent_queue_base_v3@12@@Z 10003710 f i concurrent_queue.obj
 0001:00002740       ??$to_bits@_N@?$atomic_impl@_N@internal@tbb@@CAC_N@Z 10003740 f i concurrent_queue.obj
 0001:00002770       ??$to_bits_ref@$$CD_N@?$atomic_impl@_N@internal@tbb@@CAAACAD_N@Z 10003770 f i concurrent_queue.obj
 0001:000027a0       ??$to_bits_ref@I@?$atomic_impl@I@internal@tbb@@CAAAHAAI@Z 100037a0 f i concurrent_queue.obj
 0001:000027d0       ??$to_bits_ref@PAUpage@concurrent_queue_base_v3@internal@tbb@@@?$atomic_impl@PAUpage@concurrent_queue_base_v3@internal@tbb@@@internal@tbb@@CAAAHAAPAUpage@concurrent_queue_base_v3@12@@Z 100037d0 f i concurrent_queue.obj
 0001:00002800       ??$to_bits_ref@SAUpage@concurrent_queue_base_v3@internal@tbb@@@?$atomic_impl@PAUpage@concurrent_queue_base_v3@internal@tbb@@@internal@tbb@@CAAAHADSAUpage@concurrent_queue_base_v3@12@@Z 10003800 f i concurrent_queue.obj
 0001:00002830       ??$to_bits_ref@_N@?$atomic_impl@_N@internal@tbb@@CAAACAA_N@Z 10003830 f i concurrent_queue.obj
 0001:00002860       ??$to_value@PAUpage@concurrent_queue_base_v3@internal@tbb@@@?$atomic_impl@PAUpage@concurrent_queue_base_v3@internal@tbb@@@internal@tbb@@CAPAUpage@concurrent_queue_base_v3@12@H@Z 10003860 f i concurrent_queue.obj
 0001:000028d0       ??$to_value@_N@?$atomic_impl@_N@internal@tbb@@CA_NC@Z 100038d0 f i concurrent_queue.obj
 0001:00002940       ??0?$cache_aligned_allocator@Vconcurrent_queue_iterator_rep@internal@tbb@@@tbb@@QAE@XZ 10003940 f i concurrent_queue.obj
 0001:00002960       ??0?$cache_aligned_allocator@Vconcurrent_queue_rep@internal@tbb@@@tbb@@QAE@XZ 10003960 f i concurrent_queue.obj
 0001:00002980       ??0?$converter@I@?$atomic_impl@I@internal@tbb@@QAE@I@Z 10003980 f i concurrent_queue.obj
 0001:000029a0       ??0?$converter@PAUpage@concurrent_queue_base_v3@internal@tbb@@@?$atomic_impl@PAUpage@concurrent_queue_base_v3@internal@tbb@@@internal@tbb@@QAE@PAUpage@concurrent_queue_base_v3@23@@Z 100039a0 f i concurrent_queue.obj
 0001:000029c0       ??0?$converter@PAUpage@concurrent_queue_base_v3@internal@tbb@@@?$atomic_impl@PAUpage@concurrent_queue_base_v3@internal@tbb@@@internal@tbb@@QAE@XZ 100039c0 f i concurrent_queue.obj
 0001:000029e0       ??0?$converter@_N@?$atomic_impl@_N@internal@tbb@@QAE@XZ 100039e0 f i concurrent_queue.obj
 0001:00002a00       ??0?$converter@_N@?$atomic_impl@_N@internal@tbb@@QAE@_N@Z 10003a00 f i concurrent_queue.obj
 0001:00002a20       ??0?$ptr_converter@PAI@?$atomic_impl@I@internal@tbb@@QAE@PAI@Z 10003a20 f i concurrent_queue.obj
 0001:00002a40       ??0?$ptr_converter@PAPAUpage@concurrent_queue_base_v3@internal@tbb@@@?$atomic_impl@PAUpage@concurrent_queue_base_v3@internal@tbb@@@internal@tbb@@QAE@PAPAUpage@concurrent_queue_base_v3@23@@Z 10003a40 f i concurrent_queue.obj
 0001:00002a60       ??0?$ptr_converter@PA_N@?$atomic_impl@_N@internal@tbb@@QAE@PA_N@Z 10003a60 f i concurrent_queue.obj
 0001:00002a80       ??0?$ptr_converter@PDSAUpage@concurrent_queue_base_v3@internal@tbb@@@?$atomic_impl@PAUpage@concurrent_queue_base_v3@internal@tbb@@@internal@tbb@@QAE@PDSAUpage@concurrent_queue_base_v3@23@@Z 10003a80 f i concurrent_queue.obj
 0001:00002aa0       ??0?$ptr_converter@PD_N@?$atomic_impl@_N@internal@tbb@@QAE@PD_N@Z 10003aa0 f i concurrent_queue.obj
 0001:00002ac0       ??0atomic_backoff@internal@tbb@@QAE@XZ 10003ac0 f i concurrent_queue.obj
 0001:00002af0       ??0atomic_backoff@internal@tbb@@QAE@_N@Z 10003af0 f i concurrent_queue.obj
 0001:00002b30       ??0circular_doubly_linked_list_with_sentinel@internal@tbb@@QAE@XZ 10003b30 f i concurrent_queue.obj
 0001:00002b70       ??0concurrent_monitor@internal@tbb@@QAE@XZ 10003b70 f i concurrent_queue.obj
 0001:00002c00       ??0concurrent_queue_iterator_rep@internal@tbb@@QAE@ABVconcurrent_queue_base_v3@12@I@Z 10003c00 f i concurrent_queue.obj
 0001:00002ca0       ??0micro_queue_pop_finalizer@internal@tbb@@QAE@AAUmicro_queue@12@AAVconcurrent_queue_base_v3@12@IPAUpage@412@@Z 10003ca0 f i concurrent_queue.obj
 0001:00002cf0       ??0mutex_copy_deprecated_and_disabled@internal@tbb@@QAE@XZ 10003cf0 f i concurrent_queue.obj
 0001:00002d20       ??0no_copy@internal@tbb@@QAE@XZ 10003d20 f i concurrent_queue.obj
 0001:00002d40       ??0node_t@circular_doubly_linked_list_with_sentinel@internal@tbb@@QAE@XZ 10003d40 f i concurrent_queue.obj
 0001:00002d70       ??0predicate_leq@internal@tbb@@QAE@I@Z 10003d70 f i concurrent_queue.obj
 0001:00002d90       ??0scoped_lock@spin_mutex@tbb@@QAE@AAV12@@Z 10003d90 f i concurrent_queue.obj
 0001:00002df0       ??0spin_mutex@tbb@@QAE@XZ  10003df0 f i concurrent_queue.obj
 0001:00002e30       ??0thread_context@concurrent_monitor@internal@tbb@@QAE@XZ 10003e30 f i concurrent_queue.obj
 0001:00002ea0       ??1binary_semaphore@internal@tbb@@QAE@XZ 10003ea0 f i concurrent_queue.obj
 0001:00002ee0       ??1circular_doubly_linked_list_with_sentinel@internal@tbb@@QAE@XZ 10003ee0 f i concurrent_queue.obj
 0001:00002f60       ??1micro_queue_pop_finalizer@internal@tbb@@QAE@XZ 10003f60 f i concurrent_queue.obj
 0001:00003080       ??1scoped_lock@spin_mutex@tbb@@QAE@XZ 10004080 f i concurrent_queue.obj
 0001:000030e0       ??1thread_context@concurrent_monitor@internal@tbb@@QAE@XZ 100040e0 f i concurrent_queue.obj
 0001:00003160       ??2@YAPAXIPAX@Z            10004160 f i concurrent_queue.obj
 0001:00003170       ??4?$atomic@I@tbb@@QAEAAU01@ABU01@@Z 10004170 f i concurrent_queue.obj
 0001:000031b0       ??4?$atomic@I@tbb@@QAEII@Z 100041b0 f i concurrent_queue.obj
 0001:000031e0       ??4?$atomic@PAUpage@concurrent_queue_base_v3@internal@tbb@@@tbb@@QAEPAUpage@concurrent_queue_base_v3@internal@1@PAU2341@@Z 100041e0 f i concurrent_queue.obj
 0001:00003210       ??4?$atomic@_N@tbb@@QAE_N_N@Z 10004210 f i concurrent_queue.obj
 0001:00003240       ??B?$atomic_impl@PAUpage@concurrent_queue_base_v3@internal@tbb@@@internal@tbb@@QDEPAUpage@concurrent_queue_base_v3@12@XZ 10004240 f i concurrent_queue.obj
 0001:00003280       ??B?$atomic_impl@_N@internal@tbb@@QDE_NXZ 10004280 f i concurrent_queue.obj
 0001:000032c0       ??E?$atomic_impl_with_arithmetic@IID@internal@tbb@@QAEIH@Z 100042c0 f i concurrent_queue.obj
 0001:000032f0       ??E?$atomic_impl_with_arithmetic@IID@internal@tbb@@QAEIXZ 100042f0 f i concurrent_queue.obj
 0001:00003320       ??F?$atomic_impl_with_arithmetic@IID@internal@tbb@@QAEIH@Z 10004320 f i concurrent_queue.obj
 0001:00003350       ??F?$atomic_impl_with_arithmetic@IID@internal@tbb@@QAEIXZ 10004350 f i concurrent_queue.obj
 0001:00003380       ??Rpredicate_leq@internal@tbb@@QBE_NI@Z 10004380 f i concurrent_queue.obj
 0001:000033c0       ??Y?$atomic_impl_with_arithmetic@IID@internal@tbb@@QAEII@Z 100043c0 f i concurrent_queue.obj
 0001:000033f0       ??_Gbinary_semaphore@internal@tbb@@QAEPAXI@Z 100043f0 f i concurrent_queue.obj
 0001:00003430       ??_Econcurrent_queue_base_v3@internal@tbb@@MAEPAXI@Z 10004430 f i concurrent_queue.obj
 0001:00003430       ??_Gconcurrent_queue_base_v3@internal@tbb@@MAEPAXI@Z 10004430 f i concurrent_queue.obj
 0001:00003470       ?P@binary_semaphore@internal@tbb@@QAEXXZ 10004470 f i concurrent_queue.obj
 0001:000034b0       ?V@binary_semaphore@internal@tbb@@QAEXXZ 100044b0 f i concurrent_queue.obj
 0001:000034f0       ?__TBB_store_relaxed@internal@tbb@@YAXACII@Z 100044f0 f i concurrent_queue.obj
 0001:00003510       ?abort_all@concurrent_monitor@internal@tbb@@QAEXXZ 10004510 f i concurrent_queue.obj
 0001:00003540       ?add@circular_doubly_linked_list_with_sentinel@internal@tbb@@QAEXPAUnode_t@123@@Z 10004540 f i concurrent_queue.obj
 0001:000035b0       ?allocate@?$cache_aligned_allocator@Vconcurrent_queue_iterator_rep@internal@tbb@@@tbb@@QAEPAVconcurrent_queue_iterator_rep@internal@2@IPBX@Z 100045b0 f i concurrent_queue.obj
 0001:000035e0       ?allocate@?$cache_aligned_allocator@Vconcurrent_queue_rep@internal@tbb@@@tbb@@QAEPAVconcurrent_queue_rep@internal@2@IPBX@Z 100045e0 f i concurrent_queue.obj
 0001:00003620       ?atomic_fence@tbb@@YAXXZ   10004620 f i concurrent_queue.obj
 0001:00003630       ?begin@?$aligned_space@Vbinary_semaphore@internal@tbb@@$00@tbb@@QBEPAVbinary_semaphore@internal@2@XZ 10004630 f i concurrent_queue.obj
 0001:00003660       ?choose@concurrent_queue_rep@internal@tbb@@QAEAAUmicro_queue@23@I@Z 10004660 f i concurrent_queue.obj
 0001:000036a0       ?clear@circular_doubly_linked_list_with_sentinel@internal@tbb@@QAEXXZ 100046a0 f i concurrent_queue.obj
 0001:000036f0       ?commit_wait@concurrent_monitor@internal@tbb@@QAE_NAAVthread_context@123@@Z 100046f0 f i concurrent_queue.obj
 0001:000037e0       ?compare_and_swap@?$atomic_impl@I@internal@tbb@@QAEIII@Z 100047e0 f i concurrent_queue.obj
 0001:00003810       ?compare_and_swap@?$atomic_traits@$03$0A@@internal@tbb@@SAHPCXHH@Z 10004810 f i concurrent_queue.obj
 0001:00003830       ?deallocate@?$cache_aligned_allocator@Vconcurrent_queue_iterator_rep@internal@tbb@@@tbb@@QAEXPAVconcurrent_queue_iterator_rep@internal@2@I@Z 10004830 f i concurrent_queue.obj
 0001:00003860       ?deallocate@?$cache_aligned_allocator@Vconcurrent_queue_rep@internal@tbb@@@tbb@@QAEXPAVconcurrent_queue_rep@internal@2@I@Z 10004860 f i concurrent_queue.obj
 0001:00003890       ?empty@circular_doubly_linked_list_with_sentinel@internal@tbb@@QBE_NXZ 10004890 f i concurrent_queue.obj
 0001:000038e0       ?end@circular_doubly_linked_list_with_sentinel@internal@tbb@@QBEPBUnode_t@123@XZ 100048e0 f i concurrent_queue.obj
 0001:00003900       ?fetch_and_add@?$atomic_impl_with_arithmetic@IID@internal@tbb@@QAEII@Z 10004900 f i concurrent_queue.obj
 0001:00003930       ?fetch_and_add@?$atomic_traits@$03$0A@@internal@tbb@@SAHPCXH@Z 10004930 f i concurrent_queue.obj
 0001:00003950       ?front@circular_doubly_linked_list_with_sentinel@internal@tbb@@QBEPAUnode_t@123@XZ 10004950 f i concurrent_queue.obj
 0001:00003970       ?get_item@concurrent_queue_iterator_rep@internal@tbb@@QAE_NAAPAXI@Z 10004970 f i concurrent_queue.obj
 0001:00003a60       ?index@concurrent_queue_rep@internal@tbb@@SAII@Z 10004a60 f i concurrent_queue.obj
 0001:00003a80       ?last@circular_doubly_linked_list_with_sentinel@internal@tbb@@QBEPAUnode_t@123@XZ 10004a80 f i concurrent_queue.obj
 0001:00003aa0       ?load@?$machine_load_store_relaxed@I$03@internal@tbb@@SAIADI@Z 10004aa0 f i concurrent_queue.obj
 0001:00003ab0       ?load_with_acquire@?$machine_load_store@C$00@internal@tbb@@SACADC@Z 10004ab0 f i concurrent_queue.obj
 0001:00003ad0       ?pause@atomic_backoff@internal@tbb@@QAEXXZ 10004ad0 f i concurrent_queue.obj
 0001:00003b30       ?remove@circular_doubly_linked_list_with_sentinel@internal@tbb@@QAEXAAUnode_t@123@@Z 10004b30 f i concurrent_queue.obj
 0001:00003bb0       ?semaphore@thread_context@concurrent_monitor@internal@tbb@@QAEAAVbinary_semaphore@34@XZ 10004bb0 f i concurrent_queue.obj
 0001:00003be0       ?size@circular_doubly_linked_list_with_sentinel@internal@tbb@@QBEIXZ 10004be0 f i concurrent_queue.obj
 0001:00003c00       ?store@?$machine_load_store_relaxed@I$03@internal@tbb@@SAXACII@Z 10004c00 f i concurrent_queue.obj
 0001:00003c10       ?store_with_release@?$atomic_impl@I@internal@tbb@@IAEII@Z 10004c10 f i concurrent_queue.obj
 0001:00003c60       ?store_with_release@?$atomic_impl@PAUpage@concurrent_queue_base_v3@internal@tbb@@@internal@tbb@@IAEPAUpage@concurrent_queue_base_v3@23@PAU4523@@Z 10004c60 f i concurrent_queue.obj
 0001:00003cb0       ?store_with_release@?$atomic_impl@_N@internal@tbb@@IAE_N_N@Z 10004cb0 f i concurrent_queue.obj
 0001:00003d00       ?store_with_release@?$machine_load_store@C$00@internal@tbb@@SAXACCC@Z 10004d00 f i concurrent_queue.obj
 0001:00003d10       ?store_with_release@?$machine_load_store@H$03@internal@tbb@@SAXACHH@Z 10004d10 f i concurrent_queue.obj
 0001:00003d20       ?throw_exception@internal@tbb@@YAXW4exception_id@12@@Z 10004d20 f i concurrent_queue.obj
 0001:00003d40       ?to_thread_context@concurrent_monitor@internal@tbb@@AAEPAVthread_context@123@PAUnode_t@circular_doubly_linked_list_with_sentinel@23@@Z 10004d40 f i concurrent_queue.obj
 0001:00003e10       ??1concurrent_vector_base_v3@internal@tbb@@IAE@XZ 10004e10 f   concurrent_vector.obj
 0001:00003f50       ?internal_reserve@concurrent_vector_base_v3@internal@tbb@@IAEXIII@Z 10004f50 f   concurrent_vector.obj
 0001:00004050       ?internal_capacity@concurrent_vector_base_v3@internal@tbb@@IBEIXZ 10005050 f   concurrent_vector.obj
 0001:00004090       ?internal_grow@concurrent_vector_base_v3@internal@tbb@@IAEXIIIP6AXPAXPBXI@Z1@Z 10005090 f   concurrent_vector.obj
 0001:00004260       ?internal_grow_by@concurrent_vector_base_v3@internal@tbb@@IAEIIIP6AXPAXPBXI@Z1@Z 10005260 f   concurrent_vector.obj
 0001:000042c0       ?internal_push_back@concurrent_vector_base_v3@internal@tbb@@IAEPAXIAAI@Z 100052c0 f   concurrent_vector.obj
 0001:000043c0       ?internal_clear@concurrent_vector_base_v3@internal@tbb@@IAEIP6AXPAXI@Z@Z 100053c0 f   concurrent_vector.obj
 0001:00004520       ?internal_compact@concurrent_vector_base_v3@internal@tbb@@IAEPAXIPAXP6AX0I@ZP6AX0PBXI@Z@Z 10005520 f   concurrent_vector.obj
 0001:00004ad0       ?internal_copy@concurrent_vector_base_v3@internal@tbb@@IAEXABV123@IP6AXPAXPBXI@Z@Z 10005ad0 f   concurrent_vector.obj
 0001:00004cb0       ?internal_assign@concurrent_vector_base_v3@internal@tbb@@IAEXABV123@IP6AXPAXI@ZP6AX1PBXI@Z4@Z 10005cb0 f   concurrent_vector.obj
 0001:000050a0       ?internal_throw_exception@concurrent_vector_base_v3@internal@tbb@@IBEXI@Z 100060a0 f   concurrent_vector.obj
 0001:00005100       ?internal_swap@concurrent_vector_base_v3@internal@tbb@@IAEXAAV123@@Z 10006100 f   concurrent_vector.obj
 0001:00005270       ?internal_resize@concurrent_vector_base_v3@internal@tbb@@IAEXIIIPBXP6AXPAXI@ZP6AX10I@Z@Z 10006270 f   concurrent_vector.obj
 0001:00005430       ?internal_grow_to_at_least_with_result@concurrent_vector_base_v3@internal@tbb@@IAEIIIP6AXPAXPBXI@Z1@Z 10006430 f   concurrent_vector.obj
 0001:00005660       ?internal_grow_to_at_least@concurrent_vector_base_v3@internal@tbb@@IAEXIIP6AXPAXPBXI@Z1@Z 10006660 f   concurrent_vector.obj
 0001:000056a0       ?enable_segment@helper@concurrent_vector_base_v3@internal@tbb@@SAIAAV234@II_N@Z 100066a0 f   concurrent_vector.obj
 0001:000059b0       ?extend_segment_table@helper@concurrent_vector_base_v3@internal@tbb@@SAXAAV234@I@Z 100069b0 f   concurrent_vector.obj
 0001:00005c30       ?cleanup@helper@concurrent_vector_base_v3@internal@tbb@@QAEXXZ 10006c30 f   concurrent_vector.obj
 0001:00005f40       ??$?9Usegment_allocated@concurrent_vector_base_v3@internal@tbb@@@internal@tbb@@YA_NABVsegment_value_t@concurrent_vector_base_v3@01@Usegment_allocated@301@@Z 10006f40 f i concurrent_vector.obj
 0001:00005f90       ??$?9Usegment_not_used@concurrent_vector_base_v3@internal@tbb@@@internal@tbb@@YA_NABVsegment_value_t@concurrent_vector_base_v3@01@Usegment_not_used@301@@Z 10006f90 f i concurrent_vector.obj
 0001:00005fe0       ??$_Construct_in_place@Vsegment_t@concurrent_vector_base_v3@internal@tbb@@ABV1234@@std@@YAXAAVsegment_t@concurrent_vector_base_v3@internal@tbb@@ABV1234@@Z 10006fe0 f i concurrent_vector.obj
 0001:00006030       ??$_Copy_no_deprecate@PAVsegment_t@concurrent_vector_base_v3@internal@tbb@@PAV1234@@std@@YAPAVsegment_t@concurrent_vector_base_v3@internal@tbb@@PAV1234@00@Z 10007030 f i concurrent_vector.obj
 0001:00006120       ??$_Copy_no_deprecate@PAVsegment_t@concurrent_vector_base_v3@internal@tbb@@V?$_Array_iterator@Vsegment_t@concurrent_vector_base_v3@internal@tbb@@$0CA@@std@@@std@@YA?AV?$_Array_iterator@Vsegment_t@concurrent_vector_base_v3@internal@tbb@@$0CA@@0@PAVsegment_t@concurrent_vector_base_v3@internal@tbb@@0V10@@Z 10007120 f i concurrent_vector.obj
 0001:00006240       ??$_Copy_unchecked1@PAVsegment_t@concurrent_vector_base_v3@internal@tbb@@PAV1234@@std@@YAPAVsegment_t@concurrent_vector_base_v3@internal@tbb@@PAV1234@00U_General_ptr_iterator_tag@0@@Z 10007240 f i concurrent_vector.obj
 0001:00006280       ??$_Copy_unchecked@PAVsegment_t@concurrent_vector_base_v3@internal@tbb@@PAV1234@@std@@YAPAVsegment_t@concurrent_vector_base_v3@internal@tbb@@PAV1234@00@Z 10007280 f i concurrent_vector.obj
 0001:000062d0       ??$_Debug_range2@PAVsegment_t@concurrent_vector_base_v3@internal@tbb@@@std@@YAXPAVsegment_t@concurrent_vector_base_v3@internal@tbb@@0PB_WIUrandom_access_iterator_tag@0@@Z 100072d0 f i concurrent_vector.obj
 0001:00006330       ??$_Debug_range@PAVsegment_t@concurrent_vector_base_v3@internal@tbb@@@std@@YAXPAVsegment_t@concurrent_vector_base_v3@internal@tbb@@0PB_WI@Z 10007330 f i concurrent_vector.obj
 0001:00006370       ??$_Destroy_in_place@Vsegment_t@concurrent_vector_base_v3@internal@tbb@@@std@@YAXAAVsegment_t@concurrent_vector_base_v3@internal@tbb@@@Z 10007370 f i concurrent_vector.obj
 0001:00006390       ??$_Destroy_range1@PAVsegment_t@concurrent_vector_base_v3@internal@tbb@@@std@@YAXPAVsegment_t@concurrent_vector_base_v3@internal@tbb@@0U?$integral_constant@_N$0A@@0@@Z 10007390 f i concurrent_vector.obj
 0001:000063c0       ??$_Destroy_range@PAVsegment_t@concurrent_vector_base_v3@internal@tbb@@@std@@YAXPAVsegment_t@concurrent_vector_base_v3@internal@tbb@@0@Z 100073c0 f i concurrent_vector.obj
 0001:000063f0       ??$_Emplace_back@ABVsegment_t@concurrent_vector_base_v3@internal@tbb@@@?$_Uninitialized_backout@PAVsegment_t@concurrent_vector_base_v3@internal@tbb@@@std@@QAEXABVsegment_t@concurrent_vector_base_v3@internal@tbb@@@Z 100073f0 f i concurrent_vector.obj
 0001:00006440       ??$_Fill_memset_is_safe@PAVsegment_t@concurrent_vector_base_v3@internal@tbb@@V1234@@std@@YA?AU?$integral_constant@_N$0A@@0@ABQAVsegment_t@concurrent_vector_base_v3@internal@tbb@@ABV2345@@Z 10007440 f i concurrent_vector.obj
 0001:00006460       ??$_Fill_n_unchecked1@PAVsegment_t@concurrent_vector_base_v3@internal@tbb@@IV1234@@std@@YAPAVsegment_t@concurrent_vector_base_v3@internal@tbb@@PAV1234@IABV1234@U?$integral_constant@_N$0A@@0@@Z 10007460 f i concurrent_vector.obj
 0001:000064a0       ??$_Fill_n_unchecked@PAVsegment_t@concurrent_vector_base_v3@internal@tbb@@IV1234@@std@@YAPAVsegment_t@concurrent_vector_base_v3@internal@tbb@@PAV1234@IABV1234@@Z 100074a0 f i concurrent_vector.obj
 0001:000064f0       ??$_Idl_distance1@PAVsegment_t@concurrent_vector_base_v3@internal@tbb@@PAV1234@@std@@YAHABQAVsegment_t@concurrent_vector_base_v3@internal@tbb@@0Urandom_access_iterator_tag@0@@Z 100074f0 f i concurrent_vector.obj
 0001:00006510       ??$_Idl_distance@PAVsegment_t@concurrent_vector_base_v3@internal@tbb@@PAV1234@@std@@YAHABQAVsegment_t@concurrent_vector_base_v3@internal@tbb@@0@Z 10007510 f i concurrent_vector.obj
 0001:00006540       ??$_Is_checked@PAVsegment_t@concurrent_vector_base_v3@internal@tbb@@@std@@YA?AU?$integral_constant@_N$0A@@0@PAVsegment_t@concurrent_vector_base_v3@internal@tbb@@@Z 10007540 f i concurrent_vector.obj
 0001:00006560       ??$_Ptr_copy_cat@Vsegment_t@concurrent_vector_base_v3@internal@tbb@@V1234@@std@@YA?AU_General_ptr_iterator_tag@0@ABQAVsegment_t@concurrent_vector_base_v3@internal@tbb@@0@Z 10007560 f i concurrent_vector.obj
 0001:00006580       ??$_Rechecked@PAVsegment_t@concurrent_vector_base_v3@internal@tbb@@PAV1234@@std@@YAAAPAVsegment_t@concurrent_vector_base_v3@internal@tbb@@AAPAV1234@QAV1234@@Z 10007580 f i concurrent_vector.obj
 0001:00006590       ??$_Rechecked@Vsegment_t@concurrent_vector_base_v3@internal@tbb@@$0CA@@std@@YAAAV?$_Array_iterator@Vsegment_t@concurrent_vector_base_v3@internal@tbb@@$0CA@@0@AAV10@QAVsegment_t@concurrent_vector_base_v3@internal@tbb@@@Z 10007590 f i concurrent_vector.obj
 0001:000065b0       ??$_Unchecked@PAVsegment_t@concurrent_vector_base_v3@internal@tbb@@@std@@YAPAVsegment_t@concurrent_vector_base_v3@internal@tbb@@PAV1234@@Z 100075b0 f i concurrent_vector.obj
 0001:000065c0       ??$_Unchecked@Vsegment_t@concurrent_vector_base_v3@internal@tbb@@$0CA@@std@@YAPAVsegment_t@concurrent_vector_base_v3@internal@tbb@@ABV?$_Array_iterator@Vsegment_t@concurrent_vector_base_v3@internal@tbb@@$0CA@@0@@Z 100075c0 f i concurrent_vector.obj
 0001:000065e0       ??$_Unchecked_n1@PAVsegment_t@concurrent_vector_base_v3@internal@tbb@@H@std@@YAPAVsegment_t@concurrent_vector_base_v3@internal@tbb@@PAV1234@HU?$integral_constant@_N$00@0@@Z 100075e0 f i concurrent_vector.obj
 0001:00006660       ??$_Unchecked_n1@PAVsegment_t@concurrent_vector_base_v3@internal@tbb@@I@std@@YAPAVsegment_t@concurrent_vector_base_v3@internal@tbb@@PAV1234@IU?$integral_constant@_N$00@0@@Z 10007660 f i concurrent_vector.obj
 0001:000066e0       ??$_Unchecked_n1@V?$_Array_iterator@Vsegment_t@concurrent_vector_base_v3@internal@tbb@@$0CA@@std@@H@std@@YAPAVsegment_t@concurrent_vector_base_v3@internal@tbb@@V?$_Array_iterator@Vsegment_t@concurrent_vector_base_v3@internal@tbb@@$0CA@@0@HU?$integral_constant@_N$00@0@@Z 100076e0 f i concurrent_vector.obj
 0001:00006780       ??$_Unchecked_n@PAVsegment_t@concurrent_vector_base_v3@internal@tbb@@H@std@@YAPAVsegment_t@concurrent_vector_base_v3@internal@tbb@@PAV1234@H@Z 10007780 f i concurrent_vector.obj
 0001:000067c0       ??$_Unchecked_n@PAVsegment_t@concurrent_vector_base_v3@internal@tbb@@I@std@@YAPAVsegment_t@concurrent_vector_base_v3@internal@tbb@@PAV1234@I@Z 100077c0 f i concurrent_vector.obj
 0001:00006800       ??$_Unchecked_n@V?$_Array_iterator@Vsegment_t@concurrent_vector_base_v3@internal@tbb@@$0CA@@std@@H@std@@YAPAVsegment_t@concurrent_vector_base_v3@internal@tbb@@V?$_Array_iterator@Vsegment_t@concurrent_vector_base_v3@internal@tbb@@$0CA@@0@H@Z 10007800 f i concurrent_vector.obj
 0001:00006850       ??$_Uninitialized_fill_n_unchecked@PAVsegment_t@concurrent_vector_base_v3@internal@tbb@@IV1234@@std@@YAPAVsegment_t@concurrent_vector_base_v3@internal@tbb@@QAV1234@IABV1234@U?$integral_constant@_N$0A@@0@@Z 10007850 f i concurrent_vector.obj
 0001:00006930       ??$__TBB_load_relaxed@H@internal@tbb@@YAHADH@Z 10007930 f i concurrent_vector.obj
 0001:00006950       ??$__TBB_store_relaxed@HH@internal@tbb@@YAXACHH@Z 10007950 f i concurrent_vector.obj
 0001:00006970       ??$addressof@Vsegment_t@concurrent_vector_base_v3@internal@tbb@@@std@@YAPAVsegment_t@concurrent_vector_base_v3@internal@tbb@@AAV1234@@Z 10007970 f i concurrent_vector.obj
 0001:00006980       ??$apply@Udestroy_body@helper@concurrent_vector_base_v3@internal@tbb@@@helper@concurrent_vector_base_v3@internal@tbb@@QAEIABUdestroy_body@0123@@Z 10007980 f i concurrent_vector.obj
 0001:00006a80       ??$apply@Uinit_body@helper@concurrent_vector_base_v3@internal@tbb@@@helper@concurrent_vector_base_v3@internal@tbb@@QAEIABUinit_body@0123@@Z 10007a80 f i concurrent_vector.obj
 0001:00006b80       ??$apply@Usafe_init_body@helper@concurrent_vector_base_v3@internal@tbb@@@helper@concurrent_vector_base_v3@internal@tbb@@QAEIABUsafe_init_body@0123@@Z 10007b80 f i concurrent_vector.obj
 0001:00006c80       ??$compare_and_swap@$0A@@?$atomic_impl@PAVsegment_t@concurrent_vector_base_v3@internal@tbb@@@internal@tbb@@QAEPAVsegment_t@concurrent_vector_base_v3@12@PAV3412@0@Z 10007c80 f i concurrent_vector.obj
 0001:00006cd0       ??$copy@PAVsegment_t@concurrent_vector_base_v3@internal@tbb@@PAV1234@@std@@YAPAVsegment_t@concurrent_vector_base_v3@internal@tbb@@PAV1234@00@Z 10007cd0 f i concurrent_vector.obj
 0001:00006d20       ??$copy@PAVsegment_t@concurrent_vector_base_v3@internal@tbb@@V1234@$0CA@@std@@YAPAVsegment_t@concurrent_vector_base_v3@internal@tbb@@PAV1234@0AAY0CA@V1234@@Z 10007d20 f i concurrent_vector.obj
 0001:00006da0       ??$fetch_and_add@$00@?$atomic_impl_with_arithmetic@IID@internal@tbb@@QAEII@Z 10007da0 f i concurrent_vector.obj
 0001:00006dd0       ??$fetch_and_increment@$00@?$atomic_impl_with_arithmetic@IID@internal@tbb@@QAEIXZ 10007dd0 f i concurrent_vector.obj
 0001:00006e00       ??$fill_n@PAVsegment_t@concurrent_vector_base_v3@internal@tbb@@IV1234@@std@@YAPAVsegment_t@concurrent_vector_base_v3@internal@tbb@@PAV1234@IABV1234@@Z 10007e00 f i concurrent_vector.obj
 0001:00006e50       ??$forward@ABVsegment_t@concurrent_vector_base_v3@internal@tbb@@@std@@YAABVsegment_t@concurrent_vector_base_v3@internal@tbb@@ABV1234@@Z 10007e50 f i concurrent_vector.obj
 0001:00006e60       ??$load@$00@?$atomic_impl@I@internal@tbb@@QBEIXZ 10007e60 f i concurrent_vector.obj
 0001:00006ea0       ??$load@$00@?$atomic_impl@PAVsegment_t@concurrent_vector_base_v3@internal@tbb@@@internal@tbb@@QBEPAVsegment_t@concurrent_vector_base_v3@12@XZ 10007ea0 f i concurrent_vector.obj
 0001:00006ee0       ??$load@$00@?$atomic_impl@PAX@internal@tbb@@QBEPAXXZ 10007ee0 f i concurrent_vector.obj
 0001:00006f20       ??$load@$00@segment_t@concurrent_vector_base_v3@internal@tbb@@QBE?AVsegment_value_t@123@XZ 10007f20 f i concurrent_vector.obj
 0001:00006f60       ??$load@$02@?$atomic_impl@I@internal@tbb@@QBEIXZ 10007f60 f i concurrent_vector.obj
 0001:00006fa0       ??$load@$02@?$atomic_impl@PAVsegment_t@concurrent_vector_base_v3@internal@tbb@@@internal@tbb@@QBEPAVsegment_t@concurrent_vector_base_v3@12@XZ 10007fa0 f i concurrent_vector.obj
 0001:00006fe0       ??$load@$02@?$atomic_impl@PAX@internal@tbb@@QBEPAXXZ 10007fe0 f i concurrent_vector.obj
 0001:00007020       ??$load@$02@segment_t@concurrent_vector_base_v3@internal@tbb@@QBE?AVsegment_value_t@123@XZ 10008020 f i concurrent_vector.obj
 0001:00007060       ??$load@$02I@tbb@@YAIABU?$atomic@I@0@@Z 10008060 f i concurrent_vector.obj
 0001:00007080       ??$load@$02PAVsegment_t@concurrent_vector_base_v3@internal@tbb@@@tbb@@YAPAVsegment_t@concurrent_vector_base_v3@internal@0@ABU?$atomic@PAVsegment_t@concurrent_vector_base_v3@internal@tbb@@@0@@Z 10008080 f i concurrent_vector.obj
 0001:000070a0       ??$load@$02PAX@tbb@@YAPAXABU?$atomic@PAX@0@@Z 100080a0 f i concurrent_vector.obj
 0001:000070c0       ??$load@H@?$atomic_load_store_traits@$00@internal@tbb@@SAHADH@Z 100080c0 f i concurrent_vector.obj
 0001:000070e0       ??$load@H@?$atomic_load_store_traits@$02@internal@tbb@@SAHADH@Z 100080e0 f i concurrent_vector.obj
 0001:00007100       ??$pointer@D@segment_value_t@concurrent_vector_base_v3@internal@tbb@@QBEPADXZ 10008100 f i concurrent_vector.obj
 0001:00007120       ??$pointer@X@segment_value_t@concurrent_vector_base_v3@internal@tbb@@QBEPAXXZ 10008120 f i concurrent_vector.obj
 0001:00007140       ??$publish_segment@PAX@helper@concurrent_vector_base_v3@internal@tbb@@SAXAAVsegment_t@123@PAX@Z 10008140 f i concurrent_vector.obj
 0001:00007180       ??$publish_segment@Usegment_allocation_failed@concurrent_vector_base_v3@internal@tbb@@@helper@concurrent_vector_base_v3@internal@tbb@@SAXAAVsegment_t@123@Usegment_allocation_failed@123@@Z 10008180 f i concurrent_vector.obj
 0001:000071c0       ??$publish_segment@Usegment_not_used@concurrent_vector_base_v3@internal@tbb@@@helper@concurrent_vector_base_v3@internal@tbb@@SAXAAVsegment_t@123@Usegment_not_used@123@@Z 100081c0 f i concurrent_vector.obj
 0001:00007200       ??$spin_wait_while@Usegment_not_used_predicate@helper@concurrent_vector_base_v3@internal@tbb@@@internal@tbb@@YAXUsegment_not_used_predicate@helper@concurrent_vector_base_v3@01@@Z 10008200 f i concurrent_vector.obj
 0001:00007280       ??$spin_wait_while_eq@U?$atomic@PAVsegment_t@concurrent_vector_base_v3@internal@tbb@@@tbb@@PAVsegment_t@concurrent_vector_base_v3@internal@2@@internal@tbb@@YAXADU?$atomic@PAVsegment_t@concurrent_vector_base_v3@internal@tbb@@@1@PAVsegment_t@concurrent_vector_base_v3@01@@Z 10008280 f i concurrent_vector.obj
 0001:00007300       ??$store@$01@?$atomic_impl@I@internal@tbb@@QAEXI@Z 10008300 f i concurrent_vector.obj
 0001:00007340       ??$store@$01@?$atomic_impl@PAX@internal@tbb@@QAEXPAX@Z 10008340 f i concurrent_vector.obj
 0001:00007380       ??$store@$01@segment_t@concurrent_vector_base_v3@internal@tbb@@QAEXPAX@Z 10008380 f i concurrent_vector.obj
 0001:00007430       ??$store@$01@segment_t@concurrent_vector_base_v3@internal@tbb@@QAEXUsegment_allocation_failed@123@@Z 10008430 f i concurrent_vector.obj
 0001:000074b0       ??$store@$01@segment_t@concurrent_vector_base_v3@internal@tbb@@QAEXUsegment_not_used@123@@Z 100084b0 f i concurrent_vector.obj
 0001:000074e0       ??$store@$02@?$atomic_impl@I@internal@tbb@@QAEXI@Z 100084e0 f i concurrent_vector.obj
 0001:00007520       ??$store@$02@?$atomic_impl@PAVsegment_t@concurrent_vector_base_v3@internal@tbb@@@internal@tbb@@QAEXPAVsegment_t@concurrent_vector_base_v3@12@@Z 10008520 f i concurrent_vector.obj
 0001:00007560       ??$store@$02@?$atomic_impl@PAX@internal@tbb@@QAEXPAX@Z 10008560 f i concurrent_vector.obj
 0001:000075a0       ??$store@$02@segment_t@concurrent_vector_base_v3@internal@tbb@@QAEXPAX@Z 100085a0 f i concurrent_vector.obj
 0001:00007650       ??$store@$02@segment_t@concurrent_vector_base_v3@internal@tbb@@QAEXUsegment_not_used@123@@Z 10008650 f i concurrent_vector.obj
 0001:00007680       ??$store@$02I@tbb@@YAXAAU?$atomic@I@0@I@Z 10008680 f i concurrent_vector.obj
 0001:000076a0       ??$store@$02PAVsegment_t@concurrent_vector_base_v3@internal@tbb@@@tbb@@YAXAAU?$atomic@PAVsegment_t@concurrent_vector_base_v3@internal@tbb@@@0@PAVsegment_t@concurrent_vector_base_v3@internal@0@@Z 100086a0 f i concurrent_vector.obj
 0001:000076c0       ??$store@$02PAX@tbb@@YAXAAU?$atomic@PAX@0@PAX@Z 100086c0 f i concurrent_vector.obj
 0001:000076e0       ??$store@H@?$atomic_load_store_traits@$01@internal@tbb@@SAXACHH@Z 100086e0 f i concurrent_vector.obj
 0001:00007700       ??$store@H@?$atomic_load_store_traits@$02@internal@tbb@@SAXACHH@Z 10008700 f i concurrent_vector.obj
 0001:00007720       ??$swap@$02I@internal@tbb@@YAXAAU?$atomic@I@1@0@Z 10008720 f i concurrent_vector.obj
 0001:00007780       ??$swap@$02PAVsegment_t@concurrent_vector_base_v3@internal@tbb@@@internal@tbb@@YAXAAU?$atomic@PAVsegment_t@concurrent_vector_base_v3@internal@tbb@@@1@0@Z 10008780 f i concurrent_vector.obj
 0001:000077e0       ??$swap@$02PAX@internal@tbb@@YAXAAU?$atomic@PAX@1@0@Z 100087e0 f i concurrent_vector.obj
 0001:00007840       ??$to_bits@PAVsegment_t@concurrent_vector_base_v3@internal@tbb@@@?$atomic_impl@PAVsegment_t@concurrent_vector_base_v3@internal@tbb@@@internal@tbb@@CAHPAVsegment_t@concurrent_vector_base_v3@12@@Z 10008840 f i concurrent_vector.obj
 0001:00007870       ??$to_bits@PAX@?$atomic_impl@PAX@internal@tbb@@CAHPAX@Z 10008870 f i concurrent_vector.obj
 0001:000078a0       ??$to_bits_ref@$$CBI@?$atomic_impl@I@internal@tbb@@CAAAHABI@Z 100088a0 f i concurrent_vector.obj
 0001:000078d0       ??$to_bits_ref@PAVsegment_t@concurrent_vector_base_v3@internal@tbb@@@?$atomic_impl@PAVsegment_t@concurrent_vector_base_v3@internal@tbb@@@internal@tbb@@CAAAHAAPAVsegment_t@concurrent_vector_base_v3@12@@Z 100088d0 f i concurrent_vector.obj
 0001:00007900       ??$to_bits_ref@PAX@?$atomic_impl@PAX@internal@tbb@@CAAAHAAPAX@Z 10008900 f i concurrent_vector.obj
 0001:00007930       ??$to_bits_ref@QAVsegment_t@concurrent_vector_base_v3@internal@tbb@@@?$atomic_impl@PAVsegment_t@concurrent_vector_base_v3@internal@tbb@@@internal@tbb@@CAAAHABQAVsegment_t@concurrent_vector_base_v3@12@@Z 10008930 f i concurrent_vector.obj
 0001:00007960       ??$to_bits_ref@QAX@?$atomic_impl@PAX@internal@tbb@@CAAAHABQAX@Z 10008960 f i concurrent_vector.obj
 0001:00007990       ??$to_bits_ref@SAVsegment_t@concurrent_vector_base_v3@internal@tbb@@@?$atomic_impl@PAVsegment_t@concurrent_vector_base_v3@internal@tbb@@@internal@tbb@@CAAAHADSAVsegment_t@concurrent_vector_base_v3@12@@Z 10008990 f i concurrent_vector.obj
 0001:000079c0       ??$to_value@PAVsegment_t@concurrent_vector_base_v3@internal@tbb@@@?$atomic_impl@PAVsegment_t@concurrent_vector_base_v3@internal@tbb@@@internal@tbb@@CAPAVsegment_t@concurrent_vector_base_v3@12@H@Z 100089c0 f i concurrent_vector.obj
 0001:00007a30       ??$to_value@PAX@?$atomic_impl@PAX@internal@tbb@@CAPAXH@Z 10008a30 f i concurrent_vector.obj
 0001:00007aa0       ??$uninitialized_fill_n@PAVsegment_t@concurrent_vector_base_v3@internal@tbb@@IV1234@@std@@YAPAVsegment_t@concurrent_vector_base_v3@internal@tbb@@PAV1234@IABV1234@@Z 10008aa0 f i concurrent_vector.obj
 0001:00007b40       ??0?$_Array_const_iterator@Vsegment_t@concurrent_vector_base_v3@internal@tbb@@$0CA@@std@@QAE@PBVsegment_t@concurrent_vector_base_v3@internal@tbb@@I@Z 10008b40 f i concurrent_vector.obj
 0001:00007b80       ??0?$_Array_iterator@Vsegment_t@concurrent_vector_base_v3@internal@tbb@@$0CA@@std@@QAE@PAVsegment_t@concurrent_vector_base_v3@internal@tbb@@I@Z 10008b80 f i concurrent_vector.obj
 0001:00007bc0       ??0?$_Uninitialized_backout@PAVsegment_t@concurrent_vector_base_v3@internal@tbb@@@std@@QAE@PAVsegment_t@concurrent_vector_base_v3@internal@tbb@@@Z 10008bc0 f i concurrent_vector.obj
 0001:00007bf0       ??0?$converter@PAVsegment_t@concurrent_vector_base_v3@internal@tbb@@@?$atomic_impl@PAVsegment_t@concurrent_vector_base_v3@internal@tbb@@@internal@tbb@@QAE@PAVsegment_t@concurrent_vector_base_v3@23@@Z 10008bf0 f i concurrent_vector.obj
 0001:00007c10       ??0?$converter@PAVsegment_t@concurrent_vector_base_v3@internal@tbb@@@?$atomic_impl@PAVsegment_t@concurrent_vector_base_v3@internal@tbb@@@internal@tbb@@QAE@XZ 10008c10 f i concurrent_vector.obj
 0001:00007c30       ??0?$converter@PAX@?$atomic_impl@PAX@internal@tbb@@QAE@PAX@Z 10008c30 f i concurrent_vector.obj
 0001:00007c50       ??0?$converter@PAX@?$atomic_impl@PAX@internal@tbb@@QAE@XZ 10008c50 f i concurrent_vector.obj
 0001:00007c70       ??0?$ptr_converter@PAPAVsegment_t@concurrent_vector_base_v3@internal@tbb@@@?$atomic_impl@PAVsegment_t@concurrent_vector_base_v3@internal@tbb@@@internal@tbb@@QAE@PAPAVsegment_t@concurrent_vector_base_v3@23@@Z 10008c70 f i concurrent_vector.obj
 0001:00007c90       ??0?$ptr_converter@PAPAX@?$atomic_impl@PAX@internal@tbb@@QAE@PAPAX@Z 10008c90 f i concurrent_vector.obj
 0001:00007cb0       ??0?$ptr_converter@PBI@?$atomic_impl@I@internal@tbb@@QAE@PBI@Z 10008cb0 f i concurrent_vector.obj
 0001:00007cd0       ??0?$ptr_converter@PBQAVsegment_t@concurrent_vector_base_v3@internal@tbb@@@?$atomic_impl@PAVsegment_t@concurrent_vector_base_v3@internal@tbb@@@internal@tbb@@QAE@PBQAVsegment_t@concurrent_vector_base_v3@23@@Z 10008cd0 f i concurrent_vector.obj
 0001:00007cf0       ??0?$ptr_converter@PBQAX@?$atomic_impl@PAX@internal@tbb@@QAE@PBQAX@Z 10008cf0 f i concurrent_vector.obj
 0001:00007d10       ??0?$ptr_converter@PDSAVsegment_t@concurrent_vector_base_v3@internal@tbb@@@?$atomic_impl@PAVsegment_t@concurrent_vector_base_v3@internal@tbb@@@internal@tbb@@QAE@PDSAVsegment_t@concurrent_vector_base_v3@23@@Z 10008d10 f i concurrent_vector.obj
 0001:00007d30       ??0_Iterator_base12_compatible@std@@QAE@XZ 10008d30 f i concurrent_vector.obj
 0001:00007d60       ??0destroy_body@helper@concurrent_vector_base_v3@internal@tbb@@QAE@P6AXPAXI@Z@Z 10008d60 f i concurrent_vector.obj
 0001:00007d80       ??0helper@concurrent_vector_base_v3@internal@tbb@@QAE@PAVsegment_t@123@IIIII@Z 10008d80 f i concurrent_vector.obj
 0001:00007de0       ??0init_body@helper@concurrent_vector_base_v3@internal@tbb@@QAE@P6AXPAXPBXI@Z1@Z 10008de0 f i concurrent_vector.obj
 0001:00007e10       ??0safe_init_body@helper@concurrent_vector_base_v3@internal@tbb@@QAE@P6AXPAXPBXI@Z1@Z 10008e10 f i concurrent_vector.obj
 0001:00007e40       ??0segment_not_used_predicate@helper@concurrent_vector_base_v3@internal@tbb@@QAE@AAVsegment_t@234@@Z 10008e40 f i concurrent_vector.obj
 0001:00007ea0       ??0segment_t@concurrent_vector_base_v3@internal@tbb@@QAE@ABV0123@@Z 10008ea0 f i concurrent_vector.obj
 0001:00007ee0       ??0segment_t@concurrent_vector_base_v3@internal@tbb@@QAE@XZ 10008ee0 f i concurrent_vector.obj
 0001:00007f20       ??0segment_value_t@concurrent_vector_base_v3@internal@tbb@@AAE@PAX@Z 10008f20 f i concurrent_vector.obj
 0001:00007f40       ??1?$_Uninitialized_backout@PAVsegment_t@concurrent_vector_base_v3@internal@tbb@@@std@@QAE@XZ 10008f40 f i concurrent_vector.obj
 0001:00007fa0       ??1helper@concurrent_vector_base_v3@internal@tbb@@QAE@XZ 10008fa0 f i concurrent_vector.obj
 0001:00008090       ??1segment_t@concurrent_vector_base_v3@internal@tbb@@QAE@XZ 10009090 f i concurrent_vector.obj
 0001:00008130       ??4?$atomic@PAVsegment_t@concurrent_vector_base_v3@internal@tbb@@@tbb@@QAEPAVsegment_t@concurrent_vector_base_v3@internal@1@PAV2341@@Z 10009130 f i concurrent_vector.obj
 0001:00008160       ??4segment_t@concurrent_vector_base_v3@internal@tbb@@QAEAAV0123@ABV0123@@Z 10009160 f i concurrent_vector.obj
 0001:000081a0       ??8internal@tbb@@YA_NABVsegment_value_t@concurrent_vector_base_v3@01@Usegment_allocated@301@@Z 100091a0 f i concurrent_vector.obj
 0001:000081d0       ??8internal@tbb@@YA_NABVsegment_value_t@concurrent_vector_base_v3@01@Usegment_allocation_failed@301@@Z 100091d0 f i concurrent_vector.obj
 0001:00008200       ??8internal@tbb@@YA_NABVsegment_value_t@concurrent_vector_base_v3@01@Usegment_not_used@301@@Z 10009200 f i concurrent_vector.obj
 0001:00008230       ??B?$atomic_impl@PAVsegment_t@concurrent_vector_base_v3@internal@tbb@@@internal@tbb@@QDEPAVsegment_t@concurrent_vector_base_v3@12@XZ 10009230 f i concurrent_vector.obj
 0001:00008270       ??H?$_Array_iterator@Vsegment_t@concurrent_vector_base_v3@internal@tbb@@$0CA@@std@@QBE?AV01@H@Z 10009270 f i concurrent_vector.obj
 0001:00008320       ??Rdestroy_body@helper@concurrent_vector_base_v3@internal@tbb@@QBEXAAVsegment_t@234@PAXI@Z 10009320 f i concurrent_vector.obj
 0001:00008390       ??Rinit_body@helper@concurrent_vector_base_v3@internal@tbb@@QBEXAAVsegment_t@234@PAXI@Z 10009390 f i concurrent_vector.obj
 0001:000083e0       ??Rsafe_init_body@helper@concurrent_vector_base_v3@internal@tbb@@QBEXAAVsegment_t@234@PAXI@Z 100093e0 f i concurrent_vector.obj
 0001:00008450       ??Rsegment_not_used_predicate@helper@concurrent_vector_base_v3@internal@tbb@@QBE_NXZ 10009450 f i concurrent_vector.obj
 0001:000084a0       ??Y?$_Array_const_iterator@Vsegment_t@concurrent_vector_base_v3@internal@tbb@@$0CA@@std@@QAEAAV01@H@Z 100094a0 f i concurrent_vector.obj
 0001:00008520       ??Y?$_Array_iterator@Vsegment_t@concurrent_vector_base_v3@internal@tbb@@$0CA@@std@@QAEAAV01@H@Z 10009520 f i concurrent_vector.obj
 0001:00008550       ??_Gsegment_t@concurrent_vector_base_v3@internal@tbb@@QAEPAXI@Z 10009550 f i concurrent_vector.obj
 0001:000085a0       ?_Release@?$_Uninitialized_backout@PAVsegment_t@concurrent_vector_base_v3@internal@tbb@@@std@@QAEPAVsegment_t@concurrent_vector_base_v3@internal@tbb@@XZ 100095a0 f i concurrent_vector.obj
 0001:000085d0       ?acquire_segment@helper@concurrent_vector_base_v3@internal@tbb@@SAAAVsegment_t@234@AAV234@II_N@Z 100095d0 f i concurrent_vector.obj
 0001:000086f0       ?allocate_segment@helper@concurrent_vector_base_v3@internal@tbb@@SAPAXAAV234@I@Z 100096f0 f i concurrent_vector.obj
 0001:00008740       ?assign_first_segment_if_necessary@helper@concurrent_vector_base_v3@internal@tbb@@SAXAAV234@I@Z 10009740 f i concurrent_vector.obj
 0001:00008770       ?compare_and_swap@?$atomic_impl@PAVsegment_t@concurrent_vector_base_v3@internal@tbb@@@internal@tbb@@QAEPAVsegment_t@concurrent_vector_base_v3@23@PAV4523@0@Z 10009770 f i concurrent_vector.obj
 0001:000087c0       ?enforce_segment_allocated@internal@tbb@@YAXABVsegment_value_t@concurrent_vector_base_v3@12@W4exception_id@12@@Z 100097c0 f i concurrent_vector.obj
 0001:00008800       ?extend_table_if_necessary@helper@concurrent_vector_base_v3@internal@tbb@@SAXAAV234@II@Z 10009800 f i concurrent_vector.obj
 0001:00008840       ?fetch_and_add@?$atomic_traits@$03$00@internal@tbb@@SAHPCXH@Z 10009840 f i concurrent_vector.obj
 0001:00008860       ?find_segment_end@helper@concurrent_vector_base_v3@internal@tbb@@SAIABV234@@Z 10009860 f i concurrent_vector.obj
 0001:00008900       ?first_segment@helper@concurrent_vector_base_v3@internal@tbb@@QAEXXZ 10009900 f i concurrent_vector.obj
 0001:00008a20       ?get_segment_value@helper@concurrent_vector_base_v3@internal@tbb@@QAE?AVsegment_value_t@234@I_N@Z 10009a20 f i concurrent_vector.obj
 0001:00008af0       ?incompact_predicate@helper@concurrent_vector_base_v3@internal@tbb@@SA_NI@Z 10009af0 f i concurrent_vector.obj
 0001:00008b40       ?load@?$machine_load_store_relaxed@H$03@internal@tbb@@SAHADH@Z 10009b40 f i concurrent_vector.obj
 0001:00008b50       ?next_segment@helper@concurrent_vector_base_v3@internal@tbb@@QAEXXZ 10009b50 f i concurrent_vector.obj
 0001:00008bd0       ?segment_base@concurrent_vector_base_v3@internal@tbb@@KAII@Z 10009bd0 f i concurrent_vector.obj
 0001:00008bf0       ?segment_index_of@concurrent_vector_base_v3@internal@tbb@@KAII@Z 10009bf0 f i concurrent_vector.obj
 0001:00008c10       ?segment_size@concurrent_vector_base_v3@internal@tbb@@KAII@Z 10009c10 f i concurrent_vector.obj
 0001:00008c20       ?store@?$machine_load_store_relaxed@H$03@internal@tbb@@SAXACHH@Z 10009c20 f i concurrent_vector.obj
 0001:00008c30       ?store_with_release@?$atomic_impl@PAVsegment_t@concurrent_vector_base_v3@internal@tbb@@@internal@tbb@@IAEPAVsegment_t@concurrent_vector_base_v3@23@PAV4523@@Z 10009c30 f i concurrent_vector.obj
 0001:00008c80       ?swap@internal@tbb@@YAXAAVsegment_t@concurrent_vector_base_v3@12@0@Z 10009c80 f i concurrent_vector.obj
 0001:00008cd0       ?swap@segment_t@concurrent_vector_base_v3@internal@tbb@@QAEXAAV1234@@Z 10009cd0 f i concurrent_vector.obj
 0001:00008d00       ?dynamic_link@internal@tbb@@YA_NPBDQBUdynamic_link_descriptor@12@IPAPAUHINSTANCE__@@H@Z 10009d00 f   dynamic_link.obj
 0001:00008dc0       ?dynamic_unlink@internal@tbb@@YAXPAUHINSTANCE__@@@Z 10009dc0 f   dynamic_link.obj
 0001:00008df0       ?dynamic_unlink_all@internal@tbb@@YAXXZ 10009df0 f   dynamic_link.obj
 0001:00008fb0       ?init_atomic_incrementer@internal@tbb@@YAXAAU?$atomic@I@2@@Z 10009fb0 f   dynamic_link.obj
 0001:00009240       ?init_dynamic_link_data@internal@tbb@@YAXXZ 1000a240 f   dynamic_link.obj
 0001:00009380       ?dynamic_load@internal@tbb@@YAPAUHINSTANCE__@@PBDQBUdynamic_link_descriptor@12@I@Z 1000a380 f   dynamic_link.obj
 0001:00009520       ??$atomic_do_once@P6AXXZ@internal@tbb@@YAXABQ6AXXZAAU?$atomic@W4do_once_state@internal@tbb@@@1@@Z 1000a520 f i dynamic_link.obj
 0001:00009580       ??$compare_and_swap@$0A@@?$atomic_impl@W4do_once_state@internal@tbb@@@internal@tbb@@QAE?AW4do_once_state@12@W4312@0@Z 1000a580 f i dynamic_link.obj
 0001:000095d0       ??$spin_wait_while_eq@U?$atomic@W4do_once_state@internal@tbb@@@tbb@@W4do_once_state@internal@2@@internal@tbb@@YAXADU?$atomic@W4do_once_state@internal@tbb@@@1@W4do_once_state@01@@Z 1000a5d0 f i dynamic_link.obj
 0001:00009650       ??$suppress_unused_warning@PBD@internal@tbb@@YAXABQBD@Z 1000a650 f i dynamic_link.obj
 0001:00009660       ??$suppress_unused_warning@PBDQBUdynamic_link_descriptor@internal@tbb@@I@internal@tbb@@YAXABQBDABQBUdynamic_link_descriptor@01@ABI@Z 1000a660 f i dynamic_link.obj
 0001:00009670       ??$to_bits@W4do_once_state@internal@tbb@@@?$atomic_impl@W4do_once_state@internal@tbb@@@internal@tbb@@CAHW4do_once_state@12@@Z 1000a670 f i dynamic_link.obj
 0001:000096a0       ??$to_bits_ref@$$CDW4do_once_state@internal@tbb@@@?$atomic_impl@W4do_once_state@internal@tbb@@@internal@tbb@@CAAAHADW4do_once_state@12@@Z 1000a6a0 f i dynamic_link.obj
 0001:000096d0       ??$to_bits_ref@W4do_once_state@internal@tbb@@@?$atomic_impl@W4do_once_state@internal@tbb@@@internal@tbb@@CAAAHAAW4do_once_state@12@@Z 1000a6d0 f i dynamic_link.obj
 0001:00009700       ??$to_value@W4do_once_state@internal@tbb@@@?$atomic_impl@W4do_once_state@internal@tbb@@@internal@tbb@@CA?AW4do_once_state@12@H@Z 1000a700 f i dynamic_link.obj
 0001:00009770       ??0?$converter@W4do_once_state@internal@tbb@@@?$atomic_impl@W4do_once_state@internal@tbb@@@internal@tbb@@QAE@W4do_once_state@23@@Z 1000a770 f i dynamic_link.obj
 0001:00009790       ??0?$converter@W4do_once_state@internal@tbb@@@?$atomic_impl@W4do_once_state@internal@tbb@@@internal@tbb@@QAE@XZ 1000a790 f i dynamic_link.obj
 0001:000097b0       ??0?$ptr_converter@PAW4do_once_state@internal@tbb@@@?$atomic_impl@W4do_once_state@internal@tbb@@@internal@tbb@@QAE@PAW4do_once_state@23@@Z 1000a7b0 f i dynamic_link.obj
 0001:000097d0       ??0?$ptr_converter@PDW4do_once_state@internal@tbb@@@?$atomic_impl@W4do_once_state@internal@tbb@@@internal@tbb@@QAE@PDW4do_once_state@23@@Z 1000a7d0 f i dynamic_link.obj
 0001:000097f0       ??0static_init_dl_data_t@internal@tbb@@QAE@XZ 1000a7f0 f i dynamic_link.obj
 0001:00009820       ??4?$atomic@W4do_once_state@internal@tbb@@@tbb@@QAE?AW4do_once_state@internal@1@W4231@@Z 1000a820 f i dynamic_link.obj
 0001:00009850       ??B?$atomic_impl@W4do_once_state@internal@tbb@@@internal@tbb@@QDE?AW4do_once_state@12@XZ 1000a850 f i dynamic_link.obj
 0001:00009890       ?add@handles_t@internal@tbb@@QAEXABQAUHINSTANCE__@@@Z 1000a890 f i dynamic_link.obj
 0001:00009900       ?compare_and_swap@?$atomic_impl@W4do_once_state@internal@tbb@@@internal@tbb@@QAE?AW4do_once_state@23@W4423@0@Z 1000a900 f i dynamic_link.obj
 0001:00009930       ?free@handles_t@internal@tbb@@QAEXXZ 1000a930 f i dynamic_link.obj
 0001:000099a0       ?init@handles_t@internal@tbb@@QAEXXZ 1000a9a0 f i dynamic_link.obj
 0001:000099d0       ?run_initializer@internal@tbb@@YAXP6AXXZAAU?$atomic@W4do_once_state@internal@tbb@@@2@@Z 1000a9d0 f i dynamic_link.obj
 0001:00009a00       ?store_with_release@?$atomic_impl@W4do_once_state@internal@tbb@@@internal@tbb@@IAE?AW4do_once_state@23@W4423@@Z 1000aa00 f i dynamic_link.obj
 0001:00009a50       ?strrchr@@YAPADQADH@Z      1000aa50 f i dynamic_link.obj
 0001:00009a70       ___itt_set_error_handler   1000aa70 f   itt_notify.obj
 0001:00009aa0       ___itt_fini_ittlib         1000aaa0 f   itt_notify.obj
 0001:0000dbb0       ___itt_init_ittlib         1000ebb0 f   itt_notify.obj
 0001:0000df70       ?__TBB_load_ittnotify@internal@tbb@@YAHXZ 1000ef70 f   itt_notify.obj
 0001:0000df90       ?__itt_interlocked_increment@@YAJPCJ@Z 1000ef90 f i itt_notify.obj
 0001:0000dfb0       ?NFS_GetLineSize@internal@tbb@@YAIXZ 1000efb0 f   cache_aligned_allocator.obj
 0001:0000dfc0       ?NFS_Allocate@internal@tbb@@YAPAXIIPAX@Z 1000efc0 f   cache_aligned_allocator.obj
 0001:0000e0f0       ?NFS_Free@internal@tbb@@YAXPAX@Z 1000f0f0 f   cache_aligned_allocator.obj
 0001:0000e120       ?deallocate_via_handler_v3@internal@tbb@@YAXPAX@Z 1000f120 f   cache_aligned_allocator.obj
 0001:0000e150       ?allocate_via_handler_v3@internal@tbb@@YAPAXI@Z 1000f150 f   cache_aligned_allocator.obj
 0001:0000e1a0       ?is_malloc_used_v3@internal@tbb@@YA_NXZ 1000f1a0 f   cache_aligned_allocator.obj
 0001:0000e580       ?initialize_handler_pointers@internal@tbb@@YAXXZ 1000f580 f   cache_aligned_allocator.obj
 0001:0000e640       ?initialize_cache_aligned_allocator@internal@tbb@@YAXXZ 1000f640 f   cache_aligned_allocator.obj
 0001:0000e680       ??$is_aligned@X@internal@tbb@@YA_NPAXI@Z 1000f680 f i cache_aligned_allocator.obj
 0001:0000e6c0       ?set_end_of_input@filter@tbb@@IAEXXZ 1000f6c0 f   pipeline.obj
 0001:0000e780       ??1filter@tbb@@UAE@XZ      1000f780 f   pipeline.obj
 0001:0000e860       ?has_more_work@filter@tbb@@AAE_NXZ 1000f860 f   pipeline.obj
 0001:0000e900       ?try_process_item@thread_bound_filter@tbb@@QAE?AW4result_type@12@XZ 1000f900 f   pipeline.obj
 0001:0000e930       ?process_item@thread_bound_filter@tbb@@QAE?AW4result_type@12@XZ 1000f930 f   pipeline.obj
 0001:0000e960       ?internal_process_item@thread_bound_filter@tbb@@AAE?AW4result_type@12@_N@Z 1000f960 f   pipeline.obj
 0001:0000ec60       ??0pipeline@tbb@@QAE@XZ    1000fc60 f   pipeline.obj
 0001:0000ecd0       ??1pipeline@tbb@@UAE@XZ    1000fcd0 f   pipeline.obj
 0001:0000ed30       ?add_filter@pipeline@tbb@@QAEXAAVfilter@2@@Z 1000fd30 f   pipeline.obj
 0001:0000f070       ?run@pipeline@tbb@@QAEXI@Z 10010070 f   pipeline.obj
 0001:0000f180       ?run@pipeline@tbb@@QAEXIAAVtask_group_context@2@@Z 10010180 f   pipeline.obj
 0001:0000f380       ?clear@pipeline@tbb@@QAEXXZ 10010380 f   pipeline.obj
 0001:0000f480       ?remove_filter@pipeline@tbb@@AAEXAAVfilter@2@@Z 10010480 f   pipeline.obj
 0001:0000f650       ?inject_token@pipeline@tbb@@AAEXAAVtask@2@@Z 10010650 f   pipeline.obj
 0001:0000f690       ?clear_filters@pipeline@tbb@@AAEXXZ 10010690 f   pipeline.obj
 0001:0000f710       ?grow@input_buffer@internal@tbb@@AAEXK@Z 10010710 f   pipeline.obj
 0001:0000f850       ?execute@stage_task@internal@tbb@@UAEPAVtask@3@XZ 10010850 f   pipeline.obj
 0001:0000fe20       ??$fetch_and_add@$0A@@?$atomic_impl_with_arithmetic@KKD@internal@tbb@@QAEKK@Z 10010e20 f i pipeline.obj
 0001:0000fe50       ??$note_done@Vstage_task@internal@tbb@@@input_buffer@internal@tbb@@QAEXKAAVstage_task@12@@Z 10010e50 f i pipeline.obj
 0001:0000ffb0       ??$poison_pointer@Utask_info@internal@tbb@@@internal@tbb@@YAXAAPAUtask_info@01@@Z 10010fb0 f i pipeline.obj
 0001:0000ffc0       ??$to_bits@K@?$atomic_impl@K@internal@tbb@@CAHK@Z 10010fc0 f i pipeline.obj
 0001:0000fff0       ??$to_bits_ref@$$CDK@?$atomic_impl@K@internal@tbb@@CAAAHADK@Z 10010ff0 f i pipeline.obj
 0001:00010020       ??$to_bits_ref@K@?$atomic_impl@K@internal@tbb@@CAAAHAAK@Z 10011020 f i pipeline.obj
 0001:00010050       ??$to_value@K@?$atomic_impl@K@internal@tbb@@CAKH@Z 10011050 f i pipeline.obj
 0001:000100c0       ??0?$cache_aligned_allocator@Utask_info@internal@tbb@@@tbb@@QAE@XZ 100110c0 f i pipeline.obj
 0001:000100e0       ??0?$converter@K@?$atomic_impl@K@internal@tbb@@QAE@K@Z 100110e0 f i pipeline.obj
 0001:00010100       ??0?$converter@K@?$atomic_impl@K@internal@tbb@@QAE@XZ 10011100 f i pipeline.obj
 0001:00010120       ??0?$ptr_converter@PAK@?$atomic_impl@K@internal@tbb@@QAE@PAK@Z 10011120 f i pipeline.obj
 0001:00010140       ??0?$ptr_converter@PDK@?$atomic_impl@K@internal@tbb@@QAE@PDK@Z 10011140 f i pipeline.obj
 0001:00010160       ??0allocate_additional_child_of_proxy@internal@tbb@@QAE@AAVtask@2@@Z 10011160 f i pipeline.obj
 0001:00010190       ??0allocate_root_with_context_proxy@internal@tbb@@QAE@AAVtask_group_context@2@@Z 10011190 f i pipeline.obj
 0001:000101b0       ??0input_buffer@internal@tbb@@QAE@_N0@Z 100111b0 f i pipeline.obj
 0001:00010270       ??0pipeline_cleaner@internal@tbb@@QAE@AAVpipeline@2@@Z 10011270 f i pipeline.obj
 0001:000102b0       ??0pipeline_root_task@internal@tbb@@QAE@AAVpipeline@2@@Z 100112b0 f i pipeline.obj
 0001:000103e0       ??0semaphore@internal@tbb@@QAE@I@Z 100113e0 f i pipeline.obj
 0001:00010420       ??0stage_task@internal@tbb@@QAE@AAVpipeline@2@@Z 10011420 f i pipeline.obj
 0001:000104c0       ??0stage_task@internal@tbb@@QAE@AAVpipeline@2@PAVfilter@2@ABUtask_info@12@@Z 100114c0 f i pipeline.obj
 0001:00010530       ??0task@tbb@@IAE@XZ        10011530 f i pipeline.obj
 0001:00010580       ??0task_base@internal@interface5@tbb@@QAE@XZ 10011580 f i pipeline.obj
 0001:000105b0       ??0task_group_context@tbb@@QAE@W4kind_type@01@I@Z 100115b0 f i pipeline.obj
 0001:00010610       ??1input_buffer@internal@tbb@@QAE@XZ 10011610 f i pipeline.obj
 0001:000106d0       ??1pipeline_cleaner@internal@tbb@@QAE@XZ 100116d0 f i pipeline.obj
 0001:00010740       ??1pipeline_root_task@internal@tbb@@UAE@XZ 10011740 f i pipeline.obj
 0001:00010770       ??1semaphore@internal@tbb@@QAE@XZ 10011770 f i pipeline.obj
 0001:000107b0       ??1stage_task@internal@tbb@@UAE@XZ 100117b0 f i pipeline.obj
 0001:00010890       ??1task@tbb@@UAE@XZ        10011890 f i pipeline.obj
 0001:000108b0       ??2@YAPAXIABVallocate_additional_child_of_proxy@internal@tbb@@@Z 100118b0 f i pipeline.obj
 0001:000108d0       ??2@YAPAXIABVallocate_child_proxy@internal@tbb@@@Z 100118d0 f i pipeline.obj
 0001:000108f0       ??2@YAPAXIABVallocate_root_with_context_proxy@internal@tbb@@@Z 100118f0 f i pipeline.obj
 0001:00010910       ??3@YAXPAXABVallocate_additional_child_of_proxy@internal@tbb@@@Z 10011910 f i pipeline.obj
 0001:00010960       ??3@YAXPAXABVallocate_child_proxy@internal@tbb@@@Z 10011960 f i pipeline.obj
 0001:000109b0       ??3@YAXPAXABVallocate_root_with_context_proxy@internal@tbb@@@Z 100119b0 f i pipeline.obj
 0001:00010a00       ??4?$atomic@K@tbb@@QAEKK@Z 10011a00 f i pipeline.obj
 0001:00010a30       ??B?$atomic_impl@K@internal@tbb@@QDEKXZ 10011a30 f i pipeline.obj
 0001:00010a70       ??E?$atomic_impl_with_arithmetic@KKD@internal@tbb@@QAEKH@Z 10011a70 f i pipeline.obj
 0001:00010aa0       ??E?$atomic_impl_with_arithmetic@KKD@internal@tbb@@QAEKXZ 10011aa0 f i pipeline.obj
 0001:00010ad0       ??F?$atomic_impl_with_arithmetic@KKD@internal@tbb@@QAEKH@Z 10011ad0 f i pipeline.obj
 0001:00010b00       ??F?$atomic_impl_with_arithmetic@KKD@internal@tbb@@QAEKXZ 10011b00 f i pipeline.obj
 0001:00010b30       ??_Gfilter@tbb@@UAEPAXI@Z  10011b30 f i pipeline.obj
 0001:00010b30       ??_Efilter@tbb@@UAEPAXI@Z  10011b30 f i pipeline.obj
 0001:00010b70       ??_Ginput_buffer@internal@tbb@@QAEPAXI@Z 10011b70 f i pipeline.obj
 0001:00010bb0       ??_Epipeline@tbb@@UAEPAXI@Z 10011bb0 f i pipeline.obj
 0001:00010bb0       ??_Gpipeline@tbb@@UAEPAXI@Z 10011bb0 f i pipeline.obj
 0001:00010bf0       ??_Gpipeline_root_task@internal@tbb@@UAEPAXI@Z 10011bf0 f i pipeline.obj
 0001:00010bf0       ??_Epipeline_root_task@internal@tbb@@UAEPAXI@Z 10011bf0 f i pipeline.obj
 0001:00010c30       ??_Gsemaphore@internal@tbb@@QAEPAXI@Z 10011c30 f i pipeline.obj
 0001:00010c70       ??_Estage_task@internal@tbb@@UAEPAXI@Z 10011c70 f i pipeline.obj
 0001:00010c70       ??_Gstage_task@internal@tbb@@UAEPAXI@Z 10011c70 f i pipeline.obj
 0001:00010cb0       ??_Gtask@tbb@@UAEPAXI@Z    10011cb0 f i pipeline.obj
 0001:00010cb0       ??_Etask@tbb@@UAEPAXI@Z    10011cb0 f i pipeline.obj
 0001:00010cf0       ?P@semaphore@internal@tbb@@QAEXXZ 10011cf0 f i pipeline.obj
 0001:00010d30       ?V@semaphore@internal@tbb@@QAEXXZ 10011d30 f i pipeline.obj
 0001:00010d70       ?allocate@?$cache_aligned_allocator@Utask_info@internal@tbb@@@tbb@@QAEPAUtask_info@internal@2@IPBX@Z 10011d70 f i pipeline.obj
 0001:00010da0       ?allocate_additional_child_of@task_base@internal@interface5@tbb@@SA?AVallocate_additional_child_of_proxy@24@AAVtask@4@@Z 10011da0 f i pipeline.obj
 0001:00010dc0       ?allocate_child@task@tbb@@QAEAAVallocate_child_proxy@internal@2@XZ 10011dc0 f i pipeline.obj
 0001:00010de0       ?allocate_root@task@tbb@@SA?AVallocate_root_with_context_proxy@internal@2@AAVtask_group_context@2@@Z 10011de0 f i pipeline.obj
 0001:00010e00       ?clear@input_buffer@internal@tbb@@QAEXPAVfilter@3@@Z 10011e00 f i pipeline.obj
 0001:00010eb0       ?create@?$basic_tls@H@internal@tbb@@QAEHXZ 10011eb0 f i pipeline.obj
 0001:00010f00       ?create_my_tls@input_buffer@internal@tbb@@QAEXXZ 10011f00 f i pipeline.obj
 0001:00010f60       ?create_sema@input_buffer@internal@tbb@@AAEXI@Z 10011f60 f i pipeline.obj
 0001:00011020       ?deallocate@?$cache_aligned_allocator@Utask_info@internal@tbb@@@tbb@@QAEXPAUtask_info@internal@2@I@Z 10012020 f i pipeline.obj
 0001:00011050       ?destroy@?$basic_tls@H@internal@tbb@@QAEHXZ 10012050 f i pipeline.obj
 0001:00011090       ?destroy_my_tls@input_buffer@internal@tbb@@QAEXXZ 10012090 f i pipeline.obj
 0001:000110e0       ?execute@pipeline_root_task@internal@tbb@@EAEPAVtask@3@XZ 100120e0 f i pipeline.obj
 0001:000113e0       ?fetch_and_add@?$atomic_impl_with_arithmetic@KKD@internal@tbb@@QAEKK@Z 100123e0 f i pipeline.obj
 0001:00011410       ?finalize@filter@tbb@@UAEXPAX@Z 10012410 f i pipeline.obj
 0001:00011430       ?free_sema@input_buffer@internal@tbb@@AAEXXZ 10012430 f i pipeline.obj
 0001:000114b0       ?get@?$basic_tls@H@internal@tbb@@QAEHXZ 100124b0 f i pipeline.obj
 0001:000114f0       ?has_item@input_buffer@internal@tbb@@QAE_NXZ 100124f0 f i pipeline.obj
 0001:00011590       ?init_semaphore@semaphore@internal@tbb@@AAEXI@Z 10012590 f i pipeline.obj
 0001:000115d0       ?inlineCreateSemaphoreEx@@YGPAXPAU_SECURITY_ATTRIBUTES@@JJPB_WKK@Z 100125d0 f i pipeline.obj
 0001:00011600       ?is_bound@filter@tbb@@QBE_NXZ 10012600 f i pipeline.obj
 0001:00011640       ?is_cancelled@task@tbb@@QBE_NXZ 10012640 f i pipeline.obj
 0001:00011670       ?is_ordered@filter@tbb@@QBE_NXZ 10012670 f i pipeline.obj
 0001:000116b0       ?is_serial@filter@tbb@@QBE_NXZ 100126b0 f i pipeline.obj
 0001:000116d0       ?my_tls_end_of_input@input_buffer@internal@tbb@@QAE_NXZ 100126d0 f i pipeline.obj
 0001:00011720       ?not_in_pipeline@filter@tbb@@CAPAV12@XZ 10012720 f i pipeline.obj
 0001:00011730       ?object_may_be_null@filter@tbb@@QAE_NXZ 10012730 f i pipeline.obj
 0001:00011770       ?parent@task@tbb@@QBEPAV12@XZ 10012770 f i pipeline.obj
 0001:000117a0       ?prefix@task@tbb@@ABEAAVtask_prefix@internal@2@PAUversion_tag_v3@42@@Z 100127a0 f i pipeline.obj
 0001:000117c0       ?put_token@input_buffer@internal@tbb@@QAE_NAAUtask_info@23@_N@Z 100127c0 f i pipeline.obj
 0001:00011a00       ?recycle_as_continuation@task@tbb@@QAEXXZ 10012a00 f i pipeline.obj
 0001:00011a60       ?reset@stage_task@internal@tbb@@QAEXXZ 10012a60 f i pipeline.obj
 0001:00011aa0       ?reset@task_info@internal@tbb@@QAEXXZ 10012aa0 f i pipeline.obj
 0001:00011ae0       ?return_item@input_buffer@internal@tbb@@QAE_NAAUtask_info@23@_N@Z 10012ae0 f i pipeline.obj
 0001:00011c30       ?sema_P@input_buffer@internal@tbb@@AAEXXZ 10012c30 f i pipeline.obj
 0001:00011c80       ?sema_V@input_buffer@internal@tbb@@AAEXXZ 10012c80 f i pipeline.obj
 0001:00011cd0       ?set@?$basic_tls@H@internal@tbb@@QAEXH@Z 10012cd0 f i pipeline.obj
 0001:00011d10       ?set_my_tls_end_of_input@input_buffer@internal@tbb@@QAEXXZ 10012d10 f i pipeline.obj
 0001:00011d40       ?set_ref_count@task@tbb@@QAEXH@Z 10012d40 f i pipeline.obj
 0001:00011d70       ?spawn@task_base@internal@interface5@tbb@@SAXAAVtask@4@@Z 10012d70 f i pipeline.obj
 0001:00011dd0       ?spawn_root_and_wait@task@tbb@@SAXAAV12@@Z 10012dd0 f i pipeline.obj
 0001:00011e30       ?spawn_stage_task@stage_task@internal@tbb@@QAEXABUtask_info@23@@Z 10012e30 f i pipeline.obj
 0001:00011f10       ?store_with_release@?$atomic_impl@K@internal@tbb@@IAEKK@Z 10012f10 f i pipeline.obj
 0001:00011fb0       ?acquire@scoped_lock@queuing_mutex@tbb@@QAEXAAV23@@Z 10012fb0 f   queuing_mutex.obj
 0001:000120c0       ?try_acquire@scoped_lock@queuing_mutex@tbb@@QAE_NAAV23@@Z 100130c0 f   queuing_mutex.obj
 0001:00012170       ?release@scoped_lock@queuing_mutex@tbb@@QAEXXZ 10013170 f   queuing_mutex.obj
 0001:00012250       ?internal_construct@queuing_mutex@tbb@@QAEXXZ 10013250 f   queuing_mutex.obj
 0001:000122a0       ??$__TBB_load_with_acquire@I@internal@tbb@@YAIADI@Z 100132a0 f i queuing_mutex.obj
 0001:000122c0       ??$__TBB_store_with_release@IH@internal@tbb@@YAXACIH@Z 100132c0 f i queuing_mutex.obj
 0001:000122e0       ??$compare_and_swap@$01@?$atomic_impl@PAVscoped_lock@queuing_mutex@tbb@@@internal@tbb@@QAEPAVscoped_lock@queuing_mutex@2@PAV342@0@Z 100132e0 f i queuing_mutex.obj
 0001:00012330       ??$fetch_and_store@$01@?$atomic_impl@PAVscoped_lock@queuing_mutex@tbb@@@internal@tbb@@QAEPAVscoped_lock@queuing_mutex@2@PAV342@@Z 10013330 f i queuing_mutex.obj
 0001:00012370       ??$poison_pointer@Vscoped_lock@queuing_mutex@tbb@@@internal@tbb@@YAXAAPAVscoped_lock@queuing_mutex@1@@Z 10013370 f i queuing_mutex.obj
 0001:00012380       ??$spin_wait_while_eq@IK@internal@tbb@@YAXADIK@Z 10013380 f i queuing_mutex.obj
 0001:00012400       ??$spin_wait_while_eq@PAVscoped_lock@queuing_mutex@tbb@@PAV123@@internal@tbb@@YAXADSAVscoped_lock@queuing_mutex@1@PAV231@@Z 10013400 f i queuing_mutex.obj
 0001:00012480       ??$to_bits@PAVscoped_lock@queuing_mutex@tbb@@@?$atomic_impl@PAVscoped_lock@queuing_mutex@tbb@@@internal@tbb@@CAHPAVscoped_lock@queuing_mutex@2@@Z 10013480 f i queuing_mutex.obj
 0001:000124b0       ??$to_value@PAVscoped_lock@queuing_mutex@tbb@@@?$atomic_impl@PAVscoped_lock@queuing_mutex@tbb@@@internal@tbb@@CAPAVscoped_lock@queuing_mutex@2@H@Z 100134b0 f i queuing_mutex.obj
 0001:00012520       ??0?$converter@PAVscoped_lock@queuing_mutex@tbb@@@?$atomic_impl@PAVscoped_lock@queuing_mutex@tbb@@@internal@tbb@@QAE@PAVscoped_lock@queuing_mutex@3@@Z 10013520 f i queuing_mutex.obj
 0001:00012540       ??0?$converter@PAVscoped_lock@queuing_mutex@tbb@@@?$atomic_impl@PAVscoped_lock@queuing_mutex@tbb@@@internal@tbb@@QAE@XZ 10013540 f i queuing_mutex.obj
 0001:00012560       ?compare_and_swap@?$atomic_traits@$03$01@internal@tbb@@SAHPCXHH@Z 10013560 f i queuing_mutex.obj
 0001:00012580       ?fetch_and_store@?$atomic_traits@$03$01@internal@tbb@@SAHPCXH@Z 10013580 f i queuing_mutex.obj
 0001:000125a0       ?initialize@scoped_lock@queuing_mutex@tbb@@AAEXXZ 100135a0 f i queuing_mutex.obj
 0001:000125e0       ?load_with_acquire@?$machine_load_store@I$03@internal@tbb@@SAIADI@Z 100135e0 f i queuing_mutex.obj
 0001:00012600       ?store_with_release@?$machine_load_store@I$03@internal@tbb@@SAXACII@Z 10013600 f i queuing_mutex.obj
 0001:00012690       ?acquire@scoped_lock@queuing_rw_mutex@tbb@@QAEXAAV23@_N@Z 10013690 f   queuing_rw_mutex.obj
 0001:00012a80       ?try_acquire@scoped_lock@queuing_rw_mutex@tbb@@QAE_NAAV23@_N@Z 10013a80 f   queuing_rw_mutex.obj
 0001:00012ba0       ?release@scoped_lock@queuing_rw_mutex@tbb@@QAEXXZ 10013ba0 f   queuing_rw_mutex.obj
 0001:00013070       ?upgrade_to_writer@scoped_lock@queuing_rw_mutex@tbb@@QAE_NXZ 10014070 f   queuing_rw_mutex.obj
 0001:00013670       ?downgrade_to_reader@scoped_lock@queuing_rw_mutex@tbb@@QAE_NXZ 10014670 f   queuing_rw_mutex.obj
 0001:000137f0       ?internal_construct@queuing_rw_mutex@tbb@@QAEXXZ 100147f0 f   queuing_rw_mutex.obj
 0001:00013840       ??$__TBB_load_full_fence@H@internal@tbb@@YAHADH@Z 10014840 f i queuing_rw_mutex.obj
 0001:00013860       ??$__TBB_load_relaxed@PAVscoped_lock@queuing_rw_mutex@tbb@@@internal@tbb@@YAPAVscoped_lock@queuing_rw_mutex@1@ADSAV231@@Z 10014860 f i queuing_rw_mutex.obj
 0001:00013880       ??$__TBB_load_with_acquire@E@internal@tbb@@YAEADE@Z 10014880 f i queuing_rw_mutex.obj
 0001:000138a0       ??$__TBB_load_with_acquire@PAVscoped_lock@queuing_rw_mutex@tbb@@@internal@tbb@@YAPAVscoped_lock@queuing_rw_mutex@1@ADSAV231@@Z 100148a0 f i queuing_rw_mutex.obj
 0001:000138c0       ??$__TBB_store_relaxed@EH@internal@tbb@@YAXACEH@Z 100148c0 f i queuing_rw_mutex.obj
 0001:000138e0       ??$__TBB_store_relaxed@PAVscoped_lock@queuing_rw_mutex@tbb@@PAV123@@internal@tbb@@YAXACRAVscoped_lock@queuing_rw_mutex@1@PAV231@@Z 100148e0 f i queuing_rw_mutex.obj
 0001:00013900       ??$__TBB_store_with_release@EE@internal@tbb@@YAXACEE@Z 10014900 f i queuing_rw_mutex.obj
 0001:00013920       ??$__TBB_store_with_release@EH@internal@tbb@@YAXACEH@Z 10014920 f i queuing_rw_mutex.obj
 0001:00013940       ??$__TBB_store_with_release@PAVscoped_lock@queuing_rw_mutex@tbb@@PAV123@@internal@tbb@@YAXACRAVscoped_lock@queuing_rw_mutex@1@PAV231@@Z 10014940 f i queuing_rw_mutex.obj
 0001:00013960       ??$as_atomic@E@internal@tbb@@YAAAU?$atomic@E@1@AAE@Z 10014960 f i queuing_rw_mutex.obj
 0001:00013970       ??$compare_and_swap@$00@?$atomic_impl@E@internal@tbb@@QAEEEE@Z 10014970 f i queuing_rw_mutex.obj
 0001:000139d0       ??$compare_and_swap@$01@?$atomic_impl@E@internal@tbb@@QAEEEE@Z 100149d0 f i queuing_rw_mutex.obj
 0001:00013a30       ??$compare_and_swap@$01@?$atomic_impl@PAVscoped_lock@queuing_rw_mutex@tbb@@@internal@tbb@@QAEPAVscoped_lock@queuing_rw_mutex@2@PAV342@0@Z 10014a30 f i queuing_rw_mutex.obj
 0001:00013a80       ??$compare_and_swap@$01@?$tricky_atomic_pointer@Vscoped_lock@queuing_rw_mutex@tbb@@@tbb@@SAPAVscoped_lock@queuing_rw_mutex@1@PCRAV231@PAV231@1@Z 10014a80 f i queuing_rw_mutex.obj
 0001:00013aa0       ??$fetch_and_add@$00@?$tricky_atomic_pointer@Vscoped_lock@queuing_rw_mutex@tbb@@@tbb@@SAPAVscoped_lock@queuing_rw_mutex@1@PCRAV231@H@Z 10014aa0 f i queuing_rw_mutex.obj
 0001:00013ac0       ??$fetch_and_store@$01@?$atomic_impl@PAVscoped_lock@queuing_rw_mutex@tbb@@@internal@tbb@@QAEPAVscoped_lock@queuing_rw_mutex@2@PAV342@@Z 10014ac0 f i queuing_rw_mutex.obj
 0001:00013b00       ??$fetch_and_store@$01@?$tricky_atomic_pointer@Vscoped_lock@queuing_rw_mutex@tbb@@@tbb@@SAPAVscoped_lock@queuing_rw_mutex@1@PCRAV231@PAV231@@Z 10014b00 f i queuing_rw_mutex.obj
 0001:00013b20       ??$load@$02@?$atomic_impl@PAVscoped_lock@queuing_rw_mutex@tbb@@@internal@tbb@@QBEPAVscoped_lock@queuing_rw_mutex@2@XZ 10014b20 f i queuing_rw_mutex.obj
 0001:00013b60       ??$load@$02PAVscoped_lock@queuing_rw_mutex@tbb@@@tbb@@YAPAVscoped_lock@queuing_rw_mutex@0@ABU?$atomic@PAVscoped_lock@queuing_rw_mutex@tbb@@@0@@Z 10014b60 f i queuing_rw_mutex.obj
 0001:00013b80       ??$load@$0A@@?$atomic_impl@PAVscoped_lock@queuing_rw_mutex@tbb@@@internal@tbb@@QBEPAVscoped_lock@queuing_rw_mutex@2@XZ 10014b80 f i queuing_rw_mutex.obj
 0001:00013bc0       ??$load@H@?$atomic_load_store_traits@$0A@@internal@tbb@@SAHADH@Z 10014bc0 f i queuing_rw_mutex.obj
 0001:00013be0       ??$poison_pointer@Vscoped_lock@queuing_rw_mutex@tbb@@@internal@tbb@@YAXAAPAVscoped_lock@queuing_rw_mutex@1@@Z 10014be0 f i queuing_rw_mutex.obj
 0001:00013bf0       ??$spin_wait_until_eq@EE@internal@tbb@@YAXADEE@Z 10014bf0 f i queuing_rw_mutex.obj
 0001:00013c70       ??$spin_wait_until_eq@EH@internal@tbb@@YAXADEH@Z 10014c70 f i queuing_rw_mutex.obj
 0001:00013cf0       ??$spin_wait_while_eq@EH@internal@tbb@@YAXADEH@Z 10014cf0 f i queuing_rw_mutex.obj
 0001:00013d70       ??$spin_wait_while_eq@PAVscoped_lock@queuing_rw_mutex@tbb@@PAV123@@internal@tbb@@YAXADSAVscoped_lock@queuing_rw_mutex@1@PAV231@@Z 10014d70 f i queuing_rw_mutex.obj
 0001:00013df0       ??$spin_wait_while_eq@PAVscoped_lock@queuing_rw_mutex@tbb@@PAX@internal@tbb@@YAXADSAVscoped_lock@queuing_rw_mutex@1@PAX@Z 10014df0 f i queuing_rw_mutex.obj
 0001:00013e70       ??$to_bits@E@?$atomic_impl@E@internal@tbb@@CACE@Z 10014e70 f i queuing_rw_mutex.obj
 0001:00013ea0       ??$to_bits@PAVscoped_lock@queuing_rw_mutex@tbb@@@?$atomic_impl@PAVscoped_lock@queuing_rw_mutex@tbb@@@internal@tbb@@CAHPAVscoped_lock@queuing_rw_mutex@2@@Z 10014ea0 f i queuing_rw_mutex.obj
 0001:00013ed0       ??$to_bits_ref@$$CDE@?$atomic_impl@E@internal@tbb@@CAAACADE@Z 10014ed0 f i queuing_rw_mutex.obj
 0001:00013f00       ??$to_bits_ref@E@?$atomic_impl@E@internal@tbb@@CAAACAAE@Z 10014f00 f i queuing_rw_mutex.obj
 0001:00013f30       ??$to_bits_ref@QAVscoped_lock@queuing_rw_mutex@tbb@@@?$atomic_impl@PAVscoped_lock@queuing_rw_mutex@tbb@@@internal@tbb@@CAAAHABQAVscoped_lock@queuing_rw_mutex@2@@Z 10014f30 f i queuing_rw_mutex.obj
 0001:00013f60       ??$to_value@E@?$atomic_impl@E@internal@tbb@@CAEC@Z 10014f60 f i queuing_rw_mutex.obj
 0001:00013fd0       ??$to_value@PAVscoped_lock@queuing_rw_mutex@tbb@@@?$atomic_impl@PAVscoped_lock@queuing_rw_mutex@tbb@@@internal@tbb@@CAPAVscoped_lock@queuing_rw_mutex@2@H@Z 10014fd0 f i queuing_rw_mutex.obj
 0001:00014040       ??0?$converter@E@?$atomic_impl@E@internal@tbb@@QAE@E@Z 10015040 f i queuing_rw_mutex.obj
 0001:00014060       ??0?$converter@E@?$atomic_impl@E@internal@tbb@@QAE@XZ 10015060 f i queuing_rw_mutex.obj
 0001:00014080       ??0?$converter@PAVscoped_lock@queuing_rw_mutex@tbb@@@?$atomic_impl@PAVscoped_lock@queuing_rw_mutex@tbb@@@internal@tbb@@QAE@PAVscoped_lock@queuing_rw_mutex@3@@Z 10015080 f i queuing_rw_mutex.obj
 0001:000140a0       ??0?$converter@PAVscoped_lock@queuing_rw_mutex@tbb@@@?$atomic_impl@PAVscoped_lock@queuing_rw_mutex@tbb@@@internal@tbb@@QAE@XZ 100150a0 f i queuing_rw_mutex.obj
 0001:000140c0       ??0?$ptr_converter@PAE@?$atomic_impl@E@internal@tbb@@QAE@PAE@Z 100150c0 f i queuing_rw_mutex.obj
 0001:000140e0       ??0?$ptr_converter@PBQAVscoped_lock@queuing_rw_mutex@tbb@@@?$atomic_impl@PAVscoped_lock@queuing_rw_mutex@tbb@@@internal@tbb@@QAE@PBQAVscoped_lock@queuing_rw_mutex@3@@Z 100150e0 f i queuing_rw_mutex.obj
 0001:00014100       ??0?$ptr_converter@PDE@?$atomic_impl@E@internal@tbb@@QAE@PDE@Z 10015100 f i queuing_rw_mutex.obj
 0001:00014120       ??0?$tricky_atomic_pointer@Vscoped_lock@queuing_rw_mutex@tbb@@@tbb@@QAE@AAPAVscoped_lock@queuing_rw_mutex@1@@Z 10015120 f i queuing_rw_mutex.obj
 0001:00014160       ??4?$atomic@E@tbb@@QAEEE@Z 10015160 f i queuing_rw_mutex.obj
 0001:00014190       ??B?$atomic_impl@E@internal@tbb@@QDEEXZ 10015190 f i queuing_rw_mutex.obj
 0001:000141d0       ??I?$tricky_atomic_pointer@Vscoped_lock@queuing_rw_mutex@tbb@@@tbb@@QBEPAVscoped_lock@queuing_rw_mutex@1@H@Z 100151d0 f i queuing_rw_mutex.obj
 0001:000141f0       ??U?$tricky_atomic_pointer@Vscoped_lock@queuing_rw_mutex@tbb@@@tbb@@QBEPAVscoped_lock@queuing_rw_mutex@1@H@Z 100151f0 f i queuing_rw_mutex.obj
 0001:00014210       ?acquire_internal_lock@scoped_lock@queuing_rw_mutex@tbb@@AAEXXZ 10015210 f i queuing_rw_mutex.obj
 0001:00014250       ?compare_and_swap@?$atomic_traits@$00$00@internal@tbb@@SACPCXCC@Z 10015250 f i queuing_rw_mutex.obj
 0001:00014280       ?compare_and_swap@?$atomic_traits@$00$01@internal@tbb@@SACPCXCC@Z 10015280 f i queuing_rw_mutex.obj
 0001:000142b0       ?get_flag@tbb@@YAIPAVscoped_lock@queuing_rw_mutex@1@@Z 100152b0 f i queuing_rw_mutex.obj
 0001:000142c0       ?initialize@scoped_lock@queuing_rw_mutex@tbb@@AAEXXZ 100152c0 f i queuing_rw_mutex.obj
 0001:00014320       ?load@?$machine_load_store_relaxed@PAVscoped_lock@queuing_rw_mutex@tbb@@$03@internal@tbb@@SAPAVscoped_lock@queuing_rw_mutex@3@ADSAV453@@Z 10015320 f i queuing_rw_mutex.obj
 0001:00014330       ?load@?$machine_load_store_seq_cst@H$03@internal@tbb@@SAHADH@Z 10015330 f i queuing_rw_mutex.obj
 0001:00014350       ?load_with_acquire@?$machine_load_store@E$00@internal@tbb@@SAEADE@Z 10015350 f i queuing_rw_mutex.obj
 0001:00014370       ?load_with_acquire@?$machine_load_store@PAVscoped_lock@queuing_rw_mutex@tbb@@$03@internal@tbb@@SAPAVscoped_lock@queuing_rw_mutex@3@ADSAV453@@Z 10015370 f i queuing_rw_mutex.obj
 0001:00014390       ?release_internal_lock@scoped_lock@queuing_rw_mutex@tbb@@AAEXXZ 10015390 f i queuing_rw_mutex.obj
 0001:000143c0       ?store@?$machine_load_store_relaxed@E$00@internal@tbb@@SAXACEE@Z 100153c0 f i queuing_rw_mutex.obj
 0001:000143d0       ?store@?$machine_load_store_relaxed@PAVscoped_lock@queuing_rw_mutex@tbb@@$03@internal@tbb@@SAXACRAVscoped_lock@queuing_rw_mutex@3@PAV453@@Z 100153d0 f i queuing_rw_mutex.obj
 0001:000143e0       ?store_with_release@?$atomic_impl@E@internal@tbb@@IAEEE@Z 100153e0 f i queuing_rw_mutex.obj
 0001:00014430       ?store_with_release@?$machine_load_store@E$00@internal@tbb@@SAXACEE@Z 10015430 f i queuing_rw_mutex.obj
 0001:00014440       ?store_with_release@?$machine_load_store@PAVscoped_lock@queuing_rw_mutex@tbb@@$03@internal@tbb@@SAXACRAVscoped_lock@queuing_rw_mutex@3@PAV453@@Z 10015440 f i queuing_rw_mutex.obj
 0001:00014450       ?try_acquire_internal_lock@scoped_lock@queuing_rw_mutex@tbb@@AAE_NXZ 10015450 f i queuing_rw_mutex.obj
 0001:000144b0       ?unblock_or_wait_on_internal_lock@scoped_lock@queuing_rw_mutex@tbb@@AAEXI@Z 100154b0 f i queuing_rw_mutex.obj
 0001:000144f0       ?wait_for_release_of_internal_lock@scoped_lock@queuing_rw_mutex@tbb@@AAEXXZ 100154f0 f i queuing_rw_mutex.obj
 0001:000145a0       ?internal_construct@scoped_lock@reader_writer_lock@interface5@tbb@@AAEXAAV234@@Z 100155a0 f   reader_writer_lock.obj
 0001:00014610       ?internal_destroy@scoped_lock@reader_writer_lock@interface5@tbb@@AAEXXZ 10015610 f   reader_writer_lock.obj
 0001:00014680       ?internal_construct@scoped_lock_read@reader_writer_lock@interface5@tbb@@AAEXAAV234@@Z 10015680 f   reader_writer_lock.obj
 0001:000146f0       ?internal_destroy@scoped_lock_read@reader_writer_lock@interface5@tbb@@AAEXXZ 100156f0 f   reader_writer_lock.obj
 0001:00014730       ?lock@reader_writer_lock@interface5@tbb@@QAEXXZ 10015730 f   reader_writer_lock.obj
 0001:000147f0       ?try_lock@reader_writer_lock@interface5@tbb@@QAE_NXZ 100157f0 f   reader_writer_lock.obj
 0001:000148c0       ?lock_read@reader_writer_lock@interface5@tbb@@QAEXXZ 100158c0 f   reader_writer_lock.obj
 0001:000149a0       ?try_lock_read@reader_writer_lock@interface5@tbb@@QAE_NXZ 100159a0 f   reader_writer_lock.obj
 0001:00014a20       ?unlock@reader_writer_lock@interface5@tbb@@QAEXXZ 10015a20 f   reader_writer_lock.obj
 0001:00014b80       ?internal_construct@reader_writer_lock@interface5@tbb@@AAEXXZ 10015b80 f   reader_writer_lock.obj
 0001:00014c20       ?internal_destroy@reader_writer_lock@interface5@tbb@@AAEXXZ 10015c20 f   reader_writer_lock.obj
 0001:00014cf0       ?start_write@reader_writer_lock@interface5@tbb@@AAE_NPAVscoped_lock@123@@Z 10015cf0 f   reader_writer_lock.obj
 0001:00014f10       ?set_next_writer@reader_writer_lock@interface5@tbb@@AAEXPAVscoped_lock@123@@Z 10015f10 f   reader_writer_lock.obj
 0001:00014fd0       ?end_write@reader_writer_lock@interface5@tbb@@AAEXPAVscoped_lock@123@@Z 10015fd0 f   reader_writer_lock.obj
 0001:00015150       ?start_read@reader_writer_lock@interface5@tbb@@AAEXPAVscoped_lock_read@123@@Z 10016150 f   reader_writer_lock.obj
 0001:00015290       ?unblock_readers@reader_writer_lock@interface5@tbb@@AAEXXZ 10016290 f   reader_writer_lock.obj
 0001:000153b0       ?end_read@reader_writer_lock@interface5@tbb@@AAEXXZ 100163b0 f   reader_writer_lock.obj
 0001:00015430       ??$compare_and_swap@$0A@@?$atomic_impl@PAVscoped_lock@reader_writer_lock@interface5@tbb@@@internal@tbb@@QAEPAVscoped_lock@reader_writer_lock@interface5@2@PAV3452@0@Z 10016430 f i reader_writer_lock.obj
 0001:00015480       ??$fetch_and_store@$0A@@?$atomic_impl@PAVscoped_lock@reader_writer_lock@interface5@tbb@@@internal@tbb@@QAEPAVscoped_lock@reader_writer_lock@interface5@2@PAV3452@@Z 10016480 f i reader_writer_lock.obj
 0001:000154c0       ??$fetch_and_store@$0A@@?$atomic_impl@PAVscoped_lock_read@reader_writer_lock@interface5@tbb@@@internal@tbb@@QAEPAVscoped_lock_read@reader_writer_lock@interface5@2@PAV3452@@Z 100164c0 f i reader_writer_lock.obj
 0001:00015500       ??$spin_wait_until_and@U?$atomic@I@tbb@@I@interface5@tbb@@YAXADU?$atomic@I@1@I@Z 10016500 f i reader_writer_lock.obj
 0001:00015580       ??$spin_wait_while_eq@PAVscoped_lock@reader_writer_lock@interface5@tbb@@PAV1234@@internal@tbb@@YAXADSAVscoped_lock@reader_writer_lock@interface5@1@PAV2341@@Z 10016580 f i reader_writer_lock.obj
 0001:00015600       ??$spin_wait_while_eq@U?$atomic@W4status_t@reader_writer_lock@interface5@tbb@@@tbb@@W4status_t@reader_writer_lock@interface5@2@@internal@tbb@@YAXADU?$atomic@W4status_t@reader_writer_lock@interface5@tbb@@@1@W4status_t@reader_writer_lock@interface5@1@@Z 10016600 f i reader_writer_lock.obj
 0001:00015680       ??$spin_wait_while_geq@U?$atomic@I@tbb@@I@interface5@tbb@@YAXADU?$atomic@I@1@I@Z 10016680 f i reader_writer_lock.obj
 0001:00015700       ??$to_bits@PAVscoped_lock@reader_writer_lock@interface5@tbb@@@?$atomic_impl@PAVscoped_lock@reader_writer_lock@interface5@tbb@@@internal@tbb@@CAHPAVscoped_lock@reader_writer_lock@interface5@2@@Z 10016700 f i reader_writer_lock.obj
 0001:00015730       ??$to_bits@PAVscoped_lock_read@reader_writer_lock@interface5@tbb@@@?$atomic_impl@PAVscoped_lock_read@reader_writer_lock@interface5@tbb@@@internal@tbb@@CAHPAVscoped_lock_read@reader_writer_lock@interface5@2@@Z 10016730 f i reader_writer_lock.obj
 0001:00015760       ??$to_bits@W4status_t@reader_writer_lock@interface5@tbb@@@?$atomic_impl@W4status_t@reader_writer_lock@interface5@tbb@@@internal@tbb@@CAHW4status_t@reader_writer_lock@interface5@2@@Z 10016760 f i reader_writer_lock.obj
 0001:00015790       ??$to_bits_ref@$$CDW4status_t@reader_writer_lock@interface5@tbb@@@?$atomic_impl@W4status_t@reader_writer_lock@interface5@tbb@@@internal@tbb@@CAAAHADW4status_t@reader_writer_lock@interface5@2@@Z 10016790 f i reader_writer_lock.obj
 0001:000157c0       ??$to_bits_ref@PAVscoped_lock@reader_writer_lock@interface5@tbb@@@?$atomic_impl@PAVscoped_lock@reader_writer_lock@interface5@tbb@@@internal@tbb@@CAAAHAAPAVscoped_lock@reader_writer_lock@interface5@2@@Z 100167c0 f i reader_writer_lock.obj
 0001:000157f0       ??$to_bits_ref@PAVscoped_lock_read@reader_writer_lock@interface5@tbb@@@?$atomic_impl@PAVscoped_lock_read@reader_writer_lock@interface5@tbb@@@internal@tbb@@CAAAHAAPAVscoped_lock_read@reader_writer_lock@interface5@2@@Z 100167f0 f i reader_writer_lock.obj
 0001:00015820       ??$to_bits_ref@SAVscoped_lock@reader_writer_lock@interface5@tbb@@@?$atomic_impl@PAVscoped_lock@reader_writer_lock@interface5@tbb@@@internal@tbb@@CAAAHADSAVscoped_lock@reader_writer_lock@interface5@2@@Z 10016820 f i reader_writer_lock.obj
 0001:00015850       ??$to_bits_ref@SAVscoped_lock_read@reader_writer_lock@interface5@tbb@@@?$atomic_impl@PAVscoped_lock_read@reader_writer_lock@interface5@tbb@@@internal@tbb@@CAAAHADSAVscoped_lock_read@reader_writer_lock@interface5@2@@Z 10016850 f i reader_writer_lock.obj
 0001:00015880       ??$to_bits_ref@W4status_t@reader_writer_lock@interface5@tbb@@@?$atomic_impl@W4status_t@reader_writer_lock@interface5@tbb@@@internal@tbb@@CAAAHAAW4status_t@reader_writer_lock@interface5@2@@Z 10016880 f i reader_writer_lock.obj
 0001:000158b0       ??$to_value@PAVscoped_lock@reader_writer_lock@interface5@tbb@@@?$atomic_impl@PAVscoped_lock@reader_writer_lock@interface5@tbb@@@internal@tbb@@CAPAVscoped_lock@reader_writer_lock@interface5@2@H@Z 100168b0 f i reader_writer_lock.obj
 0001:00015920       ??$to_value@PAVscoped_lock_read@reader_writer_lock@interface5@tbb@@@?$atomic_impl@PAVscoped_lock_read@reader_writer_lock@interface5@tbb@@@internal@tbb@@CAPAVscoped_lock_read@reader_writer_lock@interface5@2@H@Z 10016920 f i reader_writer_lock.obj
 0001:00015990       ??$to_value@W4status_t@reader_writer_lock@interface5@tbb@@@?$atomic_impl@W4status_t@reader_writer_lock@interface5@tbb@@@internal@tbb@@CA?AW4status_t@reader_writer_lock@interface5@2@H@Z 10016990 f i reader_writer_lock.obj
 0001:00015a00       ??0?$converter@PAVscoped_lock@reader_writer_lock@interface5@tbb@@@?$atomic_impl@PAVscoped_lock@reader_writer_lock@interface5@tbb@@@internal@tbb@@QAE@PAVscoped_lock@reader_writer_lock@interface5@3@@Z 10016a00 f i reader_writer_lock.obj
 0001:00015a20       ??0?$converter@PAVscoped_lock@reader_writer_lock@interface5@tbb@@@?$atomic_impl@PAVscoped_lock@reader_writer_lock@interface5@tbb@@@internal@tbb@@QAE@XZ 10016a20 f i reader_writer_lock.obj
 0001:00015a40       ??0?$converter@PAVscoped_lock_read@reader_writer_lock@interface5@tbb@@@?$atomic_impl@PAVscoped_lock_read@reader_writer_lock@interface5@tbb@@@internal@tbb@@QAE@PAVscoped_lock_read@reader_writer_lock@interface5@3@@Z 10016a40 f i reader_writer_lock.obj
 0001:00015a60       ??0?$converter@PAVscoped_lock_read@reader_writer_lock@interface5@tbb@@@?$atomic_impl@PAVscoped_lock_read@reader_writer_lock@interface5@tbb@@@internal@tbb@@QAE@XZ 10016a60 f i reader_writer_lock.obj
 0001:00015a80       ??0?$converter@W4status_t@reader_writer_lock@interface5@tbb@@@?$atomic_impl@W4status_t@reader_writer_lock@interface5@tbb@@@internal@tbb@@QAE@W4status_t@reader_writer_lock@interface5@3@@Z 10016a80 f i reader_writer_lock.obj
 0001:00015aa0       ??0?$converter@W4status_t@reader_writer_lock@interface5@tbb@@@?$atomic_impl@W4status_t@reader_writer_lock@interface5@tbb@@@internal@tbb@@QAE@XZ 10016aa0 f i reader_writer_lock.obj
 0001:00015ac0       ??0?$ptr_converter@PAPAVscoped_lock@reader_writer_lock@interface5@tbb@@@?$atomic_impl@PAVscoped_lock@reader_writer_lock@interface5@tbb@@@internal@tbb@@QAE@PAPAVscoped_lock@reader_writer_lock@interface5@3@@Z 10016ac0 f i reader_writer_lock.obj
 0001:00015ae0       ??0?$ptr_converter@PAPAVscoped_lock_read@reader_writer_lock@interface5@tbb@@@?$atomic_impl@PAVscoped_lock_read@reader_writer_lock@interface5@tbb@@@internal@tbb@@QAE@PAPAVscoped_lock_read@reader_writer_lock@interface5@3@@Z 10016ae0 f i reader_writer_lock.obj
 0001:00015b00       ??0?$ptr_converter@PAW4status_t@reader_writer_lock@interface5@tbb@@@?$atomic_impl@W4status_t@reader_writer_lock@interface5@tbb@@@internal@tbb@@QAE@PAW4status_t@reader_writer_lock@interface5@3@@Z 10016b00 f i reader_writer_lock.obj
 0001:00015b20       ??0?$ptr_converter@PDSAVscoped_lock@reader_writer_lock@interface5@tbb@@@?$atomic_impl@PAVscoped_lock@reader_writer_lock@interface5@tbb@@@internal@tbb@@QAE@PDSAVscoped_lock@reader_writer_lock@interface5@3@@Z 10016b20 f i reader_writer_lock.obj
 0001:00015b40       ??0?$ptr_converter@PDSAVscoped_lock_read@reader_writer_lock@interface5@tbb@@@?$atomic_impl@PAVscoped_lock_read@reader_writer_lock@interface5@tbb@@@internal@tbb@@QAE@PDSAVscoped_lock_read@reader_writer_lock@interface5@3@@Z 10016b40 f i reader_writer_lock.obj
 0001:00015b60       ??0?$ptr_converter@PDW4status_t@reader_writer_lock@interface5@tbb@@@?$atomic_impl@W4status_t@reader_writer_lock@interface5@tbb@@@internal@tbb@@QAE@PDW4status_t@reader_writer_lock@interface5@3@@Z 10016b60 f i reader_writer_lock.obj
 0001:00015b80       ??0id@tbb_thread_v3@internal@tbb@@QAE@XZ 10016b80 f i reader_writer_lock.obj
 0001:00015ba0       ??0scoped_lock@reader_writer_lock@interface5@tbb@@AAE@XZ 10016ba0 f i reader_writer_lock.obj
 0001:00015bf0       ??0scoped_lock_read@reader_writer_lock@interface5@tbb@@AAE@XZ 10016bf0 f i reader_writer_lock.obj
 0001:00015c40       ??1scoped_lock@reader_writer_lock@interface5@tbb@@QAE@XZ 10016c40 f i reader_writer_lock.obj
 0001:00015c90       ??1scoped_lock_read@reader_writer_lock@interface5@tbb@@QAE@XZ 10016c90 f i reader_writer_lock.obj
 0001:00015ce0       ??2scoped_lock@reader_writer_lock@interface5@tbb@@SAPAXI@Z 10016ce0 f i reader_writer_lock.obj
 0001:00015d00       ??3scoped_lock@reader_writer_lock@interface5@tbb@@SAXPAX@Z 10016d00 f i reader_writer_lock.obj
 0001:00015d50       ??4?$atomic@PAVscoped_lock@reader_writer_lock@interface5@tbb@@@tbb@@QAEPAVscoped_lock@reader_writer_lock@interface5@1@PAV2341@@Z 10016d50 f i reader_writer_lock.obj
 0001:00015d80       ??4?$atomic@PAVscoped_lock_read@reader_writer_lock@interface5@tbb@@@tbb@@QAEPAVscoped_lock_read@reader_writer_lock@interface5@1@PAV2341@@Z 10016d80 f i reader_writer_lock.obj
 0001:00015db0       ??4?$atomic@W4status_t@reader_writer_lock@interface5@tbb@@@tbb@@QAE?AW4status_t@reader_writer_lock@interface5@1@W42341@@Z 10016db0 f i reader_writer_lock.obj
 0001:00015de0       ??8internal@tbb@@YA_NVid@tbb_thread_v3@01@0@Z 10016de0 f i reader_writer_lock.obj
 0001:00015e10       ??9internal@tbb@@YA_NVid@tbb_thread_v3@01@0@Z 10016e10 f i reader_writer_lock.obj
 0001:00015e40       ??B?$atomic_impl@PAVscoped_lock@reader_writer_lock@interface5@tbb@@@internal@tbb@@QDEPAVscoped_lock@reader_writer_lock@interface5@2@XZ 10016e40 f i reader_writer_lock.obj
 0001:00015e80       ??B?$atomic_impl@PAVscoped_lock_read@reader_writer_lock@interface5@tbb@@@internal@tbb@@QDEPAVscoped_lock_read@reader_writer_lock@interface5@2@XZ 10016e80 f i reader_writer_lock.obj
 0001:00015ec0       ??B?$atomic_impl@W4status_t@reader_writer_lock@interface5@tbb@@@internal@tbb@@QDE?AW4status_t@reader_writer_lock@interface5@2@XZ 10016ec0 f i reader_writer_lock.obj
 0001:00015f00       ??C?$atomic@PAVscoped_lock@reader_writer_lock@interface5@tbb@@@tbb@@QBEPAVscoped_lock@reader_writer_lock@interface5@1@XZ 10016f00 f i reader_writer_lock.obj
 0001:00015f30       ??Z?$atomic_impl_with_arithmetic@IID@internal@tbb@@QAEII@Z 10016f30 f i reader_writer_lock.obj
 0001:00015f60       ??_Gscoped_lock@reader_writer_lock@interface5@tbb@@QAEPAXI@Z 10016f60 f i reader_writer_lock.obj
 0001:00015fc0       ?compare_and_swap@?$atomic_impl@PAVscoped_lock@reader_writer_lock@interface5@tbb@@@internal@tbb@@QAEPAVscoped_lock@reader_writer_lock@interface5@3@PAV4563@0@Z 10016fc0 f i reader_writer_lock.obj
 0001:00015ff0       ?fetch_and_and@interface5@tbb@@YAIAAU?$atomic@I@2@I@Z 10016ff0 f i reader_writer_lock.obj
 0001:00016090       ?fetch_and_or@interface5@tbb@@YAIAAU?$atomic@I@2@I@Z 10017090 f i reader_writer_lock.obj
 0001:00016130       ?fetch_and_store@?$atomic_impl@PAVscoped_lock@reader_writer_lock@interface5@tbb@@@internal@tbb@@QAEPAVscoped_lock@reader_writer_lock@interface5@3@PAV4563@@Z 10017130 f i reader_writer_lock.obj
 0001:00016160       ?fetch_and_store@?$atomic_impl@PAVscoped_lock_read@reader_writer_lock@interface5@tbb@@@internal@tbb@@QAEPAVscoped_lock_read@reader_writer_lock@interface5@3@PAV4563@@Z 10017160 f i reader_writer_lock.obj
 0001:00016190       ?fetch_and_store@?$atomic_traits@$03$0A@@internal@tbb@@SAHPCXH@Z 10017190 f i reader_writer_lock.obj
 0001:000161b0       ?get_id@this_tbb_thread@tbb@@YA?AVid@tbb_thread_v3@internal@2@XZ 100171b0 f i reader_writer_lock.obj
 0001:000161d0       ?is_current_writer@reader_writer_lock@interface5@tbb@@AAE_NXZ 100171d0 f i reader_writer_lock.obj
 0001:00016220       ?store_with_release@?$atomic_impl@PAVscoped_lock@reader_writer_lock@interface5@tbb@@@internal@tbb@@IAEPAVscoped_lock@reader_writer_lock@interface5@3@PAV4563@@Z 10017220 f i reader_writer_lock.obj
 0001:00016270       ?store_with_release@?$atomic_impl@PAVscoped_lock_read@reader_writer_lock@interface5@tbb@@@internal@tbb@@IAEPAVscoped_lock_read@reader_writer_lock@interface5@3@PAV4563@@Z 10017270 f i reader_writer_lock.obj
 0001:000162c0       ?store_with_release@?$atomic_impl@W4status_t@reader_writer_lock@interface5@tbb@@@internal@tbb@@IAE?AW4status_t@reader_writer_lock@interface5@3@W44563@@Z 100172c0 f i reader_writer_lock.obj
 0001:000163a0       ?internal_acquire_writer@spin_rw_mutex_v3@tbb@@AAE_NXZ 100173a0 f   spin_rw_mutex.obj
 0001:000164a0       ?internal_release_writer@spin_rw_mutex_v3@tbb@@AAEXXZ 100174a0 f   spin_rw_mutex.obj
 0001:000164f0       ?internal_acquire_reader@spin_rw_mutex_v3@tbb@@AAEXXZ 100174f0 f   spin_rw_mutex.obj
 0001:00016600       ?internal_upgrade@spin_rw_mutex_v3@tbb@@AAE_NXZ 10017600 f   spin_rw_mutex.obj
 0001:00016780       ?internal_downgrade@spin_rw_mutex_v3@tbb@@AAEXXZ 10017780 f   spin_rw_mutex.obj
 0001:00016800       ?internal_release_reader@spin_rw_mutex_v3@tbb@@AAEXXZ 10017800 f   spin_rw_mutex.obj
 0001:00016880       ?internal_try_acquire_writer@spin_rw_mutex_v3@tbb@@AAE_NXZ 10017880 f   spin_rw_mutex.obj
 0001:00016900       ?internal_try_acquire_reader@spin_rw_mutex_v3@tbb@@AAE_NXZ 10017900 f   spin_rw_mutex.obj
 0001:00016990       ?internal_construct@spin_rw_mutex_v3@tbb@@AAEXXZ 10017990 f   spin_rw_mutex.obj
 0001:00016a10       ??$as_atomic@$$CCH@internal@tbb@@YAAAU?$atomic@$$CCH@1@ACH@Z 10017a10 f i spin_rw_mutex.obj
 0001:00016a20       ??$compare_and_swap@$0A@@?$atomic_impl@$$CCH@internal@tbb@@QAE?CHHH@Z 10017a20 f i spin_rw_mutex.obj
 0001:00016a70       ??$to_bits@H@?$atomic_impl@$$CCH@internal@tbb@@CAHH@Z 10017a70 f i spin_rw_mutex.obj
 0001:00016aa0       ??$to_value@$$CCH@?$atomic_impl@$$CCH@internal@tbb@@CA?CHH@Z 10017aa0 f i spin_rw_mutex.obj
 0001:00016b10       ??0?$converter@$$CCH@?$atomic_impl@$$CCH@internal@tbb@@QAE@XZ 10017b10 f i spin_rw_mutex.obj
 0001:00016b30       ??0?$converter@H@?$atomic_impl@$$CCH@internal@tbb@@QAE@H@Z 10017b30 f i spin_rw_mutex.obj
 0001:00016b50       ?compare_and_swap@?$atomic_impl@$$CCH@internal@tbb@@QAE?CHHH@Z 10017b50 f i spin_rw_mutex.obj
 0001:00016b80       ?reset@atomic_backoff@internal@tbb@@QAEXXZ 10017b80 f i spin_rw_mutex.obj
 0001:00016bc0       ?internal_construct@x86_rtm_rw_mutex@internal@interface8@tbb@@AAEXXZ 10017bc0 f   x86_rtm_rw_mutex.obj
 0001:00016c10       ?internal_acquire_writer@x86_rtm_rw_mutex@internal@interface8@tbb@@AAEXAAVscoped_lock@1234@_N@Z 10017c10 f   x86_rtm_rw_mutex.obj
 0001:00016d80       ?internal_acquire_reader@x86_rtm_rw_mutex@internal@interface8@tbb@@AAEXAAVscoped_lock@1234@_N@Z 10017d80 f   x86_rtm_rw_mutex.obj
 0001:00016ee0       ?internal_upgrade@x86_rtm_rw_mutex@internal@interface8@tbb@@AAE_NAAVscoped_lock@1234@@Z 10017ee0 f   x86_rtm_rw_mutex.obj
 0001:00016fe0       ?internal_downgrade@x86_rtm_rw_mutex@internal@interface8@tbb@@AAE_NAAVscoped_lock@1234@@Z 10017fe0 f   x86_rtm_rw_mutex.obj
 0001:000170b0       ?internal_try_acquire_writer@x86_rtm_rw_mutex@internal@interface8@tbb@@AAE_NAAVscoped_lock@1234@@Z 100180b0 f   x86_rtm_rw_mutex.obj
 0001:00017180       ?internal_release@x86_rtm_rw_mutex@internal@interface8@tbb@@AAEXAAVscoped_lock@1234@@Z 10018180 f   x86_rtm_rw_mutex.obj
 0001:000172e0       ?acquire@scoped_lock@spin_rw_mutex_v3@tbb@@QAEXAAV23@_N@Z 100182e0 f i x86_rtm_rw_mutex.obj
 0001:00017350       ?downgrade_to_reader@scoped_lock@spin_rw_mutex_v3@tbb@@QAE_NXZ 10018350 f i x86_rtm_rw_mutex.obj
 0001:000173d0       ?internal_set_mutex@scoped_lock@spin_rw_mutex_v3@tbb@@AAEXPAV23@@Z 100183d0 f i x86_rtm_rw_mutex.obj
 0001:000173f0       ?release@scoped_lock@spin_rw_mutex_v3@tbb@@QAEXXZ 100183f0 f i x86_rtm_rw_mutex.obj
 0001:00017470       ?speculation_enabled@governor@internal@tbb@@SA_NXZ 10018470 f i x86_rtm_rw_mutex.obj
 0001:00017480       ?try_acquire@scoped_lock@spin_rw_mutex_v3@tbb@@QAE_NAAV23@_N@Z 10018480 f i x86_rtm_rw_mutex.obj
 0001:00017510       ?upgrade_to_writer@scoped_lock@spin_rw_mutex_v3@tbb@@QAE_NXZ 10018510 f i x86_rtm_rw_mutex.obj
 0001:000175d0       ?internal_acquire@scoped_lock@spin_mutex@tbb@@AAEXAAV23@@Z 100185d0 f   spin_mutex.obj
 0001:00017670       ?internal_try_acquire@scoped_lock@spin_mutex@tbb@@AAE_NAAV23@@Z 10018670 f   spin_mutex.obj
 0001:00017700       ?internal_release@scoped_lock@spin_mutex@tbb@@AAEXXZ 10018700 f   spin_mutex.obj
 0001:00017780       ?internal_construct@spin_mutex@tbb@@QAEXXZ 10018780 f   spin_mutex.obj
 0001:000177d0       ?__TBB_LockByte@@YAEAAE@Z  100187d0 f i spin_mutex.obj
 0001:00017850       ?__TBB_TryLockByte@@YA_NAAE@Z 10018850 f i spin_mutex.obj
 0001:000178a0       ?internal_construct@critical_section_v4@internal@tbb@@QAEXXZ 100188a0 f   critical_section.obj
 0001:000178f0       ?internal_acquire@scoped_lock@mutex@tbb@@AAEXAAV23@@Z 100188f0 f   mutex.obj
 0001:000179d0       ?internal_try_acquire@scoped_lock@mutex@tbb@@AAE_NAAV23@@Z 100189d0 f   mutex.obj
 0001:00017ae0       ?internal_release@scoped_lock@mutex@tbb@@AAEXXZ 10018ae0 f   mutex.obj
 0001:00017be0       ?internal_construct@mutex@tbb@@AAEXXZ 10018be0 f   mutex.obj
 0001:00017c50       ?internal_destroy@mutex@tbb@@AAEXXZ 10018c50 f   mutex.obj
 0001:00017d00       ?inlineInitializeCriticalSectionEx@@YGHPAU_RTL_CRITICAL_SECTION@@KK@Z 10018d00 f i mutex.obj
 0001:00017d30       ?internal_acquire@scoped_lock@recursive_mutex@tbb@@AAEXAAV23@@Z 10018d30 f   recursive_mutex.obj
 0001:00017de0       ?internal_try_acquire@scoped_lock@recursive_mutex@tbb@@AAE_NAAV23@@Z 10018de0 f   recursive_mutex.obj
 0001:00017eb0       ?internal_release@scoped_lock@recursive_mutex@tbb@@AAEXXZ 10018eb0 f   recursive_mutex.obj
 0001:00017f80       ?internal_construct@recursive_mutex@tbb@@AAEXXZ 10018f80 f   recursive_mutex.obj
 0001:00017ff0       ?internal_destroy@recursive_mutex@tbb@@AAEXXZ 10018ff0 f   recursive_mutex.obj
 0001:000180e0       ?internal_initialize_condition_variable@internal@interface5@tbb@@YAXAATcondvar_impl_t@123@@Z 100190e0 f   condition_variable.obj
 0001:00018130       ?internal_destroy_condition_variable@internal@interface5@tbb@@YAXAATcondvar_impl_t@123@@Z 10019130 f   condition_variable.obj
 0001:00018160       ?internal_condition_variable_notify_one@internal@interface5@tbb@@YAXAATcondvar_impl_t@123@@Z 10019160 f   condition_variable.obj
 0001:00018190       ?internal_condition_variable_notify_all@internal@interface5@tbb@@YAXAATcondvar_impl_t@123@@Z 10019190 f   condition_variable.obj
 0001:000181c0       ?internal_condition_variable_wait@internal@interface5@tbb@@YA_NAATcondvar_impl_t@123@PAVmutex@3@PBVinterval_t@tick_count@3@@Z 100191c0 f   condition_variable.obj
 0001:00018280       ?init_condvar_using_event@internal@tbb@@YGXPAUcondition_variable_using_event@1interface5@2@@Z 10019280 f   condition_variable.obj
 0001:000182e0       ?sleep_condition_variable_cs_using_event@internal@tbb@@YGHPAUcondition_variable_using_event@1interface5@2@PAU_RTL_CRITICAL_SECTION@@K@Z 100192e0 f   condition_variable.obj
 0001:000184e0       ?wake_condition_variable_using_event@internal@tbb@@YGXPAUcondition_variable_using_event@1interface5@2@@Z 100194e0 f   condition_variable.obj
 0001:00018560       ?wake_all_condition_variable_using_event@internal@tbb@@YGXPAUcondition_variable_using_event@1interface5@2@@Z 10019560 f   condition_variable.obj
 0001:000185e0       ?destroy_condvar_using_event@internal@tbb@@YGXPAUcondition_variable_using_event@1interface5@2@@Z 100195e0 f   condition_variable.obj
 0001:000186a0       ?destroy_condvar_noop@internal@tbb@@YGXPAU_RTL_CONDITION_VARIABLE@@@Z 100196a0 f   condition_variable.obj
 0001:000186b0       ?init_condvar_module@internal@tbb@@YAXXZ 100196b0 f   condition_variable.obj
 0001:00018710       ??$spin_wait_until_eq@HH@internal@tbb@@YAXADHH@Z 10019710 f i condition_variable.obj
 0001:00018790       ?inlineCreateEventEx@@YGPAXPAU_SECURITY_ATTRIBUTES@@PBDKK@Z 10019790 f i condition_variable.obj
 0001:00018820       ?native_handle@mutex@tbb@@QAEPAU_RTL_CRITICAL_SECTION@@XZ 10019820 f i condition_variable.obj
 0001:00018840       ?resolution@tick_count@tbb@@SANXZ 10019840 f i condition_variable.obj
 0001:00018890       ?seconds@interval_t@tick_count@tbb@@QBENXZ 10019890 f i condition_variable.obj
 0001:000188f0       ?set_state@mutex@tbb@@QAEXW4state_t@12@@Z 100198f0 f i condition_variable.obj
 0001:00018910       ?ticks_per_second@interval_t@tick_count@tbb@@CA_JXZ 10019910 f i condition_variable.obj
 0001:000189b0       ?allocate_closure_v3@internal@tbb@@YAPAXI@Z 100199b0 f   tbb_thread.obj
 0001:000189d0       ?free_closure_v3@internal@tbb@@YAXPAX@Z 100199d0 f   tbb_thread.obj
 0001:000189f0       ?join@tbb_thread_v3@internal@tbb@@QAEXXZ 100199f0 f   tbb_thread.obj
 0001:00018b00       ?detach@tbb_thread_v3@internal@tbb@@QAEXXZ 10019b00 f   tbb_thread.obj
 0001:00018b90       ?hardware_concurrency@tbb_thread_v3@internal@tbb@@SAIXZ 10019b90 f   tbb_thread.obj
 0001:00018bd0       ?internal_start@tbb_thread_v3@internal@tbb@@AAEXP6GIPAX@Z0@Z 10019bd0 f   tbb_thread.obj
 0001:00018ca0       ?move_v3@internal@tbb@@YAXAAVtbb_thread_v3@12@0@Z 10019ca0 f   tbb_thread.obj
 0001:00018cf0       ?thread_get_id_v3@internal@tbb@@YA?AVid@tbb_thread_v3@12@XZ 10019cf0 f   tbb_thread.obj
 0001:00018d20       ?thread_yield_v3@internal@tbb@@YAXXZ 10019d20 f   tbb_thread.obj
 0001:00018d40       ?thread_sleep_v3@internal@tbb@@YAXABVinterval_t@tick_count@2@@Z 10019d40 f   tbb_thread.obj
 0001:00018e60       ??0id@tbb_thread_v3@internal@tbb@@AAE@K@Z 10019e60 f i tbb_thread.obj
 0001:00018e80       ??0interval_t@tick_count@tbb@@AAE@_J@Z 10019e80 f i tbb_thread.obj
 0001:00018eb0       ??0tick_count@tbb@@QAE@XZ  10019eb0 f i tbb_thread.obj
 0001:00018ee0       ??Gtbb@@YA?AVinterval_t@tick_count@0@ABV120@0@Z 10019ee0 f i tbb_thread.obj
 0001:00018f10       ??Gtbb@@YA?AVinterval_t@tick_count@0@ABV20@0@Z 10019f10 f i tbb_thread.obj
 0001:00018f40       ?active_value@global_control@interface9@tbb@@SAIW4parameter@123@@Z 10019f40 f i tbb_thread.obj
 0001:00018f80       ?default_num_threads@governor@internal@tbb@@SAIXZ 10019f80 f i tbb_thread.obj
 0001:00018fd0       ?get_id@tbb_thread_v3@internal@tbb@@QBE?AVid@123@XZ 10019fd0 f i tbb_thread.obj
 0001:00019030       ?joinable@tbb_thread_v3@internal@tbb@@QBE_NXZ 1001a030 f i tbb_thread.obj
 0001:00019070       ?now@tick_count@tbb@@SA?AV12@XZ 1001a070 f i tbb_thread.obj
 0001:00019150       ?init@thread_context@concurrent_monitor@internal@tbb@@AAEXXZ 1001a150 f   concurrent_monitor.obj
 0001:000191a0       ??1concurrent_monitor@internal@tbb@@QAE@XZ 1001a1a0 f   concurrent_monitor.obj
 0001:00019230       ?prepare_wait@concurrent_monitor@internal@tbb@@QAEXAAVthread_context@123@I@Z 1001a230 f   concurrent_monitor.obj
 0001:00019360       ?cancel_wait@concurrent_monitor@internal@tbb@@QAEXAAVthread_context@123@@Z 1001a360 f   concurrent_monitor.obj
 0001:00019460       ?notify_one_relaxed@concurrent_monitor@internal@tbb@@QAEXXZ 1001a460 f   concurrent_monitor.obj
 0001:000195b0       ?notify_all_relaxed@concurrent_monitor@internal@tbb@@QAEXXZ 1001a5b0 f   concurrent_monitor.obj
 0001:00019750       ?abort_all_relaxed@concurrent_monitor@internal@tbb@@QAEXXZ 1001a750 f   concurrent_monitor.obj
 0001:00019900       ??0binary_semaphore@internal@tbb@@QAE@XZ 1001a900 f i concurrent_monitor.obj
 0001:00019940       ?flush_to@circular_doubly_linked_list_with_sentinel@internal@tbb@@QAEXAAV123@@Z 1001a940 f i concurrent_monitor.obj
 0001:00019a10       ?join@thread_monitor@internal@rml@@SAXPAX@Z 1001aa10 f   private_server.obj
 0001:00019ab0       ?detach_thread@thread_monitor@internal@rml@@SAXPAX@Z 1001aab0 f   private_server.obj
 0001:00019b10       ?run@private_worker@rml@internal@tbb@@AAEXXZ 1001ab10 f   private_server.obj
 0001:00019c70       ?start_shutdown@private_worker@rml@internal@tbb@@AAEXXZ 1001ac70 f   private_server.obj
 0001:00019d30       ?thread_routine@private_worker@rml@internal@tbb@@CGIPAX@Z 1001ad30 f   private_server.obj
 0001:00019e30       ?release_handle@private_worker@rml@internal@tbb@@CAXPAX_N@Z 1001ae30 f   private_server.obj
 0001:00019e60       ?wake_some@private_server@rml@internal@tbb@@AAEXH@Z 1001ae60 f   private_server.obj
 0001:0001a030       ??1private_server@rml@internal@tbb@@EAE@XZ 1001b030 f   private_server.obj
 0001:0001a120       ??0private_server@rml@internal@tbb@@QAE@AAVtbb_client@123@@Z 1001b120 f   private_server.obj
 0001:0001a2a0       ?adjust_job_count_estimate@private_server@rml@internal@tbb@@UAEXH@Z 1001b2a0 f   private_server.obj
 0001:0001a300       ?make_private_server@rml@internal@tbb@@YAPAVtbb_server@123@AAVtbb_client@123@@Z 1001b300 f   private_server.obj
 0001:0001a350       ??$compare_and_swap@$0A@@?$atomic_impl@H@internal@tbb@@QAEHHH@Z 1001b350 f i private_server.obj
 0001:0001a3a0       ??$compare_and_swap@$0A@@?$atomic_impl@W4state_t@private_worker@rml@internal@tbb@@@internal@tbb@@QAE?AW4state_t@private_worker@rml@12@W434512@0@Z 1001b3a0 f i private_server.obj
 0001:0001a3f0       ??$fetch_and_add@$0A@@?$atomic_impl_with_arithmetic@HHD@internal@tbb@@QAEHH@Z 1001b3f0 f i private_server.obj
 0001:0001a420       ??$fetch_and_store@$0A@@?$atomic_impl@_N@internal@tbb@@QAE_N_N@Z 1001b420 f i private_server.obj
 0001:0001a470       ??$poison_pointer@Vpadded_private_worker@rml@internal@tbb@@@internal@tbb@@YAXAAPAVpadded_private_worker@rml@01@@Z 1001b470 f i private_server.obj
 0001:0001a480       ??$suppress_unused_warning@$$BY0FM@D@internal@tbb@@YAXAAY0FM@$$CBD@Z 1001b480 f i private_server.obj
 0001:0001a490       ??$to_bits@H@?$atomic_impl@H@internal@tbb@@CAHH@Z 1001b490 f i private_server.obj
 0001:0001a4c0       ??$to_bits@PAVprivate_worker@rml@internal@tbb@@@?$atomic_impl@PAVprivate_worker@rml@internal@tbb@@@internal@tbb@@CAHPAVprivate_worker@rml@12@@Z 1001b4c0 f i private_server.obj
 0001:0001a4f0       ??$to_bits@W4state_t@private_worker@rml@internal@tbb@@@?$atomic_impl@W4state_t@private_worker@rml@internal@tbb@@@internal@tbb@@CAHW4state_t@private_worker@rml@12@@Z 1001b4f0 f i private_server.obj
 0001:0001a520       ??$to_bits_ref@$$CDH@?$atomic_impl@H@internal@tbb@@CAAAHADH@Z 1001b520 f i private_server.obj
 0001:0001a550       ??$to_bits_ref@$$CDW4state_t@private_worker@rml@internal@tbb@@@?$atomic_impl@W4state_t@private_worker@rml@internal@tbb@@@internal@tbb@@CAAAHADW4state_t@private_worker@rml@12@@Z 1001b550 f i private_server.obj
 0001:0001a580       ??$to_bits_ref@H@?$atomic_impl@H@internal@tbb@@CAAAHAAH@Z 1001b580 f i private_server.obj
 0001:0001a5b0       ??$to_bits_ref@PAVprivate_worker@rml@internal@tbb@@@?$atomic_impl@PAVprivate_worker@rml@internal@tbb@@@internal@tbb@@CAAAHAAPAVprivate_worker@rml@12@@Z 1001b5b0 f i private_server.obj
 0001:0001a5e0       ??$to_bits_ref@SAVprivate_worker@rml@internal@tbb@@@?$atomic_impl@PAVprivate_worker@rml@internal@tbb@@@internal@tbb@@CAAAHADSAVprivate_worker@rml@12@@Z 1001b5e0 f i private_server.obj
 0001:0001a610       ??$to_bits_ref@W4state_t@private_worker@rml@internal@tbb@@@?$atomic_impl@W4state_t@private_worker@rml@internal@tbb@@@internal@tbb@@CAAAHAAW4state_t@private_worker@rml@12@@Z 1001b610 f i private_server.obj
 0001:0001a640       ??$to_value@H@?$atomic_impl@H@internal@tbb@@CAHH@Z 1001b640 f i private_server.obj
 0001:0001a6b0       ??$to_value@PAVprivate_worker@rml@internal@tbb@@@?$atomic_impl@PAVprivate_worker@rml@internal@tbb@@@internal@tbb@@CAPAVprivate_worker@rml@12@H@Z 1001b6b0 f i private_server.obj
 0001:0001a720       ??$to_value@W4state_t@private_worker@rml@internal@tbb@@@?$atomic_impl@W4state_t@private_worker@rml@internal@tbb@@@internal@tbb@@CA?AW4state_t@private_worker@rml@12@H@Z 1001b720 f i private_server.obj
 0001:0001a790       ??0?$cache_aligned_allocator@Vpadded_private_worker@rml@internal@tbb@@@tbb@@QAE@XZ 1001b790 f i private_server.obj
 0001:0001a7b0       ??0?$cache_aligned_allocator@Vprivate_server@rml@internal@tbb@@@tbb@@QAE@XZ 1001b7b0 f i private_server.obj
 0001:0001a7d0       ??0?$converter@H@?$atomic_impl@H@internal@tbb@@QAE@H@Z 1001b7d0 f i private_server.obj
 0001:0001a7f0       ??0?$converter@H@?$atomic_impl@H@internal@tbb@@QAE@XZ 1001b7f0 f i private_server.obj
 0001:0001a810       ??0?$converter@PAVprivate_worker@rml@internal@tbb@@@?$atomic_impl@PAVprivate_worker@rml@internal@tbb@@@internal@tbb@@QAE@PAVprivate_worker@rml@23@@Z 1001b810 f i private_server.obj
 0001:0001a830       ??0?$converter@PAVprivate_worker@rml@internal@tbb@@@?$atomic_impl@PAVprivate_worker@rml@internal@tbb@@@internal@tbb@@QAE@XZ 1001b830 f i private_server.obj
 0001:0001a850       ??0?$converter@W4state_t@private_worker@rml@internal@tbb@@@?$atomic_impl@W4state_t@private_worker@rml@internal@tbb@@@internal@tbb@@QAE@W4state_t@private_worker@rml@23@@Z 1001b850 f i private_server.obj
 0001:0001a870       ??0?$converter@W4state_t@private_worker@rml@internal@tbb@@@?$atomic_impl@W4state_t@private_worker@rml@internal@tbb@@@internal@tbb@@QAE@XZ 1001b870 f i private_server.obj
 0001:0001a890       ??0?$ptr_converter@PAH@?$atomic_impl@H@internal@tbb@@QAE@PAH@Z 1001b890 f i private_server.obj
 0001:0001a8b0       ??0?$ptr_converter@PAPAVprivate_worker@rml@internal@tbb@@@?$atomic_impl@PAVprivate_worker@rml@internal@tbb@@@internal@tbb@@QAE@PAPAVprivate_worker@rml@23@@Z 1001b8b0 f i private_server.obj
 0001:0001a8d0       ??0?$ptr_converter@PAW4state_t@private_worker@rml@internal@tbb@@@?$atomic_impl@W4state_t@private_worker@rml@internal@tbb@@@internal@tbb@@QAE@PAW4state_t@private_worker@rml@23@@Z 1001b8d0 f i private_server.obj
 0001:0001a8f0       ??0?$ptr_converter@PDH@?$atomic_impl@H@internal@tbb@@QAE@PDH@Z 1001b8f0 f i private_server.obj
 0001:0001a910       ??0?$ptr_converter@PDSAVprivate_worker@rml@internal@tbb@@@?$atomic_impl@PAVprivate_worker@rml@internal@tbb@@@internal@tbb@@QAE@PDSAVprivate_worker@rml@23@@Z 1001b910 f i private_server.obj
 0001:0001a930       ??0?$ptr_converter@PDW4state_t@private_worker@rml@internal@tbb@@@?$atomic_impl@W4state_t@private_worker@rml@internal@tbb@@@internal@tbb@@QAE@PDW4state_t@private_worker@rml@23@@Z 1001b930 f i private_server.obj
 0001:0001a950       ??0padded_private_worker@rml@internal@tbb@@QAE@AAVprivate_server@123@AAVtbb_client@123@I@Z 1001b950 f i private_server.obj
 0001:0001a9d0       ??0private_worker@rml@internal@tbb@@IAE@AAVprivate_server@123@AAVtbb_client@123@I@Z 1001b9d0 f i private_server.obj
 0001:0001aa80       ??0scoped_lock@spin_mutex@tbb@@QAE@XZ 1001ba80 f i private_server.obj
 0001:0001aac0       ??0server@rml@@QAE@XZ      1001bac0 f i private_server.obj
 0001:0001aaf0       ??0tbb_server@rml@internal@tbb@@QAE@XZ 1001baf0 f i private_server.obj
 0001:0001ab20       ??0thread_monitor@internal@rml@@QAE@XZ 1001bb20 f i private_server.obj
 0001:0001abe0       ??0versioned_object@rml@@QAE@XZ 1001bbe0 f i private_server.obj
 0001:0001ac00       ??1padded_private_worker@rml@internal@tbb@@QAE@XZ 1001bc00 f i private_server.obj
 0001:0001ac30       ??1private_worker@rml@internal@tbb@@QAE@XZ 1001bc30 f i private_server.obj
 0001:0001ac60       ??1thread_monitor@internal@rml@@QAE@XZ 1001bc60 f i private_server.obj
 0001:0001ac90       ??4?$atomic@H@tbb@@QAEHH@Z 1001bc90 f i private_server.obj
 0001:0001acc0       ??4?$atomic@PAVprivate_worker@rml@internal@tbb@@@tbb@@QAEPAVprivate_worker@rml@internal@1@PAV2341@@Z 1001bcc0 f i private_server.obj
 0001:0001acf0       ??4?$atomic@W4state_t@private_worker@rml@internal@tbb@@@tbb@@QAE?AW4state_t@private_worker@rml@internal@1@W423451@@Z 1001bcf0 f i private_server.obj
 0001:0001ad20       ??4cookie@thread_monitor@internal@rml@@QAEAAV0123@ABV0123@@Z 1001bd20 f i private_server.obj
 0001:0001ad50       ??B?$atomic_impl@H@internal@tbb@@QDEHXZ 1001bd50 f i private_server.obj
 0001:0001ad90       ??B?$atomic_impl@PAVprivate_worker@rml@internal@tbb@@@internal@tbb@@QDEPAVprivate_worker@rml@12@XZ 1001bd90 f i private_server.obj
 0001:0001add0       ??B?$atomic_impl@W4state_t@private_worker@rml@internal@tbb@@@internal@tbb@@QDE?AW4state_t@private_worker@rml@12@XZ 1001bdd0 f i private_server.obj
 0001:0001ae10       ??E?$atomic_impl_with_arithmetic@HHD@internal@tbb@@QAEHXZ 1001be10 f i private_server.obj
 0001:0001ae40       ??F?$atomic_impl_with_arithmetic@HHD@internal@tbb@@QAEHXZ 1001be40 f i private_server.obj
 0001:0001ae70       ??Y?$atomic_impl_with_arithmetic@HHD@internal@tbb@@QAEHH@Z 1001be70 f i private_server.obj
 0001:0001aea0       ??_Gpadded_private_worker@rml@internal@tbb@@QAEPAXI@Z 1001bea0 f i private_server.obj
 0001:0001aef0       ??_Gprivate_server@rml@internal@tbb@@EAEPAXI@Z 1001bef0 f i private_server.obj
 0001:0001aef0       ??_Eprivate_server@rml@internal@tbb@@EAEPAXI@Z 1001bef0 f i private_server.obj
 0001:0001af30       ?allocate@?$cache_aligned_allocator@Vpadded_private_worker@rml@internal@tbb@@@tbb@@QAEPAVpadded_private_worker@rml@internal@2@IPBX@Z 1001bf30 f i private_server.obj
 0001:0001af70       ?allocate@?$cache_aligned_allocator@Vprivate_server@rml@internal@tbb@@@tbb@@QAEPAVprivate_server@rml@internal@2@IPBX@Z 1001bf70 f i private_server.obj
 0001:0001afa0       ?cancel_wait@thread_monitor@internal@rml@@QAEXXZ 1001bfa0 f i private_server.obj
 0001:0001b000       ?commit_wait@thread_monitor@internal@rml@@QAEXAAVcookie@123@@Z 1001c000 f i private_server.obj
 0001:0001b080       ?compare_and_swap@?$atomic_impl@H@internal@tbb@@QAEHHH@Z 1001c080 f i private_server.obj
 0001:0001b0b0       ?compare_and_swap@?$atomic_impl@W4state_t@private_worker@rml@internal@tbb@@@internal@tbb@@QAE?AW4state_t@private_worker@rml@23@W445623@0@Z 1001c0b0 f i private_server.obj
 0001:0001b0e0       ?deallocate@?$cache_aligned_allocator@Vpadded_private_worker@rml@internal@tbb@@@tbb@@QAEXPAVpadded_private_worker@rml@internal@2@I@Z 1001c0e0 f i private_server.obj
 0001:0001b110       ?deallocate@?$cache_aligned_allocator@Vprivate_server@rml@internal@tbb@@@tbb@@QAEXPAVprivate_server@rml@internal@2@I@Z 1001c110 f i private_server.obj
 0001:0001b140       ?default_concurrency@private_server@rml@internal@tbb@@UBEIXZ 1001c140 f i private_server.obj
 0001:0001b170       ?fetch_and_add@?$atomic_impl_with_arithmetic@HHD@internal@tbb@@QAEHH@Z 1001c170 f i private_server.obj
 0001:0001b1a0       ?fetch_and_store@?$atomic_impl@_N@internal@tbb@@QAE_N_N@Z 1001c1a0 f i private_server.obj
 0001:0001b1d0       ?fetch_and_store@?$atomic_traits@$00$0A@@internal@tbb@@SACPCXC@Z 1001c1d0 f i private_server.obj
 0001:0001b1f0       ?independent_thread_number_changed@private_server@rml@internal@tbb@@UAEXH@Z 1001c1f0 f i private_server.obj
 0001:0001b230       ?launch@thread_monitor@internal@rml@@SAPAXP6GIPAX@Z0IPBI@Z 1001c230 f i private_server.obj
 0001:0001b370       ?notify@thread_monitor@internal@rml@@QAEXXZ 1001c370 f i private_server.obj
 0001:0001b3d0       ?prepare_wait@thread_monitor@internal@rml@@QAEXAAVcookie@123@@Z 1001c3d0 f i private_server.obj
 0001:0001b430       ?propagate_chain_reaction@private_server@rml@internal@tbb@@AAEXXZ 1001c430 f i private_server.obj
 0001:0001b470       ?register_master@private_server@rml@internal@tbb@@UAEXAAPAX@Z 1001c470 f i private_server.obj
 0001:0001b490       ?remove_server_ref@private_server@rml@internal@tbb@@AAEXXZ 1001c490 f i private_server.obj
 0001:0001b510       ?request_close_connection@private_server@rml@internal@tbb@@UAEX_N@Z 1001c510 f i private_server.obj
 0001:0001b570       ?store_with_release@?$atomic_impl@H@internal@tbb@@IAEHH@Z 1001c570 f i private_server.obj
 0001:0001b5c0       ?store_with_release@?$atomic_impl@PAVprivate_worker@rml@internal@tbb@@@internal@tbb@@IAEPAVprivate_worker@rml@23@PAV4523@@Z 1001c5c0 f i private_server.obj
 0001:0001b610       ?store_with_release@?$atomic_impl@W4state_t@private_worker@rml@internal@tbb@@@internal@tbb@@IAE?AW4state_t@private_worker@rml@23@W445623@@Z 1001c610 f i private_server.obj
 0001:0001b660       ?try_acquire@scoped_lock@spin_mutex@tbb@@QAE_NAAV23@@Z 1001c660 f i private_server.obj
 0001:0001b690       ?try_insert_in_asleep_list@private_server@rml@internal@tbb@@AAE_NAAVprivate_worker@234@@Z 1001c690 f i private_server.obj
 0001:0001b7e0       ?unregister_master@private_server@rml@internal@tbb@@UAEXPAX@Z 1001c7e0 f i private_server.obj
 0001:0001b800       ?version@private_server@rml@internal@tbb@@UBEIXZ 1001c800 f i private_server.obj
 0001:0001b820       ?wake_or_launch@private_worker@rml@internal@tbb@@AAEXXZ 1001c820 f i private_server.obj
 0001:0001b900       ?yield@private_server@rml@internal@tbb@@UAEXXZ 1001c900 f i private_server.obj
 0001:0001b930       ___local_stdio_printf_options 1001c930 f i private_server.obj
 0001:0001b940       __vfprintf_l               1001c940 f i private_server.obj
 0001:0001b980       _fprintf                   1001c980 f i private_server.obj
 0001:0001b9e0       ?open@tbb_factory@rml@internal@tbb@@QAE?AW4status_type@factory@2@XZ 1001c9e0 f   rml_tbb.obj
 0001:0001bb50       ?make_server@tbb_factory@rml@internal@tbb@@QAE?AW4status_type@factory@2@AAPAVtbb_server@234@AAVtbb_client@234@@Z 1001cb50 f   rml_tbb.obj
 0001:0001bbc0       ?close@tbb_factory@rml@internal@tbb@@QAEXXZ 1001cbc0 f   rml_tbb.obj
 0001:0001bc30       ?call_with_server_info@tbb_factory@rml@internal@tbb@@QBEXP6AXPAXPBD@Z0@Z 1001cc30 f   rml_tbb.obj
 0001:0001bc90       ?set_assertion_handler@tbb@@YAP6AXPBDH00@ZP6AX0H00@Z@Z 1001cc90 f   tbb_misc.obj
 0001:0001bcc0       ?assertion_failure@tbb@@YAXPBDH00@Z 1001ccc0 f   tbb_misc.obj
 0001:0001bdd0       _TBB_runtime_interface_version 1001cdd0 f   tbb_misc.obj
 0001:0001bde0       ?handle_perror@internal@tbb@@YAXHPBD@Z 1001cde0 f   tbb_misc.obj
 0001:0001bf10       ?runtime_warning@internal@tbb@@YAXPBDZZ 1001cf10 f   tbb_misc.obj
 0001:0001bff0       ?what@bad_last_alloc@tbb@@UBEPBDXZ 1001cff0 f   tbb_misc.obj
 0001:0001c010       ?what@improper_lock@tbb@@UBEPBDXZ 1001d010 f   tbb_misc.obj
 0001:0001c030       ?what@user_abort@tbb@@UBEPBDXZ 1001d030 f   tbb_misc.obj
 0001:0001c050       ?what@missing_wait@tbb@@UBEPBDXZ 1001d050 f   tbb_misc.obj
 0001:0001c070       ?what@invalid_multiple_scheduling@tbb@@UBEPBDXZ 1001d070 f   tbb_misc.obj
 0001:0001c090       ?throw_bad_last_alloc_exception_v4@internal@tbb@@YAXXZ 1001d090 f   tbb_misc.obj
 0001:0001c0b0       ?throw_exception_v4@internal@tbb@@YAXW4exception_id@12@@Z 1001d0b0 f   tbb_misc.obj
 0001:0001c440       ?handle_win_error@internal@tbb@@YAXH@Z 1001d440 f   tbb_misc.obj
 0001:0001c500       ?GetBoolEnvironmentVariable@internal@tbb@@YA_NPBD@Z 1001d500 f   tbb_misc.obj
 0001:0001c570       ?PrintVersion@internal@tbb@@YAXXZ 1001d570 f   tbb_misc.obj
 0001:0001c5c0       ?PrintExtraVersionInfo@internal@tbb@@YAXPBD0ZZ 1001d5c0 f   tbb_misc.obj
 0001:0001c6b0       ?PrintRMLVersionInfo@internal@tbb@@YAXPAXPBD@Z 1001d6b0 f   tbb_misc.obj
 0001:0001c6d0       ?cpu_has_speculation@internal@tbb@@YA_NXZ 1001d6d0 f   tbb_misc.obj
 0001:0001c7b0       ?gcc_rethrow_exception_broken@internal@tbb@@YA_NXZ 1001d7b0 f   tbb_misc.obj
 0001:0001c7c0       ?fix_broken_rethrow@internal@tbb@@YAXXZ 1001d7c0 f   tbb_misc.obj
 0001:0001c7d0       ___TBB_machine_store8_slow_perf_warning 1001d7d0 f   tbb_misc.obj
 0001:0001c870       ___TBB_machine_store8_slow 1001d870 f   tbb_misc.obj
 0001:0001c920       ??$to_bits_ref@SAX@?$atomic_impl@PAX@internal@tbb@@CAAAHADSAX@Z 1001d920 f i tbb_misc.obj
 0001:0001c950       ??0?$ptr_converter@PDSAX@?$atomic_impl@PAX@internal@tbb@@QAE@PDSAX@Z 1001d950 f i tbb_misc.obj
 0001:0001c970       ??0bad_alloc@std@@QAE@ABV01@@Z 1001d970 f i tbb_misc.obj
 0001:0001c9b0       ??0bad_alloc@std@@QAE@XZ   1001d9b0 f i tbb_misc.obj
 0001:0001c9f0       ??0bad_last_alloc@tbb@@QAE@ABV01@@Z 1001d9f0 f i tbb_misc.obj
 0001:0001ca30       ??0bad_last_alloc@tbb@@QAE@XZ 1001da30 f i tbb_misc.obj
 0001:0001ca60       ??0exception@std@@QAE@ABV01@@Z 1001da60 f i tbb_misc.obj
 0001:0001cab0       ??0exception@std@@QAE@QBD@Z 1001dab0 f i tbb_misc.obj
 0001:0001cb50       ??0exception@std@@QAE@QBDH@Z 1001db50 f i tbb_misc.obj
 0001:0001cb90       ??0exception@std@@QAE@XZ   1001db90 f i tbb_misc.obj
 0001:0001cbc0       ??0improper_lock@tbb@@QAE@ABV01@@Z 1001dbc0 f i tbb_misc.obj
 0001:0001cc00       ??0improper_lock@tbb@@QAE@XZ 1001dc00 f i tbb_misc.obj
 0001:0001cc30       ??0invalid_argument@std@@QAE@ABV01@@Z 1001dc30 f i tbb_misc.obj
 0001:0001cc70       ??0invalid_argument@std@@QAE@PBD@Z 1001dc70 f i tbb_misc.obj
 0001:0001ccb0       ??0invalid_multiple_scheduling@tbb@@QAE@ABV01@@Z 1001dcb0 f i tbb_misc.obj
 0001:0001ccf0       ??0invalid_multiple_scheduling@tbb@@QAE@XZ 1001dcf0 f i tbb_misc.obj
 0001:0001cd20       ??0length_error@std@@QAE@ABV01@@Z 1001dd20 f i tbb_misc.obj
 0001:0001cd60       ??0length_error@std@@QAE@PBD@Z 1001dd60 f i tbb_misc.obj
 0001:0001cda0       ??0logic_error@std@@QAE@ABV01@@Z 1001dda0 f i tbb_misc.obj
 0001:0001cde0       ??0logic_error@std@@QAE@PBD@Z 1001dde0 f i tbb_misc.obj
 0001:0001ce20       ??0missing_wait@tbb@@QAE@ABV01@@Z 1001de20 f i tbb_misc.obj
 0001:0001ce60       ??0missing_wait@tbb@@QAE@XZ 1001de60 f i tbb_misc.obj
 0001:0001ce90       ??0out_of_range@std@@QAE@ABV01@@Z 1001de90 f i tbb_misc.obj
 0001:0001ced0       ??0out_of_range@std@@QAE@PBD@Z 1001ded0 f i tbb_misc.obj
 0001:0001cf10       ??0range_error@std@@QAE@ABV01@@Z 1001df10 f i tbb_misc.obj
 0001:0001cf50       ??0range_error@std@@QAE@PBD@Z 1001df50 f i tbb_misc.obj
 0001:0001cf90       ??0runtime_error@std@@QAE@ABV01@@Z 1001df90 f i tbb_misc.obj
 0001:0001cfd0       ??0runtime_error@std@@QAE@PBD@Z 1001dfd0 f i tbb_misc.obj
 0001:0001d010       ??0user_abort@tbb@@QAE@ABV01@@Z 1001e010 f i tbb_misc.obj
 0001:0001d050       ??0user_abort@tbb@@QAE@XZ  1001e050 f i tbb_misc.obj
 0001:0001d080       ??1bad_alloc@std@@UAE@XZ   1001e080 f i tbb_misc.obj
 0001:0001d0b0       ??1bad_last_alloc@tbb@@UAE@XZ 1001e0b0 f i tbb_misc.obj
 0001:0001d0e0       ??1exception@std@@UAE@XZ   1001e0e0 f i tbb_misc.obj
 0001:0001d120       ??1improper_lock@tbb@@UAE@XZ 1001e120 f i tbb_misc.obj
 0001:0001d150       ??1invalid_argument@std@@UAE@XZ 1001e150 f i tbb_misc.obj
 0001:0001d180       ??1invalid_multiple_scheduling@tbb@@UAE@XZ 1001e180 f i tbb_misc.obj
 0001:0001d1b0       ??1length_error@std@@UAE@XZ 1001e1b0 f i tbb_misc.obj
 0001:0001d1e0       ??1logic_error@std@@UAE@XZ 1001e1e0 f i tbb_misc.obj
 0001:0001d210       ??1missing_wait@tbb@@UAE@XZ 1001e210 f i tbb_misc.obj
 0001:0001d240       ??1out_of_range@std@@UAE@XZ 1001e240 f i tbb_misc.obj
 0001:0001d270       ??1range_error@std@@UAE@XZ 1001e270 f i tbb_misc.obj
 0001:0001d2a0       ??1runtime_error@std@@UAE@XZ 1001e2a0 f i tbb_misc.obj
 0001:0001d2d0       ??1user_abort@tbb@@UAE@XZ  1001e2d0 f i tbb_misc.obj
 0001:0001d300       ??4?$atomic@PAX@tbb@@QAEPAXPAX@Z 1001e300 f i tbb_misc.obj
 0001:0001d330       ??B?$atomic_impl@PAX@internal@tbb@@QDEPAXXZ 1001e330 f i tbb_misc.obj
 0001:0001d370       ??_Ebad_alloc@std@@UAEPAXI@Z 1001e370 f i tbb_misc.obj
 0001:0001d370       ??_Gbad_alloc@std@@UAEPAXI@Z 1001e370 f i tbb_misc.obj
 0001:0001d3b0       ??_Gbad_last_alloc@tbb@@UAEPAXI@Z 1001e3b0 f i tbb_misc.obj
 0001:0001d3b0       ??_Ebad_last_alloc@tbb@@UAEPAXI@Z 1001e3b0 f i tbb_misc.obj
 0001:0001d3f0       ??_Eexception@std@@UAEPAXI@Z 1001e3f0 f i tbb_misc.obj
 0001:0001d3f0       ??_Gexception@std@@UAEPAXI@Z 1001e3f0 f i tbb_misc.obj
 0001:0001d430       ??_Eimproper_lock@tbb@@UAEPAXI@Z 1001e430 f i tbb_misc.obj
 0001:0001d430       ??_Gimproper_lock@tbb@@UAEPAXI@Z 1001e430 f i tbb_misc.obj
 0001:0001d470       ??_Einvalid_argument@std@@UAEPAXI@Z 1001e470 f i tbb_misc.obj
 0001:0001d470       ??_Ginvalid_argument@std@@UAEPAXI@Z 1001e470 f i tbb_misc.obj
 0001:0001d4b0       ??_Ginvalid_multiple_scheduling@tbb@@UAEPAXI@Z 1001e4b0 f i tbb_misc.obj
 0001:0001d4b0       ??_Einvalid_multiple_scheduling@tbb@@UAEPAXI@Z 1001e4b0 f i tbb_misc.obj
 0001:0001d4f0       ??_Glength_error@std@@UAEPAXI@Z 1001e4f0 f i tbb_misc.obj
 0001:0001d4f0       ??_Elength_error@std@@UAEPAXI@Z 1001e4f0 f i tbb_misc.obj
 0001:0001d530       ??_Glogic_error@std@@UAEPAXI@Z 1001e530 f i tbb_misc.obj
 0001:0001d530       ??_Elogic_error@std@@UAEPAXI@Z 1001e530 f i tbb_misc.obj
 0001:0001d570       ??_Gmissing_wait@tbb@@UAEPAXI@Z 1001e570 f i tbb_misc.obj
 0001:0001d570       ??_Emissing_wait@tbb@@UAEPAXI@Z 1001e570 f i tbb_misc.obj
 0001:0001d5b0       ??_Gout_of_range@std@@UAEPAXI@Z 1001e5b0 f i tbb_misc.obj
 0001:0001d5b0       ??_Eout_of_range@std@@UAEPAXI@Z 1001e5b0 f i tbb_misc.obj
 0001:0001d5f0       ??_Grange_error@std@@UAEPAXI@Z 1001e5f0 f i tbb_misc.obj
 0001:0001d5f0       ??_Erange_error@std@@UAEPAXI@Z 1001e5f0 f i tbb_misc.obj
 0001:0001d630       ??_Eruntime_error@std@@UAEPAXI@Z 1001e630 f i tbb_misc.obj
 0001:0001d630       ??_Gruntime_error@std@@UAEPAXI@Z 1001e630 f i tbb_misc.obj
 0001:0001d670       ??_Euser_abort@tbb@@UAEPAXI@Z 1001e670 f i tbb_misc.obj
 0001:0001d670       ??_Guser_abort@tbb@@UAEPAXI@Z 1001e670 f i tbb_misc.obj
 0001:0001d6b0       ?store_with_release@?$atomic_impl@PAX@internal@tbb@@IAEPAXPAX@Z 1001e6b0 f i tbb_misc.obj
 0001:0001d700       ?what@exception@std@@UBEPBDXZ 1001e700 f i tbb_misc.obj
 0001:0001d740       __snprintf                 1001e740 f i tbb_misc.obj
 0001:0001d7a0       __vsnprintf                1001e7a0 f i tbb_misc.obj
 0001:0001d7d0       __vsnprintf_l              1001e7d0 f i tbb_misc.obj
 0001:0001d850       _vsnprintf                 1001e850 f i tbb_misc.obj
 0001:0001d910       ?AvailableHwConcurrency@internal@tbb@@YAHXZ 1001e910 f   tbb_misc_ex.obj
 0001:0001d960       ?NumberOfProcessorGroups@internal@tbb@@YAHXZ 1001e960 f   tbb_misc_ex.obj
 0001:0001d9a0       ?FindProcessorGroupIndex@internal@tbb@@YAHH@Z 1001e9a0 f   tbb_misc_ex.obj
 0001:0001db50       ?MoveThreadIntoProcessorGroup@internal@tbb@@YAXPAXH@Z 1001eb50 f   tbb_misc_ex.obj
 0001:0001dfc0       ?allocate@allocate_additional_child_of_proxy@internal@tbb@@QBEAAVtask@3@I@Z 1001efc0 f   task.obj
 0001:0001e020       ?free@allocate_additional_child_of_proxy@internal@tbb@@QBEXAAVtask@3@@Z 1001f020 f   task.obj
 0001:0001e060       ?destroy@task_base@internal@interface5@tbb@@SAXAAVtask@4@@Z 1001f060 f   task.obj
 0001:0001e150       ?allocate@allocate_root_with_context_proxy@internal@tbb@@QBEAAVtask@3@I@Z 1001f150 f   task.obj
 0001:0001e290       ?free@allocate_root_with_context_proxy@internal@tbb@@QBEXAAVtask@3@@Z 1001f290 f   task.obj
 0001:0001e2f0       ?allocate@allocate_root_proxy@internal@tbb@@SAAAVtask@3@I@Z 1001f2f0 f   task.obj
 0001:0001e3a0       ?free@allocate_root_proxy@internal@tbb@@SAXAAVtask@3@@Z 1001f3a0 f   task.obj
 0001:0001e3f0       ?allocate@allocate_continuation_proxy@internal@tbb@@QBEAAVtask@3@I@Z 1001f3f0 f   task.obj
 0001:0001e470       ?free@allocate_continuation_proxy@internal@tbb@@QBEXAAVtask@3@@Z 1001f470 f   task.obj
 0001:0001e4c0       ?allocate@allocate_child_proxy@internal@tbb@@QBEAAVtask@3@I@Z 1001f4c0 f   task.obj
 0001:0001e530       ?free@allocate_child_proxy@internal@tbb@@QBEXAAVtask@3@@Z 1001f530 f   task.obj
 0001:0001e560       ?internal_set_ref_count@task@tbb@@AAEXH@Z 1001f560 f   task.obj
 0001:0001e640       ?internal_decrement_ref_count@task@tbb@@AAEHXZ 1001f640 f   task.obj
 0001:0001e710       ?spawn_and_wait_for_all@task@tbb@@QAEXAAVtask_list@2@@Z 1001f710 f   task.obj
 0001:0001e7b0       ?self@task@tbb@@SAAAV12@XZ 1001f7b0 f   task.obj
 0001:0001e810       ?is_owned_by_current_thread@task@tbb@@QBE_NXZ 1001f810 f   task.obj
 0001:0001e830       ?note_affinity@task@tbb@@UAEXG@Z 1001f830 f   task.obj
 0001:0001e850       ?change_group@task@tbb@@QAEXAAVtask_group_context@2@@Z 1001f850 f   task.obj
 0001:0001e940       ?get_initial_auto_partitioner_divisor@internal@tbb@@YAIXZ 1001f940 f   task.obj
 0001:0001e970       ?resize@affinity_partitioner_base_v3@internal@tbb@@AAEXI@Z 1001f970 f   task.obj
 0001:0001ea40       ??$__TBB_load_relaxed@W4kind_type@task_group_context@tbb@@@internal@tbb@@YA?AW4kind_type@task_group_context@1@ADW4231@@Z 1001fa40 f i task.obj
 0001:0001ea60       ??$__TBB_store_relaxed@W4kind_type@task_group_context@tbb@@W4123@@internal@tbb@@YAXACW4kind_type@task_group_context@1@W4231@@Z 1001fa60 f i task.obj
 0001:0001ea80       ??$free_task@$00@generic_scheduler@internal@tbb@@QAEXAAVtask@2@@Z 1001fa80 f i task.obj
 0001:0001ebe0       ??$free_task@$03@generic_scheduler@internal@tbb@@QAEXAAVtask@2@@Z 1001fbe0 f i task.obj
 0001:0001ed60       ??$is_poisoned@PBVtask@tbb@@@internal@tbb@@YA_NPAPBVtask@1@@Z 1001fd60 f i task.obj
 0001:0001ed90       ??$poison_pointer@Vscheduler@internal@tbb@@@internal@tbb@@YAXAAPAVscheduler@01@@Z 1001fd90 f i task.obj
 0001:0001eda0       ??$poison_pointer@Vtask@tbb@@@internal@tbb@@YAXAAPAVtask@1@@Z 1001fda0 f i task.obj
 0001:0001edb0       ??$poison_value@H@internal@tbb@@YAXAAH@Z 1001fdb0 f i task.obj
 0001:0001edd0       ??$punned_cast@PAH$$CBI@internal@tbb@@YAPAHPBI@Z 1001fdd0 f i task.obj
 0001:0001edf0       ?assert_task_pool_valid@generic_scheduler@internal@tbb@@QBEXXZ 1001fdf0 f i task.obj
 0001:0001ee10       ?assert_task_valid@internal@tbb@@YAXPBVtask@2@@Z 1001fe10 f i task.obj
 0001:0001eed0       ?clear@task_list@tbb@@QAEXXZ 1001fed0 f i task.obj
 0001:0001ef00       ?deallocate_task@generic_scheduler@internal@tbb@@QAEXAAVtask@3@@Z 1001ff00 f i task.obj
 0001:0001ef70       ?default_context@generic_scheduler@internal@tbb@@QAEPAVtask_group_context@3@XZ 1001ff70 f i task.obj
 0001:0001efa0       ?get@?$basic_tls@I@internal@tbb@@QAEIXZ 1001ffa0 f i task.obj
 0001:0001efe0       ?increment_ref_count@task@tbb@@QAEXXZ 1001ffe0 f i task.obj
 0001:0001f020       ?is_worker@generic_scheduler@internal@tbb@@QBE_NXZ 10020020 f i task.obj
 0001:0001f060       ?load@?$machine_load_store_relaxed@W4kind_type@task_group_context@tbb@@$03@internal@tbb@@SA?AW4kind_type@task_group_context@3@ADW4453@@Z 10020060 f i task.obj
 0001:0001f070       ?local_scheduler@governor@internal@tbb@@SAPAVgeneric_scheduler@23@XZ 10020070 f i task.obj
 0001:0001f0d0       ?local_scheduler_weak@governor@internal@tbb@@SAPAVgeneric_scheduler@23@XZ 100200d0 f i task.obj
 0001:0001f130       ?master_outermost_level@generic_scheduler@internal@tbb@@QBE_NXZ 10020130 f i task.obj
 0001:0001f190       ?max_threads_in_arena@generic_scheduler@internal@tbb@@QAEIXZ 10020190 f i task.obj
 0001:0001f1e0       ?outermost_level@generic_scheduler@internal@tbb@@QBE_NXZ 100201e0 f i task.obj
 0001:0001f200       ?prefix@task@tbb@@QBEAAVtask_prefix@internal@2@PAUversion_tag_v3@42@@Z 10020200 f i task.obj
 0001:0001f220       ?state@task@tbb@@QBE?AW4state_type@12@XZ 10020220 f i task.obj
 0001:0001f250       ?store@?$machine_load_store_relaxed@W4kind_type@task_group_context@tbb@@$03@internal@tbb@@SAXACW4kind_type@task_group_context@3@W4453@@Z 10020250 f i task.obj
 0001:0001f260       ?tls_scheduler_of@governor@internal@tbb@@SAPAVgeneric_scheduler@23@I@Z 10020260 f i task.obj
 0001:0001f2d0       ??1task_group_context@tbb@@QAE@XZ 100202d0 f   task_group_context.obj
 0001:0001f5c0       ?reset@task_group_context@tbb@@QAEXXZ 100205c0 f   task_group_context.obj
 0001:0001f610       ?cancel_group_execution@task_group_context@tbb@@QAE_NXZ 10020610 f   task_group_context.obj
 0001:0001f6a0       ?is_group_execution_cancelled@task_group_context@tbb@@QBE_NXZ 100206a0 f   task_group_context.obj
 0001:0001f6e0       ?register_pending_exception@task_group_context@tbb@@QAEXXZ 100206e0 f   task_group_context.obj
 0001:0001f8e0       ?capture_fp_settings@task_group_context@tbb@@QAEXXZ 100208e0 f   task_group_context.obj
 0001:0001f960       ?set_priority@task_group_context@tbb@@QAEXW4priority_t@2@@Z 10020960 f   task_group_context.obj
 0001:0001fa60       ?priority@task_group_context@tbb@@QBE?AW4priority_t@2@XZ 10020a60 f   task_group_context.obj
 0001:0001fa90       ?init@task_group_context@tbb@@IAEXXZ 10020a90 f   task_group_context.obj
 0001:0001fbc0       ?bind_to@task_group_context@tbb@@QAEXPAVgeneric_scheduler@internal@2@@Z 10020bc0 f   task_group_context.obj
 0001:0001fdc0       ?register_with@task_group_context@tbb@@QAEXPAVgeneric_scheduler@internal@2@@Z 10020dc0 f   task_group_context.obj
 0001:0001ff70       ?copy_fp_settings@task_group_context@tbb@@QAEXABV12@@Z 10020f70 f   task_group_context.obj
 0001:00020060       ??1captured_exception@tbb@@UAE@XZ 10021060 f   task_group_context.obj
 0001:000200a0       ?move@captured_exception@tbb@@UAEPAV12@XZ 100210a0 f   task_group_context.obj
 0001:00020130       ?destroy@captured_exception@tbb@@UAEXXZ 10021130 f   task_group_context.obj
 0001:000201a0       ?name@captured_exception@tbb@@UBEPBDXZ 100211a0 f   task_group_context.obj
 0001:000201c0       ?what@captured_exception@tbb@@UBEPBDXZ 100211c0 f   task_group_context.obj
 0001:000201e0       ?set@captured_exception@tbb@@QAEXPBD0@Z 100211e0 f   task_group_context.obj
 0001:00020230       ?clear@captured_exception@tbb@@QAEXXZ 10021230 f   task_group_context.obj
 0001:00020270       ?allocate@captured_exception@tbb@@SAPAV12@PBD0@Z 10021270 f   task_group_context.obj
 0001:000202d0       ?allocate@tbb_exception_ptr@internal@tbb@@SAPAV123@XZ 100212d0 f   task_group_context.obj
 0001:00020360       ?allocate@tbb_exception_ptr@internal@tbb@@SAPAV123@ABVtbb_exception@3@@Z 10021360 f   task_group_context.obj
 0001:000203f0       ?allocate@tbb_exception_ptr@internal@tbb@@SAPAV123@AAVcaptured_exception@3@@Z 100213f0 f   task_group_context.obj
 0001:00020440       ?destroy@tbb_exception_ptr@internal@tbb@@QAEXXZ 10021440 f   task_group_context.obj
 0001:00020470       ??$AllocateExceptionContainer@Vcaptured_exception@tbb@@@internal@tbb@@YAPAVtbb_exception_ptr@01@ABVcaptured_exception@1@@Z 10021470 f i task_group_context.obj
 0001:000204d0       ??$AllocateExceptionContainer@Vexception_ptr@std@@@internal@tbb@@YAPAVtbb_exception_ptr@01@ABVexception_ptr@std@@@Z 100214d0 f i task_group_context.obj
 0001:00020530       ??$__TBB_load_with_acquire@PAUcontext_list_node_t@internal@tbb@@@internal@tbb@@YAPAUcontext_list_node_t@01@ADSAU201@@Z 10021530 f i task_group_context.obj
 0001:00020550       ??$__TBB_store_with_release@PAUcontext_list_node_t@internal@tbb@@PAU123@@internal@tbb@@YAXACRAUcontext_list_node_t@01@PAU201@@Z 10021550 f i task_group_context.obj
 0001:00020570       ??$addressof@Vcaptured_exception@tbb@@@std@@YAPAVcaptured_exception@tbb@@AAV12@@Z 10021570 f i task_group_context.obj
 0001:00020580       ??$as_atomic@I@internal@tbb@@YAAAU?$atomic@I@1@AAI@Z 10021580 f i task_group_context.obj
 0001:00020590       ??$as_atomic@W4kind_type@task_group_context@tbb@@@internal@tbb@@YAAAU?$atomic@W4kind_type@task_group_context@tbb@@@1@AAW4kind_type@task_group_context@1@@Z 10021590 f i task_group_context.obj
 0001:000205a0       ??$fetch_and_decrement@$0A@@?$atomic_impl_with_arithmetic@IID@internal@tbb@@QAEIXZ 100215a0 f i task_group_context.obj
 0001:000205d0       ??$fetch_and_increment@$0A@@?$atomic_impl_with_arithmetic@IID@internal@tbb@@QAEIXZ 100215d0 f i task_group_context.obj
 0001:00020600       ??$fetch_and_store@$0A@@?$atomic_impl@W4kind_type@task_group_context@tbb@@@internal@tbb@@QAE?AW4kind_type@task_group_context@2@W4342@@Z 10021600 f i task_group_context.obj
 0001:00020640       ??$make_exception_ptr@Vcaptured_exception@tbb@@@std@@YA?AVexception_ptr@0@Vcaptured_exception@tbb@@@Z 10021640 f i task_group_context.obj
 0001:000206b0       ??$poison_value@I@internal@tbb@@YAXAAI@Z 100216b0 f i task_group_context.obj
 0001:000206d0       ??$propagate_task_group_state@H@generic_scheduler@internal@tbb@@QAEXPQtask_group_context@2@HAAV32@H@Z 100216d0 f i task_group_context.obj
 0001:00020830       ??$propagate_task_group_state@H@market@internal@tbb@@QAE_NPQtask_group_context@2@HAAV32@H@Z 10021830 f i task_group_context.obj
 0001:000209f0       ??$propagate_task_group_state@H@task_group_context@tbb@@QAEXPQ01@HAAV01@H@Z 100219f0 f i task_group_context.obj
 0001:00020ac0       ??$propagate_task_group_state@I@generic_scheduler@internal@tbb@@QAEXPQtask_group_context@2@IAAV32@I@Z 10021ac0 f i task_group_context.obj
 0001:00020c20       ??$propagate_task_group_state@I@market@internal@tbb@@QAE_NPQtask_group_context@2@IAAV32@I@Z 10021c20 f i task_group_context.obj
 0001:00020de0       ??$propagate_task_group_state@I@task_group_context@tbb@@QAEXPQ01@IAAV01@I@Z 10021de0 f i task_group_context.obj
 0001:00020eb0       ??$punned_cast@PAI$$CBI@internal@tbb@@YAPAIPBI@Z 10021eb0 f i task_group_context.obj
 0001:00020ed0       ??$punned_cast@PAVcpu_ctl_env@internal@tbb@@$$CBUcpu_ctl_env_space@23@@internal@tbb@@YAPAVcpu_ctl_env@01@PBUcpu_ctl_env_space@01@@Z 10021ed0 f i task_group_context.obj
 0001:00020ef0       ??$punned_cast@PAVcpu_ctl_env@internal@tbb@@Ucpu_ctl_env_space@23@@internal@tbb@@YAPAVcpu_ctl_env@01@PAUcpu_ctl_env_space@01@@Z 10021ef0 f i task_group_context.obj
 0001:00020f10       ??$punned_cast@PAVscoped_lock@spin_mutex@tbb@@$$CBV?$aligned_space@Vscoped_lock@spin_mutex@tbb@@$00@3@@internal@tbb@@YAPAVscoped_lock@spin_mutex@1@PBV?$aligned_space@Vscoped_lock@spin_mutex@tbb@@$00@1@@Z 10021f10 f i task_group_context.obj
 0001:00020f30       ??$suppress_unused_warning@$$BY01H@internal@tbb@@YAXAAY01$$CBH@Z 10021f30 f i task_group_context.obj
 0001:00020f40       ??$to_bits@I@?$atomic_impl@I@internal@tbb@@SAHI@Z 10021f40 f i task_group_context.obj
 0001:00020f70       ??$to_bits@W4kind_type@task_group_context@tbb@@@?$atomic_impl@W4kind_type@task_group_context@tbb@@@internal@tbb@@SAHW4kind_type@task_group_context@2@@Z 10021f70 f i task_group_context.obj
 0001:00020fa0       ??$to_bits_ref@$$CBI@?$atomic_impl@I@internal@tbb@@SAAAHABI@Z 10021fa0 f i task_group_context.obj
 0001:00020fd0       ??$to_bits_ref@$$CDI@?$atomic_impl@I@internal@tbb@@SAAAHADI@Z 10021fd0 f i task_group_context.obj
 0001:00021000       ??$to_bits_ref@I@?$atomic_impl@I@internal@tbb@@SAAAHAAI@Z 10022000 f i task_group_context.obj
 0001:00021030       ??$to_value@I@?$atomic_impl@I@internal@tbb@@SAIH@Z 10022030 f i task_group_context.obj
 0001:000210a0       ??$to_value@W4kind_type@task_group_context@tbb@@@?$atomic_impl@W4kind_type@task_group_context@tbb@@@internal@tbb@@SA?AW4kind_type@task_group_context@2@H@Z 100220a0 f i task_group_context.obj
 0001:00021110       ??0?$converter@W4kind_type@task_group_context@tbb@@@?$atomic_impl@W4kind_type@task_group_context@tbb@@@internal@tbb@@QAE@W4kind_type@task_group_context@3@@Z 10022110 f i task_group_context.obj
 0001:00021130       ??0?$converter@W4kind_type@task_group_context@tbb@@@?$atomic_impl@W4kind_type@task_group_context@tbb@@@internal@tbb@@QAE@XZ 10022130 f i task_group_context.obj
 0001:00021150       ??0?$iterator_impl@Viterator@?$intrusive_list_base@V?$intrusive_list@Vgeneric_scheduler@internal@tbb@@@internal@tbb@@Vgeneric_scheduler@23@@internal@tbb@@@?$intrusive_list_base@V?$intrusive_list@Vgeneric_scheduler@internal@tbb@@@internal@tbb@@Vgeneric_scheduler@23@@internal@tbb@@IAE@PAUintrusive_list_node@23@@Z 10022150 f i task_group_context.obj
 0001:00021170       ??0captured_exception@tbb@@QAE@ABV01@@Z 10022170 f i task_group_context.obj
 0001:000211d0       ??0captured_exception@tbb@@QAE@PBD0@Z 100221d0 f i task_group_context.obj
 0001:00021220       ??0captured_exception@tbb@@QAE@XZ 10022220 f i task_group_context.obj
 0001:00021250       ??0exception_ptr@std@@QAE@ABV01@@Z 10022250 f i task_group_context.obj
 0001:000212b0       ??0exception_ptr@std@@QAE@XZ 100222b0 f i task_group_context.obj
 0001:00021310       ??0iterator@?$intrusive_list_base@V?$intrusive_list@Vgeneric_scheduler@internal@tbb@@@internal@tbb@@Vgeneric_scheduler@23@@internal@tbb@@QAE@PAUintrusive_list_node@23@@Z 10022310 f i task_group_context.obj
 0001:00021340       ??0tbb_exception@tbb@@QAE@ABV01@@Z 10022340 f i task_group_context.obj
 0001:00021380       ??0tbb_exception@tbb@@QAE@XZ 10022380 f i task_group_context.obj
 0001:000213b0       ??0tbb_exception_ptr@internal@tbb@@QAE@ABVcaptured_exception@2@@Z 100223b0 f i task_group_context.obj
 0001:00021410       ??0tbb_exception_ptr@internal@tbb@@QAE@ABVexception_ptr@std@@@Z 10022410 f i task_group_context.obj
 0001:00021440       ??1exception_ptr@std@@QAE@XZ 10022440 f i task_group_context.obj
 0001:000214a0       ??1tbb_exception@tbb@@UAE@XZ 100224a0 f i task_group_context.obj
 0001:000214d0       ??1tbb_exception_ptr@internal@tbb@@QAE@XZ 100224d0 f i task_group_context.obj
 0001:00021500       ??3tbb_exception@tbb@@SAXPAX@Z 10022500 f i task_group_context.obj
 0001:00021550       ??9?$iterator_impl@Viterator@?$intrusive_list_base@V?$intrusive_list@Vgeneric_scheduler@internal@tbb@@@internal@tbb@@Vgeneric_scheduler@23@@internal@tbb@@@?$intrusive_list_base@V?$intrusive_list@Vgeneric_scheduler@internal@tbb@@@internal@tbb@@Vgeneric_scheduler@23@@internal@tbb@@QBE_NABViterator@123@@Z 10022550 f i task_group_context.obj
 0001:00021590       ??Citerator@?$intrusive_list_base@V?$intrusive_list@Vgeneric_scheduler@internal@tbb@@@internal@tbb@@Vgeneric_scheduler@23@@internal@tbb@@QBEPAVgeneric_scheduler@23@XZ 10022590 f i task_group_context.obj
 0001:000215c0       ??E?$iterator_impl@Viterator@?$intrusive_list_base@V?$intrusive_list@Vgeneric_scheduler@internal@tbb@@@internal@tbb@@Vgeneric_scheduler@23@@internal@tbb@@@?$intrusive_list_base@V?$intrusive_list@Vgeneric_scheduler@internal@tbb@@@internal@tbb@@Vgeneric_scheduler@23@@internal@tbb@@QAE?AViterator@123@H@Z 100225c0 f i task_group_context.obj
 0001:00021640       ??E?$iterator_impl@Viterator@?$intrusive_list_base@V?$intrusive_list@Vgeneric_scheduler@internal@tbb@@@internal@tbb@@Vgeneric_scheduler@23@@internal@tbb@@@?$intrusive_list_base@V?$intrusive_list@Vgeneric_scheduler@internal@tbb@@@internal@tbb@@Vgeneric_scheduler@23@@internal@tbb@@QAEAAViterator@123@XZ 10022640 f i task_group_context.obj
 0001:00021680       ??_Gcaptured_exception@tbb@@UAEPAXI@Z 10022680 f i task_group_context.obj
 0001:00021680       ??_Ecaptured_exception@tbb@@UAEPAXI@Z 10022680 f i task_group_context.obj
 0001:000216e0       ??_Gtbb_exception@tbb@@UAEPAXI@Z 100226e0 f i task_group_context.obj
 0001:000216e0       ??_Etbb_exception@tbb@@UAEPAXI@Z 100226e0 f i task_group_context.obj
 0001:00021740       ?_Copy_exception@exception_ptr@std@@SA?AV12@PAXPBX@Z 10022740 f i task_group_context.obj
 0001:00021840       ?_Current_exception@exception_ptr@std@@SA?AV12@XZ 10022840 f i task_group_context.obj
 0001:000218f0       ?__TBB_get_cpu_ctl_env@@YAXPAVcpu_ctl_env@internal@tbb@@@Z 100228f0 f i task_group_context.obj
 0001:00021910       ?__TBB_store_with_release@internal@tbb@@YAXACII@Z 10022910 f i task_group_context.obj
 0001:00021930       ?begin@?$aligned_space@Vscoped_lock@spin_mutex@tbb@@$00@tbb@@QBEPAVscoped_lock@spin_mutex@2@XZ 10022930 f i task_group_context.obj
 0001:00021960       ?begin@?$intrusive_list_base@V?$intrusive_list@Vgeneric_scheduler@internal@tbb@@@internal@tbb@@Vgeneric_scheduler@23@@internal@tbb@@QAE?AViterator@123@XZ 10022960 f i task_group_context.obj
 0001:00021990       ?current_exception@std@@YA?AVexception_ptr@1@XZ 10022990 f i task_group_context.obj
 0001:000219b0       ?duplicate_string@tbb@@YAPADPBD@Z 100229b0 f i task_group_context.obj
 0001:00021a30       ?end@?$intrusive_list_base@V?$intrusive_list@Vgeneric_scheduler@internal@tbb@@@internal@tbb@@Vgeneric_scheduler@23@@internal@tbb@@QAE?AViterator@123@XZ 10022a30 f i task_group_context.obj
 0001:00021a60       ?fetch_and_store@?$atomic_impl@W4kind_type@task_group_context@tbb@@@internal@tbb@@QAE?AW4kind_type@task_group_context@3@W4453@@Z 10022a60 f i task_group_context.obj
 0001:00021a90       ?get_env@cpu_ctl_env@internal@tbb@@QAEXXZ 10022a90 f i task_group_context.obj
 0001:00021ad0       ?is_alive@internal@tbb@@YA_NI@Z 10022ad0 f i task_group_context.obj
 0001:00021b00       ?item@?$intrusive_list@Vgeneric_scheduler@internal@tbb@@@internal@tbb@@CAAAVgeneric_scheduler@23@PAUintrusive_list_node@23@@Z 10022b00 f i task_group_context.obj
 0001:00021b30       ?item@?$intrusive_list_base@V?$intrusive_list@Vgeneric_scheduler@internal@tbb@@@internal@tbb@@Vgeneric_scheduler@23@@internal@tbb@@CAAAVgeneric_scheduler@23@PAUintrusive_list_node@23@@Z 10022b30 f i task_group_context.obj
 0001:00021b50       ?item@?$iterator_impl@Viterator@?$intrusive_list_base@V?$intrusive_list@Vgeneric_scheduler@internal@tbb@@@internal@tbb@@Vgeneric_scheduler@23@@internal@tbb@@@?$intrusive_list_base@V?$intrusive_list@Vgeneric_scheduler@internal@tbb@@@internal@tbb@@Vgeneric_scheduler@23@@internal@tbb@@IBEAAVgeneric_scheduler@34@XZ 10022b50 f i task_group_context.obj
 0001:00021b80       ?load_with_acquire@?$machine_load_store@PAUcontext_list_node_t@internal@tbb@@$03@internal@tbb@@SAPAUcontext_list_node_t@23@ADSAU423@@Z 10022b80 f i task_group_context.obj
 0001:00021ba0       ?local_scheduler_if_initialized@governor@internal@tbb@@SAPAVgeneric_scheduler@23@XZ 10022ba0 f i task_group_context.obj
 0001:00021bc0       ?lock@spin_mutex@tbb@@QAEXXZ 10022bc0 f i task_group_context.obj
 0001:00021c50       ?name@type_info@@QBEPBDXZ  10022c50 f i task_group_context.obj
 0001:00021c80       ?normalize_priority@internal@tbb@@YAHW4priority_t@2@@Z 10022c80 f i task_group_context.obj
 0001:00021ca0       ?self@?$iterator_impl@Viterator@?$intrusive_list_base@V?$intrusive_list@Vgeneric_scheduler@internal@tbb@@@internal@tbb@@Vgeneric_scheduler@23@@internal@tbb@@@?$intrusive_list_base@V?$intrusive_list@Vgeneric_scheduler@internal@tbb@@@internal@tbb@@Vgeneric_scheduler@23@@internal@tbb@@AAEAAViterator@234@XZ 10022ca0 f i task_group_context.obj
 0001:00021cc0       ?store_with_release@?$machine_load_store@PAUcontext_list_node_t@internal@tbb@@$03@internal@tbb@@SAXACRAUcontext_list_node_t@23@PAU423@@Z 10022cc0 f i task_group_context.obj
 0001:00021cd0       ?throw_self@captured_exception@tbb@@UAEXXZ 10022cd0 f i task_group_context.obj
 0001:00021d20       ?unlock@spin_mutex@tbb@@QAEXXZ 10022d20 f i task_group_context.obj
 0001:00021db0       ?internal_terminate@task_scheduler_init@tbb@@AAE_N_N@Z 10022db0 f   governor.obj
 0001:00021e90       ?internal_blocking_terminate@task_scheduler_init@tbb@@AAE_N_N@Z 10022e90 f   governor.obj
 0001:00021ef0       ?initialize@task_scheduler_init@tbb@@QAEXH@Z 10022ef0 f   governor.obj
 0001:00021f20       ?initialize@task_scheduler_init@tbb@@QAEXHI@Z 10022f20 f   governor.obj
 0001:000220a0       ?terminate@task_scheduler_init@tbb@@QAEXXZ 100230a0 f   governor.obj
 0001:000220d0       ?default_num_threads@task_scheduler_init@tbb@@SAHXZ 100230d0 f   governor.obj
 0001:00022130       ?acquire_resources@governor@internal@tbb@@CAXXZ 10023130 f   governor.obj
 0001:00022190       ?release_resources@governor@internal@tbb@@CAXXZ 10023190 f   governor.obj
 0001:00022220       ?create_rml_server@governor@internal@tbb@@CAPAVtbb_server@rml@23@AAVtbb_client@523@@Z 10023220 f   governor.obj
 0001:00022320       ?auto_terminate@governor@internal@tbb@@CAXPAX@Z 10023320 f   governor.obj
 0001:000223e0       ?one_time_init@governor@internal@tbb@@SAXXZ 100233e0 f   governor.obj
 0001:00022430       ?init_scheduler@governor@internal@tbb@@SAPAVgeneric_scheduler@23@HI_N@Z 10023430 f   governor.obj
 0001:00022650       ?init_scheduler_weak@governor@internal@tbb@@SAPAVgeneric_scheduler@23@XZ 10023650 f   governor.obj
 0001:000226c0       ?terminate_scheduler@governor@internal@tbb@@SA_NPAVgeneric_scheduler@23@PBVtask_scheduler_init@3@_N@Z 100236c0 f   governor.obj
 0001:00022780       ?sign_on@governor@internal@tbb@@SAXPAVgeneric_scheduler@23@@Z 10023780 f   governor.obj
 0001:000228a0       ?sign_off@governor@internal@tbb@@SAXPAVgeneric_scheduler@23@@Z 100238a0 f   governor.obj
 0001:00022930       ?is_set@governor@internal@tbb@@SA_NPAVgeneric_scheduler@23@@Z 10023930 f   governor.obj
 0001:00022980       ?assume_scheduler@governor@internal@tbb@@SAXPAVgeneric_scheduler@23@@Z 10023980 f   governor.obj
 0001:000229b0       ?tls_value_of@governor@internal@tbb@@SAIPAVgeneric_scheduler@23@@Z 100239b0 f   governor.obj
 0001:00022a20       ?print_version_info@governor@internal@tbb@@SAXXZ 10023a20 f   governor.obj
 0001:00022a90       ?initialize_rml_factory@governor@internal@tbb@@SAXXZ 10023a90 f   governor.obj
 0001:00022ae0       ?stack_op_handler@governor@internal@tbb@@SAHW4__cilk_tbb_stack_op@@PAX@Z 10023ae0 f   governor.obj
 0001:00022cd0       ?initialize_cilk_interop@internal@tbb@@YA_NXZ 10023cd0 f   governor.obj
 0001:00022d00       ??$__TBB_load_with_acquire@_N@internal@tbb@@YA_NAD_N@Z 10023d00 f i governor.obj
 0001:00022d20       ??$atomic_do_once@P6A_NXZ@internal@tbb@@YAXABQ6A_NXZAAU?$atomic@W4do_once_state@internal@tbb@@@1@@Z 10023d20 f i governor.obj
 0001:00022d80       ??$suppress_unused_warning@PAVgeneric_scheduler@internal@tbb@@@internal@tbb@@YAXABQAVgeneric_scheduler@01@@Z 10023d80 f i governor.obj
 0001:00022d90       ?create@?$basic_tls@I@internal@tbb@@QAEHXZ 10023d90 f i governor.obj
 0001:00022de0       ?destroy@?$basic_tls@I@internal@tbb@@QAEHXZ 10023de0 f i governor.obj
 0001:00022e20       ?destroy_process_mask@internal@tbb@@YAXXZ 10023e20 f i governor.obj
 0001:00022e30       ?initialization_done@__TBB_InitOnce@internal@tbb@@SA_NXZ 10023e30 f i governor.obj
 0001:00022e50       ?load_with_acquire@?$machine_load_store@_N$00@internal@tbb@@SA_NAD_N@Z 10023e50 f i governor.obj
 0001:00022e70       ?run_initializer@internal@tbb@@YAXP6A_NXZAAU?$atomic@W4do_once_state@internal@tbb@@@2@@Z 10023e70 f i governor.obj
 0001:00022ec0       ?set@?$basic_tls@I@internal@tbb@@QAEXI@Z 10023ec0 f i governor.obj
 0001:00022f30       ??0market@internal@tbb@@AAE@III@Z 10023f30 f   market.obj
 0001:00023090       ?global_market@market@internal@tbb@@CAAAV123@_NII@Z 10024090 f   market.obj
 0001:00023400       ?destroy@market@internal@tbb@@AAEXXZ 10024400 f   market.obj
 0001:00023470       ?arena_in_need@market@internal@tbb@@AAEPAVarena@23@PAV423@@Z 10024470 f   market.obj
 0001:000235c0       ?update_allotment@market@internal@tbb@@AAEXH@Z 100245c0 f   market.obj
 0001:000237a0       ?update_arena_top_priority@market@internal@tbb@@AAEXAAVarena@23@H@Z 100247a0 f   market.obj
 0001:000238b0       ?insert_arena_into_list@market@internal@tbb@@AAEXAAVarena@23@@Z 100248b0 f   market.obj
 0001:00023940       ?remove_arena_from_list@market@internal@tbb@@AAEXAAVarena@23@@Z 10024940 f   market.obj
 0001:00023a70       ?arena_in_need@market@internal@tbb@@AAEPAVarena@23@AAV?$intrusive_list@Varena@internal@tbb@@@23@AAPAV423@@Z 10024a70 f   market.obj
 0001:00023bf0       ?update_allotment@market@internal@tbb@@CAHAAV?$intrusive_list@Varena@internal@tbb@@@23@HH@Z 10024bf0 f   market.obj
 0001:00023db0       ?create_one_job@market@internal@tbb@@EAEPAVjob@rml@@XZ 10024db0 f   market.obj
 0001:00023ec0       ?cleanup@market@internal@tbb@@EAEXAAVjob@rml@@@Z 10024ec0 f   market.obj
 0001:00023fc0       ?acknowledge_close_connection@market@internal@tbb@@EAEXXZ 10024fc0 f   market.obj
 0001:00023ff0       ?process@market@internal@tbb@@EAEXAAVjob@rml@@@Z 10024ff0 f   market.obj
 0001:000240d0       ?create_arena@market@internal@tbb@@SAPAVarena@23@HHI@Z 100250d0 f   market.obj
 0001:00024210       ?try_destroy_arena@market@internal@tbb@@QAEXPAVarena@23@I@Z 10025210 f   market.obj
 0001:00024440       ?detach_arena@market@internal@tbb@@QAEXAAVarena@23@@Z 10025440 f   market.obj
 0001:000244f0       ?release@market@internal@tbb@@QAE_N_N0@Z 100254f0 f   market.obj
 0001:00024790       ?mandatory_concurrency_enable_impl@market@internal@tbb@@QAE_NPAVarena@23@PA_N@Z 10025790 f   market.obj
 0001:000248b0       ?mandatory_concurrency_enable@market@internal@tbb@@QAE_NPAVarena@23@@Z 100258b0 f   market.obj
 0001:000249c0       ?mandatory_concurrency_disable@market@internal@tbb@@QAEXPAVarena@23@@Z 100259c0 f   market.obj
 0001:00024c50       ?adjust_demand@market@internal@tbb@@QAEXAAVarena@23@H@Z 10025c50 f   market.obj
 0001:00025130       ?set_active_num_workers@market@internal@tbb@@SAXI@Z 10026130 f   market.obj
 0001:00025420       ?lower_arena_priority@market@internal@tbb@@QAE_NAAVarena@23@HI@Z 10026420 f   market.obj
 0001:00025630       ?update_arena_priority@market@internal@tbb@@QAE_NAAVarena@23@H@Z 10026630 f   market.obj
 0001:00025aa0       ?does_client_join_workers@governor@internal@tbb@@SA_NABVtbb_client@rml@23@@Z 10026aa0 f   market.obj
 0001:00025b30       ??$as_atomic@H@internal@tbb@@YAAAU?$atomic@H@1@AAH@Z 10026b30 f i market.obj
 0001:00025b40       ??$as_atomic@PAVarena@internal@tbb@@@internal@tbb@@YAAAU?$atomic@PAVarena@internal@tbb@@@1@AAPAVarena@01@@Z 10026b40 f i market.obj
 0001:00025b50       ??$fetch_and_add@$01@?$atomic_impl_with_arithmetic@IID@internal@tbb@@QAEII@Z 10026b50 f i market.obj
 0001:00025b80       ??$fetch_and_increment@$01@?$atomic_impl_with_arithmetic@IID@internal@tbb@@QAEIXZ 10026b80 f i market.obj
 0001:00025bb0       ??$max@H@internal@tbb@@YAHABH0@Z 10026bb0 f i market.obj
 0001:00025be0       ??$max@I@internal@tbb@@YAIABI0@Z 10026be0 f i market.obj
 0001:00025c10       ??$min@H@internal@tbb@@YAHABH0@Z 10026c10 f i market.obj
 0001:00025c40       ??$suppress_unused_warning@PAVarena@internal@tbb@@@internal@tbb@@YAXABQAVarena@01@@Z 10026c40 f i market.obj
 0001:00025c50       ??$to_bits@PAVarena@internal@tbb@@@?$atomic_impl@PAVarena@internal@tbb@@@internal@tbb@@SAHPAVarena@12@@Z 10026c50 f i market.obj
 0001:00025c80       ??$to_bits_ref@$$CDH@?$atomic_impl@H@internal@tbb@@SAAAHADH@Z 10026c80 f i market.obj
 0001:00025cb0       ??$to_bits_ref@PAVarena@internal@tbb@@@?$atomic_impl@PAVarena@internal@tbb@@@internal@tbb@@SAAAHAAPAVarena@12@@Z 10026cb0 f i market.obj
 0001:00025ce0       ??$to_value@H@?$atomic_impl@H@internal@tbb@@SAHH@Z 10026ce0 f i market.obj
 0001:00025d50       ??0?$converter@PAVarena@internal@tbb@@@?$atomic_impl@PAVarena@internal@tbb@@@internal@tbb@@QAE@PAVarena@23@@Z 10026d50 f i market.obj
 0001:00025d70       ??0?$intrusive_list@Varena@internal@tbb@@@internal@tbb@@QAE@XZ 10026d70 f i market.obj
 0001:00025da0       ??0?$intrusive_list@Vgeneric_scheduler@internal@tbb@@@internal@tbb@@QAE@XZ 10026da0 f i market.obj
 0001:00025dd0       ??0?$intrusive_list_base@V?$intrusive_list@Varena@internal@tbb@@@internal@tbb@@Varena@23@@internal@tbb@@QAE@XZ 10026dd0 f i market.obj
 0001:00025e20       ??0?$intrusive_list_base@V?$intrusive_list@Vgeneric_scheduler@internal@tbb@@@internal@tbb@@Vgeneric_scheduler@23@@internal@tbb@@QAE@XZ 10026e20 f i market.obj
 0001:00025e70       ??0?$iterator_impl@Viterator@?$intrusive_list_base@V?$intrusive_list@Varena@internal@tbb@@@internal@tbb@@Varena@23@@internal@tbb@@@?$intrusive_list_base@V?$intrusive_list@Varena@internal@tbb@@@internal@tbb@@Varena@23@@internal@tbb@@IAE@PAUintrusive_list_node@23@@Z 10026e70 f i market.obj
 0001:00025e90       ??0?$ptr_converter@PAPAVarena@internal@tbb@@@?$atomic_impl@PAVarena@internal@tbb@@@internal@tbb@@QAE@PAPAVarena@23@@Z 10026e90 f i market.obj
 0001:00025eb0       ??0client@rml@@QAE@XZ      10026eb0 f i market.obj
 0001:00025ee0       ??0intrusive_list_node@internal@tbb@@QAE@XZ 10026ee0 f i market.obj
 0001:00025f10       ??0iterator@?$intrusive_list_base@V?$intrusive_list@Varena@internal@tbb@@@internal@tbb@@Varena@23@@internal@tbb@@QAE@PAUintrusive_list_node@23@@Z 10026f10 f i market.obj
 0001:00025f40       ??0priority_level_info@market@internal@tbb@@QAE@XZ 10026f40 f i market.obj
 0001:00025f70       ??0scoped_lock@spin_rw_mutex_v3@tbb@@QAE@AAV12@_N@Z 10026f70 f i market.obj
 0001:00025fc0       ??0spin_rw_mutex_v3@tbb@@QAE@XZ 10026fc0 f i market.obj
 0001:00026000       ??0tbb_client@rml@internal@tbb@@QAE@XZ 10027000 f i market.obj
 0001:00026030       ??1market@internal@tbb@@QAE@XZ 10027030 f i market.obj
 0001:00026060       ??1scoped_lock@spin_rw_mutex_v3@tbb@@QAE@XZ 10027060 f i market.obj
 0001:000260c0       ??1spin_rw_mutex_v3@tbb@@QAE@XZ 100270c0 f i market.obj
 0001:00026130       ??4?$atomic@PAVarena@internal@tbb@@@tbb@@QAEPAVarena@internal@1@PAV231@@Z 10027130 f i market.obj
 0001:00026160       ??8?$iterator_impl@Viterator@?$intrusive_list_base@V?$intrusive_list@Varena@internal@tbb@@@internal@tbb@@Varena@23@@internal@tbb@@@?$intrusive_list_base@V?$intrusive_list@Varena@internal@tbb@@@internal@tbb@@Varena@23@@internal@tbb@@QBE_NABViterator@123@@Z 10027160 f i market.obj
 0001:000261a0       ??9?$iterator_impl@Viterator@?$intrusive_list_base@V?$intrusive_list@Varena@internal@tbb@@@internal@tbb@@Varena@23@@internal@tbb@@@?$intrusive_list_base@V?$intrusive_list@Varena@internal@tbb@@@internal@tbb@@Varena@23@@internal@tbb@@QBE_NABViterator@123@@Z 100271a0 f i market.obj
 0001:000261e0       ??Citerator@?$intrusive_list_base@V?$intrusive_list@Varena@internal@tbb@@@internal@tbb@@Varena@23@@internal@tbb@@QBEPAVarena@23@XZ 100271e0 f i market.obj
 0001:00026210       ??Diterator@?$intrusive_list_base@V?$intrusive_list@Varena@internal@tbb@@@internal@tbb@@Varena@23@@internal@tbb@@QBEAAVarena@23@XZ 10027210 f i market.obj
 0001:00026240       ??E?$iterator_impl@Viterator@?$intrusive_list_base@V?$intrusive_list@Varena@internal@tbb@@@internal@tbb@@Varena@23@@internal@tbb@@@?$intrusive_list_base@V?$intrusive_list@Varena@internal@tbb@@@internal@tbb@@Varena@23@@internal@tbb@@QAEAAViterator@123@XZ 10027240 f i market.obj
 0001:00026280       ??_H@YGXPAXIIP6EPAX0@Z@Z   10027280 f i market.obj
 0001:000262f0       ?acquire@scoped_lock@spin_mutex@tbb@@QAEXAAV23@@Z 100272f0 f i market.obj
 0001:00026320       ?advance_global_reload_epoch@market@internal@tbb@@AAEXXZ 10027320 f i market.obj
 0001:00026360       ?assert_market_valid@market@internal@tbb@@ABEXXZ 10027360 f i market.obj
 0001:000263e0       ?assert_ok@?$intrusive_list_base@V?$intrusive_list@Varena@internal@tbb@@@internal@tbb@@Varena@23@@internal@tbb@@ABEXXZ 100273e0 f i market.obj
 0001:00026440       ?assert_priority_valid@internal@tbb@@YAXH@Z 10027440 f i market.obj
 0001:00026470       ?begin@?$intrusive_list_base@V?$intrusive_list@Varena@internal@tbb@@@internal@tbb@@Varena@23@@internal@tbb@@QAE?AViterator@123@XZ 10027470 f i market.obj
 0001:000264a0       ?empty@?$intrusive_list_base@V?$intrusive_list@Varena@internal@tbb@@@internal@tbb@@Varena@23@@internal@tbb@@QBE_NXZ 100274a0 f i market.obj
 0001:000264e0       ?empty@?$task_stream@$02@internal@tbb@@QAE_NH@Z 100274e0 f i market.obj
 0001:00026520       ?end@?$intrusive_list_base@V?$intrusive_list@Varena@internal@tbb@@@internal@tbb@@Varena@23@@internal@tbb@@QAE?AViterator@123@XZ 10027520 f i market.obj
 0001:00026550       ?fetch_and_add@?$atomic_traits@$03$01@internal@tbb@@SAHPCXH@Z 10027550 f i market.obj
 0001:00026570       ?item@?$intrusive_list@Varena@internal@tbb@@@internal@tbb@@CAAAVarena@23@PAUintrusive_list_node@23@@Z 10027570 f i market.obj
 0001:00026580       ?item@?$intrusive_list_base@V?$intrusive_list@Varena@internal@tbb@@@internal@tbb@@Varena@23@@internal@tbb@@CAAAVarena@23@PAUintrusive_list_node@23@@Z 10027580 f i market.obj
 0001:000265a0       ?item@?$iterator_impl@Viterator@?$intrusive_list_base@V?$intrusive_list@Varena@internal@tbb@@@internal@tbb@@Varena@23@@internal@tbb@@@?$intrusive_list_base@V?$intrusive_list@Varena@internal@tbb@@@internal@tbb@@Varena@23@@internal@tbb@@IBEAAVarena@34@XZ 100275a0 f i market.obj
 0001:000265d0       ?lock@spin_rw_mutex_v3@tbb@@QAEXXZ 100275d0 f i market.obj
 0001:00026600       ?max_job_count@market@internal@tbb@@EBEIXZ 10027600 f i market.obj
 0001:00026620       ?min_stack_size@market@internal@tbb@@EBEIXZ 10027620 f i market.obj
 0001:00026650       ?must_have_concurrency@arena@internal@tbb@@QBE_NXZ 10027650 f i market.obj
 0001:000266b0       ?must_join_workers@market@internal@tbb@@QBE_NXZ 100276b0 f i market.obj
 0001:000266d0       ?node@?$intrusive_list@Varena@internal@tbb@@@internal@tbb@@CAAAUintrusive_list_node@23@AAVarena@23@@Z 100276d0 f i market.obj
 0001:000266e0       ?node@?$intrusive_list_base@V?$intrusive_list@Varena@internal@tbb@@@internal@tbb@@Varena@23@@internal@tbb@@CAAAUintrusive_list_node@23@AAVarena@23@@Z 100276e0 f i market.obj
 0001:00026700       ?num_workers_active@arena@internal@tbb@@QAEIXZ 10027700 f i market.obj
 0001:00026730       ?policy@market@internal@tbb@@EBE?AW4policy_type@client@rml@@XZ 10027730 f i market.obj
 0001:00026750       ?push_front@?$intrusive_list_base@V?$intrusive_list@Varena@internal@tbb@@@internal@tbb@@Varena@23@@internal@tbb@@QAEXAAVarena@23@@Z 10027750 f i market.obj
 0001:00026830       ?recall_by_mandatory_request@arena@internal@tbb@@QBE_NXZ 10027830 f i market.obj
 0001:00026880       ?release@scoped_lock@spin_mutex@tbb@@QAEXXZ 10027880 f i market.obj
 0001:000268b0       ?remove@?$intrusive_list_base@V?$intrusive_list@Varena@internal@tbb@@@internal@tbb@@Varena@23@@internal@tbb@@QAEXAAVarena@23@@Z 100278b0 f i market.obj
 0001:00026a20       ?reset_global_priority@market@internal@tbb@@AAEXXZ 10027a20 f i market.obj
 0001:00026a50       ?self@?$iterator_impl@Viterator@?$intrusive_list_base@V?$intrusive_list@Varena@internal@tbb@@@internal@tbb@@Varena@23@@internal@tbb@@@?$intrusive_list_base@V?$intrusive_list@Varena@internal@tbb@@@internal@tbb@@Varena@23@@internal@tbb@@AAEAAViterator@234@XZ 10027a50 f i market.obj
 0001:00026a70       ?size@?$intrusive_list_base@V?$intrusive_list@Varena@internal@tbb@@@internal@tbb@@Varena@23@@internal@tbb@@QBEIXZ 10027a70 f i market.obj
 0001:00026a90       ?store_with_release@?$atomic_impl@PAVarena@internal@tbb@@@internal@tbb@@IAEPAVarena@23@PAV423@@Z 10027a90 f i market.obj
 0001:00026ae0       ?unlock@spin_rw_mutex_v3@tbb@@QAEXXZ 10027ae0 f i market.obj
 0001:00026b20       ?update_global_top_priority@market@internal@tbb@@AAEXH@Z 10027b20 f i market.obj
 0001:00026b90       ?version@market@internal@tbb@@EBEIXZ 10027b90 f i market.obj
 0001:00026bb0       ?worker_stack_size@market@internal@tbb@@QBEIXZ 10027bb0 f i market.obj
 0001:00026cc0       ?attach_arena@generic_scheduler@internal@tbb@@QAEXPAVarena@23@I_N@Z 10027cc0 f   arena.obj
 0001:00026df0       ?nested_arena_entry@generic_scheduler@internal@tbb@@QAEXPAVarena@23@I@Z 10027df0 f   arena.obj
 0001:00026f40       ?nested_arena_exit@generic_scheduler@internal@tbb@@QAEXXZ 10027f40 f   arena.obj
 0001:00027040       ?wait_until_empty@generic_scheduler@internal@tbb@@QAEXXZ 10028040 f   arena.obj
 0001:000270f0       ?internal_initialize@task_arena_base@internal@interface7@tbb@@IAEXXZ 100280f0 f   arena.obj
 0001:00027290       ?internal_terminate@task_arena_base@internal@interface7@tbb@@IAEXXZ 10028290 f   arena.obj
 0001:000272f0       ?internal_attach@task_arena_base@internal@interface7@tbb@@IAEXXZ 100282f0 f   arena.obj
 0001:00027440       ?internal_enqueue@task_arena_base@internal@interface7@tbb@@IBEXAAVtask@4@H@Z 10028440 f   arena.obj
 0001:00027540       ?internal_execute@task_arena_base@internal@interface7@tbb@@IBEXAAVdelegate_base@234@@Z 10028540 f   arena.obj
 0001:00027c20       ?internal_wait@task_arena_base@internal@interface7@tbb@@IBEXXZ 10028c20 f   arena.obj
 0001:00027f00       ?internal_current_slot@task_arena_base@internal@interface7@tbb@@KAHXZ 10028f00 f   arena.obj
 0001:00027f50       ?internal_max_concurrency@task_arena_base@internal@interface7@tbb@@KAHPBVtask_arena@34@@Z 10028f50 f   arena.obj
 0001:00028020       ?isolate_within_arena@internal@interface7@tbb@@YAXAAVdelegate_base@123@H@Z 10029020 f   arena.obj
 0001:00028140       ?restore_priority_if_need@arena@internal@tbb@@AAEXXZ 10029140 f   arena.obj
 0001:000281f0       ??0arena@internal@tbb@@QAE@AAVmarket@12@II@Z 100291f0 f   arena.obj
 0001:000285c0       ?allocate_arena@arena@internal@tbb@@SAAAV123@AAVmarket@23@II@Z 100295c0 f   arena.obj
 0001:000286e0       ?free_arena@arena@internal@tbb@@QAEXXZ 100296e0 f   arena.obj
 0001:00028a40       ?is_out_of_work@arena@internal@tbb@@QAE_NXZ 10029a40 f   arena.obj
 0001:00028f20       ?enqueue_task@arena@internal@tbb@@QAEXAAVtask@3@HAAVFastRandom@23@@Z 10029f20 f   arena.obj
 0001:00029130       ?process@arena@internal@tbb@@QAEXAAVgeneric_scheduler@23@@Z 1002a130 f   arena.obj
 0001:000295e0       ?orphan_offloaded_tasks@arena@internal@tbb@@QAEXAAVgeneric_scheduler@23@@Z 1002a5e0 f   arena.obj
 0001:000296d0       ?workers_task_node_count@arena@internal@tbb@@QAEHXZ 1002a6d0 f   arena.obj
 0001:00029740       ?has_enqueued_tasks@arena@internal@tbb@@QAE_NXZ 1002a740 f   arena.obj
 0001:000297a0       ?occupy_free_slot_in_range@arena@internal@tbb@@QAEIAAVgeneric_scheduler@23@II@Z 1002a7a0 f   arena.obj
 0001:00029930       ??$?0$$V@?$_Compressed_pair@V?$tbb_allocator@PAVtask@tbb@@@tbb@@V?$_Deque_val@U?$_Deque_simple_types@PAVtask@tbb@@@std@@@std@@$00@std@@QAE@U_Zero_then_variadic_args_t@1@@Z 1002a930 f i arena.obj
 0001:00029970       ??$?0PAVtask@tbb@@@?$tbb_allocator@PAPAVtask@tbb@@@tbb@@QAE@ABV?$tbb_allocator@PAVtask@tbb@@@1@@Z 1002a970 f i arena.obj
 0001:00029990       ??$?0PAVtask@tbb@@@?$tbb_allocator@U_Container_proxy@std@@@tbb@@QAE@ABV?$tbb_allocator@PAVtask@tbb@@@1@@Z 1002a990 f i arena.obj
 0001:000299b0       ??$?0U?$integral_constant@_N$0A@@std@@@_Unused_parameter@std@@QAE@$$QAU?$integral_constant@_N$0A@@1@@Z 1002a9b0 f i arena.obj
 0001:000299d0       ??$_Construct1@PAPAVtask@tbb@@$$V@?$_Normal_allocator_traits@V?$tbb_allocator@PAPAVtask@tbb@@@tbb@@@std@@SAXU?$integral_constant@_N$0A@@1@AAV?$tbb_allocator@PAPAVtask@tbb@@@tbb@@PAPAPAVtask@4@@Z 1002a9d0 f i arena.obj
 0001:000299f0       ??$_Construct1@PAPAVtask@tbb@@AAPAPAV12@@?$_Normal_allocator_traits@V?$tbb_allocator@PAPAVtask@tbb@@@tbb@@@std@@SAXU?$integral_constant@_N$0A@@1@AAV?$tbb_allocator@PAPAVtask@tbb@@@tbb@@PAPAPAVtask@4@AAPAPAV54@@Z 1002a9f0 f i arena.obj
 0001:00029a20       ??$_Construct1@PAVtask@tbb@@ABQAV12@@?$_Normal_allocator_traits@V?$tbb_allocator@PAVtask@tbb@@@tbb@@@std@@SAXU?$integral_constant@_N$0A@@1@AAV?$tbb_allocator@PAVtask@tbb@@@tbb@@PAPAVtask@4@ABQAV54@@Z 1002aa20 f i arena.obj
 0001:00029a50       ??$_Construct1@U_Container_proxy@std@@U12@@?$_Normal_allocator_traits@V?$tbb_allocator@U_Container_proxy@std@@@tbb@@@std@@SAXU?$integral_constant@_N$0A@@1@AAV?$tbb_allocator@U_Container_proxy@std@@@tbb@@PAU_Container_proxy@1@$$QAU51@@Z 1002aa50 f i arena.obj
 0001:00029a80       ??$_Deallocate_plain@V?$tbb_allocator@U_Container_proxy@std@@@tbb@@$0A@@std@@YAXAAV?$tbb_allocator@U_Container_proxy@std@@@tbb@@QAU_Container_proxy@0@@Z 1002aa80 f i arena.obj
 0001:00029aa0       ??$_Destroy1@PAPAVtask@tbb@@@?$_Normal_allocator_traits@V?$tbb_allocator@PAPAVtask@tbb@@@tbb@@@std@@SAXAAV?$tbb_allocator@PAPAVtask@tbb@@@tbb@@PAPAPAVtask@3@U?$integral_constant@_N$0A@@1@@Z 1002aaa0 f i arena.obj
 0001:00029ac0       ??$_Destroy1@PAVtask@tbb@@@?$_Normal_allocator_traits@V?$tbb_allocator@PAVtask@tbb@@@tbb@@@std@@SAXAAV?$tbb_allocator@PAVtask@tbb@@@tbb@@PAPAVtask@3@U?$integral_constant@_N$0A@@1@@Z 1002aac0 f i arena.obj
 0001:00029ae0       ??$_Destroy1@U_Container_proxy@std@@@?$_Normal_allocator_traits@V?$tbb_allocator@U_Container_proxy@std@@@tbb@@@std@@SAXAAV?$tbb_allocator@U_Container_proxy@std@@@tbb@@PAU_Container_proxy@1@U?$integral_constant@_N$0A@@1@@Z 1002aae0 f i arena.obj
 0001:00029b00       ??$_Destroy_range1@V?$tbb_allocator@PAPAVtask@tbb@@@tbb@@@std@@YAXPAPAPAVtask@tbb@@0AAV?$tbb_allocator@PAPAVtask@tbb@@@2@U?$integral_constant@_N$0A@@0@@Z 1002ab00 f i arena.obj
 0001:00029b40       ??$_Destroy_range@V?$tbb_allocator@PAPAVtask@tbb@@@tbb@@@std@@YAXPAPAPAVtask@tbb@@0AAV?$tbb_allocator@PAPAVtask@tbb@@@2@@Z 1002ab40 f i arena.obj
 0001:00029b80       ??$_Emplace_back@$$V@?$_Uninitialized_backout_al@PAPAPAVtask@tbb@@V?$tbb_allocator@PAPAVtask@tbb@@@2@@std@@QAEXXZ 1002ab80 f i arena.obj
 0001:00029bd0       ??$_Emplace_back@AAPAPAVtask@tbb@@@?$_Uninitialized_backout_al@PAPAPAVtask@tbb@@V?$tbb_allocator@PAPAVtask@tbb@@@2@@std@@QAEXAAPAPAVtask@tbb@@@Z 1002abd0 f i arena.obj
 0001:00029c30       ??$_Ptr_copy_cat@PAPAVtask@tbb@@PAPAV12@@std@@YA?AU_Really_trivial_ptr_iterator_tag@0@ABQAPAPAVtask@tbb@@0@Z 1002ac30 f i arena.obj
 0001:00029c40       ??$_Rechecked@PAPAPAVtask@tbb@@PAPAPAV12@@std@@YAAAPAPAPAVtask@tbb@@AAPAPAPAV12@QAPAPAV12@@Z 1002ac40 f i arena.obj
 0001:00029c50       ??$_Unchecked@PAPAPAVtask@tbb@@@std@@YAPAPAPAVtask@tbb@@PAPAPAV12@@Z 1002ac50 f i arena.obj
 0001:00029c60       ??$_Unfancy@PAPAVtask@tbb@@@std@@YAPAPAPAVtask@tbb@@PAPAPAV12@@Z 1002ac60 f i arena.obj
 0001:00029c70       ??$_Unfancy@PAVtask@tbb@@@std@@YAPAPAVtask@tbb@@PAPAV12@@Z 1002ac70 f i arena.obj
 0001:00029c80       ??$_Unfancy@U_Container_proxy@std@@@std@@YAPAU_Container_proxy@0@PAU10@@Z 1002ac80 f i arena.obj
 0001:00029c90       ??$_Uninitialized_copy@PAPAPAVtask@tbb@@PAPAPAV12@V?$tbb_allocator@PAPAVtask@tbb@@@2@@std@@YAPAPAPAVtask@tbb@@QAPAPAV12@0PAPAPAV12@AAV?$tbb_allocator@PAPAVtask@tbb@@@2@@Z 1002ac90 f i arena.obj
 0001:00029d80       ??$_Uninitialized_copy_al_unchecked@PAPAPAVtask@tbb@@PAPAPAV12@V?$tbb_allocator@PAPAVtask@tbb@@@2@@std@@YAPAPAPAVtask@tbb@@PAPAPAV12@QAPAPAV12@1AAV?$tbb_allocator@PAPAVtask@tbb@@@2@U_General_ptr_iterator_tag@0@U_Unused_parameter@0@@Z 1002ad80 f i arena.obj
 0001:00029e60       ??$_Uninitialized_value_construct_n1@PAPAPAVtask@tbb@@IV?$tbb_allocator@PAPAVtask@tbb@@@2@@std@@YAPAPAPAVtask@tbb@@QAPAPAV12@IAAV?$tbb_allocator@PAPAVtask@tbb@@@2@U?$integral_constant@_N$0A@@0@@Z 1002ae60 f i arena.obj
 0001:00029f40       ??$_Uninitialized_value_construct_n@PAPAPAVtask@tbb@@IV?$tbb_allocator@PAPAVtask@tbb@@@2@@std@@YAPAPAPAVtask@tbb@@PAPAPAV12@IAAV?$tbb_allocator@PAPAVtask@tbb@@@2@@Z 1002af40 f i arena.obj
 0001:00029f80       ??$__TBB_load_with_acquire@PAVgeneric_scheduler@internal@tbb@@@internal@tbb@@YAPAVgeneric_scheduler@01@ADSAV201@@Z 1002af80 f i arena.obj
 0001:00029fa0       ??$__TBB_load_with_acquire@PAVtask@tbb@@@internal@tbb@@YAPAVtask@1@ADSAV21@@Z 1002afa0 f i arena.obj
 0001:00029fc0       ??$__TBB_store_with_release@PAVgeneric_scheduler@internal@tbb@@PAV123@@internal@tbb@@YAXACRAVgeneric_scheduler@01@PAV201@@Z 1002afc0 f i arena.obj
 0001:00029fe0       ??$addressof@PAPAVtask@tbb@@@std@@YAPAPAPAVtask@tbb@@AAPAPAV12@@Z 1002afe0 f i arena.obj
 0001:00029ff0       ??$addressof@V?$_Deque_val@U?$_Deque_simple_types@PAVtask@tbb@@@std@@@std@@@std@@YAPAV?$_Deque_val@U?$_Deque_simple_types@PAVtask@tbb@@@std@@@0@AAV10@@Z 1002aff0 f i arena.obj
 0001:0002a000       ??$advertise_new_work@$01@arena@internal@tbb@@QAEXXZ 1002b000 f i arena.obj
 0001:0002a290       ??$as_atomic@PAVgeneric_scheduler@internal@tbb@@@internal@tbb@@YAAAU?$atomic@PAVgeneric_scheduler@internal@tbb@@@1@AAPAVgeneric_scheduler@01@@Z 1002b290 f i arena.obj
 0001:0002a2a0       ??$as_atomic@PAVtask@tbb@@@internal@tbb@@YAAAU?$atomic@PAVtask@tbb@@@1@AAPAVtask@1@@Z 1002b2a0 f i arena.obj
 0001:0002a2b0       ??$as_atomic@PAVtask_group_context@tbb@@@internal@tbb@@YAAAU?$atomic@PAVtask_group_context@tbb@@@1@AAPAVtask_group_context@1@@Z 1002b2b0 f i arena.obj
 0001:0002a2c0       ??$atomic_update@HHU?$less@H@std@@@internal@tbb@@YAHAAU?$atomic@H@1@HU?$less@H@std@@@Z 1002b2c0 f i arena.obj
 0001:0002a370       ??$atomic_update@IIU?$less@I@std@@@internal@tbb@@YAIAAU?$atomic@I@1@IU?$less@I@std@@@Z 1002b370 f i arena.obj
 0001:0002a420       ??$compare_and_swap@$0A@@?$atomic_impl@PAVarena@internal@tbb@@@internal@tbb@@QAEPAVarena@12@PAV312@0@Z 1002b420 f i arena.obj
 0001:0002a470       ??$compare_and_swap@$0A@@?$atomic_impl@PAVgeneric_scheduler@internal@tbb@@@internal@tbb@@QAEPAVgeneric_scheduler@12@PAV312@0@Z 1002b470 f i arena.obj
 0001:0002a4c0       ??$compare_and_swap@$0A@@?$atomic_impl@PAVtask@tbb@@@internal@tbb@@QAEPAVtask@2@PAV32@0@Z 1002b4c0 f i arena.obj
 0001:0002a510       ??$construct@PAPAVtask@tbb@@$$V@?$_Normal_allocator_traits@V?$tbb_allocator@PAPAVtask@tbb@@@tbb@@@std@@SAXAAV?$tbb_allocator@PAPAVtask@tbb@@@tbb@@PAPAPAVtask@3@@Z 1002b510 f i arena.obj
 0001:0002a540       ??$construct@PAPAVtask@tbb@@$$V@?$tbb_allocator@PAPAVtask@tbb@@@tbb@@QAEXPAPAPAVtask@1@@Z 1002b540 f i arena.obj
 0001:0002a5b0       ??$construct@PAPAVtask@tbb@@AAPAPAV12@@?$_Normal_allocator_traits@V?$tbb_allocator@PAPAVtask@tbb@@@tbb@@@std@@SAXAAV?$tbb_allocator@PAPAVtask@tbb@@@tbb@@PAPAPAVtask@3@AAPAPAV43@@Z 1002b5b0 f i arena.obj
 0001:0002a5f0       ??$construct@PAPAVtask@tbb@@AAPAPAV12@@?$tbb_allocator@PAPAVtask@tbb@@@tbb@@QAEXPAPAPAVtask@1@AAPAPAV21@@Z 1002b5f0 f i arena.obj
 0001:0002a640       ??$construct@PAVtask@tbb@@ABQAV12@@?$_Normal_allocator_traits@V?$tbb_allocator@PAVtask@tbb@@@tbb@@@std@@SAXAAV?$tbb_allocator@PAVtask@tbb@@@tbb@@PAPAVtask@3@ABQAV43@@Z 1002b640 f i arena.obj
 0001:0002a680       ??$construct@PAVtask@tbb@@ABQAV12@@?$tbb_allocator@PAVtask@tbb@@@tbb@@QAEXPAPAVtask@1@ABQAV21@@Z 1002b680 f i arena.obj
 0001:0002a6d0       ??$construct@U_Container_proxy@std@@U12@@?$_Normal_allocator_traits@V?$tbb_allocator@U_Container_proxy@std@@@tbb@@@std@@SAXAAV?$tbb_allocator@U_Container_proxy@std@@@tbb@@PAU_Container_proxy@1@$$QAU41@@Z 1002b6d0 f i arena.obj
 0001:0002a710       ??$construct@U_Container_proxy@std@@U12@@?$tbb_allocator@U_Container_proxy@std@@@tbb@@QAEXPAU_Container_proxy@std@@$$QAU23@@Z 1002b710 f i arena.obj
 0001:0002a770       ??$destroy@PAPAVtask@tbb@@@?$_Normal_allocator_traits@V?$tbb_allocator@PAPAVtask@tbb@@@tbb@@@std@@SAXAAV?$tbb_allocator@PAPAVtask@tbb@@@tbb@@PAPAPAVtask@3@@Z 1002b770 f i arena.obj
 0001:0002a7a0       ??$destroy@PAVtask@tbb@@@?$_Normal_allocator_traits@V?$tbb_allocator@PAVtask@tbb@@@tbb@@@std@@SAXAAV?$tbb_allocator@PAVtask@tbb@@@tbb@@PAPAVtask@3@@Z 1002b7a0 f i arena.obj
 0001:0002a7d0       ??$destroy@U_Container_proxy@std@@@?$_Normal_allocator_traits@V?$tbb_allocator@U_Container_proxy@std@@@tbb@@@std@@SAXAAV?$tbb_allocator@U_Container_proxy@std@@@tbb@@PAU_Container_proxy@1@@Z 1002b7d0 f i arena.obj
 0001:0002a800       ??$forward@AAPAPAVtask@tbb@@@std@@YAAAPAPAVtask@tbb@@AAPAPAV12@@Z 1002b800 f i arena.obj
 0001:0002a810       ??$forward@ABQAVtask@tbb@@@std@@YAABQAVtask@tbb@@ABQAV12@@Z 1002b810 f i arena.obj
 0001:0002a820       ??$forward@U_Container_proxy@std@@@std@@YA$$QAU_Container_proxy@0@AAU10@@Z 1002b820 f i arena.obj
 0001:0002a830       ??$forward@Vspawn_functor@graph@interface10@flow@tbb@@@std@@YA$$QAVspawn_functor@graph@interface10@flow@tbb@@AAV12345@@Z 1002b830 f i arena.obj
 0001:0002a840       ??$free_task@$02@generic_scheduler@internal@tbb@@QAEXAAVtask@2@@Z 1002b840 f i arena.obj
 0001:0002a9a0       ??$move@AAVspawn_functor@graph@interface10@flow@tbb@@@std@@YA$$QAVspawn_functor@graph@interface10@flow@tbb@@AAV12345@@Z 1002b9a0 f i arena.obj
 0001:0002a9b0       ??$notify@Vdelegated_task@internal@interface7@tbb@@@concurrent_monitor@internal@tbb@@QAEXABVdelegated_task@1interface7@2@@Z 1002b9b0 f i arena.obj
 0001:0002a9e0       ??$notify_relaxed@Vdelegated_task@internal@interface7@tbb@@@concurrent_monitor@internal@tbb@@QAEXABVdelegated_task@1interface7@2@@Z 1002b9e0 f i arena.obj
 0001:0002abc0       ??$occupy_free_slot@$00@arena@internal@tbb@@QAEIAAVgeneric_scheduler@12@@Z 1002bbc0 f i arena.obj
 0001:0002acb0       ??$occupy_free_slot@$0A@@arena@internal@tbb@@QAEIAAVgeneric_scheduler@12@@Z 1002bcb0 f i arena.obj
 0001:0002ad90       ??$on_thread_leaving@$00@arena@internal@tbb@@QAEXXZ 1002bd90 f i arena.obj
 0001:0002ae90       ??$on_thread_leaving@$0BAAA@@arena@internal@tbb@@QAEXXZ 1002be90 f i arena.obj
 0001:0002af70       ??$poison_value@PAVobserver_proxy@internal@tbb@@@internal@tbb@@YAXAAPAVobserver_proxy@01@@Z 1002bf70 f i arena.obj
 0001:0002af90       ??$punned_cast@PAPAVobserver_proxy@internal@tbb@@$$CBI@internal@tbb@@YAPAPAVobserver_proxy@01@PBI@Z 1002bf90 f i arena.obj
 0001:0002afb0       ??$spin_wait_while_eq@PAVtask_group_context@tbb@@PAV12@@internal@tbb@@YAXADSAVtask_group_context@1@PAV21@@Z 1002bfb0 f i arena.obj
 0001:0002b030       ??$suppress_unused_warning@$$BY0HE@D@internal@tbb@@YAXAAY0HE@$$CBD@Z 1002c030 f i arena.obj
 0001:0002b040       ??$suppress_unused_warning@PBVtask_group_context@tbb@@@internal@tbb@@YAXABQBVtask_group_context@1@@Z 1002c040 f i arena.obj
 0001:0002b050       ??$to_bits@H@?$atomic_impl@H@internal@tbb@@SAHH@Z 1002c050 f i arena.obj
 0001:0002b080       ??$to_bits@PAVgeneric_scheduler@internal@tbb@@@?$atomic_impl@PAVgeneric_scheduler@internal@tbb@@@internal@tbb@@SAHPAVgeneric_scheduler@12@@Z 1002c080 f i arena.obj
 0001:0002b0b0       ??$to_bits@PAVtask@tbb@@@?$atomic_impl@PAVtask@tbb@@@internal@tbb@@SAHPAVtask@2@@Z 1002c0b0 f i arena.obj
 0001:0002b0e0       ??$to_bits@PAVtask_group_context@tbb@@@?$atomic_impl@PAVtask_group_context@tbb@@@internal@tbb@@SAHPAVtask_group_context@2@@Z 1002c0e0 f i arena.obj
 0001:0002b110       ??$to_bits@_N@?$atomic_impl@_N@internal@tbb@@SAC_N@Z 1002c110 f i arena.obj
 0001:0002b140       ??$to_bits_ref@$$CD_N@?$atomic_impl@_N@internal@tbb@@SAAACAD_N@Z 1002c140 f i arena.obj
 0001:0002b170       ??$to_bits_ref@PAVtask_group_context@tbb@@@?$atomic_impl@PAVtask_group_context@tbb@@@internal@tbb@@SAAAHAAPAVtask_group_context@2@@Z 1002c170 f i arena.obj
 0001:0002b1a0       ??$to_bits_ref@_N@?$atomic_impl@_N@internal@tbb@@SAAACAA_N@Z 1002c1a0 f i arena.obj
 0001:0002b1d0       ??$to_value@PAVarena@internal@tbb@@@?$atomic_impl@PAVarena@internal@tbb@@@internal@tbb@@SAPAVarena@12@H@Z 1002c1d0 f i arena.obj
 0001:0002b240       ??$to_value@PAVgeneric_scheduler@internal@tbb@@@?$atomic_impl@PAVgeneric_scheduler@internal@tbb@@@internal@tbb@@SAPAVgeneric_scheduler@12@H@Z 1002c240 f i arena.obj
 0001:0002b2b0       ??$to_value@PAVtask@tbb@@@?$atomic_impl@PAVtask@tbb@@@internal@tbb@@SAPAVtask@2@H@Z 1002c2b0 f i arena.obj
 0001:0002b320       ??$to_value@_N@?$atomic_impl@_N@internal@tbb@@SA_NC@Z 1002c320 f i arena.obj
 0001:0002b390       ??0?$_Deque_alloc@U?$_Deque_base_types@PAVtask@tbb@@V?$tbb_allocator@PAVtask@tbb@@@2@@std@@@std@@QAE@XZ 1002c390 f i arena.obj
 0001:0002b3d0       ??0?$_Deque_const_iterator@V?$_Deque_val@U?$_Deque_simple_types@PAVtask@tbb@@@std@@@std@@@std@@QAE@IPBU_Container_base12@1@@Z 1002c3d0 f i arena.obj
 0001:0002b450       ??0?$_Deque_iterator@V?$_Deque_val@U?$_Deque_simple_types@PAVtask@tbb@@@std@@@std@@@std@@QAE@IPBU_Container_base12@1@@Z 1002c450 f i arena.obj
 0001:0002b490       ??0?$_Deque_val@U?$_Deque_simple_types@PAVtask@tbb@@@std@@@std@@QAE@XZ 1002c490 f i arena.obj
 0001:0002b4e0       ??0?$_Uninitialized_backout_al@PAPAPAVtask@tbb@@V?$tbb_allocator@PAPAVtask@tbb@@@2@@std@@QAE@PAPAPAVtask@tbb@@AAV?$tbb_allocator@PAPAVtask@tbb@@@3@@Z 1002c4e0 f i arena.obj
 0001:0002b520       ??0?$context_guard_helper@$0A@@internal@tbb@@QAE@XZ 1002c520 f i arena.obj
 0001:0002b560       ??0?$converter@PAVarena@internal@tbb@@@?$atomic_impl@PAVarena@internal@tbb@@@internal@tbb@@QAE@XZ 1002c560 f i arena.obj
 0001:0002b580       ??0?$converter@PAVgeneric_scheduler@internal@tbb@@@?$atomic_impl@PAVgeneric_scheduler@internal@tbb@@@internal@tbb@@QAE@PAVgeneric_scheduler@23@@Z 1002c580 f i arena.obj
 0001:0002b5a0       ??0?$converter@PAVgeneric_scheduler@internal@tbb@@@?$atomic_impl@PAVgeneric_scheduler@internal@tbb@@@internal@tbb@@QAE@XZ 1002c5a0 f i arena.obj
 0001:0002b5c0       ??0?$converter@PAVtask@tbb@@@?$atomic_impl@PAVtask@tbb@@@internal@tbb@@QAE@PAVtask@3@@Z 1002c5c0 f i arena.obj
 0001:0002b5e0       ??0?$converter@PAVtask@tbb@@@?$atomic_impl@PAVtask@tbb@@@internal@tbb@@QAE@XZ 1002c5e0 f i arena.obj
 0001:0002b600       ??0?$converter@PAVtask_group_context@tbb@@@?$atomic_impl@PAVtask_group_context@tbb@@@internal@tbb@@QAE@PAVtask_group_context@3@@Z 1002c600 f i arena.obj
 0001:0002b620       ??0?$deque@PAVtask@tbb@@V?$tbb_allocator@PAVtask@tbb@@@2@@std@@QAE@XZ 1002c620 f i arena.obj
 0001:0002b650       ??0?$function_task@Vspawn_functor@graph@interface10@flow@tbb@@@internal@tbb@@QAE@$$QAVspawn_functor@graph@interface10@flow@2@@Z 1002c650 f i arena.obj
 0001:0002b6a0       ??0?$padded@U?$queue_and_mutex@PAVtask@tbb@@Vspin_mutex@2@@internal@tbb@@$0IA@@internal@tbb@@QAE@XZ 1002c6a0 f i arena.obj
 0001:0002b6d0       ??0?$padded@Uarena_base@internal@tbb@@$0IA@@internal@tbb@@QAE@XZ 1002c6d0 f i arena.obj
 0001:0002b700       ??0?$padded@Uintrusive_list_node@internal@tbb@@$0IA@@internal@tbb@@QAE@XZ 1002c700 f i arena.obj
 0001:0002b730       ??0?$padded_base@U?$queue_and_mutex@PAVtask@tbb@@Vspin_mutex@2@@internal@tbb@@$0IA@$0BI@@internal@tbb@@QAE@XZ 1002c730 f i arena.obj
 0001:0002b760       ??0?$padded_base@Uarena_base@internal@tbb@@$0IA@$0M@@internal@tbb@@QAE@XZ 1002c760 f i arena.obj
 0001:0002b790       ??0?$padded_base@Uintrusive_list_node@internal@tbb@@$0IA@$07@internal@tbb@@QAE@XZ 1002c790 f i arena.obj
 0001:0002b7c0       ??0?$ptr_converter@PAPAVtask_group_context@tbb@@@?$atomic_impl@PAVtask_group_context@tbb@@@internal@tbb@@QAE@PAPAVtask_group_context@3@@Z 1002c7c0 f i arena.obj
 0001:0002b7e0       ??0?$queue_and_mutex@PAVtask@tbb@@Vspin_mutex@2@@internal@tbb@@QAE@XZ 1002c7e0 f i arena.obj
 0001:0002b850       ??0?$task_stream@$02@internal@tbb@@QAE@XZ 1002c850 f i arena.obj
 0001:0002b8c0       ??0?$tbb_allocator@PAVtask@tbb@@@tbb@@QAE@XZ 1002c8c0 f i arena.obj
 0001:0002b8e0       ??0_Container_base12@std@@QAE@XZ 1002c8e0 f i arena.obj
 0001:0002b900       ??0_Container_proxy@std@@QAE@XZ 1002c900 f i arena.obj
 0001:0002b930       ??0_Iterator_base12@std@@QAE@XZ 1002c930 f i arena.obj
 0001:0002b960       ??0arena_base@internal@tbb@@QAE@XZ 1002c960 f i arena.obj
 0001:0002b9f0       ??0auto_empty_task@internal@tbb@@QAE@PAVgeneric_scheduler@12@PAVtask_group_context@2@@Z 1002c9f0 f i arena.obj
 0001:0002ba50       ??0delegated_task@internal@interface7@tbb@@QAE@AAVdelegate_base@123@AAVconcurrent_monitor@13@PAVtask@3@@Z 1002ca50 f i arena.obj
 0001:0002baa0       ??0empty_task@tbb@@QAE@XZ  1002caa0 f i arena.obj
 0001:0002bad0       ??0isolation_guard@internal@interface7@tbb@@QAE@AAH@Z 1002cad0 f i arena.obj
 0001:0002bb10       ??0mail_inbox@internal@tbb@@QAE@XZ 1002cb10 f i arena.obj
 0001:0002bb30       ??0nested_arena_context@internal@tbb@@QAE@PAVgeneric_scheduler@12@PAVarena@12@I_N2@Z 1002cb30 f i arena.obj
 0001:0002bc00       ??0observer_list@internal@tbb@@QAE@XZ 1002cc00 f i arena.obj
 0001:0002bd10       ??0scheduler_state@internal@tbb@@QAE@XZ 1002cd10 f i arena.obj
 0001:0002bd40       ??0wait_task@internal@interface7@tbb@@QAE@AAVbinary_semaphore@13@@Z 1002cd40 f i arena.obj
 0001:0002bd80       ??1?$_Deque_alloc@U?$_Deque_base_types@PAVtask@tbb@@V?$tbb_allocator@PAVtask@tbb@@@2@@std@@@std@@QAE@XZ 1002cd80 f i arena.obj
 0001:0002bdd0       ??1?$_Deque_const_iterator@V?$_Deque_val@U?$_Deque_simple_types@PAVtask@tbb@@@std@@@std@@@std@@QAE@XZ 1002cdd0 f i arena.obj
 0001:0002be00       ??1?$_Deque_iterator@V?$_Deque_val@U?$_Deque_simple_types@PAVtask@tbb@@@std@@@std@@@std@@QAE@XZ 1002ce00 f i arena.obj
 0001:0002be30       ??1?$_Uninitialized_backout_al@PAPAPAVtask@tbb@@V?$tbb_allocator@PAPAVtask@tbb@@@2@@std@@QAE@XZ 1002ce30 f i arena.obj
 0001:0002bea0       ??1?$context_guard_helper@$0A@@internal@tbb@@QAE@XZ 1002cea0 f i arena.obj
 0001:0002bf10       ??1?$deque@PAVtask@tbb@@V?$tbb_allocator@PAVtask@tbb@@@2@@std@@QAE@XZ 1002cf10 f i arena.obj
 0001:0002bf70       ??1?$function_task@Vspawn_functor@graph@interface10@flow@tbb@@@internal@tbb@@UAE@XZ 1002cf70 f i arena.obj
 0001:0002bfa0       ??1?$padded@U?$queue_and_mutex@PAVtask@tbb@@Vspin_mutex@2@@internal@tbb@@$0IA@@internal@tbb@@QAE@XZ 1002cfa0 f i arena.obj
 0001:0002bfd0       ??1?$padded@Uarena_base@internal@tbb@@$0IA@@internal@tbb@@QAE@XZ 1002cfd0 f i arena.obj
 0001:0002c000       ??1?$padded_base@U?$queue_and_mutex@PAVtask@tbb@@Vspin_mutex@2@@internal@tbb@@$0IA@$0BI@@internal@tbb@@QAE@XZ 1002d000 f i arena.obj
 0001:0002c030       ??1?$padded_base@Uarena_base@internal@tbb@@$0IA@$0M@@internal@tbb@@QAE@XZ 1002d030 f i arena.obj
 0001:0002c060       ??1?$queue_and_mutex@PAVtask@tbb@@Vspin_mutex@2@@internal@tbb@@QAE@XZ 1002d060 f i arena.obj
 0001:0002c090       ??1?$task_stream@$02@internal@tbb@@QAE@XZ 1002d090 f i arena.obj
 0001:0002c120       ??1_Iterator_base12@std@@QAE@XZ 1002d120 f i arena.obj
 0001:0002c1d0       ??1arena@internal@tbb@@QAE@XZ 1002d1d0 f i arena.obj
 0001:0002c200       ??1arena_base@internal@tbb@@QAE@XZ 1002d200 f i arena.obj
 0001:0002c240       ??1auto_empty_task@internal@tbb@@QAE@XZ 1002d240 f i arena.obj
 0001:0002c2a0       ??1delegated_task@internal@interface7@tbb@@EAE@XZ 1002d2a0 f i arena.obj
 0001:0002c350       ??1empty_task@tbb@@UAE@XZ  1002d350 f i arena.obj
 0001:0002c380       ??1isolation_guard@internal@interface7@tbb@@QAE@XZ 1002d380 f i arena.obj
 0001:0002c3a0       ??1nested_arena_context@internal@tbb@@QAE@XZ 1002d3a0 f i arena.obj
 0001:0002c4f0       ??1wait_task@internal@interface7@tbb@@UAE@XZ 1002d4f0 f i arena.obj
 0001:0002c520       ??4?$atomic@PAVtask_group_context@tbb@@@tbb@@QAEPAVtask_group_context@1@PAV21@@Z 1002d520 f i arena.obj
 0001:0002c550       ??8?$_Deque_const_iterator@V?$_Deque_val@U?$_Deque_simple_types@PAVtask@tbb@@@std@@@std@@@std@@QBE_NABV01@@Z 1002d550 f i arena.obj
 0001:0002c5b0       ??9?$_Deque_const_iterator@V?$_Deque_val@U?$_Deque_simple_types@PAVtask@tbb@@@std@@@std@@@std@@QBE_NABV01@@Z 1002d5b0 f i arena.obj
 0001:0002c600       ??9cpu_ctl_env@internal@tbb@@QBE_NABV012@@Z 1002d600 f i arena.obj
 0001:0002c650       ??Bauto_empty_task@internal@tbb@@QAEAAVtask@2@XZ 1002d650 f i arena.obj
 0001:0002c670       ??D?$_Deque_const_iterator@V?$_Deque_val@U?$_Deque_simple_types@PAVtask@tbb@@@std@@@std@@@std@@QBEABQAVtask@tbb@@XZ 1002d670 f i arena.obj
 0001:0002c750       ??D?$_Deque_iterator@V?$_Deque_val@U?$_Deque_simple_types@PAVtask@tbb@@@std@@@std@@@std@@QBEAAPAVtask@tbb@@XZ 1002d750 f i arena.obj
 0001:0002c780       ??E?$_Deque_const_iterator@V?$_Deque_val@U?$_Deque_simple_types@PAVtask@tbb@@@std@@@std@@@std@@QAEAAV01@XZ 1002d780 f i arena.obj
 0001:0002c820       ??E?$_Deque_iterator@V?$_Deque_val@U?$_Deque_simple_types@PAVtask@tbb@@@std@@@std@@@std@@QAEAAV01@XZ 1002d820 f i arena.obj
 0001:0002c850       ??Iauto_empty_task@internal@tbb@@QAEPAVtask@2@XZ 1002d850 f i arena.obj
 0001:0002c870       ??R?$less@H@std@@QBE_NABH0@Z 1002d870 f i arena.obj
 0001:0002c8b0       ??R?$less@I@std@@QBE_NABI0@Z 1002d8b0 f i arena.obj
 0001:0002c8f0       ??Rdelegated_task@internal@interface7@tbb@@QBE_NI@Z 1002d8f0 f i arena.obj
 0001:0002c930       ??Rspawn_functor@graph@interface10@flow@tbb@@QBEXXZ 1002d930 f i arena.obj
 0001:0002c960       ??_E?$padded@U?$queue_and_mutex@PAVtask@tbb@@Vspin_mutex@2@@internal@tbb@@$0IA@@internal@tbb@@QAEPAXI@Z 1002d960 f i arena.obj
 0001:0002ca20       ??_E?$function_task@Vspawn_functor@graph@interface10@flow@tbb@@@internal@tbb@@UAEPAXI@Z 1002da20 f i arena.obj
 0001:0002ca20       ??_G?$function_task@Vspawn_functor@graph@interface10@flow@tbb@@@internal@tbb@@UAEPAXI@Z 1002da20 f i arena.obj
 0001:0002ca60       ??_Garena@internal@tbb@@QAEPAXI@Z 1002da60 f i arena.obj
 0001:0002cab0       ??_Edelegated_task@internal@interface7@tbb@@EAEPAXI@Z 1002dab0 f i arena.obj
 0001:0002cab0       ??_Gdelegated_task@internal@interface7@tbb@@EAEPAXI@Z 1002dab0 f i arena.obj
 0001:0002caf0       ??_Eempty_task@tbb@@UAEPAXI@Z 1002daf0 f i arena.obj
 0001:0002caf0       ??_Gempty_task@tbb@@UAEPAXI@Z 1002daf0 f i arena.obj
 0001:0002cb30       ??_Gtask_group_context@tbb@@QAEPAXI@Z 1002db30 f i arena.obj
 0001:0002cb80       ??_Gwait_task@internal@interface7@tbb@@UAEPAXI@Z 1002db80 f i arena.obj
 0001:0002cb80       ??_Ewait_task@internal@interface7@tbb@@UAEPAXI@Z 1002db80 f i arena.obj
 0001:0002cbc0       ?_Adopt@_Iterator_base12@std@@QAEXPBU_Container_base12@2@@Z 1002dbc0 f i arena.obj
 0001:0002cd00       ?_Alloc_proxy@?$_Deque_alloc@U?$_Deque_base_types@PAVtask@tbb@@V?$tbb_allocator@PAVtask@tbb@@@2@@std@@@std@@QAEXXZ 1002dd00 f i arena.obj
 0001:0002cde0       ?_Clrcont@_Iterator_base12@std@@QAEXXZ 1002dde0 f i arena.obj
 0001:0002ce00       ?_Compat@?$_Deque_const_iterator@V?$_Deque_val@U?$_Deque_simple_types@PAVtask@tbb@@@std@@@std@@@std@@QBEXABV12@@Z 1002de00 f i arena.obj
 0001:0002ce80       ?_Free_proxy@?$_Deque_alloc@U?$_Deque_base_types@PAVtask@tbb@@V?$tbb_allocator@PAVtask@tbb@@@2@@std@@@std@@QAEXXZ 1002de80 f i arena.obj
 0001:0002cf40       ?_Get_data@?$_Deque_alloc@U?$_Deque_base_types@PAVtask@tbb@@V?$tbb_allocator@PAVtask@tbb@@@2@@std@@@std@@QAEAAV?$_Deque_val@U?$_Deque_simple_types@PAVtask@tbb@@@std@@@2@XZ 1002df40 f i arena.obj
 0001:0002cf70       ?_Get_data@?$_Deque_alloc@U?$_Deque_base_types@PAVtask@tbb@@V?$tbb_allocator@PAVtask@tbb@@@2@@std@@@std@@QBEABV?$_Deque_val@U?$_Deque_simple_types@PAVtask@tbb@@@std@@@2@XZ 1002df70 f i arena.obj
 0001:0002cfa0       ?_Get_first@?$_Compressed_pair@V?$tbb_allocator@PAVtask@tbb@@@tbb@@V?$_Deque_val@U?$_Deque_simple_types@PAVtask@tbb@@@std@@@std@@$00@std@@QAEAAV?$tbb_allocator@PAVtask@tbb@@@tbb@@XZ 1002dfa0 f i arena.obj
 0001:0002cfc0       ?_Get_first@?$_Compressed_pair@V?$tbb_allocator@PAVtask@tbb@@@tbb@@V?$_Deque_val@U?$_Deque_simple_types@PAVtask@tbb@@@std@@@std@@$00@std@@QBEABV?$tbb_allocator@PAVtask@tbb@@@tbb@@XZ 1002dfc0 f i arena.obj
 0001:0002cfe0       ?_Get_second@?$_Compressed_pair@V?$tbb_allocator@PAVtask@tbb@@@tbb@@V?$_Deque_val@U?$_Deque_simple_types@PAVtask@tbb@@@std@@@std@@$00@std@@QAEAAV?$_Deque_val@U?$_Deque_simple_types@PAVtask@tbb@@@std@@@2@XZ 1002dfe0 f i arena.obj
 0001:0002d000       ?_Get_second@?$_Compressed_pair@V?$tbb_allocator@PAVtask@tbb@@@tbb@@V?$_Deque_val@U?$_Deque_simple_types@PAVtask@tbb@@@std@@@std@@$00@std@@QBEABV?$_Deque_val@U?$_Deque_simple_types@PAVtask@tbb@@@std@@@2@XZ 1002e000 f i arena.obj
 0001:0002d020       ?_Getal@?$_Deque_alloc@U?$_Deque_base_types@PAVtask@tbb@@V?$tbb_allocator@PAVtask@tbb@@@2@@std@@@std@@QAEAAV?$tbb_allocator@PAVtask@tbb@@@tbb@@XZ 1002e020 f i arena.obj
 0001:0002d050       ?_Getal@?$_Deque_alloc@U?$_Deque_base_types@PAVtask@tbb@@V?$tbb_allocator@PAVtask@tbb@@@2@@std@@@std@@QBEABV?$tbb_allocator@PAVtask@tbb@@@tbb@@XZ 1002e050 f i arena.obj
 0001:0002d080       ?_Getblock@?$_Deque_alloc@U?$_Deque_base_types@PAVtask@tbb@@V?$tbb_allocator@PAVtask@tbb@@@2@@std@@@std@@QBEII@Z 1002e080 f i arena.obj
 0001:0002d0c0       ?_Getblock@?$_Deque_val@U?$_Deque_simple_types@PAVtask@tbb@@@std@@@std@@QBEII@Z 1002e0c0 f i arena.obj
 0001:0002d0f0       ?_Getcont@_Iterator_base12@std@@QBEPBU_Container_base12@2@XZ 1002e0f0 f i arena.obj
 0001:0002d130       ?_Getpfirst@?$_Deque_alloc@U?$_Deque_base_types@PAVtask@tbb@@V?$tbb_allocator@PAVtask@tbb@@@2@@std@@@std@@QBEPAPAU_Iterator_base12@2@XZ 1002e130 f i arena.obj
 0001:0002d160       ?_Getpfirst@_Container_base12@std@@QBEPAPAU_Iterator_base12@2@XZ 1002e160 f i arena.obj
 0001:0002d1a0       ?_Getpnext@_Iterator_base12@std@@QAEPAPAU12@XZ 1002e1a0 f i arena.obj
 0001:0002d1c0       ?_Growmap@?$deque@PAVtask@tbb@@V?$tbb_allocator@PAVtask@tbb@@@2@@std@@IAEXI@Z 1002e1c0 f i arena.obj
 0001:0002d480       ?_Map@?$_Deque_alloc@U?$_Deque_base_types@PAVtask@tbb@@V?$tbb_allocator@PAVtask@tbb@@@2@@std@@@std@@QAEAAPAPAPAVtask@tbb@@XZ 1002e480 f i arena.obj
 0001:0002d4b0       ?_Mapsize@?$_Deque_alloc@U?$_Deque_base_types@PAVtask@tbb@@V?$tbb_allocator@PAVtask@tbb@@@2@@std@@@std@@QAEAAIXZ 1002e4b0 f i arena.obj
 0001:0002d4e0       ?_Max_size1@?$_Normal_allocator_traits@V?$tbb_allocator@PAVtask@tbb@@@tbb@@@std@@SAIABV?$tbb_allocator@PAVtask@tbb@@@tbb@@U?$integral_constant@_N$00@2@@Z 1002e4e0 f i arena.obj
 0001:0002d500       ?_Myoff@?$_Deque_alloc@U?$_Deque_base_types@PAVtask@tbb@@V?$tbb_allocator@PAVtask@tbb@@@2@@std@@@std@@QAEAAIXZ 1002e500 f i arena.obj
 0001:0002d530       ?_Myoff@?$_Deque_alloc@U?$_Deque_base_types@PAVtask@tbb@@V?$tbb_allocator@PAVtask@tbb@@@2@@std@@@std@@QBEABIXZ 1002e530 f i arena.obj
 0001:0002d560       ?_Myproxy@?$_Deque_alloc@U?$_Deque_base_types@PAVtask@tbb@@V?$tbb_allocator@PAVtask@tbb@@@2@@std@@@std@@QAEAAPAU_Container_proxy@2@XZ 1002e560 f i arena.obj
 0001:0002d590       ?_Mysize@?$_Deque_alloc@U?$_Deque_base_types@PAVtask@tbb@@V?$tbb_allocator@PAVtask@tbb@@@2@@std@@@std@@QAEAAIXZ 1002e590 f i arena.obj
 0001:0002d5c0       ?_Mysize@?$_Deque_alloc@U?$_Deque_base_types@PAVtask@tbb@@V?$tbb_allocator@PAVtask@tbb@@@2@@std@@@std@@QBEABIXZ 1002e5c0 f i arena.obj
 0001:0002d5f0       ?_Orphan_all@?$_Deque_alloc@U?$_Deque_base_types@PAVtask@tbb@@V?$tbb_allocator@PAVtask@tbb@@@2@@std@@@std@@QAEXXZ 1002e5f0 f i arena.obj
 0001:0002d620       ?_Orphan_all@_Container_base12@std@@QAEXXZ 1002e620 f i arena.obj
 0001:0002d710       ?_Orphan_me@_Iterator_base12@std@@QAEXXZ 1002e710 f i arena.obj
 0001:0002d800       ?_Orphan_off@?$deque@PAVtask@tbb@@V?$tbb_allocator@PAVtask@tbb@@@2@@std@@IBEXI@Z 1002e800 f i arena.obj
 0001:0002d970       ?_Release@?$_Uninitialized_backout_al@PAPAPAVtask@tbb@@V?$tbb_allocator@PAPAVtask@tbb@@@2@@std@@QAEPAPAPAVtask@tbb@@XZ 1002e970 f i arena.obj
 0001:0002d9a0       ?_RethrowException@exception_ptr@std@@QBEXXZ 1002e9a0 f i arena.obj
 0001:0002d9d0       ?_Setcont@?$_Deque_const_iterator@V?$_Deque_val@U?$_Deque_simple_types@PAVtask@tbb@@@std@@@std@@@std@@QAEXPBV?$_Deque_val@U?$_Deque_simple_types@PAVtask@tbb@@@std@@@2@@Z 1002e9d0 f i arena.obj
 0001:0002da00       ?_Tidy@?$deque@PAVtask@tbb@@V?$tbb_allocator@PAVtask@tbb@@@2@@std@@IAEXXZ 1002ea00 f i arena.obj
 0001:0002db50       ?_Xlen@?$deque@PAVtask@tbb@@V?$tbb_allocator@PAVtask@tbb@@@2@@std@@IBEXXZ 1002eb50 f i arena.obj
 0001:0002db80       ?__TBB_set_cpu_ctl_env@@YAXPBVcpu_ctl_env@internal@tbb@@@Z 1002eb80 f i arena.obj
 0001:0002dba0       ?allocate@?$tbb_allocator@PAPAVtask@tbb@@@tbb@@QAEPAPAPAVtask@2@IPBX@Z 1002eba0 f i arena.obj
 0001:0002dbd0       ?allocate@?$tbb_allocator@PAVtask@tbb@@@tbb@@QAEPAPAVtask@2@IPBX@Z 1002ebd0 f i arena.obj
 0001:0002dc00       ?allocate@?$tbb_allocator@U_Container_proxy@std@@@tbb@@QAEPAU_Container_proxy@std@@IPBX@Z 1002ec00 f i arena.obj
 0001:0002dc30       ?allocation_size@arena@internal@tbb@@SAHI@Z 1002ec30 f i arena.obj
 0001:0002dc50       ?assert_context_valid@generic_scheduler@internal@tbb@@SAXPBVtask_group_context@3@@Z 1002ec50 f i arena.obj
 0001:0002de40       ?attach@mail_inbox@internal@tbb@@QAEXAAVmail_outbox@23@@Z 1002ee40 f i arena.obj
 0001:0002de60       ?attach_mailbox@generic_scheduler@internal@tbb@@QAEXG@Z 1002ee60 f i arena.obj
 0001:0002ded0       ?begin@?$deque@PAVtask@tbb@@V?$tbb_allocator@PAVtask@tbb@@@2@@std@@QAE?AV?$_Deque_iterator@V?$_Deque_val@U?$_Deque_simple_types@PAVtask@tbb@@@std@@@std@@@2@XZ 1002eed0 f i arena.obj
 0001:0002df40       ?clear@?$deque@PAVtask@tbb@@V?$tbb_allocator@PAVtask@tbb@@@2@@std@@QAEXXZ 1002ef40 f i arena.obj
 0001:0002df90       ?clear_one_bit@internal@tbb@@YAXAAIH@Z 1002ef90 f i arena.obj
 0001:0002e000       ?compare_and_swap@?$atomic_impl@PAVarena@internal@tbb@@@internal@tbb@@QAEPAVarena@23@PAV423@0@Z 1002f000 f i arena.obj
 0001:0002e030       ?compare_and_swap@?$atomic_impl@PAVgeneric_scheduler@internal@tbb@@@internal@tbb@@QAEPAVgeneric_scheduler@23@PAV423@0@Z 1002f030 f i arena.obj
 0001:0002e060       ?compare_and_swap@?$atomic_impl@PAVtask@tbb@@@internal@tbb@@QAEPAVtask@3@PAV43@0@Z 1002f060 f i arena.obj
 0001:0002e090       ?construct@mail_outbox@internal@tbb@@QAEXXZ 1002f090 f i arena.obj
 0001:0002e160       ?deallocate@?$_Normal_allocator_traits@V?$tbb_allocator@U_Container_proxy@std@@@tbb@@@std@@SAXAAV?$tbb_allocator@U_Container_proxy@std@@@tbb@@PAU_Container_proxy@2@I@Z 1002f160 f i arena.obj
 0001:0002e180       ?deallocate@?$tbb_allocator@PAPAVtask@tbb@@@tbb@@QAEXPAPAPAVtask@2@I@Z 1002f180 f i arena.obj
 0001:0002e1b0       ?deallocate@?$tbb_allocator@PAVtask@tbb@@@tbb@@QAEXPAPAVtask@2@I@Z 1002f1b0 f i arena.obj
 0001:0002e1e0       ?deallocate@?$tbb_allocator@U_Container_proxy@std@@@tbb@@QAEXPAU_Container_proxy@std@@I@Z 1002f1e0 f i arena.obj
 0001:0002e210       ?destroy@?$tbb_allocator@PAPAVtask@tbb@@@tbb@@QAEXPAPAPAVtask@2@@Z 1002f210 f i arena.obj
 0001:0002e230       ?destroy@?$tbb_allocator@PAVtask@tbb@@@tbb@@QAEXPAPAVtask@2@@Z 1002f230 f i arena.obj
 0001:0002e250       ?destroy@?$tbb_allocator@U_Container_proxy@std@@@tbb@@QAEXPAU_Container_proxy@std@@@Z 1002f250 f i arena.obj
 0001:0002e270       ?detach@mail_inbox@internal@tbb@@QAEXXZ 1002f270 f i arena.obj
 0001:0002e2c0       ?drain@?$task_stream@$02@internal@tbb@@QAEHXZ 1002f2c0 f i arena.obj
 0001:0002e4c0       ?drain@mail_outbox@internal@tbb@@QAEHXZ 1002f4c0 f i arena.obj
 0001:0002e530       ?empty@?$deque@PAVtask@tbb@@V?$tbb_allocator@PAVtask@tbb@@@2@@std@@QBE_NXZ 1002f530 f i arena.obj
 0001:0002e580       ?empty@observer_list@internal@tbb@@QBE_NXZ 1002f580 f i arena.obj
 0001:0002e5c0       ?end@?$deque@PAVtask@tbb@@V?$tbb_allocator@PAVtask@tbb@@@2@@std@@QAE?AV?$_Deque_iterator@V?$_Deque_val@U?$_Deque_simple_types@PAVtask@tbb@@@std@@@std@@@2@XZ 1002f5c0 f i arena.obj
 0001:0002e640       ?execute@?$function_task@Vspawn_functor@graph@interface10@flow@tbb@@@internal@tbb@@EAEPAVtask@3@XZ 1002f640 f i arena.obj
 0001:0002e670       ?execute@delegated_task@internal@interface7@tbb@@EAEPAVtask@4@XZ 1002f670 f i arena.obj
 0001:0002e780       ?execute@empty_task@tbb@@EAEPAVtask@2@XZ 1002f780 f i arena.obj
 0001:0002e7a0       ?execute@wait_task@internal@interface7@tbb@@EAEPAVtask@4@XZ 1002f7a0 f i arena.obj
 0001:0002e8a0       ?free_task_pool@arena_slot@internal@tbb@@QAEXXZ 1002f8a0 f i arena.obj
 0001:0002e920       ?get@FastRandom@internal@tbb@@QAEGAAI@Z 1002f920 f i arena.obj
 0001:0002e9a0       ?get@FastRandom@internal@tbb@@QAEGXZ 1002f9a0 f i arena.obj
 0001:0002e9d0       ?initialize@?$task_stream@$02@internal@tbb@@QAEXI@Z 1002f9d0 f i arena.obj
 0001:0002ebc0       ?inlineCreateEventEx@@YGPAXPAU_SECURITY_ATTRIBUTES@@PB_WKK@Z 1002fbc0 f i arena.obj
 0001:0002ec50       ?is_bit_set@internal@tbb@@YA_NIH@Z 1002fc50 f i arena.obj
 0001:0002ecd0       ?is_busy_or_empty@arena@internal@tbb@@SA_NI@Z 1002fcd0 f i arena.obj
 0001:0002ed00       ?is_idle_state@mail_inbox@internal@tbb@@QBE_N_N@Z 1002fd00 f i arena.obj
 0001:0002ed50       ?is_local_task_pool_quiescent@generic_scheduler@internal@tbb@@QBE_NXZ 1002fd50 f i arena.obj
 0001:0002edd0       ?is_quiescent_local_task_pool_reset@generic_scheduler@internal@tbb@@QBE_NXZ 1002fdd0 f i arena.obj
 0001:0002ee70       ?load_with_acquire@?$machine_load_store@PAVgeneric_scheduler@internal@tbb@@$03@internal@tbb@@SAPAVgeneric_scheduler@23@ADSAV423@@Z 1002fe70 f i arena.obj
 0001:0002ee90       ?load_with_acquire@?$machine_load_store@PAVtask@tbb@@$03@internal@tbb@@SAPAVtask@3@ADSAV43@@Z 1002fe90 f i arena.obj
 0001:0002eeb0       ?mailbox@arena@internal@tbb@@QAEAAVmail_outbox@23@G@Z 1002feb0 f i arena.obj
 0001:0002ef30       ?max_size@?$_Normal_allocator_traits@V?$tbb_allocator@PAVtask@tbb@@@tbb@@@std@@SAIABV?$tbb_allocator@PAVtask@tbb@@@tbb@@@Z 1002ff30 f i arena.obj
 0001:0002ef60       ?max_size@?$deque@PAVtask@tbb@@V?$tbb_allocator@PAVtask@tbb@@@2@@std@@QBEIXZ 1002ff60 f i arena.obj
 0001:0002ef90       ?max_size@?$tbb_allocator@PAVtask@tbb@@@tbb@@QBEIXZ 1002ff90 f i arena.obj
 0001:0002efe0       ?may_have_tasks@arena@internal@tbb@@QAE_NPAVgeneric_scheduler@23@AA_N1@Z 1002ffe0 f i arena.obj
 0001:0002f070       ?mimic_outermost_level@nested_arena_context@internal@tbb@@AAEXPAVarena@23@_N@Z 10030070 f i arena.obj
 0001:0002f100       ?notify_entry_observers@observer_list@internal@tbb@@QAEXAAPAVobserver_proxy@23@_N@Z 10030100 f i arena.obj
 0001:0002f140       ?notify_exit_observers@observer_list@internal@tbb@@QAEXAAPAVobserver_proxy@23@_N@Z 10030140 f i arena.obj
 0001:0002f1e0       ?notify_one@concurrent_monitor@internal@tbb@@QAEXXZ 100301e0 f i arena.obj
 0001:0002f210       ?num_arena_slots@arena@internal@tbb@@SAII@Z 10030210 f i arena.obj
 0001:0002f240       ?pop_back@?$deque@PAVtask@tbb@@V?$tbb_allocator@PAVtask@tbb@@@2@@std@@QAEXXZ 10030240 f i arena.obj
 0001:0002f360       ?prefix@auto_empty_task@internal@tbb@@QAEAAVtask_prefix@23@XZ 10030360 f i arena.obj
 0001:0002f390       ?push@?$task_stream@$02@internal@tbb@@QAEXPAVtask@3@HAAVFastRandom@23@@Z 10030390 f i arena.obj
 0001:0002f4c0       ?push_back@?$deque@PAVtask@tbb@@V?$tbb_allocator@PAVtask@tbb@@@2@@std@@QAEXABQAVtask@tbb@@@Z 100304c0 f i arena.obj
 0001:0002f620       ?ref_count@task@tbb@@QBEHXZ 10030620 f i arena.obj
 0001:0002f690       ?restore_default@?$context_guard_helper@$0A@@internal@tbb@@QAEXXZ 10030690 f i arena.obj
 0001:0002f6e0       ?rethrow_exception@std@@YAXVexception_ptr@1@@Z 100306e0 f i arena.obj
 0001:0002f740       ?rethrow_exception_broken@governor@internal@tbb@@SA_NXZ 10030740 f i arena.obj
 0001:0002f750       ?set_ctx@?$context_guard_helper@$0A@@internal@tbb@@QAEXPBVtask_group_context@3@@Z 10030750 f i arena.obj
 0001:0002f7d0       ?set_env@cpu_ctl_env@internal@tbb@@QBEXXZ 100307d0 f i arena.obj
 0001:0002f800       ?set_is_idle@mail_inbox@internal@tbb@@QAEX_N@Z 10030800 f i arena.obj
 0001:0002f870       ?set_one_bit@internal@tbb@@YAXAAIH@Z 10030870 f i arena.obj
 0001:0002f8d0       ?store_with_release@?$atomic_impl@PAVtask_group_context@tbb@@@internal@tbb@@IAEPAVtask_group_context@3@PAV43@@Z 100308d0 f i arena.obj
 0001:0002f920       ?store_with_release@?$machine_load_store@PAVgeneric_scheduler@internal@tbb@@$03@internal@tbb@@SAXACRAVgeneric_scheduler@23@PAV423@@Z 10030920 f i arena.obj
 0001:0002f930       ?throw_self@tbb_exception_ptr@internal@tbb@@QAEXXZ 10030930 f i arena.obj
 0001:0002f970       ?update_task_node_count@market@internal@tbb@@QAEXH@Z 10030970 f i arena.obj
 0001:0002f9a0       ?worker_outermost_level@generic_scheduler@internal@tbb@@QBE_NXZ 100309a0 f i arena.obj
 0001:0002fa90       ??1scheduler@internal@tbb@@UAE@XZ 10030a90 f   scheduler.obj
 0001:0002fab0       ?init_stack_info@generic_scheduler@internal@tbb@@QAEXXZ 10030ab0 f   scheduler.obj
 0001:0002fbb0       ?get_mailbox_task@generic_scheduler@internal@tbb@@QAEPAVtask@3@H@Z 10030bb0 f   scheduler.obj
 0001:0002fc90       ?steal_task@generic_scheduler@internal@tbb@@QAEPAVtask@3@AAUarena_slot@23@H@Z 10030c90 f   scheduler.obj
 0001:0002ff20       ?create_master@generic_scheduler@internal@tbb@@SAPAV123@PAVarena@23@@Z 10030f20 f   scheduler.obj
 0001:000301a0       ?cleanup_master@generic_scheduler@internal@tbb@@QAE_N_N@Z 100311a0 f   scheduler.obj
 0001:000304c0       ?create_worker@generic_scheduler@internal@tbb@@SAPAV123@AAVmarket@23@I@Z 100314c0 f   scheduler.obj
 0001:00030550       ?cleanup_worker@generic_scheduler@internal@tbb@@SAXPAX_N@Z 10031550 f   scheduler.obj
 0001:000305c0       ??0generic_scheduler@internal@tbb@@IAE@AAVmarket@12@@Z 100315c0 f   scheduler.obj
 0001:00030810       ?spawn@generic_scheduler@internal@tbb@@UAEXAAVtask@3@AAPAV43@@Z 10031810 f   scheduler.obj
 0001:00030850       ?spawn_root_and_wait@generic_scheduler@internal@tbb@@UAEXAAVtask@3@AAPAV43@@Z 10031850 f   scheduler.obj
 0001:00030890       ?enqueue@generic_scheduler@internal@tbb@@UAEXAAVtask@3@PAX@Z 10031890 f   scheduler.obj
 0001:00030900       ?local_spawn@generic_scheduler@internal@tbb@@QAEXPAVtask@3@AAPAV43@@Z 10031900 f   scheduler.obj
 0001:00030bb0       ?local_spawn_root_and_wait@generic_scheduler@internal@tbb@@QAEXPAVtask@3@AAPAV43@@Z 10031bb0 f   scheduler.obj
 0001:00030de0       ?free_scheduler@generic_scheduler@internal@tbb@@QAEXXZ 10031de0 f   scheduler.obj
 0001:00030f20       ?allocate_task@generic_scheduler@internal@tbb@@QAEAAVtask@3@IPAV43@PAVtask_group_context@3@@Z 10031f20 f   scheduler.obj
 0001:00031150       ?free_nonlocal_small_task@generic_scheduler@internal@tbb@@QAEXAAVtask@3@@Z 10032150 f   scheduler.obj
 0001:00031280       ?reload_tasks@generic_scheduler@internal@tbb@@QAEPAVtask@3@H@Z 10032280 f   scheduler.obj
 0001:00031420       ?reload_tasks@generic_scheduler@internal@tbb@@QAEPAVtask@3@AAPAV43@AAPAPAV43@HH@Z 10032420 f   scheduler.obj
 0001:00031780       ?winnow_task_pool@generic_scheduler@internal@tbb@@QAEPAVtask@3@H@Z 10032780 f   scheduler.obj
 0001:000319d0       ?get_task_and_activate_task_pool@generic_scheduler@internal@tbb@@QAEPAVtask@3@IIH@Z 100329d0 f   scheduler.obj
 0001:00031c10       ?cleanup_local_context_list@generic_scheduler@internal@tbb@@QAEXXZ 10032c10 f   scheduler.obj
 0001:00031e00       ?Scheduler_OneTimeInitialization@internal@tbb@@YAX_N@Z 10032e00 f   scheduler.obj
 0001:00031e70       ??$__TBB_load_relaxed@PAUtask_proxy@internal@tbb@@@internal@tbb@@YAPAUtask_proxy@01@ADSAU201@@Z 10032e70 f i scheduler.obj
 0001:00031e90       ??$__TBB_store_relaxed@PAPAVtask@tbb@@PAPAV12@@internal@tbb@@YAXACRAPAVtask@1@PAPAV21@@Z 10032e90 f i scheduler.obj
 0001:00031eb0       ??$__TBB_store_relaxed@PAUtask_proxy@internal@tbb@@PAU123@@internal@tbb@@YAXACRAUtask_proxy@01@PAU201@@Z 10032eb0 f i scheduler.obj
 0001:00031ed0       ??$__TBB_store_with_release@PAPAVtask@tbb@@PAPAV12@@internal@tbb@@YAXACRAPAVtask@1@PAPAV21@@Z 10032ed0 f i scheduler.obj
 0001:00031ef0       ??$advertise_new_work@$00@arena@internal@tbb@@QAEXXZ 10032ef0 f i scheduler.obj
 0001:00032180       ??$advertise_new_work@$0A@@arena@internal@tbb@@QAEXXZ 10033180 f i scheduler.obj
 0001:00032410       ??$as_atomic@PAPAUtask_proxy@internal@tbb@@@internal@tbb@@YAAAU?$atomic@PAPAUtask_proxy@internal@tbb@@@1@AAPAPAUtask_proxy@01@@Z 10033410 f i scheduler.obj
 0001:00032420       ??$as_atomic@PAPAVtask@tbb@@@internal@tbb@@YAAAU?$atomic@PAPAVtask@tbb@@@1@AAPAPAVtask@1@@Z 10033420 f i scheduler.obj
 0001:00032430       ??$compare_and_swap@$0A@@?$atomic_impl@PAPAUtask_proxy@internal@tbb@@@internal@tbb@@QAEPAPAUtask_proxy@12@PAPAU312@0@Z 10033430 f i scheduler.obj
 0001:00032480       ??$compare_and_swap@$0A@@?$atomic_impl@PAPAVtask@tbb@@@internal@tbb@@QAEPAPAVtask@2@PAPAV32@0@Z 10033480 f i scheduler.obj
 0001:000324d0       ??$extract_task@$00@task_proxy@internal@tbb@@QAEPAVtask@2@XZ 100334d0 f i scheduler.obj
 0001:000325e0       ??$extract_task@$01@task_proxy@internal@tbb@@QAEPAVtask@2@XZ 100335e0 f i scheduler.obj
 0001:000326f0       ??$free_task@$01@generic_scheduler@internal@tbb@@QAEXAAVtask@2@@Z 100336f0 f i scheduler.obj
 0001:00032870       ??$free_task@$05@generic_scheduler@internal@tbb@@QAEXAAVtask@2@@Z 10033870 f i scheduler.obj
 0001:000329f0       ??$free_task@$0A@@generic_scheduler@internal@tbb@@QAEXAAVtask@2@@Z 100339f0 f i scheduler.obj
 0001:00032b70       ??$init@I@FastRandom@internal@tbb@@QAEXI@Z 10033b70 f i scheduler.obj
 0001:00032bb0       ??$is_poisoned@Vtask@tbb@@@internal@tbb@@YA_NPAVtask@1@@Z 10033bb0 f i scheduler.obj
 0001:00032be0       ??$poison_pointer@Vtask_group_context@tbb@@@internal@tbb@@YAXAAPAVtask_group_context@1@@Z 10033be0 f i scheduler.obj
 0001:00032bf0       ??$to_bits@PAPAUtask_proxy@internal@tbb@@@?$atomic_impl@PAPAUtask_proxy@internal@tbb@@@internal@tbb@@SAHPAPAUtask_proxy@12@@Z 10033bf0 f i scheduler.obj
 0001:00032c20       ??$to_bits@PAPAVtask@tbb@@@?$atomic_impl@PAPAVtask@tbb@@@internal@tbb@@SAHPAPAVtask@2@@Z 10033c20 f i scheduler.obj
 0001:00032c50       ??$to_value@PAPAUtask_proxy@internal@tbb@@@?$atomic_impl@PAPAUtask_proxy@internal@tbb@@@internal@tbb@@SAPAPAUtask_proxy@12@H@Z 10033c50 f i scheduler.obj
 0001:00032cc0       ??$to_value@PAPAVtask@tbb@@@?$atomic_impl@PAPAVtask@tbb@@@internal@tbb@@SAPAPAVtask@2@H@Z 10033cc0 f i scheduler.obj
 0001:00032d30       ??0?$context_guard_helper@$00@internal@tbb@@QAE@XZ 10033d30 f i scheduler.obj
 0001:00032d70       ??0?$converter@PAPAUtask_proxy@internal@tbb@@@?$atomic_impl@PAPAUtask_proxy@internal@tbb@@@internal@tbb@@QAE@PAPAUtask_proxy@23@@Z 10033d70 f i scheduler.obj
 0001:00032d90       ??0?$converter@PAPAUtask_proxy@internal@tbb@@@?$atomic_impl@PAPAUtask_proxy@internal@tbb@@@internal@tbb@@QAE@XZ 10033d90 f i scheduler.obj
 0001:00032db0       ??0?$converter@PAPAVtask@tbb@@@?$atomic_impl@PAPAVtask@tbb@@@internal@tbb@@QAE@PAPAVtask@3@@Z 10033db0 f i scheduler.obj
 0001:00032dd0       ??0?$converter@PAPAVtask@tbb@@@?$atomic_impl@PAPAVtask@tbb@@@internal@tbb@@QAE@XZ 10033dd0 f i scheduler.obj
 0001:00032df0       ??0?$custom_scheduler@UDefaultSchedulerTraits@internal@tbb@@@internal@tbb@@AAE@AAVmarket@12@@Z 10033df0 f i scheduler.obj
 0001:00032e30       ??0?$custom_scheduler@UIntelSchedulerTraits@internal@tbb@@@internal@tbb@@AAE@AAVmarket@12@@Z 10033e30 f i scheduler.obj
 0001:00032e70       ??0?$fast_reverse_vector@PAVtask@tbb@@$0BA@@internal@tbb@@QAE@PAPAVtask@2@I@Z 10033e70 f i scheduler.obj
 0001:00032ef0       ??0FastRandom@internal@tbb@@QAE@PAX@Z 10033ef0 f i scheduler.obj
 0001:00032f20       ??0auto_indicator@internal@tbb@@QAE@AC_N@Z 10033f20 f i scheduler.obj
 0001:00032f60       ??0scheduler@internal@tbb@@QAE@XZ 10033f60 f i scheduler.obj
 0001:00032fa0       ??1?$context_guard_helper@$00@internal@tbb@@QAE@XZ 10033fa0 f i scheduler.obj
 0001:00033010       ??1?$custom_scheduler@UDefaultSchedulerTraits@internal@tbb@@@internal@tbb@@UAE@XZ 10034010 f i scheduler.obj
 0001:00033040       ??1?$custom_scheduler@UIntelSchedulerTraits@internal@tbb@@@internal@tbb@@UAE@XZ 10034040 f i scheduler.obj
 0001:00033070       ??1?$fast_reverse_vector@PAVtask@tbb@@$0BA@@internal@tbb@@QAE@XZ 10034070 f i scheduler.obj
 0001:00033100       ??1auto_indicator@internal@tbb@@QAE@XZ 10034100 f i scheduler.obj
 0001:00033120       ??1generic_scheduler@internal@tbb@@UAE@XZ 10034120 f i scheduler.obj
 0001:00033150       ??_E?$custom_scheduler@UDefaultSchedulerTraits@internal@tbb@@@internal@tbb@@UAEPAXI@Z 10034150 f i scheduler.obj
 0001:00033150       ??_G?$custom_scheduler@UDefaultSchedulerTraits@internal@tbb@@@internal@tbb@@UAEPAXI@Z 10034150 f i scheduler.obj
 0001:000331a0       ??_E?$custom_scheduler@UIntelSchedulerTraits@internal@tbb@@@internal@tbb@@UAEPAXI@Z 100341a0 f i scheduler.obj
 0001:000331a0       ??_G?$custom_scheduler@UIntelSchedulerTraits@internal@tbb@@@internal@tbb@@UAEPAXI@Z 100341a0 f i scheduler.obj
 0001:000331f0       ??_Egeneric_scheduler@internal@tbb@@UAEPAXI@Z 100341f0 f i scheduler.obj
 0001:000331f0       ??_Ggeneric_scheduler@internal@tbb@@UAEPAXI@Z 100341f0 f i scheduler.obj
 0001:00033240       ?CancellationInfoPresent@internal@tbb@@YA_NAAVtask@2@@Z 10034240 f i scheduler.obj
 0001:00033280       ?ConcurrentWaitsEnabled@internal@tbb@@YA_NAAVtask@2@@Z 10034280 f i scheduler.obj
 0001:000332d0       ?acquire_task_pool@generic_scheduler@internal@tbb@@QBEXXZ 100342d0 f i scheduler.obj
 0001:000334a0       ?allocate_scheduler@?$custom_scheduler@UDefaultSchedulerTraits@internal@tbb@@@internal@tbb@@SAPAVgeneric_scheduler@23@AAVmarket@23@@Z 100344a0 f i scheduler.obj
 0001:00033550       ?allocate_scheduler@?$custom_scheduler@UIntelSchedulerTraits@internal@tbb@@@internal@tbb@@SAPAVgeneric_scheduler@23@AAVmarket@23@@Z 10034550 f i scheduler.obj
 0001:00033600       ?allocate_scheduler@internal@tbb@@YAPAVgeneric_scheduler@12@AAVmarket@12@@Z 10034600 f i scheduler.obj
 0001:00033630       ?allocate_task_pool@arena_slot@internal@tbb@@QAEXI@Z 10034630 f i scheduler.obj
 0001:000336b0       ?assert_ok@?$intrusive_list_base@V?$intrusive_list@Vgeneric_scheduler@internal@tbb@@@internal@tbb@@Vgeneric_scheduler@23@@internal@tbb@@ABEXXZ 100346b0 f i scheduler.obj
 0001:00033710       ?bounded_pause@atomic_backoff@internal@tbb@@QAE_NXZ 10034710 f i scheduler.obj
 0001:00033760       ?can_steal@generic_scheduler@internal@tbb@@QAE_NXZ 10034760 f i scheduler.obj
 0001:000337a0       ?commit_relocated_tasks@generic_scheduler@internal@tbb@@QAEXI@Z 100347a0 f i scheduler.obj
 0001:00033820       ?commit_spawned_tasks@generic_scheduler@internal@tbb@@QAEXI@Z 10034820 f i scheduler.obj
 0001:000338b0       ?compare_and_swap@?$atomic_impl@PAPAUtask_proxy@internal@tbb@@@internal@tbb@@QAEPAPAUtask_proxy@23@PAPAU423@0@Z 100348b0 f i scheduler.obj
 0001:000338e0       ?compare_and_swap@?$atomic_impl@PAPAVtask@tbb@@@internal@tbb@@QAEPAPAVtask@3@PAPAV43@0@Z 100348e0 f i scheduler.obj
 0001:00033910       ?copy_memory@?$fast_reverse_vector@PAVtask@tbb@@$0BA@@internal@tbb@@QBEXPAPAVtask@3@@Z 10034910 f i scheduler.obj
 0001:000339e0       ?effective_reference_priority@generic_scheduler@internal@tbb@@QBEHXZ 100349e0 f i scheduler.obj
 0001:00033a60       ?empty@mail_inbox@internal@tbb@@QAE_NXZ 10034a60 f i scheduler.obj
 0001:00033a90       ?empty@mail_outbox@internal@tbb@@QAE_NXZ 10034a90 f i scheduler.obj
 0001:00033ae0       ?fill_with_canary_pattern@arena_slot@internal@tbb@@QAEXII@Z 10034ae0 f i scheduler.obj
 0001:00033b40       ?front@?$deque@PAVtask@tbb@@V?$tbb_allocator@PAVtask@tbb@@@2@@std@@QAEAAPAVtask@tbb@@XZ 10034b40 f i scheduler.obj
 0001:00033be0       ?get_task@generic_scheduler@internal@tbb@@QAEPAVtask@3@H@Z 10034be0 f i scheduler.obj
 0001:00034070       ?get_task@generic_scheduler@internal@tbb@@QAEPAVtask@3@IHAA_N@Z 10035070 f i scheduler.obj
 0001:000342a0       ?init@FastRandom@internal@tbb@@QAEXIU?$int_to_type@$03@23@@Z 100352a0 f i scheduler.obj
 0001:000342e0       ?internal_pop@mail_outbox@internal@tbb@@AAEPAUtask_proxy@23@H@Z 100352e0 f i scheduler.obj
 0001:00034460       ?is_proxy@generic_scheduler@internal@tbb@@SA_NABVtask@3@@Z 10035460 f i scheduler.obj
 0001:000344a0       ?is_quiescent_local_task_pool_empty@generic_scheduler@internal@tbb@@QBE_NXZ 100354a0 f i scheduler.obj
 0001:00034540       ?is_shared@task_proxy@internal@tbb@@SA_NH@Z 10035540 f i scheduler.obj
 0001:00034570       ?is_task_pool_published@generic_scheduler@internal@tbb@@QBE_NXZ 10035570 f i scheduler.obj
 0001:000345e0       ?is_version_3_task@generic_scheduler@internal@tbb@@SA_NAAVtask@3@@Z 100355e0 f i scheduler.obj
 0001:00034630       ?leave_task_pool@generic_scheduler@internal@tbb@@QAEXXZ 10035630 f i scheduler.obj
 0001:00034760       ?load@?$machine_load_store_relaxed@PAUtask_proxy@internal@tbb@@$03@internal@tbb@@SAPAUtask_proxy@23@ADSAU423@@Z 10035760 f i scheduler.obj
 0001:00034770       ?local_wait_for_all@?$custom_scheduler@UDefaultSchedulerTraits@internal@tbb@@@internal@tbb@@EAEXAAVtask@3@PAV43@@Z 10035770 f i scheduler.obj
 0001:00035a40       ?local_wait_for_all@?$custom_scheduler@UIntelSchedulerTraits@internal@tbb@@@internal@tbb@@EAEXAAVtask@3@PAV43@@Z 10036a40 f i scheduler.obj
 0001:00036cf0       ?lock_task_pool@generic_scheduler@internal@tbb@@QBEPAPAVtask@3@PAUarena_slot@23@@Z 10037cf0 f i scheduler.obj
 0001:00036e60       ?node@?$intrusive_list@Vgeneric_scheduler@internal@tbb@@@internal@tbb@@CAAAUintrusive_list_node@23@AAVgeneric_scheduler@23@@Z 10037e60 f i scheduler.obj
 0001:00036e70       ?node@?$intrusive_list_base@V?$intrusive_list@Vgeneric_scheduler@internal@tbb@@@internal@tbb@@Vgeneric_scheduler@23@@internal@tbb@@CAAAUintrusive_list_node@23@AAVgeneric_scheduler@23@@Z 10037e70 f i scheduler.obj
 0001:00036e90       ?offload_task@generic_scheduler@internal@tbb@@QAEXAAVtask@3@H@Z 10037e90 f i scheduler.obj
 0001:00036f50       ?outbox@mail_inbox@internal@tbb@@QBEPAXXZ 10037f50 f i scheduler.obj
 0001:00036f70       ?plugged_return_list@generic_scheduler@internal@tbb@@SAPAVtask@3@XZ 10037f70 f i scheduler.obj
 0001:00036f80       ?pop@?$task_stream@$02@internal@tbb@@QAEPAVtask@3@HAAI@Z 10037f80 f i scheduler.obj
 0001:00037130       ?pop@mail_inbox@internal@tbb@@QAEPAUtask_proxy@23@H@Z 10038130 f i scheduler.obj
 0001:00037160       ?pop_front@?$deque@PAVtask@tbb@@V?$tbb_allocator@PAVtask@tbb@@@2@@std@@QAEXXZ 10038160 f i scheduler.obj
 0001:00037290       ?prepare_for_spawning@generic_scheduler@internal@tbb@@QAEPAVtask@3@PAV43@@Z 10038290 f i scheduler.obj
 0001:000374b0       ?prepare_task_pool@generic_scheduler@internal@tbb@@QAEII@Z 100384b0 f i scheduler.obj
 0001:00037740       ?priority@internal@tbb@@YAAAHAAVtask@2@@Z 10038740 f i scheduler.obj
 0001:00037760       ?prolonged_pause@internal@tbb@@YAXXZ 10038760 f i scheduler.obj
 0001:00037830       ?publish_task_pool@generic_scheduler@internal@tbb@@QAEXXZ 10038830 f i scheduler.obj
 0001:000379a0       ?push@mail_outbox@internal@tbb@@QAEXPAUtask_proxy@23@@Z 100389a0 f i scheduler.obj
 0001:00037a20       ?push_back@?$fast_reverse_vector@PAVtask@tbb@@$0BA@@internal@tbb@@QAEXABQAVtask@3@@Z 10038a20 f i scheduler.obj
 0001:00037b40       ?push_front@?$intrusive_list_base@V?$intrusive_list@Vgeneric_scheduler@internal@tbb@@@internal@tbb@@Vgeneric_scheduler@23@@internal@tbb@@QAEXAAVgeneric_scheduler@23@@Z 10038b40 f i scheduler.obj
 0001:00037c20       ?receive_or_steal_task@?$custom_scheduler@UDefaultSchedulerTraits@internal@tbb@@@internal@tbb@@UAEPAVtask@3@AAHH@Z 10038c20 f i scheduler.obj
 0001:000385a0       ?receive_or_steal_task@?$custom_scheduler@UIntelSchedulerTraits@internal@tbb@@@internal@tbb@@UAEPAVtask@3@AAHH@Z 100395a0 f i scheduler.obj
 0001:00038ef0       ?recipient_is_idle@mail_outbox@internal@tbb@@QAE_NXZ 10039ef0 f i scheduler.obj
 0001:00038f10       ?register_master@market@internal@tbb@@QAEXAAPAX@Z 10039f10 f i scheduler.obj
 0001:00038f80       ?release_task_pool@generic_scheduler@internal@tbb@@QBEXXZ 10039f80 f i scheduler.obj
 0001:00039050       ?remove@?$intrusive_list_base@V?$intrusive_list@Vgeneric_scheduler@internal@tbb@@@internal@tbb@@Vgeneric_scheduler@23@@internal@tbb@@QAEXAAVgeneric_scheduler@23@@Z 1003a050 f i scheduler.obj
 0001:000391c0       ?reset_extra_state@internal@tbb@@YAXPAVtask@2@@Z 1003a1c0 f i scheduler.obj
 0001:00039200       ?reset_task_pool_and_leave@generic_scheduler@internal@tbb@@QAEXXZ 1003a200 f i scheduler.obj
 0001:00039280       ?restore_default@?$context_guard_helper@$00@internal@tbb@@QAEXXZ 1003a280 f i scheduler.obj
 0001:000392d0       ?set_ctx@?$context_guard_helper@$00@internal@tbb@@QAEXPBVtask_group_context@3@@Z 1003a2d0 f i scheduler.obj
 0001:00039350       ?size@?$fast_reverse_vector@PAVtask@tbb@@$0BA@@internal@tbb@@QBEIXZ 1003a350 f i scheduler.obj
 0001:00039380       ?store@?$machine_load_store_relaxed@PAPAVtask@tbb@@$03@internal@tbb@@SAXACRAPAVtask@3@PAPAV43@@Z 1003a380 f i scheduler.obj
 0001:00039390       ?store@?$machine_load_store_relaxed@PAUtask_proxy@internal@tbb@@$03@internal@tbb@@SAXACRAUtask_proxy@23@PAU423@@Z 1003a390 f i scheduler.obj
 0001:000393a0       ?store_with_release@?$machine_load_store@PAPAVtask@tbb@@$03@internal@tbb@@SAXACRAPAVtask@3@PAPAV43@@Z 1003a3a0 f i scheduler.obj
 0001:000393b0       ?tally_completion_of_predecessor@?$custom_scheduler@UDefaultSchedulerTraits@internal@tbb@@@internal@tbb@@AAEXAAVtask@3@AAPAV43@H@Z 1003a3b0 f i scheduler.obj
 0001:00039530       ?tally_completion_of_predecessor@?$custom_scheduler@UIntelSchedulerTraits@internal@tbb@@@internal@tbb@@AAEXAAVtask@3@AAPAV43@H@Z 1003a530 f i scheduler.obj
 0001:000396b0       ?task_ptr@task_proxy@internal@tbb@@SAPAVtask@3@H@Z 1003a6b0 f i scheduler.obj
 0001:000396c0       ?unlock_task_pool@generic_scheduler@internal@tbb@@QBEXPAUarena_slot@23@PAPAVtask@3@@Z 1003a6c0 f i scheduler.obj
 0001:00039760       ?unregister_master@market@internal@tbb@@QBEXAAPAX@Z 1003a760 f i scheduler.obj
 0001:000397b0       ?wait_for_all@?$custom_scheduler@UDefaultSchedulerTraits@internal@tbb@@@internal@tbb@@EAEXAAVtask@3@PAV43@@Z 1003a7b0 f i scheduler.obj
 0001:000397f0       ?wait_for_all@?$custom_scheduler@UIntelSchedulerTraits@internal@tbb@@@internal@tbb@@EAEXAAVtask@3@PAV43@@Z 1003a7f0 f i scheduler.obj
 0001:00039830       _NtCurrentTeb              1003a830 f i scheduler.obj
 0001:00039890       ?observe@task_scheduler_observer_v3@internal@tbb@@QAEX_N@Z 1003a890 f   observer_proxy.obj
 0001:00039cb0       ?do_notify_entry_observers@observer_list@internal@tbb@@AAEXAAPAVobserver_proxy@23@_N@Z 1003acb0 f   observer_proxy.obj
 0001:00039f80       ?do_notify_exit_observers@observer_list@internal@tbb@@AAEXPAVobserver_proxy@23@_N@Z 1003af80 f   observer_proxy.obj
 0001:0003a210       ?clear@observer_list@internal@tbb@@QAEXXZ 1003b210 f   observer_proxy.obj
 0001:0003a460       ?insert@observer_list@internal@tbb@@QAEXPAVobserver_proxy@23@@Z 1003b460 f   observer_proxy.obj
 0001:0003a510       ?remove@observer_list@internal@tbb@@QAEXPAVobserver_proxy@23@@Z 1003b510 f   observer_proxy.obj
 0001:0003a6a0       ?remove_ref@observer_list@internal@tbb@@QAEXPAVobserver_proxy@23@@Z 1003b6a0 f   observer_proxy.obj
 0001:0003a870       ?get_v6_observer@observer_proxy@internal@tbb@@AAEPAVtask_scheduler_observer@interface6@3@XZ 1003b870 f   observer_proxy.obj
 0001:0003a8a0       ?is_global@observer_proxy@internal@tbb@@AAE_NXZ 1003b8a0 f   observer_proxy.obj
 0001:0003a900       ??0observer_proxy@internal@tbb@@AAE@AAVtask_scheduler_observer_v3@12@@Z 1003b900 f   observer_proxy.obj
 0001:0003a9d0       ??1observer_proxy@internal@tbb@@AAE@XZ 1003b9d0 f   observer_proxy.obj
 0001:0003aa80       ??$as_atomic@_N@internal@tbb@@YAAAU?$atomic@_N@1@AA_N@Z 1003ba80 f i observer_proxy.obj
 0001:0003aa90       ??$fetch_and_store@$01@?$atomic_impl@_N@internal@tbb@@QAE_N_N@Z 1003ba90 f i observer_proxy.obj
 0001:0003aae0       ??$load@$02@?$atomic_impl@H@internal@tbb@@QBEHXZ 1003bae0 f i observer_proxy.obj
 0001:0003ab20       ??$load@$02H@tbb@@YAHABU?$atomic@H@0@@Z 1003bb20 f i observer_proxy.obj
 0001:0003ab40       ??$poison_pointer@Vobserver_proxy@internal@tbb@@@internal@tbb@@YAXAAPAVobserver_proxy@01@@Z 1003bb40 f i observer_proxy.obj
 0001:0003ab50       ??$poison_value@U?$atomic@H@tbb@@@internal@tbb@@YAXAAU?$atomic@H@1@@Z 1003bb50 f i observer_proxy.obj
 0001:0003ab80       ??$punned_cast@PAU?$atomic@H@tbb@@$$CBI@internal@tbb@@YAPAU?$atomic@H@1@PBI@Z 1003bb80 f i observer_proxy.obj
 0001:0003aba0       ??$punned_cast@PAVspin_rw_mutex_v3@tbb@@$$CBV?$aligned_space@Vspin_rw_mutex_v3@tbb@@$00@2@@internal@tbb@@YAPAVspin_rw_mutex_v3@1@PBV?$aligned_space@Vspin_rw_mutex_v3@tbb@@$00@1@@Z 1003bba0 f i observer_proxy.obj
 0001:0003abc0       ??$to_bits_ref@$$CBH@?$atomic_impl@H@internal@tbb@@SAAAHABH@Z 1003bbc0 f i observer_proxy.obj
 0001:0003abf0       ??$to_bits_ref@H@?$atomic_impl@H@internal@tbb@@SAAAHAAH@Z 1003bbf0 f i observer_proxy.obj
 0001:0003ac20       ??0?$padded@Vobserver_list@internal@tbb@@$0IA@@internal@tbb@@QAE@XZ 1003bc20 f i observer_proxy.obj
 0001:0003ac50       ??0?$padded_base@Vobserver_list@internal@tbb@@$0IA@$0BA@@internal@tbb@@QAE@XZ 1003bc50 f i observer_proxy.obj
 0001:0003ac80       ??0?$ptr_converter@PBH@?$atomic_impl@H@internal@tbb@@QAE@PBH@Z 1003bc80 f i observer_proxy.obj
 0001:0003aca0       ??1check_observer_proxy_count@internal@tbb@@QAE@XZ 1003bca0 f i observer_proxy.obj
 0001:0003ad10       ??4?$atomic@H@tbb@@QAEAAU01@ABU01@@Z 1003bd10 f i observer_proxy.obj
 0001:0003ad50       ??_Gobserver_proxy@internal@tbb@@AAEPAXI@Z 1003bd50 f i observer_proxy.obj
 0001:0003ad90       ?begin@?$aligned_space@Vspin_rw_mutex_v3@tbb@@$00@tbb@@QBEPAVspin_rw_mutex_v3@2@XZ 1003bd90 f i observer_proxy.obj
 0001:0003adc0       ?fetch_and_store@?$atomic_traits@$00$01@internal@tbb@@SACPCXC@Z 1003bdc0 f i observer_proxy.obj
 0001:0003ade0       ?initialize@task_arena@interface7@tbb@@QAEXXZ 1003bde0 f i observer_proxy.obj
 0001:0003ae20       ?mark_initialized@task_arena@interface7@tbb@@AAEXXZ 1003be20 f i observer_proxy.obj
 0001:0003aeb0       ?mutex@observer_list@internal@tbb@@QAEAAVspin_rw_mutex_v3@3@XZ 1003beb0 f i observer_proxy.obj
 0001:0003aef0       ?remove_ref_fast@observer_list@internal@tbb@@CAXAAPAVobserver_proxy@23@@Z 1003bef0 f i observer_proxy.obj
 0001:0003af50       ?internal_create@global_control@interface9@tbb@@AAEXXZ 1003bf50 f   tbb_main.obj
 0001:0003b0b0       ?internal_destroy@global_control@interface9@tbb@@AAEXXZ 1003c0b0 f   tbb_main.obj
 0001:0003b310       ?active_value@global_control@interface9@tbb@@CAIH@Z 1003c310 f   tbb_main.obj
 0001:0003b3c0       ?DoOneTimeInitializations@internal@tbb@@YAXXZ 1003c3c0 f   tbb_main.obj
 0001:0003b490       ?ITT_DoUnsafeOneTimeInitialization@internal@tbb@@YAXXZ 1003c490 f   tbb_main.obj
 0001:0003b510       ?add_ref@__TBB_InitOnce@internal@tbb@@SAXXZ 1003c510 f   tbb_main.obj
 0001:0003b530       ?remove_ref@__TBB_InitOnce@internal@tbb@@SAXXZ 1003c530 f   tbb_main.obj
 0001:0003b590       ?itt_set_sync_name_v3@internal@tbb@@YAXPAXPB_W@Z 1003c590 f   tbb_main.obj
 0001:0003b5e0       ?call_itt_notify_v5@internal@tbb@@YAXHPAX@Z 1003c5e0 f   tbb_main.obj
 0001:0003b6b0       ?itt_store_pointer_with_release_v3@internal@tbb@@YAXPAX0@Z 1003c6b0 f   tbb_main.obj
 0001:0003b6f0       ?itt_load_pointer_with_acquire_v3@internal@tbb@@YAPAXPBX@Z 1003c6f0 f   tbb_main.obj
 0001:0003b740       ?itt_load_pointer_v3@internal@tbb@@YAPAXPBX@Z 1003c740 f   tbb_main.obj
 0001:0003b760       ?app_parallelism_limit@market@internal@tbb@@SAIXZ 1003c760 f   tbb_main.obj
 0001:0003b780       _ITT_DoOneTimeInitialization 1003c780 f   tbb_main.obj
 0001:0003b7a0       _DllMain@12                1003c7a0 f   tbb_main.obj
 0001:0003b810       ??$__TBB_load_with_acquire@PAX@internal@tbb@@YAPAXADSAX@Z 1003c810 f i tbb_main.obj
 0001:0003b830       ??$__TBB_store_with_release@PAXPAX@internal@tbb@@YAXACRAXPAX@Z 1003c830 f i tbb_main.obj
 0001:0003b850       ??$min@I@internal@tbb@@YAIABI0@Z 1003c850 f i tbb_main.obj
 0001:0003b880       ??$suppress_unused_warning@$$BY0HM@D@internal@tbb@@YAXAAY0HM@$$CBD@Z 1003c880 f i tbb_main.obj
 0001:0003b890       ??$suppress_unused_warning@PAXPB_W@internal@tbb@@YAXABQAXABQB_W@Z 1003c890 f i tbb_main.obj
 0001:0003b8a0       ??$to_bits@PAVglobal_control@interface9@tbb@@@?$atomic_impl@PAVglobal_control@interface9@tbb@@@internal@tbb@@CAHPAVglobal_control@interface9@2@@Z 1003c8a0 f i tbb_main.obj
 0001:0003b8d0       ??$to_bits_ref@PAVglobal_control@interface9@tbb@@@?$atomic_impl@PAVglobal_control@interface9@tbb@@@internal@tbb@@CAAAHAAPAVglobal_control@interface9@2@@Z 1003c8d0 f i tbb_main.obj
 0001:0003b900       ??$to_bits_ref@SAVglobal_control@interface9@tbb@@@?$atomic_impl@PAVglobal_control@interface9@tbb@@@internal@tbb@@CAAAHADSAVglobal_control@interface9@2@@Z 1003c900 f i tbb_main.obj
 0001:0003b930       ??$to_value@PAVglobal_control@interface9@tbb@@@?$atomic_impl@PAVglobal_control@interface9@tbb@@@internal@tbb@@CAPAVglobal_control@interface9@2@H@Z 1003c930 f i tbb_main.obj
 0001:0003b9a0       ??0?$converter@PAVglobal_control@interface9@tbb@@@?$atomic_impl@PAVglobal_control@interface9@tbb@@@internal@tbb@@QAE@PAVglobal_control@interface9@3@@Z 1003c9a0 f i tbb_main.obj
 0001:0003b9c0       ??0?$converter@PAVglobal_control@interface9@tbb@@@?$atomic_impl@PAVglobal_control@interface9@tbb@@@internal@tbb@@QAE@XZ 1003c9c0 f i tbb_main.obj
 0001:0003b9e0       ??0?$padded@Vcontrol_storage@internal@tbb@@$0IA@@internal@tbb@@QAE@XZ 1003c9e0 f i tbb_main.obj
 0001:0003ba10       ??0?$padded_base@Vcontrol_storage@internal@tbb@@$0IA@$0BA@@internal@tbb@@QAE@XZ 1003ca10 f i tbb_main.obj
 0001:0003ba40       ??0?$ptr_converter@PAPAVglobal_control@interface9@tbb@@@?$atomic_impl@PAVglobal_control@interface9@tbb@@@internal@tbb@@QAE@PAPAVglobal_control@interface9@3@@Z 1003ca40 f i tbb_main.obj
 0001:0003ba60       ??0?$ptr_converter@PDSAVglobal_control@interface9@tbb@@@?$atomic_impl@PAVglobal_control@interface9@tbb@@@internal@tbb@@QAE@PDSAVglobal_control@interface9@3@@Z 1003ca60 f i tbb_main.obj
 0001:0003ba80       ??0allowed_parallelism_control@internal@tbb@@QAE@XZ 1003ca80 f i tbb_main.obj
 0001:0003bab0       ??0control_storage@internal@tbb@@QAE@XZ 1003cab0 f i tbb_main.obj
 0001:0003baf0       ??0stack_size_control@internal@tbb@@QAE@XZ 1003caf0 f i tbb_main.obj
 0001:0003bb20       ??4?$atomic@PAVglobal_control@interface9@tbb@@@tbb@@QAEPAVglobal_control@interface9@1@PAV231@@Z 1003cb20 f i tbb_main.obj
 0001:0003bb50       ??B?$atomic_impl@PAVglobal_control@interface9@tbb@@@internal@tbb@@QDEPAVglobal_control@interface9@2@XZ 1003cb50 f i tbb_main.obj
 0001:0003bb90       ??C?$atomic@PAVglobal_control@interface9@tbb@@@tbb@@QBEPAVglobal_control@interface9@1@XZ 1003cb90 f i tbb_main.obj
 0001:0003bbc0       ?active_value@allowed_parallelism_control@internal@tbb@@EBEIXZ 1003cbc0 f i tbb_main.obj
 0001:0003bc50       ?active_value@control_storage@internal@tbb@@MBEIXZ 1003cc50 f i tbb_main.obj
 0001:0003bcb0       ?active_value_if_present@allowed_parallelism_control@internal@tbb@@QBEIXZ 1003ccb0 f i tbb_main.obj
 0001:0003bd00       ?apply_active@allowed_parallelism_control@internal@tbb@@EBEXXZ 1003cd00 f i tbb_main.obj
 0001:0003bd60       ?apply_active@control_storage@internal@tbb@@MBEXXZ 1003cd60 f i tbb_main.obj
 0001:0003bd80       ?apply_active@stack_size_control@internal@tbb@@EBEXXZ 1003cd80 f i tbb_main.obj
 0001:0003bda0       ?default_value@allowed_parallelism_control@internal@tbb@@EBEIXZ 1003cda0 f i tbb_main.obj
 0001:0003bdf0       ?default_value@stack_size_control@internal@tbb@@EBEIXZ 1003cdf0 f i tbb_main.obj
 0001:0003be10       ?is_first_arg_preferred@allowed_parallelism_control@internal@tbb@@EBE_NII@Z 1003ce10 f i tbb_main.obj
 0001:0003be50       ?is_first_arg_preferred@control_storage@internal@tbb@@MBE_NII@Z 1003ce50 f i tbb_main.obj
 0001:0003be90       ?load_with_acquire@?$machine_load_store@PAX$03@internal@tbb@@SAPAXADSAX@Z 1003ce90 f i tbb_main.obj
 0001:0003beb0       ?lock@__TBB_InitOnce@internal@tbb@@SAXXZ 1003ceb0 f i tbb_main.obj
 0001:0003bed0       ?max_num_workers@market@internal@tbb@@SAIXZ 1003ced0 f i tbb_main.obj
 0001:0003bf70       ?store_with_release@?$atomic_impl@PAVglobal_control@interface9@tbb@@@internal@tbb@@IAEPAVglobal_control@interface9@3@PAV453@@Z 1003cf70 f i tbb_main.obj
 0001:0003bfc0       ?store_with_release@?$machine_load_store@PAX$03@internal@tbb@@SAXACRAXPAX@Z 1003cfc0 f i tbb_main.obj
 0001:0003bfd0       ?terminate_auto_initialized_scheduler@governor@internal@tbb@@SAXXZ 1003cfd0 f i tbb_main.obj
 0001:0003bff0       ?unlock@__TBB_InitOnce@internal@tbb@@SAXXZ 1003cff0 f i tbb_main.obj
 0001:0003c0c0       ?internal_reserve@concurrent_vector_base@internal@tbb@@IAEXIII@Z 1003d0c0 f   concurrent_vector_v2.obj
 0001:0003c1c0       ?internal_capacity@concurrent_vector_base@internal@tbb@@IBEIXZ 1003d1c0 f   concurrent_vector_v2.obj
 0001:0003c200       ?internal_grow_to_at_least@concurrent_vector_base@internal@tbb@@IAEXIIP6AXPAXI@Z@Z 1003d200 f   concurrent_vector_v2.obj
 0001:0003c280       ?internal_grow@concurrent_vector_base@internal@tbb@@IAEXIIIP6AXPAXI@Z@Z 1003d280 f   concurrent_vector_v2.obj
 0001:0003c470       ?internal_grow_by@concurrent_vector_base@internal@tbb@@IAEIIIP6AXPAXI@Z@Z 1003d470 f   concurrent_vector_v2.obj
 0001:0003c4d0       ?internal_push_back@concurrent_vector_base@internal@tbb@@IAEPAXIAAI@Z 1003d4d0 f   concurrent_vector_v2.obj
 0001:0003c680       ?internal_clear@concurrent_vector_base@internal@tbb@@IAEXP6AXPAXI@Z_N@Z 1003d680 f   concurrent_vector_v2.obj
 0001:0003c860       ?internal_copy@concurrent_vector_base@internal@tbb@@IAEXABV123@IP6AXPAXPBXI@Z@Z 1003d860 f   concurrent_vector_v2.obj
 0001:0003c9c0       ?internal_assign@concurrent_vector_base@internal@tbb@@IAEXABV123@IP6AXPAXI@ZP6AX1PBXI@Z4@Z 1003d9c0 f   concurrent_vector_v2.obj
 0001:0003cc50       ?extend_segment@helper@concurrent_vector_base@internal@tbb@@CAXAAV234@@Z 1003dc50 f   concurrent_vector_v2.obj
 0001:0003cd80       ??$compare_and_swap@$0A@@?$atomic_impl@PAUsegment_t@concurrent_vector_base@internal@tbb@@@internal@tbb@@QAEPAUsegment_t@concurrent_vector_base@12@PAU3412@0@Z 1003dd80 f i concurrent_vector_v2.obj
 0001:0003cdd0       ??$spin_wait_while_eq@PAXPAX@internal@tbb@@YAXADSAXPAX@Z 1003ddd0 f i concurrent_vector_v2.obj
 0001:0003ce50       ??$to_bits@PAUsegment_t@concurrent_vector_base@internal@tbb@@@?$atomic_impl@PAUsegment_t@concurrent_vector_base@internal@tbb@@@internal@tbb@@CAHPAUsegment_t@concurrent_vector_base@12@@Z 1003de50 f i concurrent_vector_v2.obj
 0001:0003ce80       ??$to_bits_ref@PAUsegment_t@concurrent_vector_base@internal@tbb@@@?$atomic_impl@PAUsegment_t@concurrent_vector_base@internal@tbb@@@internal@tbb@@CAAAHAAPAUsegment_t@concurrent_vector_base@12@@Z 1003de80 f i concurrent_vector_v2.obj
 0001:0003ceb0       ??$to_bits_ref@SAUsegment_t@concurrent_vector_base@internal@tbb@@@?$atomic_impl@PAUsegment_t@concurrent_vector_base@internal@tbb@@@internal@tbb@@CAAAHADSAUsegment_t@concurrent_vector_base@12@@Z 1003deb0 f i concurrent_vector_v2.obj
 0001:0003cee0       ??$to_value@PAUsegment_t@concurrent_vector_base@internal@tbb@@@?$atomic_impl@PAUsegment_t@concurrent_vector_base@internal@tbb@@@internal@tbb@@CAPAUsegment_t@concurrent_vector_base@12@H@Z 1003dee0 f i concurrent_vector_v2.obj
 0001:0003cf50       ??0?$converter@PAUsegment_t@concurrent_vector_base@internal@tbb@@@?$atomic_impl@PAUsegment_t@concurrent_vector_base@internal@tbb@@@internal@tbb@@QAE@PAUsegment_t@concurrent_vector_base@23@@Z 1003df50 f i concurrent_vector_v2.obj
 0001:0003cf70       ??0?$converter@PAUsegment_t@concurrent_vector_base@internal@tbb@@@?$atomic_impl@PAUsegment_t@concurrent_vector_base@internal@tbb@@@internal@tbb@@QAE@XZ 1003df70 f i concurrent_vector_v2.obj
 0001:0003cf90       ??0?$ptr_converter@PAPAUsegment_t@concurrent_vector_base@internal@tbb@@@?$atomic_impl@PAUsegment_t@concurrent_vector_base@internal@tbb@@@internal@tbb@@QAE@PAPAUsegment_t@concurrent_vector_base@23@@Z 1003df90 f i concurrent_vector_v2.obj
 0001:0003cfb0       ??0?$ptr_converter@PDSAUsegment_t@concurrent_vector_base@internal@tbb@@@?$atomic_impl@PAUsegment_t@concurrent_vector_base@internal@tbb@@@internal@tbb@@QAE@PDSAUsegment_t@concurrent_vector_base@23@@Z 1003dfb0 f i concurrent_vector_v2.obj
 0001:0003cfd0       ??4?$atomic@PAUsegment_t@concurrent_vector_base@internal@tbb@@@tbb@@QAEPAUsegment_t@concurrent_vector_base@internal@1@PAU2341@@Z 1003dfd0 f i concurrent_vector_v2.obj
 0001:0003d000       ??4segment_t@concurrent_vector_base@internal@tbb@@QAEAAU0123@ABU0123@@Z 1003e000 f i concurrent_vector_v2.obj
 0001:0003d030       ??B?$atomic_impl@PAUsegment_t@concurrent_vector_base@internal@tbb@@@internal@tbb@@QDEPAUsegment_t@concurrent_vector_base@12@XZ 1003e030 f i concurrent_vector_v2.obj
 0001:0003d070       ?compare_and_swap@?$atomic_impl@PAUsegment_t@concurrent_vector_base@internal@tbb@@@internal@tbb@@QAEPAUsegment_t@concurrent_vector_base@23@PAU4523@0@Z 1003e070 f i concurrent_vector_v2.obj
 0001:0003d0a0       ?extend_segment_if_necessary@helper@concurrent_vector_base@internal@tbb@@SAXAAV234@I@Z 1003e0a0 f i concurrent_vector_v2.obj
 0001:0003d0f0       ?find_segment_end@helper@concurrent_vector_base@internal@tbb@@SAKABV234@@Z 1003e0f0 f i concurrent_vector_v2.obj
 0001:0003d190       ?segment_base@concurrent_vector_base@internal@tbb@@KAKK@Z 1003e190 f i concurrent_vector_v2.obj
 0001:0003d1b0       ?segment_index_of@concurrent_vector_base@internal@tbb@@KAKI@Z 1003e1b0 f i concurrent_vector_v2.obj
 0001:0003d1f0       ?segment_size@concurrent_vector_base@internal@tbb@@KAKK@Z 1003e1f0 f i concurrent_vector_v2.obj
 0001:0003d280       ?store_with_release@?$atomic_impl@PAUsegment_t@concurrent_vector_base@internal@tbb@@@internal@tbb@@IAEPAUsegment_t@concurrent_vector_base@23@PAU4523@@Z 1003e280 f i concurrent_vector_v2.obj
 0001:0003d2d0       ??0concurrent_queue_base@internal@tbb@@IAE@I@Z 1003e2d0 f   concurrent_queue_v2.obj
 0001:0003d4d0       ??1concurrent_queue_base@internal@tbb@@MAE@XZ 1003e4d0 f   concurrent_queue_v2.obj
 0001:0003d5e0       ?internal_push@concurrent_queue_base@internal@tbb@@IAEXPBX@Z 1003e5e0 f   concurrent_queue_v2.obj
 0001:0003d6b0       ?internal_pop@concurrent_queue_base@internal@tbb@@IAEXPAX@Z 1003e6b0 f   concurrent_queue_v2.obj
 0001:0003d720       ?internal_push_if_not_full@concurrent_queue_base@internal@tbb@@IAE_NPBX@Z 1003e720 f   concurrent_queue_v2.obj
 0001:0003d810       ?internal_pop_if_present@concurrent_queue_base@internal@tbb@@IAE_NPAX@Z 1003e810 f   concurrent_queue_v2.obj
 0001:0003d8f0       ?internal_size@concurrent_queue_base@internal@tbb@@IBEHXZ 1003e8f0 f   concurrent_queue_v2.obj
 0001:0003d960       ?internal_set_capacity@concurrent_queue_base@internal@tbb@@IAEXHI@Z 1003e960 f   concurrent_queue_v2.obj
 0001:0003d9a0       ??0concurrent_queue_iterator_base@internal@tbb@@IAE@ABVconcurrent_queue_base@12@@Z 1003e9a0 f   concurrent_queue_v2.obj
 0001:0003da60       ?assign@concurrent_queue_iterator_base@internal@tbb@@IAEXABV123@@Z 1003ea60 f   concurrent_queue_v2.obj
 0001:0003db10       ?advance@concurrent_queue_iterator_base@internal@tbb@@IAEXXZ 1003eb10 f   concurrent_queue_v2.obj
 0001:0003dc20       ??1concurrent_queue_iterator_base@internal@tbb@@IAE@XZ 1003ec20 f   concurrent_queue_v2.obj
 0001:0003dcc0       ?push@micro_queue@internal@tbb@@QAEXPBXIAAVconcurrent_queue_base@23@@Z 1003ecc0 f   concurrent_queue_v2.obj
 0001:0003dea0       ?pop@micro_queue@internal@tbb@@QAE_NPAXIAAVconcurrent_queue_base@23@@Z 1003eea0 f   concurrent_queue_v2.obj
 0001:0003e030       ??$to_bits@PAUpage@concurrent_queue_base@internal@tbb@@@?$atomic_impl@PAUpage@concurrent_queue_base@internal@tbb@@@internal@tbb@@CAHPAUpage@concurrent_queue_base@12@@Z 1003f030 f i concurrent_queue_v2.obj
 0001:0003e060       ??$to_bits_ref@PAUpage@concurrent_queue_base@internal@tbb@@@?$atomic_impl@PAUpage@concurrent_queue_base@internal@tbb@@@internal@tbb@@CAAAHAAPAUpage@concurrent_queue_base@12@@Z 1003f060 f i concurrent_queue_v2.obj
 0001:0003e090       ??$to_bits_ref@SAUpage@concurrent_queue_base@internal@tbb@@@?$atomic_impl@PAUpage@concurrent_queue_base@internal@tbb@@@internal@tbb@@CAAAHADSAUpage@concurrent_queue_base@12@@Z 1003f090 f i concurrent_queue_v2.obj
 0001:0003e0c0       ??$to_value@PAUpage@concurrent_queue_base@internal@tbb@@@?$atomic_impl@PAUpage@concurrent_queue_base@internal@tbb@@@internal@tbb@@CAPAUpage@concurrent_queue_base@12@H@Z 1003f0c0 f i concurrent_queue_v2.obj
 0001:0003e130       ??0?$converter@PAUpage@concurrent_queue_base@internal@tbb@@@?$atomic_impl@PAUpage@concurrent_queue_base@internal@tbb@@@internal@tbb@@QAE@PAUpage@concurrent_queue_base@23@@Z 1003f130 f i concurrent_queue_v2.obj
 0001:0003e150       ??0?$converter@PAUpage@concurrent_queue_base@internal@tbb@@@?$atomic_impl@PAUpage@concurrent_queue_base@internal@tbb@@@internal@tbb@@QAE@XZ 1003f150 f i concurrent_queue_v2.obj
 0001:0003e170       ??0?$ptr_converter@PAPAUpage@concurrent_queue_base@internal@tbb@@@?$atomic_impl@PAUpage@concurrent_queue_base@internal@tbb@@@internal@tbb@@QAE@PAPAUpage@concurrent_queue_base@23@@Z 1003f170 f i concurrent_queue_v2.obj
 0001:0003e190       ??0?$ptr_converter@PDSAUpage@concurrent_queue_base@internal@tbb@@@?$atomic_impl@PAUpage@concurrent_queue_base@internal@tbb@@@internal@tbb@@QAE@PDSAUpage@concurrent_queue_base@23@@Z 1003f190 f i concurrent_queue_v2.obj
 0001:0003e1b0       ??0concurrent_queue_iterator_rep@internal@tbb@@QAE@ABVconcurrent_queue_base@12@@Z 1003f1b0 f i concurrent_queue_v2.obj
 0001:0003e240       ??0pop_finalizer@micro_queue@internal@tbb@@QAE@AAU123@IPAUpage@concurrent_queue_base@23@@Z 1003f240 f i concurrent_queue_v2.obj
 0001:0003e290       ??0push_finalizer@micro_queue@internal@tbb@@QAE@AAU123@I@Z 1003f290 f i concurrent_queue_v2.obj
 0001:0003e2d0       ??1pop_finalizer@micro_queue@internal@tbb@@QAE@XZ 1003f2d0 f i concurrent_queue_v2.obj
 0001:0003e3e0       ??1push_finalizer@micro_queue@internal@tbb@@QAE@XZ 1003f3e0 f i concurrent_queue_v2.obj
 0001:0003e440       ??4?$atomic@PAUpage@concurrent_queue_base@internal@tbb@@@tbb@@QAEPAUpage@concurrent_queue_base@internal@1@PAU2341@@Z 1003f440 f i concurrent_queue_v2.obj
 0001:0003e470       ??B?$atomic_impl@PAUpage@concurrent_queue_base@internal@tbb@@@internal@tbb@@QDEPAUpage@concurrent_queue_base@12@XZ 1003f470 f i concurrent_queue_v2.obj
 0001:0003e4b0       ??_Gconcurrent_queue_base@internal@tbb@@MAEPAXI@Z 1003f4b0 f i concurrent_queue_v2.obj
 0001:0003e4b0       ??_Econcurrent_queue_base@internal@tbb@@MAEPAXI@Z 1003f4b0 f i concurrent_queue_v2.obj
 0001:0003e4f0       ?choose@concurrent_queue_iterator_rep@internal@tbb@@QAEPAXI@Z 1003f4f0 f i concurrent_queue_v2.obj
 0001:0003e5b0       ?store_with_release@?$atomic_impl@PAUpage@concurrent_queue_base@internal@tbb@@@internal@tbb@@IAEPAUpage@concurrent_queue_base@23@PAU4523@@Z 1003f5b0 f i concurrent_queue_v2.obj
 0001:0003e600       ?internal_itt_releasing@spin_rw_mutex@tbb@@CAXPAV12@@Z 1003f600 f   spin_rw_mutex_v2.obj
 0001:0003e650       ?internal_acquire_writer@spin_rw_mutex@tbb@@CA_NPAV12@@Z 1003f650 f   spin_rw_mutex_v2.obj
 0001:0003e770       ?internal_release_writer@spin_rw_mutex@tbb@@CAXPAV12@@Z 1003f770 f   spin_rw_mutex_v2.obj
 0001:0003e7d0       ?internal_acquire_reader@spin_rw_mutex@tbb@@CAXPAV12@@Z 1003f7d0 f   spin_rw_mutex_v2.obj
 0001:0003e900       ?internal_upgrade@spin_rw_mutex@tbb@@CA_NPAV12@@Z 1003f900 f   spin_rw_mutex_v2.obj
 0001:0003eac0       ?internal_downgrade@spin_rw_mutex@tbb@@CAXPAV12@@Z 1003fac0 f   spin_rw_mutex_v2.obj
 0001:0003eb70       ?internal_release_reader@spin_rw_mutex@tbb@@CAXPAV12@@Z 1003fb70 f   spin_rw_mutex_v2.obj
 0001:0003ec00       ?internal_try_acquire_writer@spin_rw_mutex@tbb@@CA_NPAV12@@Z 1003fc00 f   spin_rw_mutex_v2.obj
 0001:0003ec70       ?internal_try_acquire_reader@spin_rw_mutex@tbb@@CA_NPAV12@@Z 1003fc70 f   spin_rw_mutex_v2.obj
 0001:0003edb0       ??$as_atomic@$$CCI@internal@tbb@@YAAAU?$atomic@$$CCI@1@ACI@Z 1003fdb0 f i spin_rw_mutex_v2.obj
 0001:0003edc0       ??$compare_and_swap@$0A@@?$atomic_impl@$$CCI@internal@tbb@@QAE?CIII@Z 1003fdc0 f i spin_rw_mutex_v2.obj
 0001:0003ee10       ??$to_bits@I@?$atomic_impl@$$CCI@internal@tbb@@CAHI@Z 1003fe10 f i spin_rw_mutex_v2.obj
 0001:0003ee40       ??$to_value@$$CCI@?$atomic_impl@$$CCI@internal@tbb@@CA?CIH@Z 1003fe40 f i spin_rw_mutex_v2.obj
 0001:0003eeb0       ??0?$converter@$$CCI@?$atomic_impl@$$CCI@internal@tbb@@QAE@XZ 1003feb0 f i spin_rw_mutex_v2.obj
 0001:0003eed0       ??0?$converter@I@?$atomic_impl@$$CCI@internal@tbb@@QAE@I@Z 1003fed0 f i spin_rw_mutex_v2.obj
 0001:0003eef0       ?compare_and_swap@?$atomic_impl@$$CCI@internal@tbb@@QAE?CIII@Z 1003fef0 f i spin_rw_mutex_v2.obj
 0001:0003ef20       ?destroy@task@tbb@@QAEXAAV12@@Z 1003ff20 f   task_v2.obj
 0001:0003ef50       ___TBB_machine_fetchadd1   1003ff50     atomic_support.obj
 0001:0003ef60       ___TBB_machine_fetchstore1 1003ff60     atomic_support.obj
 0001:0003ef6c       ___TBB_machine_cmpswp1     1003ff6c     atomic_support.obj
 0001:0003ef80       ___TBB_machine_fetchadd2   1003ff80     atomic_support.obj
 0001:0003ef90       ___TBB_machine_fetchstore2 1003ff90     atomic_support.obj
 0001:0003efa0       ___TBB_machine_cmpswp2     1003ffa0     atomic_support.obj
 0001:0003efb4       ___TBB_machine_fetchadd4   1003ffb4     atomic_support.obj
 0001:0003efc4       ___TBB_machine_fetchstore4 1003ffc4     atomic_support.obj
 0001:0003efd0       ___TBB_machine_cmpswp4     1003ffd0     atomic_support.obj
 0001:0003efe4       ___TBB_machine_fetchadd8   1003ffe4     atomic_support.obj
 0001:0003f004       ___TBB_machine_fetchstore8 10040004     atomic_support.obj
 0001:0003f020       ___TBB_machine_cmpswp8     10040020     atomic_support.obj
 0001:0003f040       ___TBB_machine_load8       10040040     atomic_support.obj
 0001:0003f074       ___TBB_machine_store8      10040074     atomic_support.obj
 0001:0003f090       ___TBB_machine_try_lock_elided 10040090     itsx.obj
 0001:0003f0a0       ___TBB_machine_unlock_elided 100400a0     itsx.obj
 0001:0003f0ac       ___TBB_machine_begin_transaction 100400ac     itsx.obj
 0001:0003f0b8       ___TBB_machine_end_transaction 100400b8     itsx.obj
 0001:0003f0bc       ___TBB_machine_transaction_conflict_abort 100400bc     itsx.obj
 0001:0003f0c0       ___TBB_machine_is_in_transaction 100400c0     itsx.obj
 0001:0003f0d0       ___TBB_machine_trylockbyte 100400d0     lock_byte.obj
 0001:0003f0eb       _SwitchToThread@0          100400eb f   kernel32:KERNEL32.dll
 0001:0003f0f1       _CloseHandle@4             100400f1 f   kernel32:KERNEL32.dll
 0001:0003f0f7       _SetEvent@4                100400f7 f   kernel32:KERNEL32.dll
 0001:0003f0fd       _WaitForSingleObjectEx@12  100400fd f   kernel32:KERNEL32.dll
 0001:0003f103       _GetLastError@0            10040103 f   kernel32:KERNEL32.dll
 0001:0003f109       _SetErrorMode@4            10040109 f   kernel32:KERNEL32.dll
 0001:0003f10f       _FreeLibrary@4             1004010f f   kernel32:KERNEL32.dll
 0001:0003f115       _GetModuleFileNameA@12     10040115 f   kernel32:KERNEL32.dll
 0001:0003f11b       _GetModuleHandleExA@12     1004011b f   kernel32:KERNEL32.dll
 0001:0003f121       _GetProcAddress@8          10040121 f   kernel32:KERNEL32.dll
 0001:0003f127       _LoadLibraryA@4            10040127 f   kernel32:KERNEL32.dll
 0001:0003f12d       _GetEnvironmentVariableA@12 1004012d f   kernel32:KERNEL32.dll
 0001:0003f133       _InitializeCriticalSection@4 10040133 f   kernel32:KERNEL32.dll
 0001:0003f139       _EnterCriticalSection@4    10040139 f   kernel32:KERNEL32.dll
 0001:0003f13f       _LeaveCriticalSection@4    1004013f f   kernel32:KERNEL32.dll
 0001:0003f145       _GetCurrentThreadId@0      10040145 f   kernel32:KERNEL32.dll
 0001:0003f14b       _lstrcmpA@8                1004014b f   kernel32:KERNEL32.dll
 0001:0003f151       _ReleaseSemaphore@12       10040151 f   kernel32:KERNEL32.dll
 0001:0003f157       _CreateSemaphoreW@16       10040157 f   kernel32:KERNEL32.dll
 0001:0003f15d       _TlsAlloc@0                1004015d f   kernel32:KERNEL32.dll
 0001:0003f163       _TlsGetValue@4             10040163 f   kernel32:KERNEL32.dll
 0001:0003f169       _TlsSetValue@8             10040169 f   kernel32:KERNEL32.dll
 0001:0003f16f       _TlsFree@4                 1004016f f   kernel32:KERNEL32.dll
 0001:0003f175       _InitializeCriticalSectionAndSpinCount@8 10040175 f   kernel32:KERNEL32.dll
 0001:0003f17b       _TryEnterCriticalSection@4 1004017b f   kernel32:KERNEL32.dll
 0001:0003f181       _DeleteCriticalSection@4   10040181 f   kernel32:KERNEL32.dll
 0001:0003f187       _SetLastError@4            10040187 f   kernel32:KERNEL32.dll
 0001:0003f18d       _QueryPerformanceFrequency@4 1004018d f   kernel32:KERNEL32.dll
 0001:0003f193       _ResetEvent@4              10040193 f   kernel32:KERNEL32.dll
 0001:0003f199       _CreateEventA@16           10040199 f   kernel32:KERNEL32.dll
 0001:0003f19f       _QueryPerformanceCounter@4 1004019f f   kernel32:KERNEL32.dll
 0001:0003f1a5       _Sleep@4                   100401a5 f   kernel32:KERNEL32.dll
 0001:0003f1ab       _ResumeThread@4            100401ab f   kernel32:KERNEL32.dll
 0001:0003f1b1       _FormatMessageA@28         100401b1 f   kernel32:KERNEL32.dll
 0001:0003f1b7       _GetCurrentProcess@0       100401b7 f   kernel32:KERNEL32.dll
 0001:0003f1bd       _GetCurrentThread@0        100401bd f   kernel32:KERNEL32.dll
 0001:0003f1c3       _GetNativeSystemInfo@4     100401c3 f   kernel32:KERNEL32.dll
 0001:0003f1c9       _GetProcessAffinityMask@12 100401c9 f   kernel32:KERNEL32.dll
 0001:0003f1cf       _CreateEventW@16           100401cf f   kernel32:KERNEL32.dll
 0001:0003f1d5       ?_Debug_message@std@@YAXPB_W0I@Z 100401d5 f   msvcprtd:MSVCP140D.dll
 0001:0003f1db       ?__ExceptionPtrCreate@@YAXPAX@Z 100401db f   msvcprtd:MSVCP140D.dll
 0001:0003f1e1       ?__ExceptionPtrDestroy@@YAXPAX@Z 100401e1 f   msvcprtd:MSVCP140D.dll
 0001:0003f1e7       ?__ExceptionPtrCopy@@YAXPAXPBX@Z 100401e7 f   msvcprtd:MSVCP140D.dll
 0001:0003f1ed       ?__ExceptionPtrCurrentException@@YAXPAX@Z 100401ed f   msvcprtd:MSVCP140D.dll
 0001:0003f1f3       ?__ExceptionPtrCopyException@@YAXPAXPBX1@Z 100401f3 f   msvcprtd:MSVCP140D.dll
 0001:0003f1f9       ??0_Lockit@std@@QAE@H@Z    100401f9 f   msvcprtd:MSVCP140D.dll
 0001:0003f1ff       ??1_Lockit@std@@QAE@XZ     100401ff f   msvcprtd:MSVCP140D.dll
 0001:0003f205       ?__ExceptionPtrRethrow@@YAXPBX@Z 10040205 f   msvcprtd:MSVCP140D.dll
 0001:0003f20b       ?_Xlength_error@std@@YAXPBD@Z 1004020b f   msvcprtd:MSVCP140D.dll
 0001:0003f220       @_RTC_AllocaHelper@12      10040220 f   MSVCRTD:_stack_.obj
 0001:0003f260       @_RTC_CheckStackVars2@12   10040260 f   MSVCRTD:_stack_.obj
 0001:0003f340       @_RTC_CheckStackVars@8     10040340 f   MSVCRTD:_stack_.obj
 0001:0003f3b0       __RTC_CheckEsp             100403b0 f   MSVCRTD:_stack_.obj
 0001:0003f3f0       __CRT_RTC_INIT             100403f0 f   MSVCRTD:_init_.obj
 0001:0003f400       __CRT_RTC_INITW            10040400 f   MSVCRTD:_init_.obj
 0001:0003f410       __RTC_InitBase             10040410 f   MSVCRTD:_init_.obj
 0001:0003f440       __RTC_Shutdown             10040440 f   MSVCRTD:_init_.obj
 0001:0003f460       ??3@YAXPAXI@Z              10040460 f   MSVCRTD:delete_scalar_size.obj
 0001:0003f480       @__security_check_cookie@4 10040480 f   MSVCRTD:_secchk_.obj
 0001:0003f4a0       ??1type_info@@UAE@XZ       100404a0 f   MSVCRTD:std_type_info_static.obj
 0001:0003f4c0       ??_Gtype_info@@UAEPAXI@Z   100404c0 f i MSVCRTD:std_type_info_static.obj
 0001:0003f4c0       ??_Etype_info@@UAEPAXI@Z   100404c0 f i MSVCRTD:std_type_info_static.obj
 0001:0003f4f0       ??_M@YGXPAXIHP6EX0@Z@Z     100404f0 f   MSVCRTD:ehvecdtr.obj
 0001:0003f510       ??_M@YGXPAXIIP6EX0@Z@Z     10040510 f   MSVCRTD:ehvecdtr.obj
 0001:0003f610       ?__ArrayUnwind@@YGXPAXIIP6EX0@Z@Z 10040610 f   MSVCRTD:ehvecdtr.obj
 0001:0003f6c0       ___raise_securityfailure   100406c0 f   MSVCRTD:gs_report.obj
 0001:0003f6f0       ___report_gsfailure        100406f0 f   MSVCRTD:gs_report.obj
 0001:0003f800       ___report_rangecheckfailure 10040800 f   MSVCRTD:gs_report.obj
 0001:0003f810       ___report_securityfailure  10040810 f   MSVCRTD:gs_report.obj
 0001:0003f8f0       ___report_securityfailureEx 100408f0 f   MSVCRTD:gs_report.obj
 0001:0003fa20       ??2@YAPAXI@Z               10040a20 f   MSVCRTD:new_scalar.obj
 0001:0003fa70       __ftoui3                   10040a70 f   MSVCRTD:_ftol3_.obj
 0001:0003fa7f       __ftoul3                   10040a7f f   MSVCRTD:_ftol3_.obj
 0001:0003fa8e       __ftol3                    10040a8e f   MSVCRTD:_ftol3_.obj
 0001:0003fa9b       __ftol3_NaN                10040a9b f   MSVCRTD:_ftol3_.obj
 0001:0003fab3       __ftol3_work               10040ab3 f   MSVCRTD:_ftol3_.obj
 0001:0003fb39       __ftol3_common             10040b39 f   MSVCRTD:_ftol3_.obj
 0001:0003fbfb       __ftol3_arg_error          10040bfb f   MSVCRTD:_ftol3_.obj
 0001:0003fc0d       __ftol3_except             10040c0d f   MSVCRTD:_ftol3_.obj
 0001:0003fc51       __dtoui3                   10040c51 f   MSVCRTD:_ftol3_.obj
 0001:0003fc60       __dtoul3                   10040c60 f   MSVCRTD:_ftol3_.obj
 0001:0003fc6f       __dtol3                    10040c6f f   MSVCRTD:_ftol3_.obj
 0001:0003fc7c       __dtol3_NaN                10040c7c f   MSVCRTD:_ftol3_.obj
 0001:0003fc99       __dtol3_work               10040c99 f   MSVCRTD:_ftol3_.obj
 0001:0003fd80       __ultod3                   10040d80 f   MSVCRTD:_ftol3_.obj
 0001:0003fdc0       __ltod3                    10040dc0 f   MSVCRTD:_ftol3_.obj
 0001:0003fdf0       __alloca_probe_16          10040df0 f   MSVCRTD:alloca16.obj
 0001:0003fe06       __alloca_probe_8           10040e06     MSVCRTD:alloca16.obj
 0001:0003fe20       ?__scrt_initialize_type_info@@YAXXZ 10040e20 f   MSVCRTD:tncleanup.obj
 0001:0003fe30       ?__scrt_uninitialize_type_info@@YAXXZ 10040e30 f   MSVCRTD:tncleanup.obj
 0001:0003fe50       ??_L@YGXPAXIHP6EX0@Z1@Z    10040e50 f   MSVCRTD:ehvecctr.obj
 0001:0003fe70       ??_L@YGXPAXIIP6EX0@Z1@Z    10040e70 f   MSVCRTD:ehvecctr.obj
 0001:0003ff30       ??_U@YAPAXI@Z              10040f30 f   MSVCRTD:new_array.obj
 0001:0003ff50       ??_V@YAXPAXI@Z             10040f50 f   MSVCRTD:delete_array_size.obj
 0001:0003ff70       ??$__crt_fast_decode_pointer@PAP6AXXZ@@YAPAP6AXXZQAP6AXXZ@Z 10040f70 f i MSVCRTD:utility.obj
 0001:0003ffa0       ??$__crt_fast_encode_pointer@PAP6AXXZ@@YAPAP6AXXZQAP6AXXZ@Z 10040fa0 f i MSVCRTD:utility.obj
 0001:0003ffd0       ?__crt_rotate_pointer_value@@YAIIH@Z 10040fd0 f i MSVCRTD:utility.obj
 0001:0003ffe0       ?configure_argv@__scrt_narrow_argv_policy@@SAHXZ 10040fe0 f i MSVCRTD:utility.obj
 0001:00040090       ?initialize_environment@__scrt_narrow_environment_policy@@SAHXZ 10041090 f i MSVCRTD:utility.obj
 0001:00040110       ___scrt_acquire_startup_lock 10041110 f   MSVCRTD:utility.obj
 0001:00040160       ___scrt_dllmain_after_initialize_c 10041160 f   MSVCRTD:utility.obj
 0001:00040190       ___scrt_dllmain_before_initialize_c 10041190 f   MSVCRTD:utility.obj
 0001:000401b0       ___scrt_dllmain_crt_thread_attach 100411b0 f   MSVCRTD:utility.obj
 0001:000401e0       ___scrt_dllmain_crt_thread_detach 100411e0 f   MSVCRTD:utility.obj
 0001:00040200       ___scrt_dllmain_exception_filter 10041200 f   MSVCRTD:utility.obj
 0001:00040250       ___scrt_dllmain_uninitialize_c 10041250 f   MSVCRTD:utility.obj
 0001:00040280       ___scrt_dllmain_uninitialize_critical 10041280 f   MSVCRTD:utility.obj
 0001:000402a0       ___scrt_initialize_crt     100412a0 f   MSVCRTD:utility.obj
 0001:000402f0       ___scrt_initialize_onexit_tables 100412f0 f   MSVCRTD:utility.obj
 0001:000403d0       ___scrt_is_nonwritable_in_current_image 100413d0 f   MSVCRTD:utility.obj
 0001:00040500       ___scrt_release_startup_lock 10041500 f   MSVCRTD:utility.obj
 0001:00040530       ___scrt_uninitialize_crt   10041530 f   MSVCRTD:utility.obj
 0001:00040570       __onexit                   10041570 f   MSVCRTD:utility.obj
 0001:000405e0       _at_quick_exit             100415e0 f   MSVCRTD:utility.obj
 0001:00040630       _atexit                    10041630 f   MSVCRTD:utility.obj
 0001:00040660       ??3@YAXPAX@Z               10041660 f   MSVCRTD:delete_scalar.obj
 0001:00040b20       __CRT_INIT@12              10041b20 f   MSVCRTD:dll_dllmain.obj
 0001:00040b40       __DllMainCRTStartup@12     10041b40 f   MSVCRTD:dll_dllmain.obj
 0001:00040c00       ?_RTC_AllocaFailure@@YAXPAXPAU_RTC_ALLOCA_NODE@@H@Z 10041c00 f   MSVCRTD:_error_.obj
 0001:00040cf0       ?_RTC_Failure@@YAXPAXH@Z   10041cf0 f   MSVCRTD:_error_.obj
 0001:00040d40       ?_RTC_StackFailure@@YAXPAXPBD@Z 10041d40 f   MSVCRTD:_error_.obj
 0001:00041100       __RTC_UninitUse            10042100 f   MSVCRTD:_error_.obj
 0001:000411b0       __vsprintf_s_l             100421b0 f i MSVCRTD:_error_.obj
 0001:000411e0       _sprintf_s                 100421e0 f i MSVCRTD:_error_.obj
 0001:00041200       ?_RTC_GetErrorFunc@@YAP6AHHPBDH00ZZPBX@Z 10042200 f   MSVCRTD:_userapi_.obj
 0001:00041210       ?_RTC_GetErrorFuncW@@YAP6AHHPB_WH00ZZPBX@Z 10042210 f   MSVCRTD:_userapi_.obj
 0001:00041220       __RTC_GetErrDesc           10042220 f   MSVCRTD:_userapi_.obj
 0001:00041240       __RTC_NumErrors            10042240 f   MSVCRTD:_userapi_.obj
 0001:00041250       __RTC_SetErrorFunc         10042250 f   MSVCRTD:_userapi_.obj
 0001:00041270       __RTC_SetErrorFuncW        10042270 f   MSVCRTD:_userapi_.obj
 0001:00041290       __RTC_SetErrorType         10042290 f   MSVCRTD:_userapi_.obj
 0001:000412c0       __except_handler4          100422c0 f   MSVCRTD:_chandler4gs_.obj
 0001:000412f0       @_guard_check_icall_nop@4  100422f0 f i MSVCRTD:guard_support.obj
 0001:00041300       _ReadNoFence               10042300 f i MSVCRTD:guard_support.obj
 0001:00041320       _ReadPointerNoFence        10042320 f i MSVCRTD:guard_support.obj
 0001:00041340       __guard_icall_checks_enforced 10042340 f i MSVCRTD:guard_support.obj
 0001:00041370       ??0bad_alloc@std@@AAE@QBD@Z 10042370 f i MSVCRTD:throw_bad_alloc.obj
 0001:000413a0       ??0bad_array_new_length@std@@QAE@ABV01@@Z 100423a0 f i MSVCRTD:throw_bad_alloc.obj
 0001:000413d0       ??0bad_array_new_length@std@@QAE@XZ 100423d0 f i MSVCRTD:throw_bad_alloc.obj
 0001:00041400       ??1bad_array_new_length@std@@UAE@XZ 10042400 f i MSVCRTD:throw_bad_alloc.obj
 0001:00041420       ??_Gbad_array_new_length@std@@UAEPAXI@Z 10042420 f i MSVCRTD:throw_bad_alloc.obj
 0001:00041420       ??_Ebad_array_new_length@std@@UAEPAXI@Z 10042420 f i MSVCRTD:throw_bad_alloc.obj
 0001:00041450       ?__scrt_throw_std_bad_alloc@@YAXXZ 10042450 f   MSVCRTD:throw_bad_alloc.obj
 0001:00041470       ?__scrt_throw_std_bad_array_new_length@@YAXXZ 10042470 f   MSVCRTD:throw_bad_alloc.obj
 0001:00041490       __alloca_probe             10042490 f   MSVCRTD:chkstk.obj
 0001:00041490       __chkstk                   10042490 f   MSVCRTD:chkstk.obj
 0001:000414c0       ??_V@YAXPAX@Z              100424c0 f   MSVCRTD:delete_array.obj
 0001:000414e0       ___isa_available_init      100424e0 f   MSVCRTD:_cpu_disp_.obj
 0001:000417c0       __get_startup_argv_mode    100427c0 f   MSVCRTD:argv_mode.obj
 0001:000417d0       ___scrt_is_ucrt_dll_in_use 100427d0 f   MSVCRTD:ucrt_detection.obj
 0001:00041800       ___scrt_fastfail           10042800 f   MSVCRTD:utility_desktop.obj
 0001:00041940       ___scrt_get_show_window_mode 10042940 f   MSVCRTD:utility_desktop.obj
 0001:00041980       ___scrt_initialize_winrt   10042980 f   MSVCRTD:utility_desktop.obj
 0001:00041990       ___scrt_is_managed_app     10042990 f   MSVCRTD:utility_desktop.obj
 0001:00041a20       ___scrt_set_unhandled_exception_filter 10042a20 f   MSVCRTD:utility_desktop.obj
 0001:00041a30       ___scrt_unhandled_exception_filter@4 10042a30 f   MSVCRTD:utility_desktop.obj
 0001:00041a90       __crt_debugger_hook        10042a90 f   MSVCRTD:utility_desktop.obj
 0001:00041b10       ___security_init_cookie    10042b10 f   MSVCRTD:gs_support.obj
 0001:00041b90       ___local_stdio_scanf_options 10042b90 f i MSVCRTD:default_local_stdio_options.obj
 0001:00041ba0       ___scrt_initialize_default_local_stdio_options 10042ba0 f   MSVCRTD:default_local_stdio_options.obj
 0001:00041be0       ___scrt_get_dyn_tls_init_callback 10042be0 f   MSVCRTD:dyn_tls_init.obj
 0001:00041bf0       __RTC_Initialize           10042bf0 f   MSVCRTD:_initsect_.obj
 0001:00041c20       __RTC_Terminate            10042c20 f   MSVCRTD:_initsect_.obj
 0001:000420d0       ?_RTC_GetSrcLine@@YAHPAEPA_WKPAH1K@Z 100430d0 f   MSVCRTD:_pdblkup_.obj
 0001:00042460       __except_handler4_noexcept 10043460 f   MSVCRTD:chandler4_noexcept.obj
 0001:000424a7       __purecall                 100434a7 f   vcruntimed:VCRUNTIME140D.dll
 0001:000424ad       _memset                    100434ad f   vcruntimed:VCRUNTIME140D.dll
 0001:000424b3       __CxxThrowException@8      100434b3 f   vcruntimed:VCRUNTIME140D.dll
 0001:000424b9       ___CxxFrameHandler3        100434b9 f   vcruntimed:VCRUNTIME140D.dll
 0001:000424bf       _strrchr                   100434bf f   vcruntimed:VCRUNTIME140D.dll
 0001:000424c5       ___std_exception_copy      100434c5 f   vcruntimed:VCRUNTIME140D.dll
 0001:000424cb       ___std_exception_destroy   100434cb f   vcruntimed:VCRUNTIME140D.dll
 0001:000424d1       ___RTtypeid                100434d1 f   vcruntimed:VCRUNTIME140D.dll
 0001:000424d7       ___std_type_info_name      100434d7 f   vcruntimed:VCRUNTIME140D.dll
 0001:000424dd       ___RTDynamicCast           100434dd f   vcruntimed:VCRUNTIME140D.dll
 0001:000424e3       _memcpy                    100434e3 f   vcruntimed:VCRUNTIME140D.dll
 0001:000424e9       ___std_type_info_destroy_list 100434e9 f   vcruntimed:VCRUNTIME140D.dll
 0001:000424ef       __except_handler4_common   100434ef f   vcruntimed:VCRUNTIME140D.dll
 0001:000424f5       ___vcrt_GetModuleFileNameW 100434f5 f   vcruntimed:VCRUNTIME140D.dll
 0001:000424fb       ___vcrt_GetModuleHandleW   100434fb f   vcruntimed:VCRUNTIME140D.dll
 0001:00042501       ___vcrt_LoadLibraryExW     10043501 f   vcruntimed:VCRUNTIME140D.dll
 0001:00042507       __invalid_parameter        10043507 f   ucrtd:ucrtbased.dll
 0001:0004250d       _strlen                    1004350d f   ucrtd:ucrtbased.dll
 0001:00042513       _strncpy                   10043513 f   ucrtd:ucrtbased.dll
 0001:00042519       __wcsdup                   10043519 f   ucrtd:ucrtbased.dll
 0001:0004251f       _wcscmp                    1004351f f   ucrtd:ucrtbased.dll
 0001:00042525       _strncpy_s                 10043525 f   ucrtd:ucrtbased.dll
 0001:0004252b       __strdup                   1004352b f   ucrtd:ucrtbased.dll
 0001:00042531       _malloc                    10043531 f   ucrtd:ucrtbased.dll
 0001:00042537       _free                      10043537 f   ucrtd:ucrtbased.dll
 0001:0004253d       __beginthreadex            1004353d f   ucrtd:ucrtbased.dll
 0001:00042543       __errno                    10043543 f   ucrtd:ucrtbased.dll
 0001:00042549       _exit                      10043549 f   ucrtd:ucrtbased.dll
 0001:0004254f       ___acrt_iob_func           1004354f f   ucrtd:ucrtbased.dll
 0001:00042555       ___stdio_common_vfprintf   10043555 f   ucrtd:ucrtbased.dll
 0001:0004255b       _getenv                    1004355b f   ucrtd:ucrtbased.dll
 0001:00042561       _fputs                     10043561 f   ucrtd:ucrtbased.dll
 0001:00042567       ___stdio_common_vsprintf   10043567 f   ucrtd:ucrtbased.dll
 0001:0004256d       _strcmp                    1004356d f   ucrtd:ucrtbased.dll
 0001:00042573       _strerror                  10043573 f   ucrtd:ucrtbased.dll
 0001:00042579       __CrtDbgReport             10043579 f   ucrtd:ucrtbased.dll
 0001:0004257f       __CrtDbgReportW            1004357f f   ucrtd:ucrtbased.dll
 0001:00042585       _terminate                 10043585 f   ucrtd:ucrtbased.dll
 0001:0004258b       __callnewh                 1004358b f   ucrtd:ucrtbased.dll
 0001:00042591       __except1                  10043591 f   ucrtd:ucrtbased.dll
 0001:00042597       __seh_filter_dll           10043597 f   ucrtd:ucrtbased.dll
 0001:0004259d       __configure_narrow_argv    1004359d f   ucrtd:ucrtbased.dll
 0001:000425a3       __initialize_narrow_environment 100435a3 f   ucrtd:ucrtbased.dll
 0001:000425a9       __initialize_onexit_table  100435a9 f   ucrtd:ucrtbased.dll
 0001:000425af       __register_onexit_function 100435af f   ucrtd:ucrtbased.dll
 0001:000425b5       __execute_onexit_table     100435b5 f   ucrtd:ucrtbased.dll
 0001:000425bb       __crt_atexit               100435bb f   ucrtd:ucrtbased.dll
 0001:000425c1       __crt_at_quick_exit        100435c1 f   ucrtd:ucrtbased.dll
 0001:000425c7       __cexit                    100435c7 f   ucrtd:ucrtbased.dll
 0001:000425cd       __free_dbg                 100435cd f   ucrtd:ucrtbased.dll
 0001:000425d3       __initterm                 100435d3 f   ucrtd:ucrtbased.dll
 0001:000425d9       __initterm_e               100435d9 f   ucrtd:ucrtbased.dll
 0001:000425df       _strcpy_s                  100435df f   ucrtd:ucrtbased.dll
 0001:000425e5       _strcat_s                  100435e5 f   ucrtd:ucrtbased.dll
 0001:000425eb       ___stdio_common_vsprintf_s 100435eb f   ucrtd:ucrtbased.dll
 0001:000425f1       __wmakepath_s              100435f1 f   ucrtd:ucrtbased.dll
 0001:000425f7       __wsplitpath_s             100435f7 f   ucrtd:ucrtbased.dll
 0001:000425fd       _wcscpy_s                  100435fd f   ucrtd:ucrtbased.dll
 0001:00042603       _UnhandledExceptionFilter@4 10043603 f   kernel32:KERNEL32.dll
 0001:00042609       _SetUnhandledExceptionFilter@4 10043609 f   kernel32:KERNEL32.dll
 0001:0004260f       _TerminateProcess@8        1004360f f   kernel32:KERNEL32.dll
 0001:00042615       _IsProcessorFeaturePresent@4 10043615 f   kernel32:KERNEL32.dll
 0001:0004261b       _InitializeSListHead@4     1004361b f   kernel32:KERNEL32.dll
 0001:00042621       _IsDebuggerPresent@0       10043621 f   kernel32:KERNEL32.dll
 0001:00042627       _RaiseException@16         10043627 f   kernel32:KERNEL32.dll
 0001:0004262d       _MultiByteToWideChar@24    1004362d f   kernel32:KERNEL32.dll
 0001:00042633       _WideCharToMultiByte@32    10043633 f   kernel32:KERNEL32.dll
 0001:00042639       _GetStartupInfoW@4         10043639 f   kernel32:KERNEL32.dll
 0001:0004263f       _GetModuleHandleW@4        1004363f f   kernel32:KERNEL32.dll
 0001:00042645       _GetCurrentProcessId@0     10043645 f   kernel32:KERNEL32.dll
 0001:0004264b       _GetSystemTimeAsFileTime@4 1004364b f   kernel32:KERNEL32.dll
 0001:00042651       _HeapAlloc@12              10043651 f   kernel32:KERNEL32.dll
 0001:00042657       _HeapFree@12               10043657 f   kernel32:KERNEL32.dll
 0001:0004265d       _GetProcessHeap@0          1004365d f   kernel32:KERNEL32.dll
 0001:00042663       _VirtualQuery@12           10043663 f   kernel32:KERNEL32.dll
 0001:00042670       ___acrt_initialize         10043670 f   MSVCRTD:ucrt_stubs.obj
 0001:00042670       ___vcrt_initialize         10043670 f   MSVCRTD:ucrt_stubs.obj
 0001:00042670       ___scrt_stub_for_acrt_initialize 10043670 f   MSVCRTD:ucrt_stubs.obj
 0001:00042680       ___scrt_stub_for_acrt_thread_attach 10043680 f   MSVCRTD:ucrt_stubs.obj
 0001:00042680       ___vcrt_thread_attach      10043680 f   MSVCRTD:ucrt_stubs.obj
 0001:00042680       ___acrt_thread_attach      10043680 f   MSVCRTD:ucrt_stubs.obj
 0001:00042690       ___scrt_stub_for_acrt_thread_detach 10043690 f   MSVCRTD:ucrt_stubs.obj
 0001:00042690       ___vcrt_thread_detach      10043690 f   MSVCRTD:ucrt_stubs.obj
 0001:00042690       ___acrt_thread_detach      10043690 f   MSVCRTD:ucrt_stubs.obj
 0001:000426a0       ___scrt_stub_for_acrt_uninitialize 100436a0 f   MSVCRTD:ucrt_stubs.obj
 0001:000426a0       ___acrt_uninitialize       100436a0 f   MSVCRTD:ucrt_stubs.obj
 0001:000426a0       ___vcrt_uninitialize       100436a0 f   MSVCRTD:ucrt_stubs.obj
 0001:000426b0       ___acrt_uninitialize_critical 100436b0 f   MSVCRTD:ucrt_stubs.obj
 0001:000426b0       ___scrt_stub_for_acrt_uninitialize_critical 100436b0 f   MSVCRTD:ucrt_stubs.obj
 0001:000426b0       ___vcrt_uninitialize_critical 100436b0 f   MSVCRTD:ucrt_stubs.obj
 0001:000426c0       __is_c_termination_complete 100436c0 f   MSVCRTD:ucrt_stubs.obj
 0001:000426c0       ___scrt_stub_for_is_c_termination_complete 100436c0 f   MSVCRTD:ucrt_stubs.obj
 0002:00000000       __imp__SwitchToThread@0    10045000     kernel32:KERNEL32.dll
 0002:00000004       __imp__CloseHandle@4       10045004     kernel32:KERNEL32.dll
 0002:00000008       __imp__SetEvent@4          10045008     kernel32:KERNEL32.dll
 0002:0000000c       __imp__WaitForSingleObjectEx@12 1004500c     kernel32:KERNEL32.dll
 0002:00000010       __imp__GetLastError@0      10045010     kernel32:KERNEL32.dll
 0002:00000014       __imp__SetErrorMode@4      10045014     kernel32:KERNEL32.dll
 0002:00000018       __imp__FreeLibrary@4       10045018     kernel32:KERNEL32.dll
 0002:0000001c       __imp__GetModuleFileNameA@12 1004501c     kernel32:KERNEL32.dll
 0002:00000020       __imp__GetModuleHandleExA@12 10045020     kernel32:KERNEL32.dll
 0002:00000024       __imp__GetProcAddress@8    10045024     kernel32:KERNEL32.dll
 0002:00000028       __imp__LoadLibraryA@4      10045028     kernel32:KERNEL32.dll
 0002:0000002c       __imp__GetEnvironmentVariableA@12 1004502c     kernel32:KERNEL32.dll
 0002:00000030       __imp__InitializeCriticalSection@4 10045030     kernel32:KERNEL32.dll
 0002:00000034       __imp__EnterCriticalSection@4 10045034     kernel32:KERNEL32.dll
 0002:00000038       __imp__LeaveCriticalSection@4 10045038     kernel32:KERNEL32.dll
 0002:0000003c       __imp__GetCurrentThreadId@0 1004503c     kernel32:KERNEL32.dll
 0002:00000040       __imp__lstrcmpA@8          10045040     kernel32:KERNEL32.dll
 0002:00000044       __imp__ReleaseSemaphore@12 10045044     kernel32:KERNEL32.dll
 0002:00000048       __imp__CreateSemaphoreW@16 10045048     kernel32:KERNEL32.dll
 0002:0000004c       __imp__TlsAlloc@0          1004504c     kernel32:KERNEL32.dll
 0002:00000050       __imp__TlsGetValue@4       10045050     kernel32:KERNEL32.dll
 0002:00000054       __imp__TlsSetValue@8       10045054     kernel32:KERNEL32.dll
 0002:00000058       __imp__TlsFree@4           10045058     kernel32:KERNEL32.dll
 0002:0000005c       __imp__InitializeCriticalSectionAndSpinCount@8 1004505c     kernel32:KERNEL32.dll
 0002:00000060       __imp__TryEnterCriticalSection@4 10045060     kernel32:KERNEL32.dll
 0002:00000064       __imp__DeleteCriticalSection@4 10045064     kernel32:KERNEL32.dll
 0002:00000068       __imp__SetLastError@4      10045068     kernel32:KERNEL32.dll
 0002:0000006c       __imp__QueryPerformanceFrequency@4 1004506c     kernel32:KERNEL32.dll
 0002:00000070       __imp__ResetEvent@4        10045070     kernel32:KERNEL32.dll
 0002:00000074       __imp__CreateEventA@16     10045074     kernel32:KERNEL32.dll
 0002:00000078       __imp__QueryPerformanceCounter@4 10045078     kernel32:KERNEL32.dll
 0002:0000007c       __imp__Sleep@4             1004507c     kernel32:KERNEL32.dll
 0002:00000080       __imp__ResumeThread@4      10045080     kernel32:KERNEL32.dll
 0002:00000084       __imp__FormatMessageA@28   10045084     kernel32:KERNEL32.dll
 0002:00000088       __imp__GetCurrentProcess@0 10045088     kernel32:KERNEL32.dll
 0002:0000008c       __imp__GetCurrentThread@0  1004508c     kernel32:KERNEL32.dll
 0002:00000090       __imp__GetNativeSystemInfo@4 10045090     kernel32:KERNEL32.dll
 0002:00000094       __imp__GetProcessAffinityMask@12 10045094     kernel32:KERNEL32.dll
 0002:00000098       __imp__CreateEventW@16     10045098     kernel32:KERNEL32.dll
 0002:0000009c       __imp__GetProcessHeap@0    1004509c     kernel32:KERNEL32.dll
 0002:000000a0       __imp__HeapFree@12         100450a0     kernel32:KERNEL32.dll
 0002:000000a4       __imp__HeapAlloc@12        100450a4     kernel32:KERNEL32.dll
 0002:000000a8       __imp__GetSystemTimeAsFileTime@4 100450a8     kernel32:KERNEL32.dll
 0002:000000ac       __imp__GetCurrentProcessId@0 100450ac     kernel32:KERNEL32.dll
 0002:000000b0       __imp__GetModuleHandleW@4  100450b0     kernel32:KERNEL32.dll
 0002:000000b4       __imp__GetStartupInfoW@4   100450b4     kernel32:KERNEL32.dll
 0002:000000b8       __imp__WideCharToMultiByte@32 100450b8     kernel32:KERNEL32.dll
 0002:000000bc       __imp__MultiByteToWideChar@24 100450bc     kernel32:KERNEL32.dll
 0002:000000c0       __imp__RaiseException@16   100450c0     kernel32:KERNEL32.dll
 0002:000000c4       __imp__IsDebuggerPresent@0 100450c4     kernel32:KERNEL32.dll
 0002:000000c8       __imp__InitializeSListHead@4 100450c8     kernel32:KERNEL32.dll
 0002:000000cc       __imp__IsProcessorFeaturePresent@4 100450cc     kernel32:KERNEL32.dll
 0002:000000d0       __imp__TerminateProcess@8  100450d0     kernel32:KERNEL32.dll
 0002:000000d4       __imp__SetUnhandledExceptionFilter@4 100450d4     kernel32:KERNEL32.dll
 0002:000000d8       __imp__UnhandledExceptionFilter@4 100450d8     kernel32:KERNEL32.dll
 0002:000000dc       __imp__VirtualQuery@12     100450dc     kernel32:KERNEL32.dll
 0002:000000e0       \177KERNEL32_NULL_THUNK_DATA 100450e0     kernel32:KERNEL32.dll
 0002:000000e4       __imp_?_Xlength_error@std@@YAXPBD@Z 100450e4     msvcprtd:MSVCP140D.dll
 0002:000000e8       __imp_?__ExceptionPtrRethrow@@YAXPBX@Z 100450e8     msvcprtd:MSVCP140D.dll
 0002:000000ec       __imp_??1_Lockit@std@@QAE@XZ 100450ec     msvcprtd:MSVCP140D.dll
 0002:000000f0       __imp_??0_Lockit@std@@QAE@H@Z 100450f0     msvcprtd:MSVCP140D.dll
 0002:000000f4       __imp_?__ExceptionPtrCopyException@@YAXPAXPBX1@Z 100450f4     msvcprtd:MSVCP140D.dll
 0002:000000f8       __imp_?__ExceptionPtrCurrentException@@YAXPAX@Z 100450f8     msvcprtd:MSVCP140D.dll
 0002:000000fc       __imp_?__ExceptionPtrCopy@@YAXPAXPBX@Z 100450fc     msvcprtd:MSVCP140D.dll
 0002:00000100       __imp_?__ExceptionPtrDestroy@@YAXPAX@Z 10045100     msvcprtd:MSVCP140D.dll
 0002:00000104       __imp_?__ExceptionPtrCreate@@YAXPAX@Z 10045104     msvcprtd:MSVCP140D.dll
 0002:00000108       __imp_?_Debug_message@std@@YAXPB_W0I@Z 10045108     msvcprtd:MSVCP140D.dll
 0002:0000010c       \177MSVCP140D_NULL_THUNK_DATA 1004510c     msvcprtd:MSVCP140D.dll
 0002:00000110       __imp____vcrt_LoadLibraryExW 10045110     vcruntimed:VCRUNTIME140D.dll
 0002:00000114       __imp____vcrt_GetModuleHandleW 10045114     vcruntimed:VCRUNTIME140D.dll
 0002:00000118       __imp__strrchr             10045118     vcruntimed:VCRUNTIME140D.dll
 0002:0000011c       __imp___except_handler4_common 1004511c     vcruntimed:VCRUNTIME140D.dll
 0002:00000120       __imp____std_type_info_destroy_list 10045120     vcruntimed:VCRUNTIME140D.dll
 0002:00000124       __imp__memcpy              10045124     vcruntimed:VCRUNTIME140D.dll
 0002:00000128       __imp____RTDynamicCast     10045128     vcruntimed:VCRUNTIME140D.dll
 0002:0000012c       __imp____std_type_info_name 1004512c     vcruntimed:VCRUNTIME140D.dll
 0002:00000130       __imp____RTtypeid          10045130     vcruntimed:VCRUNTIME140D.dll
 0002:00000134       __imp____std_exception_destroy 10045134     vcruntimed:VCRUNTIME140D.dll
 0002:00000138       __imp____std_exception_copy 10045138     vcruntimed:VCRUNTIME140D.dll
 0002:0000013c       __imp___purecall           1004513c     vcruntimed:VCRUNTIME140D.dll
 0002:00000140       __imp__memset              10045140     vcruntimed:VCRUNTIME140D.dll
 0002:00000144       __imp___CxxThrowException@8 10045144     vcruntimed:VCRUNTIME140D.dll
 0002:00000148       __imp____CxxFrameHandler3  10045148     vcruntimed:VCRUNTIME140D.dll
 0002:0000014c       __imp____vcrt_GetModuleFileNameW 1004514c     vcruntimed:VCRUNTIME140D.dll
 0002:00000150       \177VCRUNTIME140D_NULL_THUNK_DATA 10045150     vcruntimed:VCRUNTIME140D.dll
 0002:00000154       __imp__strcmp              10045154     ucrtd:ucrtbased.dll
 0002:00000158       __imp__strerror            10045158     ucrtd:ucrtbased.dll
 0002:0000015c       __imp___CrtDbgReport       1004515c     ucrtd:ucrtbased.dll
 0002:00000160       __imp___CrtDbgReportW      10045160     ucrtd:ucrtbased.dll
 0002:00000164       __imp__terminate           10045164     ucrtd:ucrtbased.dll
 0002:00000168       __imp___callnewh           10045168     ucrtd:ucrtbased.dll
 0002:0000016c       __imp___except1            1004516c     ucrtd:ucrtbased.dll
 0002:00000170       __imp__fputs               10045170     ucrtd:ucrtbased.dll
 0002:00000174       __imp___configure_narrow_argv 10045174     ucrtd:ucrtbased.dll
 0002:00000178       __imp___initialize_narrow_environment 10045178     ucrtd:ucrtbased.dll
 0002:0000017c       __imp___initialize_onexit_table 1004517c     ucrtd:ucrtbased.dll
 0002:00000180       __imp___register_onexit_function 10045180     ucrtd:ucrtbased.dll
 0002:00000184       __imp___execute_onexit_table 10045184     ucrtd:ucrtbased.dll
 0002:00000188       __imp___crt_atexit         10045188     ucrtd:ucrtbased.dll
 0002:0000018c       __imp___crt_at_quick_exit  1004518c     ucrtd:ucrtbased.dll
 0002:00000190       __imp___cexit              10045190     ucrtd:ucrtbased.dll
 0002:00000194       __imp___free_dbg           10045194     ucrtd:ucrtbased.dll
 0002:00000198       __imp___initterm           10045198     ucrtd:ucrtbased.dll
 0002:0000019c       __imp___initterm_e         1004519c     ucrtd:ucrtbased.dll
 0002:000001a0       __imp__strcpy_s            100451a0     ucrtd:ucrtbased.dll
 0002:000001a4       __imp__strcat_s            100451a4     ucrtd:ucrtbased.dll
 0002:000001a8       __imp____stdio_common_vsprintf_s 100451a8     ucrtd:ucrtbased.dll
 0002:000001ac       __imp___wmakepath_s        100451ac     ucrtd:ucrtbased.dll
 0002:000001b0       __imp___wsplitpath_s       100451b0     ucrtd:ucrtbased.dll
 0002:000001b4       __imp__wcscpy_s            100451b4     ucrtd:ucrtbased.dll
 0002:000001b8       __imp____stdio_common_vsprintf 100451b8     ucrtd:ucrtbased.dll
 0002:000001bc       __imp__getenv              100451bc     ucrtd:ucrtbased.dll
 0002:000001c0       __imp____stdio_common_vfprintf 100451c0     ucrtd:ucrtbased.dll
 0002:000001c4       __imp____acrt_iob_func     100451c4     ucrtd:ucrtbased.dll
 0002:000001c8       __imp__exit                100451c8     ucrtd:ucrtbased.dll
 0002:000001cc       __imp___errno              100451cc     ucrtd:ucrtbased.dll
 0002:000001d0       __imp___beginthreadex      100451d0     ucrtd:ucrtbased.dll
 0002:000001d4       __imp__free                100451d4     ucrtd:ucrtbased.dll
 0002:000001d8       __imp__malloc              100451d8     ucrtd:ucrtbased.dll
 0002:000001dc       __imp___strdup             100451dc     ucrtd:ucrtbased.dll
 0002:000001e0       __imp__strncpy_s           100451e0     ucrtd:ucrtbased.dll
 0002:000001e4       __imp__wcscmp              100451e4     ucrtd:ucrtbased.dll
 0002:000001e8       __imp___wcsdup             100451e8     ucrtd:ucrtbased.dll
 0002:000001ec       __imp__strncpy             100451ec     ucrtd:ucrtbased.dll
 0002:000001f0       __imp__strlen              100451f0     ucrtd:ucrtbased.dll
 0002:000001f4       __imp___invalid_parameter  100451f4     ucrtd:ucrtbased.dll
 0002:000001f8       __imp___seh_filter_dll     100451f8     ucrtd:ucrtbased.dll
 0002:000001fc       \177ucrtbased_NULL_THUNK_DATA 100451fc     ucrtd:ucrtbased.dll
 0002:00000200       ___guard_check_icall_fptr  10045200     MSVCRTD:guard_support.obj
 0002:00000204       ___xc_a                    10045204     MSVCRTD:initializers.obj
 0002:00000228       ___xc_z                    10045228     MSVCRTD:initializers.obj
 0002:0000022c       ___xi_a                    1004522c     MSVCRTD:initializers.obj
 0002:00000230       ___xi_z                    10045230     MSVCRTD:initializers.obj
 0002:00000234       ___xp_a                    10045234     MSVCRTD:initializers.obj
 0002:00000238       ___xp_z                    10045238     MSVCRTD:initializers.obj
 0002:0000023c       ___xt_a                    1004523c     MSVCRTD:initializers.obj
 0002:00000240       ___xt_z                    10045240     MSVCRTD:initializers.obj
 0002:00000840       ??_7concurrent_queue_base_v3@internal@tbb@@6B@ 10045840     concurrent_queue.obj
 0002:00000858       ??_C@_0BG@NCNHOMPJ@the?5list?5is?5not?5empty?$AA@ 10045858     concurrent_queue.obj
 0002:00000870       ??_C@_0CF@KIMHCJNJ@head?4next?$DN?$DN?$CGhead?5?$CG?$CG?5head?4prev?$DN?$DN?$CG@ 10045870     concurrent_queue.obj
 0002:00000898       ??_C@_0CI@HMAGEINM@d?3?2dev?2tbb?2src?2tbb?2concurrent_mo@ 10045898     concurrent_queue.obj
 0002:000008c0       ??_C@_0CN@PJOPKBDC@attempt?5to?5remove?5an?5item?5from?5a@ 100458c0     concurrent_queue.obj
 0002:000008f0       ??_C@_09DMMLFBJB@count?5?$DO?50?$AA@ 100458f0     concurrent_queue.obj
 0002:000008fc       ??_C@_0DC@HHMBEOFF@use?5of?5commit_wait?$CI?$CJ?5without?5pri@ 100458fc     concurrent_queue.obj
 0002:00000930       ??_C@_09FABKCACJ@thr?4ready?$AA@ 10045930     concurrent_queue.obj
 0002:0000093c       ??_C@_0BE@EJJDCDNJ@still?5in?5the?5queue?$DP?$AA@ 1004593c     concurrent_queue.obj
 0002:00000950       ??_C@_0BA@CPHLNOGI@?$CBthr?4in_waitset?$AA@ 10045950     concurrent_queue.obj
 0002:00000960       ??_C@_01JBBJJEPG@p?$AA@    10045960     concurrent_queue.obj
 0002:00000964       ??_C@_0CI@CEOLAAGH@d?3?2dev?2tbb?2src?2tbb?2concurrent_qu@ 10045964     concurrent_queue.obj
 0002:0000098c       ??_C@_0CB@NEAGOMBI@Divisor?5should?5be?5a?5power?5of?5two@ 1004598c     concurrent_queue.obj
 0002:000009b0       ??_C@_0BJ@FFGCKCGK@is_power_of_two?$CIdivisor?$CJ?$AA@ 100459b0     concurrent_queue.obj
 0002:000009cc       ??_C@_0CE@KKPMNBHN@d?3?2dev?2tbb?2include?2tbb?2tbb_stdde@ 100459cc     concurrent_queue.obj
 0002:00000f38       ??_C@_1NE@KPINEFNH@?$AAc?$AA?3?$AA?2?$AAp?$AAr?$AAo?$AAg?$AAr?$AAa?$AAm?$AA?5?$AAf?$AAi?$AAl?$AAe?$AAs?$AA?5?$AA?$CI?$AAx?$AA8?$AA6?$AA?$CJ?$AA?2?$AAm?$AAi?$AAc?$AAr?$AAo?$AAs?$AAo?$AAf?$AAt@ 10045f38     concurrent_vector.obj
 0002:0000100c       ??_C@_0CA@LKPOEAOC@should?5have?5been?5freed?5by?5clear?$AA@ 1004600c     concurrent_vector.obj
 0002:0000102c       ??_C@_0CH@LPHMJFBJ@load?$DMrelaxed?$DO?$CI?$CJ?5?$CB?$DN?5segment_alloc@ 1004602c     concurrent_vector.obj
 0002:00001054       ??_C@_0CL@ECDMBFLP@d?3?2dev?2tbb?2include?2tbb?2concurren@ 10046054     concurrent_vector.obj
 0002:00001080       ??_C@_0BA@LIFNIGJ@start?5?$DM?$DN?5finish?$AA@ 10046080     concurrent_vector.obj
 0002:00001090       ??_C@_0CJ@HABLHIDJ@d?3?2dev?2tbb?2src?2tbb?2concurrent_ve@ 10046090     concurrent_vector.obj
 0002:000010bc       ??_C@_0BH@JGMCJCL@first_block?5?$HM?$HM?5?$CBfinish?$AA@ 100460bc     concurrent_vector.obj
 0002:000010d4       ??_C@_0O@KKLAEBPF@base?5?$DM?$DN?5start?$AA@ 100460d4     concurrent_vector.obj
 0002:000010e8       ??_C@_0FN@KNAKKIKK@other?5overloads?5of?5store?5should?5@ 100460e8     concurrent_vector.obj
 0002:00001148       ??_C@_0EC@MHPKPLNC@segment_value_t?$CIallocated_segmen@ 10046148     concurrent_vector.obj
 0002:0000118c       ??_C@_1CC@MFHBDGN@?$AAi?$AAn?$AAt?$AAe?$AAg?$AAe?$AAr?$AA?5?$AAo?$AAv?$AAe?$AAr?$AAf?$AAl?$AAo?$AAw?$AA?$AA@ 1004618c     concurrent_vector.obj
 0002:000011b0       ??_C@_1CG@OEBFJAHG@?$AAs?$AAt?$AAd?$AA?3?$AA?3?$AA_?$AAU?$AAn?$AAc?$AAh?$AAe?$AAc?$AAk?$AAe?$AAd?$AA_?$AAn?$AA1?$AA?$AA@ 100461b0     concurrent_vector.obj
 0002:000011d8       ??_C@_1CG@NMONALKO@?$AA?$CC?$AAi?$AAn?$AAt?$AAe?$AAg?$AAe?$AAr?$AA?5?$AAo?$AAv?$AAe?$AAr?$AAf?$AAl?$AAo?$AAw?$AA?$CC?$AA?$AA@ 100461d8     concurrent_vector.obj
 0002:00001200       ??_C@_1CO@DGLIKNHI@?$AAi?$AAn?$AAv?$AAa?$AAl?$AAi?$AAd?$AA?5?$AAi?$AAt?$AAe?$AAr?$AAa?$AAt?$AAo?$AAr?$AA?5?$AAr?$AAa?$AAn?$AAg?$AAe?$AA?$AA@ 10046200     concurrent_vector.obj
 0002:00001230       ??_C@_1CG@MDICLDJA@?$AAs?$AAt?$AAd?$AA?3?$AA?3?$AA_?$AAD?$AAe?$AAb?$AAu?$AAg?$AA_?$AAr?$AAa?$AAn?$AAg?$AAe?$AA2?$AA?$AA@ 10046230     concurrent_vector.obj
 0002:00001258       ??_C@_1DC@CHPPODDE@?$AA?$CC?$AAi?$AAn?$AAv?$AAa?$AAl?$AAi?$AAd?$AA?5?$AAi?$AAt?$AAe?$AAr?$AAa?$AAt?$AAo?$AAr?$AA?5?$AAr?$AAa?$AAn?$AAg?$AAe?$AA?$CC?$AA?$AA@ 10046258     concurrent_vector.obj
 0002:00001290       ??_C@_0EL@EBFKNEI@transition?5from?5?$CCallocated?$CC?5to?5?$CC@ 10046290     concurrent_vector.obj
 0002:000012e0       ??_C@_1EK@DOMCIFPO@?$AAa?$AAr?$AAr?$AAa?$AAy?$AA?5?$AAi?$AAt?$AAe?$AAr?$AAa?$AAt?$AAo?$AAr?$AA?5?$AA?$CL?$AA?5?$AAo?$AAf?$AAf?$AAs?$AAe?$AAt?$AA?5?$AAo?$AAu?$AAt?$AA?5?$AAo?$AAf?$AA?5?$AAr@ 100462e0     concurrent_vector.obj
 0002:00001330       ??_C@_1MM@MEOHDOBH@?$AAs?$AAt?$AAd?$AA?3?$AA?3?$AA_?$AAA?$AAr?$AAr?$AAa?$AAy?$AA_?$AAc?$AAo?$AAn?$AAs?$AAt?$AA_?$AAi?$AAt?$AAe?$AAr?$AAa?$AAt?$AAo?$AAr?$AA?$DM?$AAc?$AAl?$AAa?$AAs?$AAs@ 10046330     concurrent_vector.obj
 0002:00001400       ??_C@_1EO@PDLDJDOA@?$AA?$CC?$AAa?$AAr?$AAr?$AAa?$AAy?$AA?5?$AAi?$AAt?$AAe?$AAr?$AAa?$AAt?$AAo?$AAr?$AA?5?$AA?$CL?$AA?5?$AAo?$AAf?$AAf?$AAs?$AAe?$AAt?$AA?5?$AAo?$AAu?$AAt?$AA?5?$AAo?$AAf?$AA?5@ 10046400     concurrent_vector.obj
 0002:000015c0       ??_C@_0BM@JGJMBPHJ@Too?5many?5modules?5are?5loaded?$AA@ 100465c0     dynamic_link.obj
 0002:000015dc       ??_C@_07EJHLHDPE@ind?5?$DM?58?$AA@ 100465dc     dynamic_link.obj
 0002:000015e4       ??_C@_0CE@LGJGFDEG@d?3?2dev?2tbb?2src?2tbb?2dynamic_link?4@ 100465e4     dynamic_link.obj
 0002:00003828       ??_7task@tbb@@6B@          10048828     pipeline.obj
 0002:00003834       ??_C@_0BF@FLEJEMAB@execute?5not?5running?$DP?$AA@ 10048834     pipeline.obj
 0002:0000384c       ??_C@_0BK@BLKDHJIK@prefix?$CI?$CJ?4state?$DN?$DNexecuting?$AA@ 1004884c     pipeline.obj
 0002:00003868       ??_C@_0BO@PILDBFHF@d?3?2dev?2tbb?2include?2tbb?2task?4h?$AA@ 10048868     pipeline.obj
 0002:0000388c       ??_7filter@tbb@@6B@        1004888c     pipeline.obj
 0002:0000389c       ??_7pipeline@tbb@@6B@      1004889c     pipeline.obj
 0002:000038a0       ??_C@_07DEMLHIDL@?$CBmy_sem?$AA@ 100488a0     pipeline.obj
 0002:000038a8       ??_C@_0CA@DNACLPDC@d?3?2dev?2tbb?2src?2tbb?2pipeline?4cpp?$AA@ 100488a8     pipeline.obj
 0002:000038c8       ??_C@_06PJFJBKOE@my_sem?$AA@ 100488c8     pipeline.obj
 0002:000038d0       ??_C@_05HIFJDKLD@array?$AA@ 100488d0     pipeline.obj
 0002:000038d8       ??_C@_0CC@OJFIPBCH@?$CItokendiff_t?$CJ?$CItoken?9low_token?$CJ?$DO?$DN@ 100488d8     pipeline.obj
 0002:000038fc       ??_C@_0BN@OAIFFPEB@TLS?5not?5allocated?5for?5filter?$AA@ 100488fc     pipeline.obj
 0002:0000391c       ??_C@_0BN@LCAOOCFI@Failed?5to?5destroy?5filter?5TLS?$AA@ 1004891c     pipeline.obj
 0002:00003940       ??_7stage_task@internal@tbb@@6B@ 10048940     pipeline.obj
 0002:0000394c       ??_C@_0DC@FJGKNBB@Trying?5to?5finalize?5the?5task?5that@ 1004894c     pipeline.obj
 0002:00003980       ??_C@_0P@PMGHPDFJ@is_cancelled?$CI?$CJ?$AA@ 10048980     pipeline.obj
 0002:00003994       ??_7pipeline_root_task@internal@tbb@@6B@ 10048994     pipeline.obj
 0002:000039a0       ??_C@_0BI@HDJOOCC@filter?5is?5thread?9bound?$DP?$AA@ 100489a0     pipeline.obj
 0002:000039b8       ??_C@_0BM@EKBMLCCI@?$CBcurrent_filter?9?$DOis_bound?$CI?$CJ?$AA@ 100489b8     pipeline.obj
 0002:000039d4       ??_C@_0CF@ELPNJBIG@previous?5filter?5is?5not?5thread?9bo@ 100489d4     pipeline.obj
 0002:000039fc       ??_C@_0DE@MFDJBKCP@current_filter?9?$DOprev_filter_in_p@ 100489fc     pipeline.obj
 0002:00003a30       ??_C@_0BI@GHAGBPIJ@my_pipeline?4filter_list?$AA@ 10048a30     pipeline.obj
 0002:00005658       ??_C@_0CH@IAJCCAAC@d?3?2dev?2tbb?2include?2tbb?2spin_rw_m@ 1004a658     x86_rtm_rw_mutex.obj
 0002:00005680       ??_C@_0BG@BEFAEEMA@holding?5mutex?5already?$AA@ 1004a680     x86_rtm_rw_mutex.obj
 0002:00005698       ??_C@_06MDKGKMGM@?$CBmutex?$AA@ 1004a698     x86_rtm_rw_mutex.obj
 0002:000056a0       ??_C@_0BF@MKDIKJIO@lock?5is?5not?5acquired?$AA@ 1004a6a0     x86_rtm_rw_mutex.obj
 0002:000056b8       ??_C@_05IGMCOAJJ@mutex?$AA@ 1004a6b8     x86_rtm_rw_mutex.obj
 0002:000056c0       ??_C@_0N@INFNDKAH@not?5a?5reader?$AA@ 1004a6c0     x86_rtm_rw_mutex.obj
 0002:000056d0       ??_C@_0L@PHPPFNOD@?$CBis_writer?$AA@ 1004a6d0     x86_rtm_rw_mutex.obj
 0002:000056dc       ??_C@_0N@KBNPDLNN@not?5a?5writer?$AA@ 1004a6dc     x86_rtm_rw_mutex.obj
 0002:000056ec       ??_C@_09DIOANEGO@is_writer?$AA@ 1004a6ec     x86_rtm_rw_mutex.obj
 0002:00006278       ??_C@_0CI@FKHHBFIM@QueryPerformanceFrequency?5return@ 1004b278     condition_variable.obj
 0002:000062a0       ??_C@_04HEMGMBLB@rval?$AA@ 1004b2a0     condition_variable.obj
 0002:000062a8       ??_C@_0CE@COAOOKLF@d?3?2dev?2tbb?2include?2tbb?2tick_coun@ 1004b2a8     condition_variable.obj
 0002:000062d0       __real@3ff0000000000000    1004b2d0     condition_variable.obj
 0002:000062d8       __real@408f400000000000    1004b2d8     condition_variable.obj
 0002:0000632c       ??_C@_0BP@PLJHCHPC@QueryPerformanceCounter?5failed?$AA@ 1004b32c     tbb_thread.obj
 0002:0000634c       ??_C@_0BC@DBAKKFEN@Invalid?5parameter?$AA@ 1004b34c     tbb_thread.obj
 0002:00006360       ??_C@_0CI@LOOBMKEP@d?3?2dev?2tbb?2include?2tbb?2global_co@ 1004b360     tbb_thread.obj
 0002:00006388       ??_C@_0BC@JJJOOGFM@p?5?$DM?5parameter_max?$AA@ 1004b388     tbb_thread.obj
 0002:000063a0       __real@41efffffffe00000    1004b3a0     tbb_thread.obj
 0002:00006600       ??_7versioned_object@rml@@6B@ 1004b600     private_server.obj
 0002:00006608       ??_7server@rml@@6B@        1004b608     private_server.obj
 0002:00006620       ??_7tbb_server@rml@internal@tbb@@6B@ 1004b620     private_server.obj
 0002:00006640       ??_C@_0CP@ECLIENFE@thread_monitor?3?3launch?3?5_beginth@ 1004b640     private_server.obj
 0002:00006670       ??_C@_05LAPONLG@false?$AA@ 1004b670     private_server.obj
 0002:0000667c       ??_7private_server@rml@internal@tbb@@6B@ 1004b67c     private_server.obj
 0002:000066a0       ??_C@_0CG@OGBHLGKP@d?3?2dev?2tbb?2src?2tbb?2private_serve@ 1004b6a0     private_server.obj
 0002:000066c8       ??_C@_0L@OCONFJAJ@s?$DN?$DNst_quit?$AA@ 1004b6c8     private_server.obj
 0002:00006d0c       ??_7exception@std@@6B@     1004bd0c     tbb_misc.obj
 0002:00006d14       ??_C@_0BC@EOODALEL@Unknown?5exception?$AA@ 1004bd14     tbb_misc.obj
 0002:00006d2c       ??_7bad_alloc@std@@6B@     1004bd2c     tbb_misc.obj
 0002:00006d34       ??_C@_0P@GHFPNOJB@bad?5allocation?$AA@ 1004bd34     tbb_misc.obj
 0002:00006d48       ??_7logic_error@std@@6B@   1004bd48     tbb_misc.obj
 0002:00006d54       ??_7invalid_argument@std@@6B@ 1004bd54     tbb_misc.obj
 0002:00006d60       ??_7length_error@std@@6B@  1004bd60     tbb_misc.obj
 0002:00006d6c       ??_7out_of_range@std@@6B@  1004bd6c     tbb_misc.obj
 0002:00006d78       ??_7runtime_error@std@@6B@ 1004bd78     tbb_misc.obj
 0002:00006d84       ??_7range_error@std@@6B@   1004bd84     tbb_misc.obj
 0002:00006d90       ??_7bad_last_alloc@tbb@@6B@ 1004bd90     tbb_misc.obj
 0002:00006d9c       ??_7improper_lock@tbb@@6B@ 1004bd9c     tbb_misc.obj
 0002:00006da8       ??_7user_abort@tbb@@6B@    1004bda8     tbb_misc.obj
 0002:00006db4       ??_7missing_wait@tbb@@6B@  1004bdb4     tbb_misc.obj
 0002:00006dc0       ??_7invalid_multiple_scheduling@tbb@@6B@ 1004bdc0     tbb_misc.obj
 0002:000079b8       ??_C@_0CG@MPEFGNEN@d?3?2dev?2tbb?2src?2tbb?2scheduler_com@ 1004c9b8     task.obj
 0002:000079e0       ??_C@_07BHCJEJPF@task?$CB?$DN0?$AA@ 1004c9e0     task.obj
 0002:000079e8       ??_C@_0BE@NMBEFKAA@?$CBis_poisoned?$CI?$CGtask?$CJ?$AA@ 1004c9e8     task.obj
 0002:000079fc       ??_C@_0BA@EMBLABKF@misaligned?5task?$AA@ 1004c9fc     task.obj
 0002:00007a0c       ??_C@_0CG@BKBHDKDA@?$CIuintptr_t?$CJtask?5?$CF?5task_alignment@ 1004ca0c     task.obj
 0002:00007a34       ??_C@_0BN@EHGLMPPM@corrupt?5task?5?$CIinvalid?5state?$CJ?$AA@ 1004ca34     task.obj
 0002:00007a54       ??_C@_0DE@JCDKAFFI@?$CIunsigned?$CJtask?9?$DOstate?$CI?$CJ?$DM?$DN?$CIunsign@ 1004ca54     task.obj
 0002:00007a88       ??_C@_0BP@GOLGKFOF@d?3?2dev?2tbb?2src?2tbb?2scheduler?4h?$AA@ 1004ca88     task.obj
 0002:00007aa8       ??_C@_08KALFEKOK@my_arena?$AA@ 1004caa8     task.obj
 0002:000081ec       ??_7tbb_exception@tbb@@6B@ 1004d1ec     task_group_context.obj
 0002:00008208       ??_7captured_exception@tbb@@6B@ 1004d208     task_group_context.obj
 0002:0000a034       ??_C@_0CC@MFNMDHO@p?5?$DO?$DN?50?5?$CG?$CG?5p?5?$DM?5num_priority_level@ 1004f034     market.obj
 0002:0000a058       ??_C@_0CB@HMEIPHJN@destruction?5of?5an?5acquired?5mutex@ 1004f058     market.obj
 0002:0000a07c       ??_C@_06ECFFOEMB@?$CBstate?$AA@ 1004f07c     market.obj
 0002:0000a088       ??_7client@rml@@6B@        1004f088     market.obj
 0002:0000a0a8       ??_7tbb_client@rml@internal@tbb@@6B@ 1004f0a8     market.obj
 0002:0000a0cc       ??_7market@internal@tbb@@6B@ 1004f0cc     market.obj
 0002:0000a0f0       ??_C@_0PC@JBKCGBCI@?$CImy_priority_levels?$FLmy_global_to@ 1004f0f0     market.obj
 0002:0000a1e4       ??_C@_0BM@INNAAIIO@d?3?2dev?2tbb?2src?2tbb?2market?4h?$AA@ 1004f1e4     market.obj
 0002:0000a200       ??_C@_0CF@JJLIEOOD@Element?5to?5remove?5is?5not?5in?5the?5@ 1004f200     market.obj
 0002:0000a228       ??_C@_0EN@OJCEBKLC@node?$CIval?$CJ?4my_prev_node?5?$CB?$DN?5?$CGnode?$CI@ 1004f228     market.obj
 0002:0000a278       ??_C@_0CE@DKGGONJ@d?3?2dev?2tbb?2src?2tbb?2intrusive_lis@ 1004f278     market.obj
 0002:0000a2a0       ??_C@_0GJ@MCBNLHDF@node?$CIval?$CJ?4my_prev_node?9?$DOmy_next_@ 1004f2a0     market.obj
 0002:0000a310       ??_C@_0FG@ECMKMFAA@Object?5with?5intrusive?5list?5node?5@ 1004f310     market.obj
 0002:0000a368       ??_C@_0EN@LEICMHPL@node?$CIval?$CJ?4my_prev_node?5?$DN?$DN?5?$CGnode?$CI@ 1004f368     market.obj
 0002:0000a3b8       ??_C@_0BO@ECOGGHIB@intrusive_list_base?5corrupted?$AA@ 1004f3b8     market.obj
 0002:0000a3d8       ??_C@_0GD@OJFKBGDC@?$CImy_head?4my_prev_node?5?$DN?$DN?5?$CGmy_hea@ 1004f3d8     market.obj
 0002:0000bf24       ??_C@_1DC@POOIKBAO@?$AAI?$AAT?$AAE?$AAR?$AAA?$AAT?$AAO?$AAR?$AA?5?$AAL?$AAI?$AAS?$AAT?$AA?5?$AAC?$AAO?$AAR?$AAR?$AAU?$AAP?$AAT?$AAE?$AAD?$AA?$CB?$AA?$AA@ 10050f24     arena.obj
 0002:0000bf58       ??_C@_1EE@KLDMFDFL@?$AAs?$AAt?$AAd?$AA?3?$AA?3?$AA_?$AAI?$AAt?$AAe?$AAr?$AAa?$AAt?$AAo?$AAr?$AA_?$AAb?$AAa?$AAs?$AAe?$AA1?$AA2?$AA?3?$AA?3?$AA_?$AAO?$AAr?$AAp?$AAh?$AAa?$AAn?$AA_?$AAm@ 10050f58     arena.obj
 0002:0000bf9c       ??_C@_1DG@PLBPCAEM@?$AA?$CC?$AAI?$AAT?$AAE?$AAR?$AAA?$AAT?$AAO?$AAR?$AA?5?$AAL?$AAI?$AAS?$AAT?$AA?5?$AAC?$AAO?$AAR?$AAR?$AAU?$AAP?$AAT?$AAE?$AAD?$AA?$CB?$AA?$CC?$AA?$AA@ 10050f9c     arena.obj
 0002:0000bfd4       ??_C@_0BH@CBDGOEGG@integer?5overflow?5error?$AA@ 10050fd4     arena.obj
 0002:0000bfec       ??_C@_0BM@NOGDGACD@ref_count_?$DN?$DNint?$CIref_count_?$CJ?$AA@ 10050fec     arena.obj
 0002:0000c00c       ??_7empty_task@tbb@@6B@    1005100c     arena.obj
 0002:0000c018       ??_C@_0BC@JDFJEHHM@my_task_pool_size?$AA@ 10051018     arena.obj
 0002:0000c02c       ??_C@_0BN@NDJLLLFE@d?3?2dev?2tbb?2src?2tbb?2mailbox?4h?$AA@ 1005102c     arena.obj
 0002:0000c04c       ??_C@_0BP@MNEAKMKM@sizeof?$CI?$CKthis?$CJ?$DN?$DNNFS_MaxLineSize?$AA@ 1005104c     arena.obj
 0002:0000c06c       ??_C@_09OBBJHBOG@?$CBmy_first?$AA@ 1005106c     arena.obj
 0002:0000c078       ??_C@_08IBAGIHNA@?$CBmy_last?$AA@ 10051078     arena.obj
 0002:0000c084       ??_C@_0M@KNJEEGAH@?$CBmy_is_idle?$AA@ 10051084     arena.obj
 0002:0000c090       ??_C@_0N@IIPOOJBI@not?5attached?$AA@ 10051090     arena.obj
 0002:0000c0a0       ??_C@_09OEPHKDIP@my_putter?$AA@ 100510a0     arena.obj
 0002:0000c0ac       ??_C@_0DA@EJPFNHBC@attempt?5to?5redundantly?5mark?5mail@ 100510ac     arena.obj
 0002:0000c0dc       ??_C@_0BP@JDMDBFAC@my_putter?9?$DOmy_is_idle?5?$HM?$HM?5value?$AA@ 100510dc     arena.obj
 0002:0000c0fc       ??_C@_0CB@KDJNNNFJ@c?5must?5be?5odd?5for?5big?5rng?5period@ 100510fc     arena.obj
 0002:0000c120       ??_C@_03NLFEFOO@c?$CG1?$AA@ 10051120     arena.obj
 0002:0000c124       ??_C@_0BO@DMMCLHIA@d?3?2dev?2tbb?2src?2tbb?2tbb_misc?4h?$AA@ 10051124     arena.obj
 0002:0000c144       ??_C@_0BO@KFDPICNO@task_group_context?5is?5invalid?$AA@ 10051144     arena.obj
 0002:0000c164       ??_C@_03DJKOPCOJ@tgc?$AA@  10051164     arena.obj
 0002:0000c168       ??_C@_0CM@HLNMPAJN@referenced?5task_group_context?5wa@ 10051168     arena.obj
 0002:0000c194       ??_C@_0O@JDHKFJME@is_alive?$CIctx?$CJ?$AA@ 10051194     arena.obj
 0002:0000c1a4       ??_C@_0DD@GCCMCKLJ@?$CB?$CIctx?$CG?$HO?$CI3?$HM?$CI7?$DM?$DMtask_group_context@ 100511a4     arena.obj
 0002:0000c1d8       ??_C@_0CJ@LFPFLKGK@tgc?9?$DOmy_kind?5?$DM?5task_group_contex@ 100511d8     arena.obj
 0002:0000c208       ??_C@_0EL@PBLIFOPJ@tgc?9?$DOmy_cancellation_requested?5?$DN@ 10051208     arena.obj
 0002:0000c254       ??_C@_0DJ@LDNDIAH@tgc?9?$DOmy_state?5?$DM?5task_group_conte@ 10051254     arena.obj
 0002:0000c290       ??_C@_0O@DLOLMOAK@tgc?9?$DOmy_owner?$AA@ 10051290     arena.obj
 0002:0000c2a0       ??_C@_0CN@NLACLNGC@tgc?9?$DOmy_node?4my_next?5?$CG?$CG?5tgc?9?$DOmy_@ 100512a0     arena.obj
 0002:0000c2d0       ??_C@_0DA@NDIDNFBO@is_alive?$CItgc?9?$DOmy_parent?9?$DOmy_vers@ 100512d0     arena.obj
 0002:0000c300       ??_C@_06CKCKBIJI@pos?$DO?$DN0?$AA@ 10051300     arena.obj
 0002:0000c308       ??_C@_0CB@CNKPEMFA@d?3?2dev?2tbb?2src?2tbb?2task_stream?4h@ 10051308     arena.obj
 0002:0000c32c       ??_C@_0CA@GILKEELP@pos?$DMint?$CIsizeof?$CIpopulation_t?$CJ?$CK8?$CJ?$AA@ 1005132c     arena.obj
 0002:0000c34c       ??_C@_0CE@ICKEAHKO@d?3?2dev?2tbb?2src?2tbb?2observer_prox@ 1005134c     arena.obj
 0002:0000c370       ??_C@_0BK@FFKPNNPE@is_alive?$CI?$CIuintptr_t?$CJlast?$CJ?$AA@ 10051370     arena.obj
 0002:0000c38c       ??_C@_04PLGBGIDD@last?$AA@ 1005138c     arena.obj
 0002:0000c394       ??_C@_0CF@KAJGPIBO@affinity?5id?5must?5be?5positive?5int@ 10051394     arena.obj
 0002:0000c3bc       ??_C@_04GEJGKJHB@0?$DMid?$AA@ 100513bc     arena.obj
 0002:0000c3c4       ??_C@_0BL@EKMGIII@d?3?2dev?2tbb?2src?2tbb?2arena?4h?$AA@ 100513c4     arena.obj
 0002:0000c3e0       ??_C@_0BK@FLEGBGKI@affinity?5id?5out?5of?5bounds?$AA@ 100513e0     arena.obj
 0002:0000c3fc       ??_C@_0BD@OMMHHPPG@id?5?$DM?$DN?5my_num_slots?$AA@ 100513fc     arena.obj
 0002:0000c410       ??_C@_0O@MBNNLPFM@my_arena_slot?$AA@ 10051410     arena.obj
 0002:0000c420       ??_C@_0BL@ODPIFFEN@Task?5pool?5is?5not?5quiescent?$AA@ 10051420     arena.obj
 0002:0000c43c       ??_C@_0BP@GAMMILEG@is_local_task_pool_quiescent?$CI?$CJ?$AA@ 1005143c     arena.obj
 0002:0000c45c       ??_C@_04OIAIIDOD@id?$DO0?$AA@ 1005145c     arena.obj
 0002:0000c468       ??_7delegated_task@internal@interface7@tbb@@6B@ 10051468     arena.obj
 0002:0000c474       ??_C@_0CB@OMHFKCP@s?4my_innermost_running_task?5?$DN?$DN?5t@ 10051474     arena.obj
 0002:0000c498       ??_C@_0BN@BMPMGJCC@d?3?2dev?2tbb?2src?2tbb?2arena?4cpp?$AA@ 10051498     arena.obj
 0002:0000c4b8       ??_C@_0DM@HNNILCFL@expected?5to?5be?5enqueued?5and?5rece@ 100514b8     arena.obj
 0002:0000c4f4       ??_C@_0BE@CFOCPJGK@s?4outermost_level?$CI?$CJ?$AA@ 100514f4     arena.obj
 0002:0000c508       ??_C@_0BI@CIDBMGBG@my_root?9?$DOref_count?$CI?$CJ?$DN?$DN2?$AA@ 10051508     arena.obj
 0002:0000c524       ??_7?$function_task@Vspawn_functor@graph@interface10@flow@tbb@@@internal@tbb@@6B@ 10051524     arena.obj
 0002:0000c534       ??_7wait_task@internal@interface7@tbb@@6B@ 10051534     arena.obj
 0002:0000c540       ??_C@_01LKDEMHDF@s?$AA@    10051540     arena.obj
 0002:0000c544       ??_C@_0DL@KFGKEBJE@The?5enqueued?5task?5can?5be?5process@ 10051544     arena.obj
 0002:0000c580       ??_C@_0BF@OHGECEBE@s?9?$DOoutermost_level?$CI?$CJ?$AA@ 10051580     arena.obj
 0002:0000c598       ??_C@_0CF@ODNGAPM@s?9?$DOmy_innermost_running_task?5?$DN?$DN?5@ 10051598     arena.obj
 0002:0000c5c0       ??_C@_0CD@OFNAHHEA@is_bit_set?$CI?5population?$FLlevel?$FN?0?5i@ 100515c0     arena.obj
 0002:0000c5e4       ??_C@_0BO@CBFHELNN@number?5of?5lanes?5miscalculated?$AA@ 100515e4     arena.obj
 0002:0000c604       ??_C@_0CL@NIIKOCAN@N?$DN?$DNmax_lanes?5?$HM?$HM?5N?$DO?$DNn_lanes?5?$CG?$CG?5?$CI?$CI@ 10051604     arena.obj
 0002:0000c630       ??_C@_0BO@GMMHLBMM@N?5?$DM?$DN?5sizeof?$CIpopulation_t?$CJ?5?$CK?58?$AA@ 10051630     arena.obj
 0002:0000c650       ??_C@_0BD@KHCHLJLI@?$CBpopulation?$FLlevel?$FN?$AA@ 10051650     arena.obj
 0002:0000c668       ??_C@_1MO@MODNMCKF@?$AAc?$AA?3?$AA?2?$AAp?$AAr?$AAo?$AAg?$AAr?$AAa?$AAm?$AA?5?$AAf?$AAi?$AAl?$AAe?$AAs?$AA?5?$AA?$CI?$AAx?$AA8?$AA6?$AA?$CJ?$AA?2?$AAm?$AAi?$AAc?$AAr?$AAo?$AAs?$AAo?$AAf?$AAt@ 10051668     arena.obj
 0002:0000c738       ??_C@_1EC@CEAHEOFL@?$AAd?$AAe?$AAq?$AAu?$AAe?$AA?5?$AAi?$AAt?$AAe?$AAr?$AAa?$AAt?$AAo?$AAr?$AA?5?$AAn?$AAo?$AAt?$AA?5?$AAi?$AAn?$AAc?$AAr?$AAe?$AAm?$AAe?$AAn?$AAt?$AAa?$AAb?$AAl?$AAe@ 10051738     arena.obj
 0002:0000c780       ??_C@_1OK@IPOEJLAK@?$AAs?$AAt?$AAd?$AA?3?$AA?3?$AA_?$AAD?$AAe?$AAq?$AAu?$AAe?$AA_?$AAc?$AAo?$AAn?$AAs?$AAt?$AA_?$AAi?$AAt?$AAe?$AAr?$AAa?$AAt?$AAo?$AAr?$AA?$DM?$AAc?$AAl?$AAa?$AAs?$AAs@ 10051780     arena.obj
 0002:0000c870       ??_C@_1EG@GHGJBFLN@?$AA?$CC?$AAd?$AAe?$AAq?$AAu?$AAe?$AA?5?$AAi?$AAt?$AAe?$AAr?$AAa?$AAt?$AAo?$AAr?$AA?5?$AAn?$AAo?$AAt?$AA?5?$AAi?$AAn?$AAc?$AAr?$AAe?$AAm?$AAe?$AAn?$AAt?$AAa?$AAb?$AAl@ 10051870     arena.obj
 0002:0000c8b8       ??_C@_1EE@INPCGGNP@?$AAd?$AAe?$AAq?$AAu?$AAe?$AA?5?$AAi?$AAt?$AAe?$AAr?$AAa?$AAt?$AAo?$AAr?$AA?5?$AAn?$AAo?$AAt?$AA?5?$AAd?$AAe?$AAr?$AAe?$AAf?$AAe?$AAr?$AAe?$AAn?$AAc?$AAa?$AAb?$AAl@ 100518b8     arena.obj
 0002:0000c900       ??_C@_1OI@HFCPILNI@?$AAs?$AAt?$AAd?$AA?3?$AA?3?$AA_?$AAD?$AAe?$AAq?$AAu?$AAe?$AA_?$AAc?$AAo?$AAn?$AAs?$AAt?$AA_?$AAi?$AAt?$AAe?$AAr?$AAa?$AAt?$AAo?$AAr?$AA?$DM?$AAc?$AAl?$AAa?$AAs?$AAs@ 10051900     arena.obj
 0002:0000c9e8       ??_C@_1EI@MLNCFKMP@?$AA?$CC?$AAd?$AAe?$AAq?$AAu?$AAe?$AA?5?$AAi?$AAt?$AAe?$AAr?$AAa?$AAt?$AAo?$AAr?$AA?5?$AAn?$AAo?$AAt?$AA?5?$AAd?$AAe?$AAr?$AAe?$AAf?$AAe?$AAr?$AAe?$AAn?$AAc?$AAa?$AAb@ 100519e8     arena.obj
 0002:0000ca30       ??_C@_1DK@CNDLFKCJ@?$AAd?$AAe?$AAq?$AAu?$AAe?$AA?5?$AAi?$AAt?$AAe?$AAr?$AAa?$AAt?$AAo?$AAr?$AAs?$AA?5?$AAi?$AAn?$AAc?$AAo?$AAm?$AAp?$AAa?$AAt?$AAi?$AAb?$AAl?$AAe?$AA?$AA@ 10051a30     arena.obj
 0002:0000ca70       ??_C@_1OC@EJJJDGHM@?$AAs?$AAt?$AAd?$AA?3?$AA?3?$AA_?$AAD?$AAe?$AAq?$AAu?$AAe?$AA_?$AAc?$AAo?$AAn?$AAs?$AAt?$AA_?$AAi?$AAt?$AAe?$AAr?$AAa?$AAt?$AAo?$AAr?$AA?$DM?$AAc?$AAl?$AAa?$AAs?$AAs@ 10051a70     arena.obj
 0002:0000cb54       ??_C@_1DO@MEEAMOJI@?$AA?$CC?$AAd?$AAe?$AAq?$AAu?$AAe?$AA?5?$AAi?$AAt?$AAe?$AAr?$AAa?$AAt?$AAo?$AAr?$AAs?$AA?5?$AAi?$AAn?$AAc?$AAo?$AAm?$AAp?$AAa?$AAt?$AAi?$AAb?$AAl?$AAe?$AA?$CC?$AA?$AA@ 10051b54     arena.obj
 0002:0000cb94       ??_C@_0BC@KBDMBKEH@deque?$DMT?$DO?5too?5long?$AA@ 10051b94     arena.obj
 0002:0000cba8       ??_C@_1CO@FNIDKHMC@?$AAd?$AAe?$AAq?$AAu?$AAe?$AA?5?$AAe?$AAm?$AAp?$AAt?$AAy?$AA?5?$AAb?$AAe?$AAf?$AAo?$AAr?$AAe?$AA?5?$AAp?$AAo?$AAp?$AA?$AA@ 10051ba8     arena.obj
 0002:0000cbd8       ??_C@_1KK@IPLLCLGI@?$AAs?$AAt?$AAd?$AA?3?$AA?3?$AAd?$AAe?$AAq?$AAu?$AAe?$AA?$DM?$AAc?$AAl?$AAa?$AAs?$AAs?$AA?5?$AAt?$AAb?$AAb?$AA?3?$AA?3?$AAt?$AAa?$AAs?$AAk?$AA?5?$AA?$CK?$AA?0?$AAc?$AAl?$AAa@ 10051bd8     arena.obj
 0002:0000cc84       ??_C@_1DC@NJAACHCD@?$AA?$CC?$AAd?$AAe?$AAq?$AAu?$AAe?$AA?5?$AAe?$AAm?$AAp?$AAt?$AAy?$AA?5?$AAb?$AAe?$AAf?$AAo?$AAr?$AAe?$AA?5?$AAp?$AAo?$AAp?$AA?$CC?$AA?$AA@ 10051c84     arena.obj
 0002:0000ccb8       ??_C@_0BP@CBDJMBJD@broken?5arena?5reference?5counter?$AA@ 10051cb8     arena.obj
 0002:0000ccd8       ??_C@_0BL@GOOCMMAL@my_references?5?$DO?$DN?5ref_param?$AA@ 10051cd8     arena.obj
 0002:000102c4       ??_7scheduler@internal@tbb@@6B@ 100552c4     scheduler.obj
 0002:000102d8       ??_C@_0BH@PJCFOIOF@?$CBcurr?9?$DOnext_in_mailbox?$AA@ 100552d8     scheduler.obj
 0002:000102f0       ??_C@_04PBNCPCJL@curr?$AA@ 100552f0     scheduler.obj
 0002:000102f8       ??_C@_01PFHFFBPC@t?$AA@    100552f8     scheduler.obj
 0002:00010300       ??_7generic_scheduler@internal@tbb@@6B@ 10055300     scheduler.obj
 0002:0001031c       ??_C@_0BI@CMOLMDHH@RML?5server?5not?5defined?$DP?$AA@ 1005531c     scheduler.obj
 0002:00010334       ??_C@_09PDIAIGKC@my_server?$AA@ 10055334     scheduler.obj
 0002:00010340       ??_C@_0DC@OMPMODAI@Task?5pool?5must?5be?5locked?5when?5re@ 10055340     scheduler.obj
 0002:00010374       ??_C@_0DD@IHALEKFF@my_arena_slot?9?$DOtask_pool?5?$DN?$DN?5?$CI?$CIta@ 10055374     scheduler.obj
 0002:000103a8       ??_C@_0BP@DLJALJOC@task?5deque?5end?5was?5overwritten?$AA@ 100553a8     scheduler.obj
 0002:000103c8       ??_C@_0CN@ICKPEFI@new_tail?5?$DM?$DN?5my_arena_slot?9?$DOmy_ta@ 100553c8     scheduler.obj
 0002:000103f8       ??_C@_0DP@GHBJMLBA@Task?5pool?5must?5be?5locked?5when?5ca@ 100553f8     scheduler.obj
 0002:00010438       ??_C@_0CD@CFIANOHN@The?5proxy?5task?5cannot?5be?5offload@ 10055438     scheduler.obj
 0002:0001045c       ??_C@_0N@GOECIDD@?$CBis_proxy?$CIt?$CJ?$AA@ 1005545c     scheduler.obj
 0002:00010470       ??_C@_0EH@OANICANA@my_offloaded_task_list_tail_link@ 10055470     scheduler.obj
 0002:000104bc       ??_7?$custom_scheduler@UDefaultSchedulerTraits@internal@tbb@@@internal@tbb@@6B@ 100554bc     scheduler.obj
 0002:000104dc       ??_7?$custom_scheduler@UIntelSchedulerTraits@internal@tbb@@@internal@tbb@@6B@ 100554dc     scheduler.obj
 0002:000104f8       ??_C@_0EC@JPJKCONO@?$CBis_task_pool_published?$CI?$CJ?5?$CG?$CG?5is_@ 100554f8     scheduler.obj
 0002:0001053c       ??_C@_0CB@CJHKKINP@d?3?2dev?2tbb?2src?2tbb?2scheduler?4cpp@ 1005553c     scheduler.obj
 0002:00010560       ??_C@_0BO@FFGMFFKH@?$CBmy_arena_slot?9?$DOtask_pool_ptr?$AA@ 10055560     scheduler.obj
 0002:00010580       ??_C@_0DH@BMPONNCM@my_arena_slot?9?$DOmy_task_pool_size@ 10055580     scheduler.obj
 0002:000105b8       ??_C@_0BJ@EBNAOIPB@invalid?5arena?5slot?5index?$AA@ 100555b8     scheduler.obj
 0002:000105d4       ??_C@_0DF@OAKHJCHO@my_arena_slot?5?$DN?$DN?5my_arena?9?$DOmy_sl@ 100555d4     scheduler.obj
 0002:0001060c       ??_C@_0BI@DDHEOPJ@slot?5ownership?5corrupt?$DP?$AA@ 1005560c     scheduler.obj
 0002:00010628       ??_C@_0ED@DPOFMDLB@tp?5?$DN?$DN?5?$CI?$CItask?$CK?$CK?$CJ?$HO?$CIintptr_t?$CJ0?$CJ?5?$HM?$HM?5@ 10055628     scheduler.obj
 0002:0001066c       ??_C@_0BO@BPAKPMEK@not?5really?5acquired?5task?5pool?$AA@ 1005566c     scheduler.obj
 0002:0001068c       ??_C@_0BE@OBDANAJJ@we?5are?5not?5in?5arena?$AA@ 1005568c     scheduler.obj
 0002:000106a0       ??_C@_0BJ@KAKOPABB@arena?5slot?5is?5not?5locked?$AA@ 100556a0     scheduler.obj
 0002:000106bc       ??_C@_0CG@DLNDAJCB@not?5really?5locked?5victim?8s?5task?5@ 100556bc     scheduler.obj
 0002:000106e8       ??_C@_0IK@MGPPBPLF@victim_task_pool?5?$DN?$DN?5?$CI?$CItask?$CK?$CK?$CJ0?$CJ?5@ 100556e8     scheduler.obj
 0002:00010774       ??_C@_0CA@KPJJIGGI@empty?5victim?5arena?5slot?5pointer?$AA@ 10055774     scheduler.obj
 0002:00010794       ??_C@_0BC@FDIBDHCF@victim_arena_slot?$AA@ 10055794     scheduler.obj
 0002:000107a8       ??_C@_0CA@PNKDECOB@victim?5arena?5slot?5is?5not?5locked?$AA@ 100557a8     scheduler.obj
 0002:000107c8       ??_C@_0DH@EKDIAKJL@victim_arena_slot?9?$DOtask_pool?5?$DN?$DN?5@ 100557c8     scheduler.obj
 0002:00010800       ??_C@_0DH@EOPIIHGK@attempt?5to?5spawn?5task?5that?5is?5no@ 10055800     scheduler.obj
 0002:00010838       ??_C@_0BM@PKOLENLD@t?9?$DOstate?$CI?$CJ?$DN?$DNtask?3?3allocated?$AA@ 10055838     scheduler.obj
 0002:00010854       ??_C@_0DF@OEIDPLN@attempt?5to?5spawn?5task?5whose?5pare@ 10055854     scheduler.obj
 0002:0001088c       ??_C@_0N@GFHEPNGJ@ref_count?$DO?$DN0?$AA@ 1005588c     scheduler.obj
 0002:000108a0       ??_C@_0FB@KLFGCIGA@attempt?5to?5spawn?5task?5whose?5pare@ 100558a0     scheduler.obj
 0002:000108f4       ??_C@_0N@GNAOLKKA@ref_count?$CB?$DN0?$AA@ 100558f4     scheduler.obj
 0002:00010904       ??_C@_0DD@DBDAGODG@backwards?5compatibility?5to?5TBB?52@ 10055904     scheduler.obj
 0002:00010938       ??_C@_0CJ@OADHCJIC@dst_thread?5?$DN?$DN?50?5?$HM?$HM?5is_version_3_@ 10055938     scheduler.obj
 0002:00010964       ??_C@_0CI@GLNIEMEP@Is?5it?5safe?5to?5get?5a?5task?5at?5posi@ 10055964     scheduler.obj
 0002:00010990       ??_C@_0FB@PEEIAAKN@__TBB_load_relaxed?$CI?5my_arena_slo@ 10055990     scheduler.obj
 0002:000109e4       ??_C@_0CL@NKJHBMDP@The?5poisoned?5task?5is?5going?5to?5be@ 100559e4     scheduler.obj
 0002:00010a10       ??_C@_0BH@JBFJDMFK@?$CBis_poisoned?$CI?5result?5?$CJ?$AA@ 10055a10     scheduler.obj
 0002:00010a28       ??_C@_0CM@FLLAMAOI@backwards?5compatibility?5with?5TBB@ 10055a28     scheduler.obj
 0002:00010a54       ??_C@_0BI@LOLDPLBP@is_version_3_task?$CI?5?$CKt?5?$CJ?$AA@ 10055a54     scheduler.obj
 0002:00010a6c       ??_C@_0BP@BDLOPJOA@my_innermost_running_task?5?$CB?$DN?5t?$AA@ 10055a6c     scheduler.obj
 0002:00010a8c       ??_C@_0BJ@HJENMGEB@is_task_pool_published?$CI?$CJ?$AA@ 10055a8c     scheduler.obj
 0002:00010aa8       ??_C@_07GEMCFJLC@?$CBresult?$AA@ 10055aa8     scheduler.obj
 0002:00010ab0       ??_C@_0CL@JFLKFHKK@victim?1thief?5arbitration?5algorit@ 10055ab0     scheduler.obj
 0002:00010ae0       ??_C@_0HB@FMCKPCFE@H0?5?$DN?$DN?5__TBB_load_relaxed?$CI?5my_are@ 10055ae0     scheduler.obj
 0002:00010b54       ??_C@_09HNHGNKJM@T0?5?$DN?$DN?5T?$CL1?$AA@ 10055b54     scheduler.obj
 0002:00010b60       ??_C@_0CF@LDHNFBMB@is_quiescent_local_task_pool_res@ 10055b60     scheduler.obj
 0002:00010b88       ??_C@_07HCAANLFB@H0?5?$DN?$DN?5T?$AA@ 10055b88     scheduler.obj
 0002:00010b90       ??_C@_08IAEIEOP@H0?5?$DM?$DN?5T0?$AA@ 10055b90     scheduler.obj
 0002:00010b9c       ??_C@_06KJFADLGN@result?$AA@ 10055b9c     scheduler.obj
 0002:00010ba4       ??_C@_0DJ@MBBCHFFI@?$CIintptr_t?$CJ__TBB_load_relaxed?$CI?5my@ 10055ba4     scheduler.obj
 0002:00010be0       ??_C@_0EA@DGLADJAL@result?5?$HM?$HM?5tasks_omitted?5?$HM?$HM?5is_qu@ 10055be0     scheduler.obj
 0002:00010c20       ??_C@_0CI@FKMLHL@no?5arena?3?5initialization?5not?5com@ 10055c20     scheduler.obj
 0002:00010c48       ??_C@_0CB@LPMOJLPE@arena?5slot?5index?5is?5out?9of?9bound@ 10055c48     scheduler.obj
 0002:00010c6c       ??_C@_0CI@OHFLOHIC@my_arena_index?5?$DM?5my_arena?9?$DOmy_nu@ 10055c6c     scheduler.obj
 0002:00010c94       ??_C@_0DF@PGIDHDB@my_arena_slot?5?$DN?$DN?5?$CGmy_arena?9?$DOmy_s@ 10055c94     scheduler.obj
 0002:00010ccc       ??_C@_0CE@INOMDMEC@someone?5else?5grabbed?5my?5arena?5sl@ 10055ccc     scheduler.obj
 0002:00010cf0       ??_C@_0CI@LGNJBBEB@my_arena_slot?9?$DOtask_pool?5?$DN?$DN?5?$CI?$CIta@ 10055cf0     scheduler.obj
 0002:00010d18       ??_C@_0CG@GFMBLNBF@entering?5arena?5without?5tasks?5to?5@ 10055d18     scheduler.obj
 0002:00010d40       ??_C@_0FC@HABCALHI@__TBB_load_relaxed?$CImy_arena_slot@ 10055d40     scheduler.obj
 0002:00010d94       ??_C@_0N@GEHBJNPJ@Not?5in?5arena?$AA@ 10055d94     scheduler.obj
 0002:00010da4       ??_C@_0CD@GJBBKPKF@arena?5slot?5and?5slot?5index?5mismat@ 10055da4     scheduler.obj
 0002:00010dc8       ??_C@_0DF@MEJMMJFG@?$CGmy_arena?9?$DOmy_slots?$FLmy_arena_ind@ 10055dc8     scheduler.obj
 0002:00010e00       ??_C@_0CM@PKMMCBAO@Task?5pool?5must?5be?5locked?5when?5le@ 10055e00     scheduler.obj
 0002:00010e2c       ??_C@_0DD@NMGIJENM@Cannot?5leave?5arena?5when?5the?5task@ 10055e2c     scheduler.obj
 0002:00010e60       ??_C@_0CF@NPJCDDNF@is_quiescent_local_task_pool_emp@ 10055e60     scheduler.obj
 0002:00010e88       ??_C@_0BK@LFACAHON@Maximal?5capacity?5exceeded?$AA@ 10055e88     scheduler.obj
 0002:00010ea4       ??_C@_0BO@MDAELBIO@m_num_segments?5?$DM?5max_segments?$AA@ 10055ea4     scheduler.obj
 0002:00010ec4       ??_C@_0CH@FNFKBLPF@d?3?2dev?2tbb?2src?2tbb?2scheduler_uti@ 10055ec4     scheduler.obj
 0002:00010eec       ??_C@_0CK@LELAGDPJ@Nonempty?5initial?5segment?5must?5be@ 10055eec     scheduler.obj
 0002:00010f18       ??_C@_0CA@KCKFCMBB@initial_segment?5?$CG?$CG?5segment_size?$AA@ 10055f18     scheduler.obj
 0002:00010f38       ??_C@_0CH@JEFMPKMI@Normal?5task?5misinterpreted?5as?5a?5@ 10055f38     scheduler.obj
 0002:00010f60       ??_C@_0CG@CFHFCKPM@prefix?$CI?$CJ?4extra_state?5?$DN?$DN?5es_task_@ 10055f60     scheduler.obj
 0002:00010f88       ??_C@_0GI@GIJCFNCK@Proxy?8s?5tag?5cannot?5specify?5both?5@ 10055f88     scheduler.obj
 0002:00010ff0       ??_C@_0DF@OJCBPOPH@tat?5?$DN?$DN?5from_bit?5?$HM?$HM?5?$CIis_shared?$CIta@ 10055ff0     scheduler.obj
 0002:00011028       ??_C@_0DB@IMPNEGJF@Empty?5proxy?5cannot?5contain?5non?9z@ 10056028     scheduler.obj
 0002:0001105c       ??_C@_0BJ@NAOIKHFB@task_and_tag?5?$DN?$DN?5from_bit?$AA@ 1005605c     scheduler.obj
 0002:00011078       ??_C@_0EF@DFJMMIPF@completion?5of?5task?5caused?5predec@ 10056078     scheduler.obj
 0002:000110c0       ??_C@_0P@KPMFOABG@p?4ref_count?$DN?$DN0?$AA@ 100560c0     scheduler.obj
 0002:000110d0       ??_C@_0CG@MAPAMPPH@d?3?2dev?2tbb?2src?2tbb?2custom_schedu@ 100560d0     scheduler.obj
 0002:000110f8       ??_C@_0DI@KEOEKCDJ@p?4isolation?5?$DN?$DN?5no_isolation?5?$HM?$HM?5p@ 100560f8     scheduler.obj
 0002:00011130       ??_C@_1KM@CNDICFPH@?$AAs?$AAt?$AAd?$AA?3?$AA?3?$AAd?$AAe?$AAq?$AAu?$AAe?$AA?$DM?$AAc?$AAl?$AAa?$AAs?$AAs?$AA?5?$AAt?$AAb?$AAb?$AA?3?$AA?3?$AAt?$AAa?$AAs?$AAk?$AA?5?$AA?$CK?$AA?0?$AAc?$AAl?$AAa@ 10056130     scheduler.obj
 0002:00011ca8       ??_C@_0CI@PMFFFLKG@task_arena?5initialization?5is?5inc@ 10056ca8     observer_proxy.obj
 0002:00011cd0       ??_C@_0CE@KGMJAHMF@d?3?2dev?2tbb?2include?2tbb?2task_aren@ 10056cd0     observer_proxy.obj
 0002:00011cf4       ??_C@_0L@KIPAIEID@my_context?$AA@ 10056cf4     observer_proxy.obj
 0002:00011d00       ??_C@_01KDCPPGHE@r?$AA@    10056d00     observer_proxy.obj
 0002:00011d04       ??_C@_0CD@KLDPKFDL@Leaked?5?$CFld?5observer_proxy?5object@ 10056d04     observer_proxy.obj
 0002:00011f8c       ??_7control_storage@internal@tbb@@6B@ 10056f8c     tbb_main.obj
 0002:00011fa0       ??_7?$padded_base@Vcontrol_storage@internal@tbb@@$0IA@$0BA@@internal@tbb@@6B@ 10056fa0     tbb_main.obj
 0002:00011fb4       ??_7?$padded@Vcontrol_storage@internal@tbb@@$0IA@@internal@tbb@@6B@ 10056fb4     tbb_main.obj
 0002:00011fc8       ??_7allowed_parallelism_control@internal@tbb@@6B@ 10056fc8     tbb_main.obj
 0002:00011fd8       ??_C@_0BD@PLEDMFOC@my_active_value?$DO?$DN1?$AA@ 10056fd8     tbb_main.obj
 0002:00011fec       ??_C@_0CA@GOJMNPOK@d?3?2dev?2tbb?2src?2tbb?2tbb_main?4cpp?$AA@ 10056fec     tbb_main.obj
 0002:00012010       ??_7stack_size_control@internal@tbb@@6B@ 10057010     tbb_main.obj
 0002:00012418       ??_C@_0CK@MILFLHAC@result?$DN?$DNsegment_base?$CIk?$CL1?$CJ?9segmen@ 10057418     concurrent_vector_v2.obj
 0002:00012444       ??_C@_0CK@ODFOOLPC@d?3?2dev?2tbb?2src?2old?2concurrent_ve@ 10057444     concurrent_vector_v2.obj
 0002:000127c4       ??_7concurrent_queue_base@internal@tbb@@6B@ 100577c4     concurrent_queue_v2.obj
 0002:000127d0       ??_C@_0CL@ONJJDPHD@d?3?2dev?2tbb?2src?2old?2concurrent_qu@ 100577d0     concurrent_queue_v2.obj
 0002:00012dcc       ??_7type_info@@6B@         10057dcc     MSVCRTD:std_type_info_static.obj
 0002:00012e64       __pDefaultRawDllMain       10057e64     MSVCRTD:dll_dllmain.obj
 0002:00012e64       __pRawDllMain              10057e64     MSVCRTD:dll_dllmain.obj
 0002:00012f08       ??_C@_0NN@NGPKDKPD@The?5value?5of?5ESP?5was?5not?5properl@ 10057f08     MSVCRTD:_error_.obj
 0002:00012fe8       ??_C@_0BBN@GPMLNJCF@A?5cast?5to?5a?5smaller?5data?5type?5ha@ 10057fe8     MSVCRTD:_error_.obj
 0002:00013108       ??_C@_0BN@FFOINMNJ@Stack?5memory?5was?5corrupted?6?$AN?$AA@ 10058108     MSVCRTD:_error_.obj
 0002:00013128       ??_C@_0DG@HKJMLLLP@A?5local?5variable?5was?5used?5before@ 10058128     MSVCRTD:_error_.obj
 0002:00013160       ??_C@_0CM@NGINOKPC@Stack?5memory?5around?5_alloca?5was?5@ 10058160     MSVCRTD:_error_.obj
 0002:0001318c       ??_C@_0BO@GNIAFIKK@Unknown?5Runtime?5Check?5Error?6?$AN?$AA@ 1005818c     MSVCRTD:_error_.obj
 0002:000131b0       ??_C@_1GM@OLMCBDMB@?$AAR?$AAu?$AAn?$AAt?$AAi?$AAm?$AAe?$AA?5?$AAC?$AAh?$AAe?$AAc?$AAk?$AA?5?$AAE?$AAr?$AAr?$AAo?$AAr?$AA?4?$AA?6?$AA?$AN?$AA?5?$AAU?$AAn?$AAa?$AAb?$AAl?$AAe?$AA?5?$AAt?$AAo@ 100581b0     MSVCRTD:_error_.obj
 0002:00013220       ??_C@_1EA@NFKNIFJP@?$AAR?$AAu?$AAn?$AA?9?$AAT?$AAi?$AAm?$AAe?$AA?5?$AAC?$AAh?$AAe?$AAc?$AAk?$AA?5?$AAF?$AAa?$AAi?$AAl?$AAu?$AAr?$AAe?$AA?5?$AA?$CD?$AA?$CF?$AAd?$AA?5?$AA?9?$AA?5?$AA?$CF?$AAs?$AA?$AA@ 10058220     MSVCRTD:_error_.obj
 0002:00013260       ??_C@_0BB@PFFGGCJP@Unknown?5Filename?$AA@ 10058260     MSVCRTD:_error_.obj
 0002:00013274       ??_C@_0BE@GNBOBNCK@Unknown?5Module?5Name?$AA@ 10058274     MSVCRTD:_error_.obj
 0002:00013288       ??_C@_0CA@IODNCDPG@Run?9Time?5Check?5Failure?5?$CD?$CFd?5?9?5?$CFs?$AA@ 10058288     MSVCRTD:_error_.obj
 0002:000132a8       ??_C@_0CG@IAFNJNEE@Stack?5corrupted?5near?5unknown?5var@ 100582a8     MSVCRTD:_error_.obj
 0002:000132d0       ??_C@_05MKKEDADM@?$CF?42X?5?$AA@ 100582d0     MSVCRTD:_error_.obj
 0002:000132d8       ??_C@_0EJ@LJKNEOLN@Stack?5area?5around?5_alloca?5memory@ 100582d8     MSVCRTD:_error_.obj
 0002:00013324       ??_C@_01EEMJAFIK@?6?$AA@   10058324     MSVCRTD:_error_.obj
 0002:00013328       ??_C@_02LLMPMKNF@?$DO?5?$AA@ 10058328     MSVCRTD:_error_.obj
 0002:0001332c       ??_C@_08OMAHNMHJ@?6Data?3?5?$DM?$AA@ 1005832c     MSVCRTD:_error_.obj
 0002:00013338       ??_C@_0CK@DKGBICFE@?6Allocation?5number?5within?5this?5f@ 10058338     MSVCRTD:_error_.obj
 0002:00013364       ??_C@_07DFDJCKFN@?6Size?3?5?$AA@ 10058364     MSVCRTD:_error_.obj
 0002:0001336c       ??_C@_0N@MHFFIMFG@?6Address?3?50x?$AA@ 1005836c     MSVCRTD:_error_.obj
 0002:00013380       ??_C@_0EI@CLEPFNGI@Stack?5area?5around?5_alloca?5memory@ 10058380     MSVCRTD:_error_.obj
 0002:000133c8       ??_C@_0BK@ODNDAGKB@?$CFs?$CFs?$CFp?$CFs?$CFzd?$CFs?$CFd?$CFs?$CFs?$CFs?$CFs?$CFs?$AA@ 100583c8     MSVCRTD:_error_.obj
 0002:000133e4       ??_C@_0DE@OHJBPMBP@A?5variable?5is?5being?5used?5without@ 100583e4     MSVCRTD:_error_.obj
 0002:0001342c       ??_C@_0BJ@HEGAHDFO@Stack?5pointer?5corruption?$AA@ 1005842c     MSVCRTD:_userapi_.obj
 0002:00013448       ??_C@_0CK@FEGOIOPB@Cast?5to?5smaller?5type?5causing?5los@ 10058448     MSVCRTD:_userapi_.obj
 0002:00013474       ??_C@_0BI@CIGMDCBH@Stack?5memory?5corruption?$AA@ 10058474     MSVCRTD:_userapi_.obj
 0002:0001348c       ??_C@_0CK@CNLNOEPB@Local?5variable?5used?5before?5initi@ 1005848c     MSVCRTD:_userapi_.obj
 0002:000134b8       ??_C@_0BP@OGBCLIBO@Stack?5around?5_alloca?5corrupted?$AA@ 100584b8     MSVCRTD:_userapi_.obj
 0002:000134dc       ??_7bad_array_new_length@std@@6B@ 100584dc     MSVCRTD:throw_bad_alloc.obj
 0002:000134e4       ??_C@_0BF@KINCDENJ@bad?5array?5new?5length?$AA@ 100584e4     MSVCRTD:throw_bad_alloc.obj
 0002:00013548       ??_C@_1EI@MLPKHBGE@?$AAa?$AAp?$AAi?$AA?9?$AAm?$AAs?$AA?9?$AAw?$AAi?$AAn?$AA?9?$AAc?$AAo?$AAr?$AAe?$AA?9?$AAr?$AAe?$AAg?$AAi?$AAs?$AAt?$AAr?$AAy?$AA?9?$AAl?$AA1?$AA?9?$AA1?$AA?9?$AA0?$AA?4@ 10058548     MSVCRTD:_pdblkup_.obj
 0002:00013590       ??_C@_1BK@JHLNAEJL@?$AAa?$AAd?$AAv?$AAa?$AAp?$AAi?$AA3?$AA2?$AA?4?$AAd?$AAl?$AAl?$AA?$AA@ 10058590     MSVCRTD:_pdblkup_.obj
 0002:000135ac       ??_C@_0O@COHOBMLB@RegOpenKeyExW?$AA@ 100585ac     MSVCRTD:_pdblkup_.obj
 0002:000135bc       ??_C@_0BB@GLNAEDBD@RegQueryValueExW?$AA@ 100585bc     MSVCRTD:_pdblkup_.obj
 0002:000135d0       ??_C@_0M@HLOHPNFA@RegCloseKey?$AA@ 100585d0     MSVCRTD:_pdblkup_.obj
 0002:000135e0       ??_C@_1HE@EBEAGLFB@?$AAS?$AAO?$AAF?$AAT?$AAW?$AAA?$AAR?$AAE?$AA?2?$AAW?$AAo?$AAw?$AA6?$AA4?$AA3?$AA2?$AAN?$AAo?$AAd?$AAe?$AA?2?$AAM?$AAi?$AAc?$AAr?$AAo?$AAs?$AAo?$AAf?$AAt?$AA?2?$AAV@ 100585e0     MSVCRTD:_pdblkup_.obj
 0002:00013654       ??_C@_1BG@EABPBLLF@?$AAP?$AAr?$AAo?$AAd?$AAu?$AAc?$AAt?$AAD?$AAi?$AAr?$AA?$AA@ 10058654     MSVCRTD:_pdblkup_.obj
 0002:00013688       ??_C@_1BC@JINFINNJ@?$AAM?$AAS?$AAP?$AAD?$AAB?$AA1?$AA4?$AA0?$AA?$AA@ 10058688     MSVCRTD:_pdblkup_.obj
 0002:0001369c       ??_C@_0BB@KCIACLNC@PDBOpenValidate5?$AA@ 1005869c     MSVCRTD:_pdblkup_.obj
 0002:00013708       __load_config_used         10058708     MSVCRTD:loadcfg.obj
 0002:000137a8       ??_R4concurrent_queue_base_v3@internal@tbb@@6B@ 100587a8     concurrent_queue.obj
 0002:000137bc       ??_R3concurrent_queue_base_v3@internal@tbb@@8 100587bc     concurrent_queue.obj
 0002:000137cc       ??_R2concurrent_queue_base_v3@internal@tbb@@8 100587cc     concurrent_queue.obj
 0002:000137dc       ??_R1A@?0A@EA@concurrent_queue_base_v3@internal@tbb@@8 100587dc     concurrent_queue.obj
 0002:000137f8       ??_R13?0A@EN@no_copy@internal@tbb@@8 100587f8     concurrent_queue.obj
 0002:00013814       ??_R3no_copy@internal@tbb@@8 10058814     concurrent_queue.obj
 0002:00013824       ??_R2no_copy@internal@tbb@@8 10058824     concurrent_queue.obj
 0002:00013830       ??_R1A@?0A@EA@no_copy@internal@tbb@@8 10058830     concurrent_queue.obj
 0002:0001384c       ??_R1A@?0A@EN@no_assign@internal@tbb@@8 1005884c     concurrent_queue.obj
 0002:00013868       ??_R3no_assign@internal@tbb@@8 10058868     concurrent_queue.obj
 0002:00013878       ??_R2no_assign@internal@tbb@@8 10058878     concurrent_queue.obj
 0002:00013880       ??_R1A@?0A@EA@no_assign@internal@tbb@@8 10058880     concurrent_queue.obj
 0002:0001389c       ??_R13?0A@EN@no_assign@internal@tbb@@8 1005889c     concurrent_queue.obj
 0002:000138b8       ??_R4task@tbb@@6B@         100588b8     pipeline.obj
 0002:000138cc       ??_R3task@tbb@@8           100588cc     pipeline.obj
 0002:000138dc       ??_R2task@tbb@@8           100588dc     pipeline.obj
 0002:000138f0       ??_R1A@?0A@EA@task@tbb@@8  100588f0     pipeline.obj
 0002:0001390c       ??_R13?0A@EA@task_base@internal@interface5@tbb@@8 1005890c     pipeline.obj
 0002:00013928       ??_R3task_base@internal@interface5@tbb@@8 10058928     pipeline.obj
 0002:00013938       ??_R2task_base@internal@interface5@tbb@@8 10058938     pipeline.obj
 0002:00013948       ??_R1A@?0A@EA@task_base@internal@interface5@tbb@@8 10058948     pipeline.obj
 0002:00013964       ??_R1A@?0A@EN@no_copy@internal@tbb@@8 10058964     pipeline.obj
 0002:00013980       ??_R4pipeline@tbb@@6B@     10058980     pipeline.obj
 0002:00013994       ??_R3pipeline@tbb@@8       10058994     pipeline.obj
 0002:000139a4       ??_R2pipeline@tbb@@8       100589a4     pipeline.obj
 0002:000139ac       ??_R1A@?0A@EA@pipeline@tbb@@8 100589ac     pipeline.obj
 0002:000139c8       ??_R4filter@tbb@@6B@       100589c8     pipeline.obj
 0002:000139dc       ??_R3filter@tbb@@8         100589dc     pipeline.obj
 0002:000139ec       ??_R2filter@tbb@@8         100589ec     pipeline.obj
 0002:000139fc       ??_R1A@?0A@EA@filter@tbb@@8 100589fc     pipeline.obj
 0002:00013a18       ??_R4stage_task@internal@tbb@@6B@ 10058a18     pipeline.obj
 0002:00013a2c       ??_R3stage_task@internal@tbb@@8 10058a2c     pipeline.obj
 0002:00013a3c       ??_R2stage_task@internal@tbb@@8 10058a3c     pipeline.obj
 0002:00013a58       ??_R1A@?0A@EA@stage_task@internal@tbb@@8 10058a58     pipeline.obj
 0002:00013a74       ??_R13?0A@EA@task_info@internal@tbb@@8 10058a74     pipeline.obj
 0002:00013a90       ??_R3task_info@internal@tbb@@8 10058a90     pipeline.obj
 0002:00013aa0       ??_R2task_info@internal@tbb@@8 10058aa0     pipeline.obj
 0002:00013aa8       ??_R1A@?0A@EA@task_info@internal@tbb@@8 10058aa8     pipeline.obj
 0002:00013ac4       ??_R4pipeline_root_task@internal@tbb@@6B@ 10058ac4     pipeline.obj
 0002:00013ad8       ??_R3pipeline_root_task@internal@tbb@@8 10058ad8     pipeline.obj
 0002:00013ae8       ??_R2pipeline_root_task@internal@tbb@@8 10058ae8     pipeline.obj
 0002:00013b00       ??_R1A@?0A@EA@pipeline_root_task@internal@tbb@@8 10058b00     pipeline.obj
 0002:00013b1c       ??_R4server@rml@@6B@       10058b1c     private_server.obj
 0002:00013b30       ??_R3server@rml@@8         10058b30     private_server.obj
 0002:00013b40       ??_R2server@rml@@8         10058b40     private_server.obj
 0002:00013b4c       ??_R1A@?0A@EA@server@rml@@8 10058b4c     private_server.obj
 0002:00013b68       ??_R1A@?0A@EA@versioned_object@rml@@8 10058b68     private_server.obj
 0002:00013b84       ??_R3versioned_object@rml@@8 10058b84     private_server.obj
 0002:00013b94       ??_R2versioned_object@rml@@8 10058b94     private_server.obj
 0002:00013b9c       ??_R4versioned_object@rml@@6B@ 10058b9c     private_server.obj
 0002:00013bb0       ??_R4tbb_server@rml@internal@tbb@@6B@ 10058bb0     private_server.obj
 0002:00013bc4       ??_R3tbb_server@rml@internal@tbb@@8 10058bc4     private_server.obj
 0002:00013bd4       ??_R2tbb_server@rml@internal@tbb@@8 10058bd4     private_server.obj
 0002:00013be4       ??_R1A@?0A@EA@tbb_server@rml@internal@tbb@@8 10058be4     private_server.obj
 0002:00013c00       ??_R4private_server@rml@internal@tbb@@6B@ 10058c00     private_server.obj
 0002:00013c14       ??_R3private_server@rml@internal@tbb@@8 10058c14     private_server.obj
 0002:00013c24       ??_R2private_server@rml@internal@tbb@@8 10058c24     private_server.obj
 0002:00013c40       ??_R1A@?0A@EA@private_server@rml@internal@tbb@@8 10058c40     private_server.obj
 0002:00013c5c       ??_R4exception@std@@6B@    10058c5c     tbb_misc.obj
 0002:00013c70       ??_R3exception@std@@8      10058c70     tbb_misc.obj
 0002:00013c80       ??_R2exception@std@@8      10058c80     tbb_misc.obj
 0002:00013c88       ??_R1A@?0A@EA@exception@std@@8 10058c88     tbb_misc.obj
 0002:00013ca4       ??_R4bad_alloc@std@@6B@    10058ca4     tbb_misc.obj
 0002:00013cb8       ??_R3bad_alloc@std@@8      10058cb8     tbb_misc.obj
 0002:00013cc8       ??_R2bad_alloc@std@@8      10058cc8     tbb_misc.obj
 0002:00013cd4       ??_R1A@?0A@EA@bad_alloc@std@@8 10058cd4     tbb_misc.obj
 0002:00013cf0       ??_R4logic_error@std@@6B@  10058cf0     tbb_misc.obj
 0002:00013d04       ??_R3logic_error@std@@8    10058d04     tbb_misc.obj
 0002:00013d14       ??_R2logic_error@std@@8    10058d14     tbb_misc.obj
 0002:00013d20       ??_R1A@?0A@EA@logic_error@std@@8 10058d20     tbb_misc.obj
 0002:00013d3c       ??_R4invalid_argument@std@@6B@ 10058d3c     tbb_misc.obj
 0002:00013d50       ??_R3invalid_argument@std@@8 10058d50     tbb_misc.obj
 0002:00013d60       ??_R2invalid_argument@std@@8 10058d60     tbb_misc.obj
 0002:00013d70       ??_R1A@?0A@EA@invalid_argument@std@@8 10058d70     tbb_misc.obj
 0002:00013d8c       ??_R4length_error@std@@6B@ 10058d8c     tbb_misc.obj
 0002:00013da0       ??_R3length_error@std@@8   10058da0     tbb_misc.obj
 0002:00013db0       ??_R2length_error@std@@8   10058db0     tbb_misc.obj
 0002:00013dc0       ??_R1A@?0A@EA@length_error@std@@8 10058dc0     tbb_misc.obj
 0002:00013ddc       ??_R4out_of_range@std@@6B@ 10058ddc     tbb_misc.obj
 0002:00013df0       ??_R3out_of_range@std@@8   10058df0     tbb_misc.obj
 0002:00013e00       ??_R2out_of_range@std@@8   10058e00     tbb_misc.obj
 0002:00013e10       ??_R1A@?0A@EA@out_of_range@std@@8 10058e10     tbb_misc.obj
 0002:00013e2c       ??_R4runtime_error@std@@6B@ 10058e2c     tbb_misc.obj
 0002:00013e40       ??_R3runtime_error@std@@8  10058e40     tbb_misc.obj
 0002:00013e50       ??_R2runtime_error@std@@8  10058e50     tbb_misc.obj
 0002:00013e5c       ??_R1A@?0A@EA@runtime_error@std@@8 10058e5c     tbb_misc.obj
 0002:00013e78       ??_R4range_error@std@@6B@  10058e78     tbb_misc.obj
 0002:00013e8c       ??_R3range_error@std@@8    10058e8c     tbb_misc.obj
 0002:00013e9c       ??_R2range_error@std@@8    10058e9c     tbb_misc.obj
 0002:00013eac       ??_R1A@?0A@EA@range_error@std@@8 10058eac     tbb_misc.obj
 0002:00013ec8       ??_R4bad_last_alloc@tbb@@6B@ 10058ec8     tbb_misc.obj
 0002:00013edc       ??_R3bad_last_alloc@tbb@@8 10058edc     tbb_misc.obj
 0002:00013eec       ??_R2bad_last_alloc@tbb@@8 10058eec     tbb_misc.obj
 0002:00013efc       ??_R1A@?0A@EA@bad_last_alloc@tbb@@8 10058efc     tbb_misc.obj
 0002:00013f18       ??_R4improper_lock@tbb@@6B@ 10058f18     tbb_misc.obj
 0002:00013f2c       ??_R3improper_lock@tbb@@8  10058f2c     tbb_misc.obj
 0002:00013f3c       ??_R2improper_lock@tbb@@8  10058f3c     tbb_misc.obj
 0002:00013f48       ??_R1A@?0A@EA@improper_lock@tbb@@8 10058f48     tbb_misc.obj
 0002:00013f64       ??_R4user_abort@tbb@@6B@   10058f64     tbb_misc.obj
 0002:00013f78       ??_R3user_abort@tbb@@8     10058f78     tbb_misc.obj
 0002:00013f88       ??_R2user_abort@tbb@@8     10058f88     tbb_misc.obj
 0002:00013f94       ??_R1A@?0A@EA@user_abort@tbb@@8 10058f94     tbb_misc.obj
 0002:00013fb0       ??_R4missing_wait@tbb@@6B@ 10058fb0     tbb_misc.obj
 0002:00013fc4       ??_R3missing_wait@tbb@@8   10058fc4     tbb_misc.obj
 0002:00013fd4       ??_R2missing_wait@tbb@@8   10058fd4     tbb_misc.obj
 0002:00013fe0       ??_R1A@?0A@EA@missing_wait@tbb@@8 10058fe0     tbb_misc.obj
 0002:00013ffc       ??_R4invalid_multiple_scheduling@tbb@@6B@ 10058ffc     tbb_misc.obj
 0002:00014010       ??_R3invalid_multiple_scheduling@tbb@@8 10059010     tbb_misc.obj
 0002:00014020       ??_R2invalid_multiple_scheduling@tbb@@8 10059020     tbb_misc.obj
 0002:0001402c       ??_R1A@?0A@EA@invalid_multiple_scheduling@tbb@@8 1005902c     tbb_misc.obj
 0002:00014048       ??_R4tbb_exception@tbb@@6B@ 10059048     task_group_context.obj
 0002:0001405c       ??_R3tbb_exception@tbb@@8  1005905c     task_group_context.obj
 0002:0001406c       ??_R2tbb_exception@tbb@@8  1005906c     task_group_context.obj
 0002:00014078       ??_R1A@?0A@EA@tbb_exception@tbb@@8 10059078     task_group_context.obj
 0002:00014094       ??_R4captured_exception@tbb@@6B@ 10059094     task_group_context.obj
 0002:000140a8       ??_R3captured_exception@tbb@@8 100590a8     task_group_context.obj
 0002:000140b8       ??_R2captured_exception@tbb@@8 100590b8     task_group_context.obj
 0002:000140c8       ??_R1A@?0A@EA@captured_exception@tbb@@8 100590c8     task_group_context.obj
 0002:000140e4       ??_R4market@internal@tbb@@6B@ 100590e4     market.obj
 0002:000140f8       ??_R3market@internal@tbb@@8 100590f8     market.obj
 0002:00014108       ??_R2market@internal@tbb@@8 10059108     market.obj
 0002:00014124       ??_R1A@?0A@EA@market@internal@tbb@@8 10059124     market.obj
 0002:00014140       ??_R1A@?0A@EN@tbb_client@rml@internal@tbb@@8 10059140     market.obj
 0002:0001415c       ??_R3tbb_client@rml@internal@tbb@@8 1005915c     market.obj
 0002:0001416c       ??_R2tbb_client@rml@internal@tbb@@8 1005916c     market.obj
 0002:0001417c       ??_R1A@?0A@EA@tbb_client@rml@internal@tbb@@8 1005917c     market.obj
 0002:00014198       ??_R1A@?0A@EA@client@rml@@8 10059198     market.obj
 0002:000141b4       ??_R3client@rml@@8         100591b4     market.obj
 0002:000141c4       ??_R2client@rml@@8         100591c4     market.obj
 0002:000141d0       ??_R1A@?0A@EJ@client@rml@@8 100591d0     market.obj
 0002:000141ec       ??_R1A@?0A@EJ@versioned_object@rml@@8 100591ec     market.obj
 0002:00014208       ??_R4client@rml@@6B@       10059208     market.obj
 0002:0001421c       ??_R4tbb_client@rml@internal@tbb@@6B@ 1005921c     market.obj
 0002:00014230       ??_R4empty_task@tbb@@6B@   10059230     arena.obj
 0002:00014244       ??_R3empty_task@tbb@@8     10059244     arena.obj
 0002:00014254       ??_R2empty_task@tbb@@8     10059254     arena.obj
 0002:0001426c       ??_R1A@?0A@EA@empty_task@tbb@@8 1005926c     arena.obj
 0002:00014288       ??_R4delegated_task@internal@interface7@tbb@@6B@ 10059288     arena.obj
 0002:0001429c       ??_R3delegated_task@internal@interface7@tbb@@8 1005929c     arena.obj
 0002:000142ac       ??_R2delegated_task@internal@interface7@tbb@@8 100592ac     arena.obj
 0002:000142c4       ??_R1A@?0A@EA@delegated_task@internal@interface7@tbb@@8 100592c4     arena.obj
 0002:000142e0       ??_R4wait_task@internal@interface7@tbb@@6B@ 100592e0     arena.obj
 0002:000142f4       ??_R3wait_task@internal@interface7@tbb@@8 100592f4     arena.obj
 0002:00014304       ??_R2wait_task@internal@interface7@tbb@@8 10059304     arena.obj
 0002:0001431c       ??_R1A@?0A@EA@wait_task@internal@interface7@tbb@@8 1005931c     arena.obj
 0002:00014338       ??_R4?$function_task@Vspawn_functor@graph@interface10@flow@tbb@@@internal@tbb@@6B@ 10059338     arena.obj
 0002:0001434c       ??_R3?$function_task@Vspawn_functor@graph@interface10@flow@tbb@@@internal@tbb@@8 1005934c     arena.obj
 0002:0001435c       ??_R2?$function_task@Vspawn_functor@graph@interface10@flow@tbb@@@internal@tbb@@8 1005935c     arena.obj
 0002:00014374       ??_R1A@?0A@EA@?$function_task@Vspawn_functor@graph@interface10@flow@tbb@@@internal@tbb@@8 10059374     arena.obj
 0002:00014390       ??_R4scheduler@internal@tbb@@6B@ 10059390     scheduler.obj
 0002:000143a4       ??_R3scheduler@internal@tbb@@8 100593a4     scheduler.obj
 0002:000143b4       ??_R2scheduler@internal@tbb@@8 100593b4     scheduler.obj
 0002:000143c4       ??_R1A@?0A@EA@scheduler@internal@tbb@@8 100593c4     scheduler.obj
 0002:000143e0       ??_R4generic_scheduler@internal@tbb@@6B@ 100593e0     scheduler.obj
 0002:000143f4       ??_R3generic_scheduler@internal@tbb@@8 100593f4     scheduler.obj
 0002:00014404       ??_R2generic_scheduler@internal@tbb@@8 10059404     scheduler.obj
 0002:00014424       ??_R1A@?0A@EA@generic_scheduler@internal@tbb@@8 10059424     scheduler.obj
 0002:00014440       ??_R13?0A@EA@job@rml@@8    10059440     scheduler.obj
 0002:0001445c       ??_R3job@rml@@8            1005945c     scheduler.obj
 0002:0001446c       ??_R2job@rml@@8            1005946c     scheduler.obj
 0002:00014474       ??_R1A@?0A@EA@job@rml@@8   10059474     scheduler.obj
 0002:00014490       ??_R17?0A@EA@intrusive_list_node@internal@tbb@@8 10059490     scheduler.obj
 0002:000144ac       ??_R3intrusive_list_node@internal@tbb@@8 100594ac     scheduler.obj
 0002:000144bc       ??_R2intrusive_list_node@internal@tbb@@8 100594bc     scheduler.obj
 0002:000144c4       ??_R1A@?0A@EA@intrusive_list_node@internal@tbb@@8 100594c4     scheduler.obj
 0002:000144e0       ??_R1BA@?0A@EA@scheduler_state@internal@tbb@@8 100594e0     scheduler.obj
 0002:000144fc       ??_R3scheduler_state@internal@tbb@@8 100594fc     scheduler.obj
 0002:0001450c       ??_R2scheduler_state@internal@tbb@@8 1005950c     scheduler.obj
 0002:00014514       ??_R1A@?0A@EA@scheduler_state@internal@tbb@@8 10059514     scheduler.obj
 0002:00014530       ??_R4?$custom_scheduler@UDefaultSchedulerTraits@internal@tbb@@@internal@tbb@@6B@ 10059530     scheduler.obj
 0002:00014544       ??_R3?$custom_scheduler@UDefaultSchedulerTraits@internal@tbb@@@internal@tbb@@8 10059544     scheduler.obj
 0002:00014554       ??_R2?$custom_scheduler@UDefaultSchedulerTraits@internal@tbb@@@internal@tbb@@8 10059554     scheduler.obj
 0002:00014578       ??_R1A@?0A@EA@?$custom_scheduler@UDefaultSchedulerTraits@internal@tbb@@@internal@tbb@@8 10059578     scheduler.obj
 0002:00014594       ??_R1A@?0A@EN@generic_scheduler@internal@tbb@@8 10059594     scheduler.obj
 0002:000145b0       ??_R1A@?0A@EJ@scheduler@internal@tbb@@8 100595b0     scheduler.obj
 0002:000145cc       ??_R13?0A@EJ@job@rml@@8    100595cc     scheduler.obj
 0002:000145e8       ??_R17?0A@EJ@intrusive_list_node@internal@tbb@@8 100595e8     scheduler.obj
 0002:00014604       ??_R1BA@?0A@EJ@scheduler_state@internal@tbb@@8 10059604     scheduler.obj
 0002:00014620       ??_R4?$custom_scheduler@UIntelSchedulerTraits@internal@tbb@@@internal@tbb@@6B@ 10059620     scheduler.obj
 0002:00014634       ??_R3?$custom_scheduler@UIntelSchedulerTraits@internal@tbb@@@internal@tbb@@8 10059634     scheduler.obj
 0002:00014644       ??_R2?$custom_scheduler@UIntelSchedulerTraits@internal@tbb@@@internal@tbb@@8 10059644     scheduler.obj
 0002:00014668       ??_R1A@?0A@EA@?$custom_scheduler@UIntelSchedulerTraits@internal@tbb@@@internal@tbb@@8 10059668     scheduler.obj
 0002:00014684       ??_R4control_storage@internal@tbb@@6B@ 10059684     tbb_main.obj
 0002:00014698       ??_R3control_storage@internal@tbb@@8 10059698     tbb_main.obj
 0002:000146a8       ??_R2control_storage@internal@tbb@@8 100596a8     tbb_main.obj
 0002:000146b0       ??_R1A@?0A@EA@control_storage@internal@tbb@@8 100596b0     tbb_main.obj
 0002:000146cc       ??_R4allowed_parallelism_control@internal@tbb@@6B@ 100596cc     tbb_main.obj
 0002:000146e0       ??_R3allowed_parallelism_control@internal@tbb@@8 100596e0     tbb_main.obj
 0002:000146f0       ??_R2allowed_parallelism_control@internal@tbb@@8 100596f0     tbb_main.obj
 0002:00014704       ??_R1A@?0A@EA@allowed_parallelism_control@internal@tbb@@8 10059704     tbb_main.obj
 0002:00014720       ??_R1A@?0A@EA@?$padded@Vcontrol_storage@internal@tbb@@$0IA@@internal@tbb@@8 10059720     tbb_main.obj
 0002:0001473c       ??_R3?$padded@Vcontrol_storage@internal@tbb@@$0IA@@internal@tbb@@8 1005973c     tbb_main.obj
 0002:0001474c       ??_R2?$padded@Vcontrol_storage@internal@tbb@@$0IA@@internal@tbb@@8 1005974c     tbb_main.obj
 0002:0001475c       ??_R1A@?0A@EA@?$padded_base@Vcontrol_storage@internal@tbb@@$0IA@$0BA@@internal@tbb@@8 1005975c     tbb_main.obj
 0002:00014778       ??_R3?$padded_base@Vcontrol_storage@internal@tbb@@$0IA@$0BA@@internal@tbb@@8 10059778     tbb_main.obj
 0002:00014788       ??_R2?$padded_base@Vcontrol_storage@internal@tbb@@$0IA@$0BA@@internal@tbb@@8 10059788     tbb_main.obj
 0002:00014794       ??_R4?$padded@Vcontrol_storage@internal@tbb@@$0IA@@internal@tbb@@6B@ 10059794     tbb_main.obj
 0002:000147a8       ??_R4?$padded_base@Vcontrol_storage@internal@tbb@@$0IA@$0BA@@internal@tbb@@6B@ 100597a8     tbb_main.obj
 0002:000147bc       ??_R4stack_size_control@internal@tbb@@6B@ 100597bc     tbb_main.obj
 0002:000147d0       ??_R3stack_size_control@internal@tbb@@8 100597d0     tbb_main.obj
 0002:000147e0       ??_R2stack_size_control@internal@tbb@@8 100597e0     tbb_main.obj
 0002:000147f4       ??_R1A@?0A@EA@stack_size_control@internal@tbb@@8 100597f4     tbb_main.obj
 0002:00014810       ??_R4concurrent_queue_base@internal@tbb@@6B@ 10059810     concurrent_queue_v2.obj
 0002:00014824       ??_R3concurrent_queue_base@internal@tbb@@8 10059824     concurrent_queue_v2.obj
 0002:00014834       ??_R2concurrent_queue_base@internal@tbb@@8 10059834     concurrent_queue_v2.obj
 0002:00014844       ??_R1A@?0A@EA@concurrent_queue_base@internal@tbb@@8 10059844     concurrent_queue_v2.obj
 0002:00014860       ??_R4type_info@@6B@        10059860     MSVCRTD:std_type_info_static.obj
 0002:00014874       ??_R3type_info@@8          10059874     MSVCRTD:std_type_info_static.obj
 0002:00014884       ??_R2type_info@@8          10059884     MSVCRTD:std_type_info_static.obj
 0002:0001488c       ??_R1A@?0A@EA@type_info@@8 1005988c     MSVCRTD:std_type_info_static.obj
 0002:000148a8       ??_R4bad_array_new_length@std@@6B@ 100598a8     MSVCRTD:throw_bad_alloc.obj
 0002:000148bc       ??_R3bad_array_new_length@std@@8 100598bc     MSVCRTD:throw_bad_alloc.obj
 0002:000148cc       ??_R2bad_array_new_length@std@@8 100598cc     MSVCRTD:throw_bad_alloc.obj
 0002:000148dc       ??_R1A@?0A@EA@bad_array_new_length@std@@8 100598dc     MSVCRTD:throw_bad_alloc.obj
 0002:00014900       ___safe_se_handler_table   10059900     <linker-defined>
 0002:00014e98       ___rtc_iaa                 10059e98     MSVCRTD:_initsect_.obj
 0002:00014f28       ___rtc_izz                 10059f28     MSVCRTD:_initsect_.obj
 0002:00014f2c       ___rtc_taa                 10059f2c     MSVCRTD:_initsect_.obj
 0002:00014fbc       ___rtc_tzz                 10059fbc     MSVCRTD:_initsect_.obj
 0002:00015c6c       __TI2?AVruntime_error@std@@ 1005ac6c     tbb_misc.obj
 0002:00015c7c       __CTA2?AVruntime_error@std@@ 1005ac7c     tbb_misc.obj
 0002:00015c88       __CT??_R0?AVruntime_error@std@@@8??0runtime_error@std@@QAE@ABV01@@Z12 1005ac88     tbb_misc.obj
 0002:00015ca4       __CT??_R0?AVexception@std@@@8??0exception@std@@QAE@ABV01@@Z12 1005aca4     tbb_misc.obj
 0002:00015cc0       __TI2?AVbad_alloc@std@@    1005acc0     tbb_misc.obj
 0002:00015cd0       __CTA2?AVbad_alloc@std@@   1005acd0     tbb_misc.obj
 0002:00015cdc       __CT??_R0?AVbad_alloc@std@@@8??0bad_alloc@std@@QAE@ABV01@@Z12 1005acdc     tbb_misc.obj
 0002:00015cf8       __TI3?AVbad_last_alloc@tbb@@ 1005acf8     tbb_misc.obj
 0002:00015d08       __CTA3?AVbad_last_alloc@tbb@@ 1005ad08     tbb_misc.obj
 0002:00015d18       __CT??_R0?AVbad_last_alloc@tbb@@@8??0bad_last_alloc@tbb@@QAE@ABV01@@Z12 1005ad18     tbb_misc.obj
 0002:00015d34       __TI3?AVinvalid_argument@std@@ 1005ad34     tbb_misc.obj
 0002:00015d44       __CTA3?AVinvalid_argument@std@@ 1005ad44     tbb_misc.obj
 0002:00015d54       __CT??_R0?AVinvalid_argument@std@@@8??0invalid_argument@std@@QAE@ABV01@@Z12 1005ad54     tbb_misc.obj
 0002:00015d70       __CT??_R0?AVlogic_error@std@@@8??0logic_error@std@@QAE@ABV01@@Z12 1005ad70     tbb_misc.obj
 0002:00015d8c       __TI3?AVout_of_range@std@@ 1005ad8c     tbb_misc.obj
 0002:00015d9c       __CTA3?AVout_of_range@std@@ 1005ad9c     tbb_misc.obj
 0002:00015dac       __CT??_R0?AVout_of_range@std@@@8??0out_of_range@std@@QAE@ABV01@@Z12 1005adac     tbb_misc.obj
 0002:00015dc8       __TI3?AVrange_error@std@@  1005adc8     tbb_misc.obj
 0002:00015dd8       __CTA3?AVrange_error@std@@ 1005add8     tbb_misc.obj
 0002:00015de8       __CT??_R0?AVrange_error@std@@@8??0range_error@std@@QAE@ABV01@@Z12 1005ade8     tbb_misc.obj
 0002:00015e04       __TI2?AVmissing_wait@tbb@@ 1005ae04     tbb_misc.obj
 0002:00015e14       __CTA2?AVmissing_wait@tbb@@ 1005ae14     tbb_misc.obj
 0002:00015e20       __CT??_R0?AVmissing_wait@tbb@@@8??0missing_wait@tbb@@QAE@ABV01@@Z12 1005ae20     tbb_misc.obj
 0002:00015e3c       __TI2?AVinvalid_multiple_scheduling@tbb@@ 1005ae3c     tbb_misc.obj
 0002:00015e4c       __CTA2?AVinvalid_multiple_scheduling@tbb@@ 1005ae4c     tbb_misc.obj
 0002:00015e58       __CT??_R0?AVinvalid_multiple_scheduling@tbb@@@8??0invalid_multiple_scheduling@tbb@@QAE@ABV01@@Z12 1005ae58     tbb_misc.obj
 0002:00015e74       __TI2?AVimproper_lock@tbb@@ 1005ae74     tbb_misc.obj
 0002:00015e84       __CTA2?AVimproper_lock@tbb@@ 1005ae84     tbb_misc.obj
 0002:00015e90       __CT??_R0?AVimproper_lock@tbb@@@8??0improper_lock@tbb@@QAE@ABV01@@Z12 1005ae90     tbb_misc.obj
 0002:00015eac       __TI3?AVlength_error@std@@ 1005aeac     tbb_misc.obj
 0002:00015ebc       __CTA3?AVlength_error@std@@ 1005aebc     tbb_misc.obj
 0002:00015ecc       __CT??_R0?AVlength_error@std@@@8??0length_error@std@@QAE@ABV01@@Z12 1005aecc     tbb_misc.obj
 0002:00015ee8       __TI2?AVuser_abort@tbb@@   1005aee8     tbb_misc.obj
 0002:00015ef8       __CTA2?AVuser_abort@tbb@@  1005aef8     tbb_misc.obj
 0002:00015f04       __CT??_R0?AVuser_abort@tbb@@@8??0user_abort@tbb@@QAE@ABV01@@Z12 1005af04     tbb_misc.obj
 0002:000161f4       __TI3?AVcaptured_exception@tbb@@ 1005b1f4     task_group_context.obj
 0002:00016204       __CTA3?AVcaptured_exception@tbb@@ 1005b204     task_group_context.obj
 0002:00016214       __CT??_R0?AVcaptured_exception@tbb@@@8??0captured_exception@tbb@@QAE@ABV01@@Z24 1005b214     task_group_context.obj
 0002:00016230       __CT??_R0?AVtbb_exception@tbb@@@8??0tbb_exception@tbb@@QAE@ABV01@@Z12 1005b230     task_group_context.obj
 0002:00017064       __TI3?AVbad_array_new_length@std@@ 1005c064     MSVCRTD:throw_bad_alloc.obj
 0002:00017074       __CTA3?AVbad_array_new_length@std@@ 1005c074     MSVCRTD:throw_bad_alloc.obj
 0002:00017084       __CT??_R0?AVbad_array_new_length@std@@@8??0bad_array_new_length@std@@QAE@ABV01@@Z12 1005c084     MSVCRTD:throw_bad_alloc.obj
 0002:0001ade8       __IMPORT_DESCRIPTOR_KERNEL32 1005fde8     kernel32:KERNEL32.dll
 0002:0001adfc       __IMPORT_DESCRIPTOR_MSVCP140D 1005fdfc     msvcprtd:MSVCP140D.dll
 0002:0001ae10       __IMPORT_DESCRIPTOR_VCRUNTIME140D 1005fe10     vcruntimed:VCRUNTIME140D.dll
 0002:0001ae24       __IMPORT_DESCRIPTOR_ucrtbased 1005fe24     ucrtd:ucrtbased.dll
 0002:0001ae38       __NULL_IMPORT_DESCRIPTOR   1005fe38     kernel32:KERNEL32.dll
 0003:00000008       ___itt_detach_ptr__3_0     10061008     itt_notify.obj
 0003:0000000c       ___itt_sync_createA_ptr__3_0 1006100c     itt_notify.obj
 0003:00000010       ___itt_sync_createW_ptr__3_0 10061010     itt_notify.obj
 0003:00000014       ___itt_sync_renameA_ptr__3_0 10061014     itt_notify.obj
 0003:00000018       ___itt_sync_renameW_ptr__3_0 10061018     itt_notify.obj
 0003:0000001c       ___itt_sync_destroy_ptr__3_0 1006101c     itt_notify.obj
 0003:00000020       ___itt_sync_prepare_ptr__3_0 10061020     itt_notify.obj
 0003:00000024       ___itt_sync_cancel_ptr__3_0 10061024     itt_notify.obj
 0003:00000028       ___itt_sync_acquired_ptr__3_0 10061028     itt_notify.obj
 0003:0000002c       ___itt_sync_releasing_ptr__3_0 1006102c     itt_notify.obj
 0003:00000030       ___itt_suppress_push_ptr__3_0 10061030     itt_notify.obj
 0003:00000034       ___itt_suppress_pop_ptr__3_0 10061034     itt_notify.obj
 0003:00000038       ___itt_suppress_mark_range_ptr__3_0 10061038     itt_notify.obj
 0003:0000003c       ___itt_suppress_clear_range_ptr__3_0 1006103c     itt_notify.obj
 0003:00000040       ___itt_fsync_prepare_ptr__3_0 10061040     itt_notify.obj
 0003:00000044       ___itt_fsync_cancel_ptr__3_0 10061044     itt_notify.obj
 0003:00000048       ___itt_fsync_acquired_ptr__3_0 10061048     itt_notify.obj
 0003:0000004c       ___itt_fsync_releasing_ptr__3_0 1006104c     itt_notify.obj
 0003:00000050       ___itt_model_site_begin_ptr__3_0 10061050     itt_notify.obj
 0003:00000054       ___itt_model_site_end_ptr__3_0 10061054     itt_notify.obj
 0003:00000058       ___itt_model_task_begin_ptr__3_0 10061058     itt_notify.obj
 0003:0000005c       ___itt_model_task_end_ptr__3_0 1006105c     itt_notify.obj
 0003:00000060       ___itt_model_lock_acquire_ptr__3_0 10061060     itt_notify.obj
 0003:00000064       ___itt_model_lock_release_ptr__3_0 10061064     itt_notify.obj
 0003:00000068       ___itt_model_record_allocation_ptr__3_0 10061068     itt_notify.obj
 0003:0000006c       ___itt_model_record_deallocation_ptr__3_0 1006106c     itt_notify.obj
 0003:00000070       ___itt_model_induction_uses_ptr__3_0 10061070     itt_notify.obj
 0003:00000074       ___itt_model_reduction_uses_ptr__3_0 10061074     itt_notify.obj
 0003:00000078       ___itt_model_observe_uses_ptr__3_0 10061078     itt_notify.obj
 0003:0000007c       ___itt_model_clear_uses_ptr__3_0 1006107c     itt_notify.obj
 0003:00000080       ___itt_model_site_beginW_ptr__3_0 10061080     itt_notify.obj
 0003:00000084       ?SyncType_GlobalLock@tbb@@3PB_WB 10061084     itt_notify.obj
 0003:00000088       ?SyncType_Scheduler@tbb@@3PB_WB 10061088     itt_notify.obj
 0003:0000008c       ?SyncObj_SchedulerInitialization@tbb@@3PB_WB 1006108c     itt_notify.obj
 0003:00000090       ___itt_model_task_beginW_ptr__3_0 10061090     itt_notify.obj
 0003:00000094       ?SyncObj_SchedulersList@tbb@@3PB_WB 10061094     itt_notify.obj
 0003:00000098       ?SyncObj_WorkerLifeCycleMgmt@tbb@@3PB_WB 10061098     itt_notify.obj
 0003:0000009c       ?SyncObj_TaskStealingLoop@tbb@@3PB_WB 1006109c     itt_notify.obj
 0003:000000a0       ?SyncObj_WorkerTaskPool@tbb@@3PB_WB 100610a0     itt_notify.obj
 0003:000000a4       ?SyncObj_MasterTaskPool@tbb@@3PB_WB 100610a4     itt_notify.obj
 0003:000000a8       ?SyncObj_TaskPoolSpinning@tbb@@3PB_WB 100610a8     itt_notify.obj
 0003:000000ac       ?SyncObj_Mailbox@tbb@@3PB_WB 100610ac     itt_notify.obj
 0003:000000b0       ?SyncObj_TaskReturnList@tbb@@3PB_WB 100610b0     itt_notify.obj
 0003:000000b4       ?SyncObj_TaskStream@tbb@@3PB_WB 100610b4     itt_notify.obj
 0003:000000b8       ?SyncObj_ContextsList@tbb@@3PB_WB 100610b8     itt_notify.obj
 0003:000000bc       ___itt_model_iteration_taskW_ptr__3_0 100610bc     itt_notify.obj
 0003:000000c0       ___itt_model_site_beginA_ptr__3_0 100610c0     itt_notify.obj
 0003:000000c4       ___itt_model_site_beginAL_ptr__3_0 100610c4     itt_notify.obj
 0003:000000c8       ___itt_model_task_beginA_ptr__3_0 100610c8     itt_notify.obj
 0003:000000cc       ___itt_model_task_beginAL_ptr__3_0 100610cc     itt_notify.obj
 0003:000000d0       ___itt_model_iteration_taskA_ptr__3_0 100610d0     itt_notify.obj
 0003:000000d4       ___itt_model_iteration_taskAL_ptr__3_0 100610d4     itt_notify.obj
 0003:000000d8       ___itt_model_site_end_2_ptr__3_0 100610d8     itt_notify.obj
 0003:000000dc       ___itt_model_task_end_2_ptr__3_0 100610dc     itt_notify.obj
 0003:000000e0       ___itt_model_lock_acquire_2_ptr__3_0 100610e0     itt_notify.obj
 0003:000000e4       ___itt_model_lock_release_2_ptr__3_0 100610e4     itt_notify.obj
 0003:000000e8       ___itt_model_aggregate_task_ptr__3_0 100610e8     itt_notify.obj
 0003:000000ec       ___itt_model_disable_push_ptr__3_0 100610ec     itt_notify.obj
 0003:000000f0       ___itt_model_disable_pop_ptr__3_0 100610f0     itt_notify.obj
 0003:000000f4       ___itt_heap_function_createA_ptr__3_0 100610f4     itt_notify.obj
 0003:000000f8       ___itt_heap_function_createW_ptr__3_0 100610f8     itt_notify.obj
 0003:000000fc       ___itt_heap_allocate_begin_ptr__3_0 100610fc     itt_notify.obj
 0003:00000100       ___itt_heap_allocate_end_ptr__3_0 10061100     itt_notify.obj
 0003:00000104       ___itt_heap_free_begin_ptr__3_0 10061104     itt_notify.obj
 0003:00000108       ___itt_heap_free_end_ptr__3_0 10061108     itt_notify.obj
 0003:0000010c       ___itt_heap_reallocate_begin_ptr__3_0 1006110c     itt_notify.obj
 0003:00000110       ___itt_heap_reallocate_end_ptr__3_0 10061110     itt_notify.obj
 0003:00000114       ___itt_heap_internal_access_begin_ptr__3_0 10061114     itt_notify.obj
 0003:00000118       ___itt_heap_internal_access_end_ptr__3_0 10061118     itt_notify.obj
 0003:0000011c       ___itt_heap_record_memory_growth_begin_ptr__3_0 1006111c     itt_notify.obj
 0003:00000120       ___itt_heap_record_memory_growth_end_ptr__3_0 10061120     itt_notify.obj
 0003:00000124       ___itt_heap_reset_detection_ptr__3_0 10061124     itt_notify.obj
 0003:00000128       ___itt_heap_record_ptr__3_0 10061128     itt_notify.obj
 0003:0000012c       ___itt_id_create_ptr__3_0  1006112c     itt_notify.obj
 0003:00000130       ___itt_id_destroy_ptr__3_0 10061130     itt_notify.obj
 0003:00000134       ___itt_get_timestamp_ptr__3_0 10061134     itt_notify.obj
 0003:00000138       ___itt_region_begin_ptr__3_0 10061138     itt_notify.obj
 0003:0000013c       ___itt_region_end_ptr__3_0 1006113c     itt_notify.obj
 0003:00000140       ___itt_frame_begin_v3_ptr__3_0 10061140     itt_notify.obj
 0003:00000144       ___itt_frame_end_v3_ptr__3_0 10061144     itt_notify.obj
 0003:00000148       ___itt_frame_submit_v3_ptr__3_0 10061148     itt_notify.obj
 0003:0000014c       ___itt_task_group_ptr__3_0 1006114c     itt_notify.obj
 0003:00000150       ___itt_task_begin_ptr__3_0 10061150     itt_notify.obj
 0003:00000154       ___itt_task_begin_fn_ptr__3_0 10061154     itt_notify.obj
 0003:00000158       ___itt_task_end_ptr__3_0   10061158     itt_notify.obj
 0003:0000015c       ___itt_counter_inc_v3_ptr__3_0 1006115c     itt_notify.obj
 0003:00000160       ___itt_counter_inc_delta_v3_ptr__3_0 10061160     itt_notify.obj
 0003:00000164       ___itt_marker_ptr__3_0     10061164     itt_notify.obj
 0003:00000168       ___itt_metadata_add_ptr__3_0 10061168     itt_notify.obj
 0003:0000016c       ___itt_metadata_str_addA_ptr__3_0 1006116c     itt_notify.obj
 0003:00000170       ___itt_metadata_str_addW_ptr__3_0 10061170     itt_notify.obj
 0003:00000174       ___itt_relation_add_to_current_ptr__3_0 10061174     itt_notify.obj
 0003:00000178       ___itt_relation_add_ptr__3_0 10061178     itt_notify.obj
 0003:0000017c       ___itt_event_createA_ptr__3_0 1006117c     itt_notify.obj
 0003:00000180       ___itt_event_createW_ptr__3_0 10061180     itt_notify.obj
 0003:00000184       ___itt_event_start_ptr__3_0 10061184     itt_notify.obj
 0003:00000188       ___itt_event_end_ptr__3_0  10061188     itt_notify.obj
 0003:0000018c       ___itt_sync_set_nameA_ptr__3_0 1006118c     itt_notify.obj
 0003:00000190       ___itt_sync_set_nameW_ptr__3_0 10061190     itt_notify.obj
 0003:00000194       ___itt_notify_sync_nameA_ptr__3_0 10061194     itt_notify.obj
 0003:00000198       ___itt_notify_sync_nameW_ptr__3_0 10061198     itt_notify.obj
 0003:0000019c       ___itt_notify_sync_prepare_ptr__3_0 1006119c     itt_notify.obj
 0003:000001a0       ___itt_notify_sync_cancel_ptr__3_0 100611a0     itt_notify.obj
 0003:000001a4       ___itt_notify_sync_acquired_ptr__3_0 100611a4     itt_notify.obj
 0003:000001a8       ___itt_notify_sync_releasing_ptr__3_0 100611a8     itt_notify.obj
 0003:000001ac       ___itt_memory_read_ptr__3_0 100611ac     itt_notify.obj
 0003:000001b0       ___itt_memory_write_ptr__3_0 100611b0     itt_notify.obj
 0003:000001b4       ___itt_memory_update_ptr__3_0 100611b4     itt_notify.obj
 0003:000001b8       ___itt_state_get_ptr__3_0  100611b8     itt_notify.obj
 0003:000001bc       ___itt_state_set_ptr__3_0  100611bc     itt_notify.obj
 0003:000001c0       ___itt_obj_mode_set_ptr__3_0 100611c0     itt_notify.obj
 0003:000001c4       ___itt_thr_mode_set_ptr__3_0 100611c4     itt_notify.obj
 0003:000001c8       ___itt_frame_createA_ptr__3_0 100611c8     itt_notify.obj
 0003:000001cc       ___itt_frame_createW_ptr__3_0 100611cc     itt_notify.obj
 0003:000001d0       ___itt_frame_begin_ptr__3_0 100611d0     itt_notify.obj
 0003:000001d4       ___itt_frame_end_ptr__3_0  100611d4     itt_notify.obj
 0003:000001d8       ___itt_counter_createA_ptr__3_0 100611d8     itt_notify.obj
 0003:000001dc       ___itt_counter_createW_ptr__3_0 100611dc     itt_notify.obj
 0003:000001e0       ___itt_counter_destroy_ptr__3_0 100611e0     itt_notify.obj
 0003:000001e4       ___itt_counter_inc_ptr__3_0 100611e4     itt_notify.obj
 0003:000001e8       ___itt_counter_inc_delta_ptr__3_0 100611e8     itt_notify.obj
 0003:000001ec       ___itt_mark_createA_ptr__3_0 100611ec     itt_notify.obj
 0003:000001f0       ___itt_mark_createW_ptr__3_0 100611f0     itt_notify.obj
 0003:000001f4       ___itt_markA_ptr__3_0      100611f4     itt_notify.obj
 0003:000001f8       ___itt_markW_ptr__3_0      100611f8     itt_notify.obj
 0003:000001fc       ___itt_mark_off_ptr__3_0   100611fc     itt_notify.obj
 0003:00000200       ___itt_mark_globalA_ptr__3_0 10061200     itt_notify.obj
 0003:00000204       ___itt_mark_globalW_ptr__3_0 10061204     itt_notify.obj
 0003:00000208       ___itt_mark_global_off_ptr__3_0 10061208     itt_notify.obj
 0003:0000020c       ___itt_stack_caller_create_ptr__3_0 1006120c     itt_notify.obj
 0003:00000210       ___itt_stack_caller_destroy_ptr__3_0 10061210     itt_notify.obj
 0003:00000214       ___itt_stack_callee_enter_ptr__3_0 10061214     itt_notify.obj
 0003:00000218       ___itt_stack_callee_leave_ptr__3_0 10061218     itt_notify.obj
 0003:0000021c       ___itt_clock_domain_create_ptr__3_0 1006121c     itt_notify.obj
 0003:00000220       ___itt_clock_domain_reset_ptr__3_0 10061220     itt_notify.obj
 0003:00000224       ___itt_id_create_ex_ptr__3_0 10061224     itt_notify.obj
 0003:00000228       ___itt_id_destroy_ex_ptr__3_0 10061228     itt_notify.obj
 0003:0000022c       ___itt_task_begin_ex_ptr__3_0 1006122c     itt_notify.obj
 0003:00000230       ___itt_task_begin_fn_ex_ptr__3_0 10061230     itt_notify.obj
 0003:00000234       ___itt_task_end_ex_ptr__3_0 10061234     itt_notify.obj
 0003:00000238       ___itt_task_begin_overlapped_ptr__3_0 10061238     itt_notify.obj
 0003:0000023c       ___itt_task_begin_overlapped_ex_ptr__3_0 1006123c     itt_notify.obj
 0003:00000240       ___itt_task_end_overlapped_ptr__3_0 10061240     itt_notify.obj
 0003:00000244       ___itt_task_end_overlapped_ex_ptr__3_0 10061244     itt_notify.obj
 0003:00000248       ___itt_marker_ex_ptr__3_0  10061248     itt_notify.obj
 0003:0000024c       ___itt_metadata_add_with_scope_ptr__3_0 1006124c     itt_notify.obj
 0003:00000250       ___itt_metadata_str_add_with_scopeA_ptr__3_0 10061250     itt_notify.obj
 0003:00000254       ___itt_metadata_str_add_with_scopeW_ptr__3_0 10061254     itt_notify.obj
 0003:00000258       ___itt_relation_add_to_current_ex_ptr__3_0 10061258     itt_notify.obj
 0003:0000025c       ___itt_relation_add_ex_ptr__3_0 1006125c     itt_notify.obj
 0003:00000260       ___itt_track_group_create_ptr__3_0 10061260     itt_notify.obj
 0003:00000264       ___itt_track_create_ptr__3_0 10061264     itt_notify.obj
 0003:00000268       ___itt_set_track_ptr__3_0  10061268     itt_notify.obj
 0003:0000026c       ___itt_api_version_ptr__3_0 1006126c     itt_notify.obj
 0003:00000270       ___itt_av_saveA_ptr__3_0   10061270     itt_notify.obj
 0003:00000274       ___itt_av_saveW_ptr__3_0   10061274     itt_notify.obj
 0003:00000278       ___itt_domain_createA_ptr__3_0 10061278     itt_notify.obj
 0003:0000027c       ___itt_domain_createW_ptr__3_0 1006127c     itt_notify.obj
 0003:00000280       ___itt_string_handle_createA_ptr__3_0 10061280     itt_notify.obj
 0003:00000284       ___itt_string_handle_createW_ptr__3_0 10061284     itt_notify.obj
 0003:00000288       ___itt_pause_ptr__3_0      10061288     itt_notify.obj
 0003:0000028c       ___itt_resume_ptr__3_0     1006128c     itt_notify.obj
 0003:00000290       ___itt_thread_set_nameA_ptr__3_0 10061290     itt_notify.obj
 0003:00000294       ___itt_thread_set_nameW_ptr__3_0 10061294     itt_notify.obj
 0003:00000298       ___itt_thread_ignore_ptr__3_0 10061298     itt_notify.obj
 0003:0000029c       ___itt_thr_name_setA_ptr__3_0 1006129c     itt_notify.obj
 0003:000002a0       ___itt_thr_name_setW_ptr__3_0 100612a0     itt_notify.obj
 0003:000002a4       ___itt_thr_ignore_ptr__3_0 100612a4     itt_notify.obj
 0003:000002a8       ___itt_enable_attach_ptr__3_0 100612a8     itt_notify.obj
 0003:00000ef8       ?__itt__ittapi_global@@3U___itt_global@@A 10061ef8     itt_notify.obj
 0003:00001034       ?NumGroups@ProcessorGroupInfo@internal@tbb@@2HA 10062034     tbb_misc_ex.obj
 0003:00001038       ?msg@?1??assert_context_valid@generic_scheduler@internal@tbb@@SAXPBVtask_group_context@4@@Z@4PBDB 10062038     arena.obj
 0003:00001050       ___security_cookie         10062050     MSVCRTD:gs_cookie.obj
 0003:00001054       ___security_cookie_complement 10062054     MSVCRTD:gs_cookie.obj
 0003:00001060       __fltused                  10062060     MSVCRTD:fltused.obj
 0003:00001070       ___scrt_native_dllmain_reason 10062070     MSVCRTD:utility.obj
 0003:00001074       ?_RTC_ErrorLevels@@3PAHA   10062074     MSVCRTD:_error_.obj
 0003:00001090       ___isa_enabled             10062090     MSVCRTD:_cpu_disp_.obj
 0003:00001094       ___scrt_ucrt_dll_is_in_use 10062094     MSVCRTD:ucrt_stubs.obj
 0003:00001098       ??_R0?AVuser_abort@tbb@@@8 10062098     concurrent_queue.obj
 0003:000010b8       ??_R0?AVconcurrent_queue_base_v3@internal@tbb@@@8 100620b8     concurrent_queue.obj
 0003:000010ec       ??_R0?AVno_copy@internal@tbb@@@8 100620ec     concurrent_queue.obj
 0003:00001110       ??_R0?AVno_assign@internal@tbb@@@8 10062110     concurrent_queue.obj
 0003:00001138       ??_R0?AVtask@tbb@@@8       10062138     pipeline.obj
 0003:00001150       ??_R0?AVtask_base@internal@interface5@tbb@@@8 10062150     pipeline.obj
 0003:00001180       ??_R0?AVpipeline@tbb@@@8   10062180     pipeline.obj
 0003:0000119c       ??_R0?AVfilter@tbb@@@8     1006219c     pipeline.obj
 0003:000011b8       ??_R0?AVstage_task@internal@tbb@@@8 100621b8     pipeline.obj
 0003:000011e0       ??_R0?AUtask_info@internal@tbb@@@8 100621e0     pipeline.obj
 0003:00001208       ??_R0?AVpipeline_root_task@internal@tbb@@@8 10062208     pipeline.obj
 0003:00001238       ??_R0?AVserver@rml@@@8     10062238     private_server.obj
 0003:00001254       ??_R0?AVversioned_object@rml@@@8 10062254     private_server.obj
 0003:00001278       ??_R0?AVtbb_server@rml@internal@tbb@@@8 10062278     private_server.obj
 0003:000012a4       ??_R0?AVprivate_server@rml@internal@tbb@@@8 100622a4     private_server.obj
 0003:000012d4       ??_R0?AVruntime_error@std@@@8 100622d4     tbb_misc.obj
 0003:000012f4       ??_R0?AVexception@std@@@8  100622f4     tbb_misc.obj
 0003:00001310       ??_R0?AVbad_alloc@std@@@8  10062310     tbb_misc.obj
 0003:0000132c       ??_R0?AVbad_last_alloc@tbb@@@8 1006232c     tbb_misc.obj
 0003:00001350       ??_R0?AVinvalid_argument@std@@@8 10062350     tbb_misc.obj
 0003:00001374       ??_R0?AVlogic_error@std@@@8 10062374     tbb_misc.obj
 0003:00001394       ??_R0?AVout_of_range@std@@@8 10062394     tbb_misc.obj
 0003:000013b4       ??_R0?AVrange_error@std@@@8 100623b4     tbb_misc.obj
 0003:000013d4       ??_R0?AVmissing_wait@tbb@@@8 100623d4     tbb_misc.obj
 0003:000013f4       ??_R0?AVinvalid_multiple_scheduling@tbb@@@8 100623f4     tbb_misc.obj
 0003:00001424       ??_R0?AVimproper_lock@tbb@@@8 10062424     tbb_misc.obj
 0003:00001444       ??_R0?AVlength_error@std@@@8 10062444     tbb_misc.obj
 0003:00001464       ??_R0?AVcaptured_exception@tbb@@@8 10062464     task_group_context.obj
 0003:0000148c       ??_R0?AVtbb_exception@tbb@@@8 1006248c     task_group_context.obj
 0003:000014ac       ??_R0?AVmarket@internal@tbb@@@8 100624ac     market.obj
 0003:000014d0       ??_R0?AVtbb_client@rml@internal@tbb@@@8 100624d0     market.obj
 0003:000014fc       ??_R0?AVclient@rml@@@8     100624fc     market.obj
 0003:00001518       ??_R0?AVdelegate_base@internal@interface7@tbb@@@8 10062518     arena.obj
 0003:00001550       ??_R0?AV?$delegated_function@Vspawn_functor@graph@interface10@flow@tbb@@X@internal@interface7@tbb@@@8 10062550     arena.obj
 0003:000015b8       ??_R0?AVempty_task@tbb@@@8 100625b8     arena.obj
 0003:000015d8       ??_R0?AVdelegated_task@internal@interface7@tbb@@@8 100625d8     arena.obj
 0003:00001610       ??_R0?AVwait_task@internal@interface7@tbb@@@8 10062610     arena.obj
 0003:00001640       ??_R0?AV?$function_task@Vspawn_functor@graph@interface10@flow@tbb@@@internal@tbb@@@8 10062640     arena.obj
 0003:00001698       ??_R0?AVscheduler@internal@tbb@@@8 10062698     scheduler.obj
 0003:000016c0       ??_R0?AVgeneric_scheduler@internal@tbb@@@8 100626c0     scheduler.obj
 0003:000016f0       ??_R0?AVjob@rml@@@8        100626f0     scheduler.obj
 0003:00001708       ??_R0?AUintrusive_list_node@internal@tbb@@@8 10062708     scheduler.obj
 0003:00001738       ??_R0?AUscheduler_state@internal@tbb@@@8 10062738     scheduler.obj
 0003:00001768       ??_R0?AV?$custom_scheduler@UDefaultSchedulerTraits@internal@tbb@@@internal@tbb@@@8 10062768     scheduler.obj
 0003:000017c0       ??_R0?AV?$custom_scheduler@UIntelSchedulerTraits@internal@tbb@@@internal@tbb@@@8 100627c0     scheduler.obj
 0003:00001814       ??_R0?AVcontrol_storage@internal@tbb@@@8 10062814     tbb_main.obj
 0003:00001840       ??_R0?AVallowed_parallelism_control@internal@tbb@@@8 10062840     tbb_main.obj
 0003:00001878       ??_R0?AU?$padded@Vcontrol_storage@internal@tbb@@$0IA@@internal@tbb@@@8 10062878     tbb_main.obj
 0003:000018c8       ??_R0?AU?$padded_base@Vcontrol_storage@internal@tbb@@$0IA@$0BA@@internal@tbb@@@8 100628c8     tbb_main.obj
 0003:0000191c       ??_R0?AVstack_size_control@internal@tbb@@@8 1006291c     tbb_main.obj
 0003:0000194c       ??_R0?AVconcurrent_queue_base@internal@tbb@@@8 1006294c     concurrent_queue_v2.obj
 0003:00001980       ??_R0?AVtype_info@@@8      10062980     MSVCRTD:std_type_info_static.obj
 0003:00001998       ??_R0?AVbad_array_new_length@std@@@8 10062998     MSVCRTD:throw_bad_alloc.obj
 0003:000019c8       ?handles@internal@tbb@@3Uhandles_t@12@A 100629c8     dynamic_link.obj
 0003:000019ec       ?init_dl_data_state@internal@tbb@@3U?$atomic@W4do_once_state@internal@tbb@@@2@A 100629ec     dynamic_link.obj
 0003:00002b10       ?_OptionsStorage@?1??__local_stdio_printf_options@@9@4_KA 10063b10     private_server.obj
 0003:00002b38       ?HoleIndex@ProcessorGroupInfo@internal@tbb@@2HA 10063b38     tbb_misc_ex.obj
 0003:00002b40       ?theProcessorGroups@internal@tbb@@3PAUProcessorGroupInfo@12@A 10063b40     tbb_misc_ex.obj
 0003:00002e58       ?the_context_state_propagation_epoch@internal@tbb@@3IA 10063e58     scheduler.obj
 0003:00002e5c       ?the_context_state_propagation_mutex@internal@tbb@@3Vspin_mutex@2@A 10063e5c     scheduler.obj
 0003:00002f60       ?the_global_observer_list@internal@tbb@@3U?$padded@Vobserver_list@internal@tbb@@$0IA@@12@A 10063f60     observer_proxy.obj
 0003:00002fe8       ?theMarket@market@internal@tbb@@0PAV123@A 10063fe8     tbb_main.obj
 0003:00002fec       ?theTLS@governor@internal@tbb@@0V?$basic_tls@I@23@A 10063fec     tbb_main.obj
 0003:00002ff0       ?DefaultNumberOfThreads@governor@internal@tbb@@0IA 10063ff0     tbb_main.obj
 0003:00002ff4       ?theRMLServerFactory@governor@internal@tbb@@0Vtbb_factory@rml@23@A 10063ff4     tbb_main.obj
 0003:00003008       ?UsePrivateRML@governor@internal@tbb@@0_NA 10064008     tbb_main.obj
 0003:00003009       ?is_speculation_enabled@governor@internal@tbb@@0_NA 10064009     tbb_main.obj
 0003:0000300a       ?is_rethrow_broken@governor@internal@tbb@@0_NA 1006400a     tbb_main.obj
 0003:0000300b       ?InitializationDone@__TBB_InitOnce@internal@tbb@@0_NA 1006400b     tbb_main.obj
 0003:0000300c       ?count@__TBB_InitOnce@internal@tbb@@0U?$atomic@H@3@A 1006400c     tbb_main.obj
 0003:00003010       ?InitializationLock@__TBB_InitOnce@internal@tbb@@0EA 10064010     tbb_main.obj
 0003:00003014       ?AllocateSchedulerPtr@internal@tbb@@3P6APAVgeneric_scheduler@12@AAVmarket@12@@ZA 10064014     tbb_main.obj
 0003:00003098       ?theMarketMutex@market@internal@tbb@@0Vspin_mutex@3@A 10064098     tbb_main.obj
 0003:00003440       ?__type_info_root_node@@3U__type_info_node@@A 10064440     MSVCRTD:tncleanup.obj
 0003:00003448       ___scrt_current_native_startup_state 10064448     MSVCRTD:utility.obj
 0003:0000344c       ___scrt_native_startup_lock 1006444c     MSVCRTD:utility.obj
 0003:00003478       ___isa_available           10064478     MSVCRTD:_cpu_disp_.obj
 0003:0000347c       ___favor                   1006447c     MSVCRTD:_cpu_disp_.obj
 0003:00003480       ___scrt_debugger_hook_flag 10064480     MSVCRTD:utility_desktop.obj
 0003:00003488       ?_OptionsStorage@?1??__local_stdio_scanf_options@@9@4_KA 10064488     MSVCRTD:default_local_stdio_options.obj
 0003:00003498       ___dyn_tls_init_callback   10064498     <common>

 entry point at        0001:00040b40

 Static symbols

 0000:fff96000       .debug$S                   10000000     ucrtd:ucrtbased.dll
 0002:fffbb000       __guard_fids__             10000000     MSVCRTD:throw_bad_alloc.obj
 0002:fffbb000       __guard_fids__             10000000     MSVCRTD:throw_bad_alloc.obj
 0002:fffbb000       __guard_fids__             10000000     MSVCRTD:throw_bad_alloc.obj
 0002:fffbb000       __guard_fids__             10000000     MSVCRTD:throw_bad_alloc.obj
 0002:fffbb000       __guard_fids__             10000000     MSVCRTD:throw_bad_alloc.obj
 0002:fffbb000       __guard_fids__             10000000     MSVCRTD:throw_bad_alloc.obj
 0002:fffbb000       __guard_fids__             10000000     MSVCRTD:throw_bad_alloc.obj
 0002:fffbb000       __guard_fids__             10000000     MSVCRTD:throw_bad_alloc.obj
 0002:fffbb000       __ehfuncinfo$??1scoped_lock@spin_mutex@tbb@@QAE@XZ 10000000     private_server.obj
 0001:fffff000       __ehhandler$??1scoped_lock@spin_mutex@tbb@@QAE@XZ 10000000 f   private_server.obj
 0002:fffbb000       __guard_fids__             10000000     MSVCRTD:guard_support.obj
 0002:fffbb000       __guard_fids____scrt_set_unhandled_exception_filter 10000000     MSVCRTD:utility_desktop.obj
 0002:fffbb000       __guard_fids___except_handler4 10000000     MSVCRTD:_chandler4gs_.obj
 0002:fffbb000       __guard_fids_?dllmain_dispatch@@YAHQAUHINSTANCE__@@KQAX@Z 10000000     MSVCRTD:dll_dllmain.obj
 0001:fffff000       __ehhandler$??1exception_ptr@std@@QAE@XZ 10000000 f   scheduler.obj
 0001:fffff000       __ehhandler$??0exception_ptr@std@@QAE@ABV01@@Z 10000000 f   scheduler.obj
 0001:fffff000       __unwindfunclet$?rethrow_exception@std@@YAXVexception_ptr@1@@Z$0 10000000 f   scheduler.obj
 0001:fffff000       __ehhandler$??1_Iterator_base12@std@@QAE@XZ 10000000 f   scheduler.obj
 0000:fff96000       .debug$S                   10000000     vcruntimed:VCRUNTIME140D.dll
 0001:fffff000       __ehhandler$??1scoped_lock@spin_mutex@tbb@@QAE@XZ 10000000 f   task_group_context.obj
 0000:fff96000       .debug$S                   10000000     vcruntimed:VCRUNTIME140D.dll
 0000:fff96000       .debug$S                   10000000     vcruntimed:VCRUNTIME140D.dll
 0000:fff96000       .debug$S                   10000000     vcruntimed:VCRUNTIME140D.dll
 0002:fffbb000       __ehfuncinfo$??1circular_doubly_linked_list_with_sentinel@internal@tbb@@QAE@XZ 10000000     concurrent_monitor.obj
 0002:fffbb000       __ehfuncinfo$??1scoped_lock@spin_mutex@tbb@@QAE@XZ 10000000     concurrent_monitor.obj
 0000:fff96000       .debug$S                   10000000     vcruntimed:VCRUNTIME140D.dll
 0000:fff96000       .debug$S                   10000000     vcruntimed:VCRUNTIME140D.dll
 0000:fff96000       .debug$S                   10000000     vcruntimed:VCRUNTIME140D.dll
 0002:fffbb000       __ehfuncinfo$??1scoped_lock@spin_mutex@tbb@@QAE@XZ 10000000     task_group_context.obj
 0000:fff96000       .debug$S                   10000000     vcruntimed:VCRUNTIME140D.dll
 0000:fff96000       .debug$S                   10000000     vcruntimed:VCRUNTIME140D.dll
 0000:fff96000       .debug$S                   10000000     vcruntimed:VCRUNTIME140D.dll
 0000:fff96000       .debug$S                   10000000     vcruntimed:VCRUNTIME140D.dll
 0000:fff96000       .debug$S                   10000000     vcruntimed:VCRUNTIME140D.dll
 0000:fff96000       .debug$S                   10000000     vcruntimed:VCRUNTIME140D.dll
 0001:fffff000       __ehhandler$??1circular_doubly_linked_list_with_sentinel@internal@tbb@@QAE@XZ 10000000 f   concurrent_monitor.obj
 0001:fffff000       __ehhandler$??1scoped_lock@spin_mutex@tbb@@QAE@XZ 10000000 f   concurrent_monitor.obj
 0000:fff96000       .debug$S                   10000000     vcruntimed:VCRUNTIME140D.dll
 0000:fff96000       .debug$S                   10000000     vcruntimed:VCRUNTIME140D.dll
 0000:fff96000       .debug$S                   10000000     vcruntimed:VCRUNTIME140D.dll
 0000:fff96000       .debug$S                   10000000     ucrtd:ucrtbased.dll
 0000:fff96000       .debug$S                   10000000     ucrtd:ucrtbased.dll
 0000:fff96000       .debug$S                   10000000     ucrtd:ucrtbased.dll
 0000:fff96000       .debug$S                   10000000     ucrtd:ucrtbased.dll
 0000:fff96000       .debug$S                   10000000     ucrtd:ucrtbased.dll
 0000:fff96000       .debug$S                   10000000     ucrtd:ucrtbased.dll
 0000:fff96000       .debug$S                   10000000     ucrtd:ucrtbased.dll
 0000:fff96000       .debug$S                   10000000     ucrtd:ucrtbased.dll
 0000:fff96000       .debug$S                   10000000     ucrtd:ucrtbased.dll
 0001:fffff000       __ehhandler$??1scoped_lock@spin_rw_mutex_v3@tbb@@QAE@XZ 10000000 f   observer_proxy.obj
 0000:fff96000       .debug$S                   10000000     ucrtd:ucrtbased.dll
 0000:fff96000       .debug$S                   10000000     ucrtd:ucrtbased.dll
 0001:fffff000       __ehhandler$??1scoped_lock@spin_mutex@tbb@@QAE@XZ 10000000 f   concurrent_queue_v2.obj
 0000:fff96000       .debug$S                   10000000     ucrtd:ucrtbased.dll
 0001:fffff000       __ehhandler$??1scoped_lock@spin_mutex@tbb@@QAE@XZ 10000000 f   market.obj
 0000:fff96000       .debug$S                   10000000     ucrtd:ucrtbased.dll
 0000:fff96000       .debug$S                   10000000     ucrtd:ucrtbased.dll
 0000:fff96000       .debug$S                   10000000     ucrtd:ucrtbased.dll
 0000:fff96000       .debug$S                   10000000     ucrtd:ucrtbased.dll
 0002:fffbb000       __ehfuncinfo$??1scoped_lock@spin_rw_mutex_v3@tbb@@QAE@XZ 10000000     observer_proxy.obj
 0000:fff96000       .debug$S                   10000000     ucrtd:ucrtbased.dll
 0000:fff96000       .debug$S                   10000000     ucrtd:ucrtbased.dll
 0000:fff96000       .debug$S                   10000000     ucrtd:ucrtbased.dll
 0000:fff96000       .debug$S                   10000000     ucrtd:ucrtbased.dll
 0002:fffbb000       __unwindtable$??0?$_Deque_const_iterator@V?$_Deque_val@U?$_Deque_simple_types@PAVtask@tbb@@@std@@@std@@@std@@QAE@IPBU_Container_base12@1@@Z 10000000     scheduler.obj
 0000:fff96000       .debug$S                   10000000     ucrtd:ucrtbased.dll
 0000:fff96000       .debug$S                   10000000     ucrtd:ucrtbased.dll
 0002:fffbb000       __ehfuncinfo$??1scoped_lock@spin_mutex@tbb@@QAE@XZ 10000000     market.obj
 0000:fff96000       .debug$S                   10000000     ucrtd:ucrtbased.dll
 0000:fff96000       .debug$S                   10000000     ucrtd:ucrtbased.dll
 0000:fff96000       .debug$S                   10000000     ucrtd:ucrtbased.dll
 0000:fff96000       .debug$S                   10000000     ucrtd:ucrtbased.dll
 0000:fff96000       .debug$S                   10000000     ucrtd:ucrtbased.dll
 0000:fff96000       .debug$S                   10000000     ucrtd:ucrtbased.dll
 0000:fff96000       .debug$S                   10000000     ucrtd:ucrtbased.dll
 0000:fff96000       .debug$S                   10000000     ucrtd:ucrtbased.dll
 0000:fff96000       .debug$S                   10000000     ucrtd:ucrtbased.dll
 0000:fff96000       .debug$S                   10000000     ucrtd:ucrtbased.dll
 0000:fff96000       .debug$S                   10000000     ucrtd:ucrtbased.dll
 0000:fff96000       .debug$S                   10000000     ucrtd:ucrtbased.dll
 0002:fffbb000       __unwindtable$?_Orphan_off@?$deque@PAVtask@tbb@@V?$tbb_allocator@PAVtask@tbb@@@2@@std@@IBEXI@Z 10000000     scheduler.obj
 0000:fff96000       .debug$S                   10000000     ucrtd:ucrtbased.dll
 0002:fffbb000       __ehfuncinfo$?begin@?$deque@PAVtask@tbb@@V?$tbb_allocator@PAVtask@tbb@@@2@@std@@QAE?AV?$_Deque_iterator@V?$_Deque_val@U?$_Deque_simple_types@PAVtask@tbb@@@std@@@std@@@2@XZ 10000000     scheduler.obj
 0001:fffff000       __ehhandler$??1exception_ptr@std@@QAE@XZ 10000000 f   arena.obj
 0001:fffff000       __ehhandler$??0exception_ptr@std@@QAE@ABV01@@Z 10000000 f   arena.obj
 0000:fff96000       .debug$S                   10000000     ucrtd:ucrtbased.dll
 0000:fff96000       .debug$S                   10000000     ucrtd:ucrtbased.dll
 0000:fff96000       .debug$S                   10000000     ucrtd:ucrtbased.dll
 0002:fffbb000       __ehfuncinfo$??1?$context_guard_helper@$0A@@internal@tbb@@QAE@XZ 10000000     scheduler.obj
 0001:fffff000       __ehhandler$??3@YAXPAXABVallocate_root_with_context_proxy@internal@tbb@@@Z 10000000 f   arena.obj
 0002:fffbb000       __ehfuncinfo$??1auto_empty_task@internal@tbb@@QAE@XZ 10000000     scheduler.obj
 0002:fffbb000       __ehfuncinfo$??1scoped_lock@spin_mutex@tbb@@QAE@XZ 10000000     scheduler.obj
 0002:fffbb000       __ehfuncinfo$??1scoped_lock@spin_mutex@tbb@@QAE@XZ 10000000     concurrent_queue_v2.obj
 0001:fffff000       __ehhandler$??1scoped_lock@spin_mutex@tbb@@QAE@XZ 10000000 f   arena.obj
 0000:fff96000       .debug$S                   10000000     ucrtd:ucrtbased.dll
 0002:fffbb000       __ehfuncinfo$?_Orphan_me@_Iterator_base12@std@@QAEXXZ 10000000     scheduler.obj
 0002:fffbb000       __ehfuncinfo$?_Adopt@_Iterator_base12@std@@QAEXPBU_Container_base12@2@@Z 10000000     scheduler.obj
 0002:fffbb000       __ehfuncinfo$??1_Iterator_base12@std@@QAE@XZ 10000000     scheduler.obj
 0002:fffbb000       __unwindtable$?rethrow_exception@std@@YAXVexception_ptr@1@@Z 10000000     scheduler.obj
 0000:fff96000       .debug$S                   10000000     ucrtd:ucrtbased.dll
 0002:fffbb000       __ehfuncinfo$??0exception_ptr@std@@QAE@ABV01@@Z 10000000     scheduler.obj
 0002:fffbb000       __ehfuncinfo$??1exception_ptr@std@@QAE@XZ 10000000     scheduler.obj
 0001:fffff000       __unwindfunclet$??0?$_Deque_const_iterator@V?$_Deque_val@U?$_Deque_simple_types@PAVtask@tbb@@@std@@@std@@@std@@QAE@IPBU_Container_base12@1@@Z$0 10000000 f   scheduler.obj
 0000:fff96000       .debug$S                   10000000     ucrtd:ucrtbased.dll
 0001:fffff000       __unwindfunclet$?_Orphan_off@?$deque@PAVtask@tbb@@V?$tbb_allocator@PAVtask@tbb@@@2@@std@@IBEXI@Z$0 10000000 f   scheduler.obj
 0000:fff96000       .debug$S                   10000000     kernel32:KERNEL32.dll
 0000:fff96000       .debug$S                   10000000     kernel32:KERNEL32.dll
 0000:fff96000       .debug$S                   10000000     kernel32:KERNEL32.dll
 0000:fff96000       .debug$S                   10000000     kernel32:KERNEL32.dll
 0001:fffff000       __ehhandler$?begin@?$deque@PAVtask@tbb@@V?$tbb_allocator@PAVtask@tbb@@@2@@std@@QAE?AV?$_Deque_iterator@V?$_Deque_val@U?$_Deque_simple_types@PAVtask@tbb@@@std@@@std@@@2@XZ 10000000 f   scheduler.obj
 0000:fff96000       .debug$S                   10000000     kernel32:KERNEL32.dll
 0000:fff96000       .debug$S                   10000000     kernel32:KERNEL32.dll
 0000:fff96000       .debug$S                   10000000     kernel32:KERNEL32.dll
 0000:fff96000       .debug$S                   10000000     kernel32:KERNEL32.dll
 0000:fff96000       .debug$S                   10000000     kernel32:KERNEL32.dll
 0000:fff96000       .debug$S                   10000000     kernel32:KERNEL32.dll
 0000:fff96000       .debug$S                   10000000     kernel32:KERNEL32.dll
 0000:fff96000       .debug$S                   10000000     kernel32:KERNEL32.dll
 0000:fff96000       .debug$S                   10000000     kernel32:KERNEL32.dll
 0000:fff96000       .debug$S                   10000000     kernel32:KERNEL32.dll
 0000:fff96000       .debug$S                   10000000     kernel32:KERNEL32.dll
 0000:fff96000       .debug$S                   10000000     kernel32:KERNEL32.dll
 0001:fffff000       __ehhandler$??1circular_doubly_linked_list_with_sentinel@internal@tbb@@QAE@XZ 10000000 f   arena.obj
 0001:fffff000       __ehhandler$??1thread_context@concurrent_monitor@internal@tbb@@QAE@XZ 10000000 f   arena.obj
 0000:fff96000       .debug$S                   10000000     kernel32:KERNEL32.dll
 0001:fffff000       __unwindfunclet$??0concurrent_monitor@internal@tbb@@QAE@XZ$0 10000000 f   arena.obj
 0001:fffff000       __ehhandler$?_Adopt@_Iterator_base12@std@@QAEXPBU_Container_base12@2@@Z 10000000 f   scheduler.obj
 0000:fff96000       .debug$S                   10000000     tbb_debug.exp
 0001:fffff000       __ehhandler$?_Orphan_me@_Iterator_base12@std@@QAEXXZ 10000000 f   scheduler.obj
 0001:fffff000       __ehhandler$??1scoped_lock@spin_mutex@tbb@@QAE@XZ 10000000 f   scheduler.obj
 0001:fffff000       __ehhandler$??1auto_empty_task@internal@tbb@@QAE@XZ 10000000 f   scheduler.obj
 0002:fffbb000       __guard_fids__             10000000     MSVCRTD:std_type_info_static.obj
 0002:fffbb000       __ehfuncinfo$??1exception_ptr@std@@QAE@XZ 10000000     arena.obj
 0002:fffbb000       __ehfuncinfo$??0exception_ptr@std@@QAE@ABV01@@Z 10000000     arena.obj
 0002:fffbb000       __ehfuncinfo$??3@YAXPAXABVallocate_root_with_context_proxy@internal@tbb@@@Z 10000000     arena.obj
 0002:fffbb000       __ehfuncinfo$??1scoped_lock@spin_mutex@tbb@@QAE@XZ 10000000     arena.obj
 0002:fffbb000       __ehfuncinfo$??1circular_doubly_linked_list_with_sentinel@internal@tbb@@QAE@XZ 10000000     arena.obj
 0002:fffbb000       __ehfuncinfo$??1thread_context@concurrent_monitor@internal@tbb@@QAE@XZ 10000000     arena.obj
 0002:fffbb000       __guard_fids___CRT_RTC_INITW 10000000     MSVCRTD:_init_.obj
 0002:fffbb000       __unwindtable$??0concurrent_monitor@internal@tbb@@QAE@XZ 10000000     arena.obj
 0002:fffbb000       __ehfuncinfo$??1scoped_lock@spin_mutex@tbb@@QAE@XZ 10000000     pipeline.obj
 0002:fffbb000       __guard_fids___CRT_RTC_INIT 10000000     MSVCRTD:_init_.obj
 0000:fff96000       .debug$S                   10000000     msvcprtd:MSVCP140D.dll
 0000:fff96000       .debug$S                   10000000     msvcprtd:MSVCP140D.dll
 0000:fff96000       .debug$S                   10000000     msvcprtd:MSVCP140D.dll
 0000:fff96000       .debug$S                   10000000     msvcprtd:MSVCP140D.dll
 0000:fff96000       .debug$S                   10000000     msvcprtd:MSVCP140D.dll
 0001:fffff000       __ehhandler$??1scoped_lock@spin_mutex@tbb@@QAE@XZ 10000000 f   tbb_main.obj
 0000:fff96000       .debug$S                   10000000     msvcprtd:MSVCP140D.dll
 0000:fff96000       .debug$S                   10000000     msvcprtd:MSVCP140D.dll
 0001:fffff000       __ehhandler$??1?$context_guard_helper@$0A@@internal@tbb@@QAE@XZ 10000000 f   scheduler.obj
 0000:fff96000       .debug$S                   10000000     msvcprtd:MSVCP140D.dll
 0000:fff96000       .debug$S                   10000000     msvcprtd:MSVCP140D.dll
 0000:fff96000       .debug$S                   10000000     msvcprtd:MSVCP140D.dll
 0000:fff96000       .debug$S                   10000000     kernel32:KERNEL32.dll
 0000:fff96000       .debug$S                   10000000     kernel32:KERNEL32.dll
 0000:fff96000       .debug$S                   10000000     kernel32:KERNEL32.dll
 0000:fff96000       .debug$S                   10000000     kernel32:KERNEL32.dll
 0000:fff96000       .debug$S                   10000000     kernel32:KERNEL32.dll
 0000:fff96000       .debug$S                   10000000     kernel32:KERNEL32.dll
 0000:fff96000       .debug$S                   10000000     kernel32:KERNEL32.dll
 0000:fff96000       .debug$S                   10000000     kernel32:KERNEL32.dll
 0000:fff96000       .debug$S                   10000000     kernel32:KERNEL32.dll
 0002:fffbb000       __ehfuncinfo$??1scoped_lock@spin_mutex@tbb@@QAE@XZ 10000000     tbb_main.obj
 0000:fff96000       .debug$S                   10000000     kernel32:KERNEL32.dll
 0000:fff96000       .debug$S                   10000000     kernel32:KERNEL32.dll
 0000:fff96000       .debug$S                   10000000     kernel32:KERNEL32.dll
 0000:fff96000       .debug$S                   10000000     kernel32:KERNEL32.dll
 0000:fff96000       .debug$S                   10000000     kernel32:KERNEL32.dll
 0000:fff96000       .debug$S                   10000000     kernel32:KERNEL32.dll
 0000:fff96000       .debug$S                   10000000     kernel32:KERNEL32.dll
 0000:fff96000       .debug$S                   10000000     kernel32:KERNEL32.dll
 0000:fff96000       .debug$S                   10000000     kernel32:KERNEL32.dll
 0000:fff96000       .debug$S                   10000000     kernel32:KERNEL32.dll
 0000:fff96000       .debug$S                   10000000     kernel32:KERNEL32.dll
 0000:fff96000       .debug$S                   10000000     kernel32:KERNEL32.dll
 0001:fffff000       __ehhandler$??1scoped_lock@spin_mutex@tbb@@QAE@XZ 10000000 f   pipeline.obj
 0000:fff96000       .debug$S                   10000000     kernel32:KERNEL32.dll
 0000:fff96000       .debug$S                   10000000     kernel32:KERNEL32.dll
 0000:fff96000       .debug$S                   10000000     kernel32:KERNEL32.dll
 0000:fff96000       .debug$S                   10000000     kernel32:KERNEL32.dll
 0000:fff96000       .debug$S                   10000000     kernel32:KERNEL32.dll
 0000:fff96000       .debug$S                   10000000     kernel32:KERNEL32.dll
 0000:fff96000       .debug$S                   10000000     kernel32:KERNEL32.dll
 0000:fff96000       .debug$S                   10000000     kernel32:KERNEL32.dll
 0000:fff96000       .debug$S                   10000000     kernel32:KERNEL32.dll
 0000:fff96000       .debug$S                   10000000     kernel32:KERNEL32.dll
 0000:fff96000       .debug$S                   10000000     kernel32:KERNEL32.dll
 0000:fff96000       .debug$S                   10000000     kernel32:KERNEL32.dll
 0000:fff96000       .debug$S                   10000000     kernel32:KERNEL32.dll
 0000:fff96000       .debug$S                   10000000     kernel32:KERNEL32.dll
 0000:fff96000       .debug$S                   10000000     kernel32:KERNEL32.dll
 0000:fff96000       .debug$S                   10000000     kernel32:KERNEL32.dll
 0000:fff96000       .debug$S                   10000000     kernel32:KERNEL32.dll
 0000:fff96000       .debug$S                   10000000     kernel32:KERNEL32.dll
 0002:fffbb000       __guard_fids___guard_icall_checks_enforced 10000000     MSVCRTD:guard_support.obj
 0002:fffbb008       __ehfuncinfo$?rethrow_exception@std@@YAXVexception_ptr@1@@Z 10000008     scheduler.obj
 0002:fffbb008       __ehfuncinfo$?_Orphan_off@?$deque@PAVtask@tbb@@V?$tbb_allocator@PAVtask@tbb@@@2@@std@@IBEXI@Z 10000008     scheduler.obj
 0002:fffbb008       __ehfuncinfo$??0concurrent_monitor@internal@tbb@@QAE@XZ 10000008     arena.obj
 0001:fffff008       __ehhandler$?rethrow_exception@std@@YAXVexception_ptr@1@@Z 10000008 f   scheduler.obj
 0001:fffff008       __ehhandler$??0?$_Deque_const_iterator@V?$_Deque_val@U?$_Deque_simple_types@PAVtask@tbb@@@std@@@std@@@std@@QAE@IPBU_Container_base12@1@@Z 10000008 f   scheduler.obj
 0002:fffbb008       __ehfuncinfo$??0?$_Deque_const_iterator@V?$_Deque_val@U?$_Deque_simple_types@PAVtask@tbb@@@std@@@std@@@std@@QAE@IPBU_Container_base12@1@@Z 10000008     scheduler.obj
 0001:fffff00b       __ehhandler$??0concurrent_monitor@internal@tbb@@QAE@XZ 1000000b f   arena.obj
 0001:fffff012       __ehhandler$?_Orphan_off@?$deque@PAVtask@tbb@@V?$tbb_allocator@PAVtask@tbb@@@2@@std@@IBEXI@Z 10000012 f   scheduler.obj
 0001:fffff04c       $LN5                       1000004c     scheduler.obj
 0001:fffff04c       $LN5                       1000004c     concurrent_vector_v2.obj
 0001:fffff04c       $LN5                       1000004c     market.obj
 0001:fffff04c       $LN5                       1000004c     private_server.obj
 0001:fffff04c       $LN5                       1000004c     private_server.obj
 0001:fffff04c       $LN5                       1000004c     scheduler.obj
 0001:fffff04c       $LN5                       1000004c     scheduler.obj
 0001:fffff04c       $LN5                       1000004c     arena.obj
 0001:fffff04c       $LN5                       1000004c     tbb_misc.obj
 0001:fffff04c       $LN5                       1000004c     observer_proxy.obj
 0001:fffff04c       $LN5                       1000004c     tbb_misc_ex.obj
 0001:fffff04c       $LN5                       1000004c     concurrent_vector.obj
 0001:fffff04c       $LN5                       1000004c     x86_rtm_rw_mutex.obj
 0001:fffff04c       $LN5                       1000004c     concurrent_queue_v2.obj
 0001:fffff04c       $LN5                       1000004c     dynamic_link.obj
 0001:fffff04c       $LN5                       1000004c     observer_proxy.obj
 0001:fffff04c       $LN5                       1000004c     scheduler.obj
 0001:fffff04c       $LN5                       1000004c     cache_aligned_allocator.obj
 0001:fffff04c       $LN5                       1000004c     condition_variable.obj
 0001:fffff04c       $LN5                       1000004c     concurrent_monitor.obj
 0001:fffff04c       $LN5                       1000004c     governor.obj
 0001:fffff04c       $LN5                       1000004c     reader_writer_lock.obj
 0001:fffff04c       $LN5                       1000004c     arena.obj
 0001:fffff04c       $LN5                       1000004c     concurrent_queue.obj
 0001:fffff054       $LN4                       10000054     governor.obj
 0001:fffff054       $LN4                       10000054     condition_variable.obj
 0001:fffff054       $LN4                       10000054     concurrent_monitor.obj
 0001:fffff054       $LN4                       10000054     observer_proxy.obj
 0001:fffff054       $LN4                       10000054     tbb_misc_ex.obj
 0001:fffff054       $LN4                       10000054     concurrent_vector.obj
 0001:fffff054       $LN4                       10000054     tbb_misc.obj
 0001:fffff054       $LN4                       10000054     reader_writer_lock.obj
 0001:fffff054       $LN4                       10000054     arena.obj
 0001:fffff054       $LN4                       10000054     scheduler.obj
 0001:fffff054       $LN4                       10000054     private_server.obj
 0001:fffff054       $LN4                       10000054     cache_aligned_allocator.obj
 0001:fffff054       $LN4                       10000054     concurrent_vector_v2.obj
 0001:fffff054       $LN4                       10000054     scheduler.obj
 0001:fffff054       $LN4                       10000054     market.obj
 0001:fffff054       $LN4                       10000054     private_server.obj
 0001:fffff054       $LN4                       10000054     scheduler.obj
 0001:fffff054       $LN4                       10000054     scheduler.obj
 0001:fffff054       $LN4                       10000054     x86_rtm_rw_mutex.obj
 0001:fffff054       $LN4                       10000054     dynamic_link.obj
 0001:fffff054       $LN4                       10000054     observer_proxy.obj
 0001:fffff054       $LN4                       10000054     concurrent_queue.obj
 0001:fffff054       $LN4                       10000054     arena.obj
 0001:fffff054       $LN4                       10000054     concurrent_queue_v2.obj
 0001:fffff05c       $LN7                       1000005c     concurrent_queue_v2.obj
 0001:fffff05c       $LN7                       1000005c     scheduler.obj
 0001:fffff05c       $LN7                       1000005c     condition_variable.obj
 0001:fffff05c       $LN7                       1000005c     governor.obj
 0001:fffff05c       $LN7                       1000005c     task_group_context.obj
 0001:fffff05c       $LN7                       1000005c     concurrent_vector.obj
 0001:fffff05c       $LN7                       1000005c     cache_aligned_allocator.obj
 0001:fffff05c       $LN7                       1000005c     tbb_misc_ex.obj
 0001:fffff05c       $LN7                       1000005c     concurrent_queue_v2.obj
 0001:fffff060       $LN3                       10000060     concurrent_queue_v2.obj
 0001:fffff060       $LN3                       10000060     condition_variable.obj
 0001:fffff060       $LN3                       10000060     dynamic_link.obj
 0001:fffff060       $LN3                       10000060     cache_aligned_allocator.obj
 0001:fffff060       $LN3                       10000060     private_server.obj
 0001:fffff060       $LN3                       10000060     scheduler.obj
 0001:fffff060       $LN3                       10000060     scheduler.obj
 0001:fffff060       $LN3                       10000060     private_server.obj
 0001:fffff060       $LN3                       10000060     concurrent_vector.obj
 0001:fffff060       $LN3                       10000060     concurrent_queue.obj
 0001:fffff060       $LN3                       10000060     reader_writer_lock.obj
 0001:fffff060       $LN3                       10000060     tbb_misc.obj
 0001:fffff060       $LN3                       10000060     scheduler.obj
 0001:fffff060       $LN3                       10000060     x86_rtm_rw_mutex.obj
 0001:fffff060       $LN3                       10000060     market.obj
 0001:fffff060       $LN3                       10000060     scheduler.obj
 0001:fffff060       $LN3                       10000060     governor.obj
 0001:fffff060       $LN3                       10000060     tbb_misc_ex.obj
 0001:fffff060       $LN3                       10000060     arena.obj
 0001:fffff060       $LN3                       10000060     concurrent_vector_v2.obj
 0001:fffff060       $LN3                       10000060     observer_proxy.obj
 0001:fffff060       $LN3                       10000060     arena.obj
 0001:fffff060       $LN3                       10000060     concurrent_monitor.obj
 0001:fffff060       $LN3                       10000060     observer_proxy.obj
 0001:fffff064       $LN6                       10000064     concurrent_vector.obj
 0001:fffff064       $LN6                       10000064     governor.obj
 0001:fffff064       $LN6                       10000064     tbb_misc_ex.obj
 0001:fffff064       $LN6                       10000064     cache_aligned_allocator.obj
 0001:fffff064       $LN6                       10000064     condition_variable.obj
 0001:fffff064       $LN7                       10000064     tbb_main.obj
 0001:fffff064       $LN6                       10000064     concurrent_queue_v2.obj
 0001:fffff064       $LN6                       10000064     concurrent_queue_v2.obj
 0001:fffff064       $LN6                       10000064     scheduler.obj
 0001:fffff064       $LN6                       10000064     task_group_context.obj
 0001:fffff06c       $LN6                       1000006c     tbb_main.obj
 0001:fffff070       $LN5                       10000070     task_group_context.obj
 0001:fffff070       $LN5                       10000070     scheduler.obj
 0001:fffff070       $LN5                       10000070     concurrent_queue_v2.obj
 0001:fffff070       $LN5                       10000070     concurrent_queue_v2.obj
 0001:fffff070       $LN5                       10000070     cache_aligned_allocator.obj
 0001:fffff070       $LN5                       10000070     tbb_misc_ex.obj
 0001:fffff070       $LN5                       10000070     concurrent_vector.obj
 0001:fffff070       $LN5                       10000070     governor.obj
 0001:fffff070       $LN5                       10000070     condition_variable.obj
 0001:fffff074       $LN5                       10000074     arena.obj
 0001:fffff074       $LN5                       10000074     concurrent_vector_v2.obj
 0001:fffff078       $LN5                       10000078     arena.obj
 0001:fffff078       $LN7                       10000078     tbb_thread.obj
 0001:fffff078       $LN5                       10000078     tbb_main.obj
 0001:fffff07c       $LN4                       1000007c     concurrent_vector_v2.obj
 0001:fffff07c       $LN4                       1000007c     arena.obj
 0001:fffff080       $LN4                       10000080     arena.obj
 0001:fffff080       $LN6                       10000080     tbb_thread.obj
 0001:fffff088       $LN3                       10000088     concurrent_vector_v2.obj
 0001:fffff088       $LN3                       10000088     arena.obj
 0001:fffff08c       $LN5                       1000008c     tbb_thread.obj
 0001:fffff08c       $LN3                       1000008c     arena.obj
 0001:fffff094       $LN6                       10000094     scheduler.obj
 0001:fffff09c       $LN5                       1000009c     scheduler.obj
 0001:fffff0a8       $LN3                       100000a8     scheduler.obj
 0001:fffff108       $LN10                      10000108     scheduler.obj
 0001:fffff110       $LN9                       10000110     scheduler.obj
 0001:fffff128       $LN7                       10000128     scheduler.obj
 0001:fffff12e       $LN6                       1000012e     scheduler.obj
 0001:fffff150       $LN16                      10000150     scheduler.obj
 0001:fffff158       $LN15                      10000158     scheduler.obj
 0001:fffff164       $LN13                      10000164     scheduler.obj
 0001:00000000       ??__Estatic_init_dl_data@internal@tbb@@YAXXZ 10001000 f   dynamic_link.obj
 0001:00000020       ??__Ethe_context_state_propagation_mutex@internal@tbb@@YAXXZ 10001020 f   scheduler.obj
 0001:00000040       ??__Ethe_dummy_context@internal@tbb@@YAXXZ 10001040 f   scheduler.obj
 0001:00000070       ??__Ethe_check_observer_proxy_count@internal@tbb@@YAXXZ 10001070 f   observer_proxy.obj
 0001:00000090       ??__Ethe_global_observer_list@internal@tbb@@YAXXZ 10001090 f   observer_proxy.obj
 0001:000000b0       ??__E?theMarketMutex@market@internal@tbb@@0Vspin_mutex@3@A@@YAXXZ 100010b0 f   tbb_main.obj
 0001:000000d0       ??__Eallowed_parallelism_ctl@internal@tbb@@YAXXZ 100010d0 f   tbb_main.obj
 0001:000000f0       ??__Estack_size_ctl@internal@tbb@@YAXXZ 100010f0 f   tbb_main.obj
 0001:0000020c       $LN5                       1000120c     concurrent_hash_map.obj
 0001:00000214       $LN4                       10001214     concurrent_hash_map.obj
 0001:00000220       $LN3                       10001220     concurrent_hash_map.obj
 0001:000002f0       ?__TBB_machine_cmpswp4@@YAJPCXHH@Z 100012f0 f   concurrent_queue.obj
 0001:00000310       ?__TBB_machine_fetchadd4@@YAJPCXH@Z 10001310 f   concurrent_queue.obj
 0001:00000320       ?pause@msvc_intrinsics@internal@tbb@@YAXI@Z 10001320 f   concurrent_queue.obj
 0001:000007d3       __catch$?internal_pop@concurrent_queue_base_v3@internal@tbb@@IAEXPAX@Z$0 100017d3 f   concurrent_queue.obj
 0001:000007ec       __catch$?internal_pop@concurrent_queue_base_v3@internal@tbb@@IAEXPAX@Z$1 100017ec f   concurrent_queue.obj
 0001:00000910       $LN29                      10001910     concurrent_queue.obj
 0001:00000918       $LN28                      10001918     concurrent_queue.obj
 0001:00000924       $LN26                      10001924     concurrent_queue.obj
 0001:00000e93       __catch$?internal_insert_item@concurrent_queue_base_v3@internal@tbb@@IAEXPBXW4copy_specifics@123@@Z$0 10001e93 f   concurrent_queue.obj
 0001:00000ebd       __catch$?internal_insert_item@concurrent_queue_base_v3@internal@tbb@@IAEXPBXW4copy_specifics@123@@Z$1 10001ebd f   concurrent_queue.obj
 0001:00001000       $LN29                      10002000     concurrent_queue.obj
 0001:00001008       $LN28                      10002008     concurrent_queue.obj
 0001:00001020       $LN26                      10002020     concurrent_queue.obj
 0001:00001028       $LN25                      10002028     concurrent_queue.obj
 0001:00001610       $LN11                      10002610     concurrent_queue.obj
 0001:00001618       $LN10                      10002618     concurrent_queue.obj
 0001:00001624       $LN9                       10002624     concurrent_queue.obj
 0001:00001737       __catch$?push@micro_queue@internal@tbb@@QAEXPBXIAAVconcurrent_queue_base_v3@23@W4copy_specifics@423@@Z$0 10002737 f   concurrent_queue.obj
 0001:000018f5       __catch$?push@micro_queue@internal@tbb@@QAEXPBXIAAVconcurrent_queue_base_v3@23@W4copy_specifics@423@@Z$2 100028f5 f   concurrent_queue.obj
 0001:000019b4       $LN39                      100029b4     concurrent_queue.obj
 0001:000019bc       $LN38                      100029bc     concurrent_queue.obj
 0001:000019d4       $LN36                      100029d4     concurrent_queue.obj
 0001:000019d9       $LN35                      100029d9     concurrent_queue.obj
 0001:00001c0c       $LN19                      10002c0c     concurrent_queue.obj
 0001:00001c14       $LN18                      10002c14     concurrent_queue.obj
 0001:00001c20       $LN16                      10002c20     concurrent_queue.obj
 0001:00001ea2       __catch$?assign@micro_queue@internal@tbb@@QAEAAU123@ABU123@AAVconcurrent_queue_base_v3@23@W4copy_specifics@423@@Z$0 10002ea2 f   concurrent_queue.obj
 0001:00001f18       $LN22                      10002f18     concurrent_queue.obj
 0001:00001f20       $LN21                      10002f20     concurrent_queue.obj
 0001:00001f2c       $LN19                      10002f2c     concurrent_queue.obj
 0001:00002140       $LN9                       10003140     concurrent_queue.obj
 0001:00002148       $LN8                       10003148     concurrent_queue.obj
 0001:00002154       $LN6                       10003154     concurrent_queue.obj
 0001:00002580       $LN17                      10003580     concurrent_queue.obj
 0001:00002588       $LN16                      10003588     concurrent_queue.obj
 0001:000025a0       $LN14                      100035a0     concurrent_queue.obj
 0001:000025a2       $LN13                      100035a2     concurrent_queue.obj
 0001:0000262c       $LN7                       1000362c     concurrent_queue.obj
 0001:00002634       $LN6                       10003634     concurrent_queue.obj
 0001:00002640       $LN5                       10003640     concurrent_queue.obj
 0001:000026ac       $LN7                       100036ac     concurrent_queue.obj
 0001:000026b4       $LN6                       100036b4     concurrent_queue.obj
 0001:000026c0       $LN5                       100036c0     concurrent_queue.obj
 0001:000028ac       $LN5                       100038ac     concurrent_queue.obj
 0001:000028b4       $LN4                       100038b4     concurrent_queue.obj
 0001:000028c0       $LN3                       100038c0     concurrent_queue.obj
 0001:0000291c       $LN5                       1000391c     concurrent_queue.obj
 0001:00002924       $LN4                       10003924     concurrent_queue.obj
 0001:00002930       $LN3                       10003930     concurrent_queue.obj
 0001:00003060       $LN9                       10004060     concurrent_queue.obj
 0001:00003068       $LN8                       10004068     concurrent_queue.obj
 0001:00003074       $LN6                       10004074     concurrent_queue.obj
 0001:00003d60       ?__TBB_machine_cmpswp4@@YAJPCXHH@Z 10004d60 f   concurrent_vector.obj
 0001:00003d80       ?__TBB_machine_fetchadd4@@YAJPCXH@Z 10004d80 f   concurrent_vector.obj
 0001:00003d90       ?pause@msvc_intrinsics@internal@tbb@@YAXI@Z 10004d90 f   concurrent_vector.obj
 0001:00003db0       ?lg_bsr@msvc_intrinsics@internal@tbb@@YAII@Z 10004db0 f   concurrent_vector.obj
 0001:00003dec       $LN5                       10004dec     concurrent_vector.obj
 0001:00003df4       $LN4                       10004df4     concurrent_vector.obj
 0001:00003e00       $LN3                       10004e00     concurrent_vector.obj
 0001:00004240       $LN17                      10005240     concurrent_vector.obj
 0001:00004248       $LN16                      10005248     concurrent_vector.obj
 0001:00004254       $LN14                      10005254     concurrent_vector.obj
 0001:000044f8       $LN11                      100054f8     concurrent_vector.obj
 0001:00004500       $LN10                      10005500     concurrent_vector.obj
 0001:0000450c       $LN8                       1000550c     concurrent_vector.obj
 0001:000047da       __catch$?internal_compact@concurrent_vector_base_v3@internal@tbb@@IAEPAXIPAXP6AX0I@ZP6AX0PBXI@Z@Z$0 100057da f   concurrent_vector.obj
 0001:00004ab0       $LN41                      10005ab0     concurrent_vector.obj
 0001:00004ab8       $LN40                      10005ab8     concurrent_vector.obj
 0001:00004ac4       $LN38                      10005ac4     concurrent_vector.obj
 0001:000053f4       $LN11                      100063f4     concurrent_vector.obj
 0001:000053fc       $LN10                      100063fc     concurrent_vector.obj
 0001:00005414       $LN8                       10006414     concurrent_vector.obj
 0001:0000541d       $LN7                       1000641d     concurrent_vector.obj
 0001:00005644       $LN21                      10006644     concurrent_vector.obj
 0001:0000564c       $LN20                      1000664c     concurrent_vector.obj
 0001:00005658       $LN19                      10006658     concurrent_vector.obj
 0001:00005950       $LN21                      10006950     concurrent_vector.obj
 0001:00005958       $LN20                      10006958     concurrent_vector.obj
 0001:0000597c       $LN18                      1000697c     concurrent_vector.obj
 0001:0000598c       $LN17                      1000698c     concurrent_vector.obj
 0001:0000599c       $LN16                      1000699c     concurrent_vector.obj
 0001:00005c10       $LN22                      10006c10     concurrent_vector.obj
 0001:00005c18       $LN21                      10006c18     concurrent_vector.obj
 0001:00005c24       $LN19                      10006c24     concurrent_vector.obj
 0001:00005f0c       $LN33                      10006f0c     concurrent_vector.obj
 0001:00005f14       $LN32                      10006f14     concurrent_vector.obj
 0001:00005f2c       $LN31                      10006f2c     concurrent_vector.obj
 0001:00005f32       $LN30                      10006f32     concurrent_vector.obj
 0001:000060ec       $LN6                       100070ec     concurrent_vector.obj
 0001:000060f4       $LN5                       100070f4     concurrent_vector.obj
 0001:0000610c       $LN4                       1000710c     concurrent_vector.obj
 0001:00006113       $LN3                       10007113     concurrent_vector.obj
 0001:0000620c       $LN6                       1000720c     concurrent_vector.obj
 0001:00006214       $LN5                       10007214     concurrent_vector.obj
 0001:0000622c       $LN4                       1000722c     concurrent_vector.obj
 0001:00006233       $LN3                       10007233     concurrent_vector.obj
 0001:00006904       $LN10                      10007904     concurrent_vector.obj
 0001:0000690c       $LN9                       1000790c     concurrent_vector.obj
 0001:00006918       $LN7                       10007918     concurrent_vector.obj
 0001:0000725c       $LN7                       1000825c     concurrent_vector.obj
 0001:00007264       $LN6                       10008264     concurrent_vector.obj
 0001:00007270       $LN5                       10008270     concurrent_vector.obj
 0001:000072dc       $LN7                       100082dc     concurrent_vector.obj
 0001:000072e4       $LN6                       100082e4     concurrent_vector.obj
 0001:000072f0       $LN5                       100082f0     concurrent_vector.obj
 0001:00007a0c       $LN5                       10008a0c     concurrent_vector.obj
 0001:00007a14       $LN4                       10008a14     concurrent_vector.obj
 0001:00007a20       $LN3                       10008a20     concurrent_vector.obj
 0001:00007a7c       $LN5                       10008a7c     concurrent_vector.obj
 0001:00007a84       $LN4                       10008a84     concurrent_vector.obj
 0001:00007a90       $LN3                       10008a90     concurrent_vector.obj
 0001:00007b24       $LN5                       10008b24     concurrent_vector.obj
 0001:00007b2c       $LN4                       10008b2c     concurrent_vector.obj
 0001:00007b38       $LN3                       10008b38     concurrent_vector.obj
 0001:00007e60       ??0segment_scope_guard@?1??enable_segment@helper@concurrent_vector_base_v3@internal@tbb@@SAIAAV345@II_N@Z@QAE@AAVsegment_t@345@1@Z 10008e60 f   concurrent_vector.obj
 0001:00008000       ??1segment_scope_guard@?1??enable_segment@helper@concurrent_vector_base_v3@internal@tbb@@SAIAAV345@II_N@Z@QAE@XZ 10009000 f   concurrent_vector.obj
 0001:000082f8       $LN5                       100092f8     concurrent_vector.obj
 0001:00008300       $LN4                       10009300     concurrent_vector.obj
 0001:0000830c       $LN3                       1000930c     concurrent_vector.obj
 0001:00008590       ?_Deprecate@_Unchecked_iterators@?1???$copy@PAVsegment_t@concurrent_vector_base_v3@internal@tbb@@PAV1234@@std@@YAPAVsegment_t@concurrent_vector_base_v3@internal@tbb@@PAV3456@00@Z@SAXU?$integral_constant@_N$0A@@2@@Z 10009590 f   concurrent_vector.obj
 0001:000087a0       ?dismiss@segment_scope_guard@?1??enable_segment@helper@concurrent_vector_base_v3@internal@tbb@@SAIAAV456@II_N@Z@QAEXXZ 100097a0 f   concurrent_vector.obj
 0001:00008e10       ?__TBB_machine_cmpswp4@@YAJPCXHH@Z 10009e10 f   dynamic_link.obj
 0001:00008e30       ?__TBB_machine_fetchadd4@@YAJPCXH@Z 10009e30 f   dynamic_link.obj
 0001:00008e40       ?pause@msvc_intrinsics@internal@tbb@@YAXI@Z 10009e40 f   dynamic_link.obj
 0001:00008e60       ?dynamic_link_warning@internal@tbb@@YAXW4dynamic_link_error_t@12@ZZ 10009e60 f   dynamic_link.obj
 0001:00008e70       ?resolve_symbols@internal@tbb@@YA_NPAUHINSTANCE__@@QBUdynamic_link_descriptor@12@I@Z 10009e70 f   dynamic_link.obj
 0001:00008f8c       $LN16                      10009f8c     dynamic_link.obj
 0001:00008f94       $LN15                      10009f94     dynamic_link.obj
 0001:00008fa0       $LN14                      10009fa0     dynamic_link.obj
 0001:00008fc0       ?atomic_once@internal@tbb@@YAXP6AXXZAAU?$atomic@W4do_once_state@internal@tbb@@@2@@Z 10009fc0 f   dynamic_link.obj
 0001:00008fe0       ?init_ap_data@internal@tbb@@YAXXZ 10009fe0 f   dynamic_link.obj
 0001:00009154       $LN13                      1000a154     dynamic_link.obj
 0001:0000915c       $LN12                      1000a15c     dynamic_link.obj
 0001:00009168       $LN11                      1000a168     dynamic_link.obj
 0001:00009170       ?init_dl_data@internal@tbb@@YAXXZ 1000a170 f   dynamic_link.obj
 0001:00009190       ?abs_path@internal@tbb@@YAIPBDPADI@Z 1000a190 f   dynamic_link.obj
 0001:00009260       ?weak_symbol_link@internal@tbb@@YA_NQBUdynamic_link_descriptor@12@I@Z 1000a260 f   dynamic_link.obj
 0001:00009270       ?global_symbols_link@internal@tbb@@YAPAUHINSTANCE__@@PBDQBUdynamic_link_descriptor@12@I@Z 1000a270 f   dynamic_link.obj
 0001:0000930c       $LN8                       1000a30c     dynamic_link.obj
 0001:00009314       $LN7                       1000a314     dynamic_link.obj
 0001:00009320       $LN6                       1000a320     dynamic_link.obj
 0001:00009330       ?save_library_handle@internal@tbb@@YAXPAUHINSTANCE__@@PAPAU3@@Z 1000a330 f   dynamic_link.obj
 0001:000094fc       $LN11                      1000a4fc     dynamic_link.obj
 0001:00009504       $LN10                      1000a504     dynamic_link.obj
 0001:00009510       $LN9                       1000a510     dynamic_link.obj
 0001:0000962c       $LN7                       1000a62c     dynamic_link.obj
 0001:00009634       $LN6                       1000a634     dynamic_link.obj
 0001:00009640       $LN5                       1000a640     dynamic_link.obj
 0001:0000974c       $LN5                       1000a74c     dynamic_link.obj
 0001:00009754       $LN4                       1000a754     dynamic_link.obj
 0001:00009760       $LN3                       1000a760     dynamic_link.obj
 0001:00009b80       ?__itt_detach_init_3_0@@YAXXZ 1000ab80 f   itt_notify.obj
 0001:00009bc0       ?__itt_sync_createA_init_3_0@@YAXPAXPBD1H@Z 1000abc0 f   itt_notify.obj
 0001:00009c10       ?__itt_sync_createW_init_3_0@@YAXPAXPB_W1H@Z 1000ac10 f   itt_notify.obj
 0001:00009c60       ?__itt_sync_renameA_init_3_0@@YAXPAXPBD@Z 1000ac60 f   itt_notify.obj
 0001:00009cb0       ?__itt_sync_renameW_init_3_0@@YAXPAXPB_W@Z 1000acb0 f   itt_notify.obj
 0001:00009d00       ?__itt_sync_destroy_init_3_0@@YAXPAX@Z 1000ad00 f   itt_notify.obj
 0001:00009d40       ?__itt_sync_prepare_init_3_0@@YAXPAX@Z 1000ad40 f   itt_notify.obj
 0001:00009d80       ?__itt_sync_cancel_init_3_0@@YAXPAX@Z 1000ad80 f   itt_notify.obj
 0001:00009dc0       ?__itt_sync_acquired_init_3_0@@YAXPAX@Z 1000adc0 f   itt_notify.obj
 0001:00009e00       ?__itt_sync_releasing_init_3_0@@YAXPAX@Z 1000ae00 f   itt_notify.obj
 0001:00009e40       ?__itt_suppress_push_init_3_0@@YAXI@Z 1000ae40 f   itt_notify.obj
 0001:00009e80       ?__itt_suppress_pop_init_3_0@@YAXXZ 1000ae80 f   itt_notify.obj
 0001:00009ec0       ?__itt_suppress_mark_range_init_3_0@@YAXW4__itt_suppress_mode@@IPAXI@Z 1000aec0 f   itt_notify.obj
 0001:00009f10       ?__itt_suppress_clear_range_init_3_0@@YAXW4__itt_suppress_mode@@IPAXI@Z 1000af10 f   itt_notify.obj
 0001:00009f60       ?__itt_fsync_prepare_init_3_0@@YAXPAX@Z 1000af60 f   itt_notify.obj
 0001:00009fa0       ?__itt_fsync_cancel_init_3_0@@YAXPAX@Z 1000afa0 f   itt_notify.obj
 0001:00009fe0       ?__itt_fsync_acquired_init_3_0@@YAXPAX@Z 1000afe0 f   itt_notify.obj
 0001:0000a020       ?__itt_fsync_releasing_init_3_0@@YAXPAX@Z 1000b020 f   itt_notify.obj
 0001:0000a060       ?__itt_model_site_begin_init_3_0@@YAXPAPAX0PBD@Z 1000b060 f   itt_notify.obj
 0001:0000a0b0       ?__itt_model_site_end_init_3_0@@YAXPAPAX0@Z 1000b0b0 f   itt_notify.obj
 0001:0000a100       ?__itt_model_task_begin_init_3_0@@YAXPAPAX0PBD@Z 1000b100 f   itt_notify.obj
 0001:0000a150       ?__itt_model_task_end_init_3_0@@YAXPAPAX0@Z 1000b150 f   itt_notify.obj
 0001:0000a1a0       ?__itt_model_lock_acquire_init_3_0@@YAXPAX@Z 1000b1a0 f   itt_notify.obj
 0001:0000a1e0       ?__itt_model_lock_release_init_3_0@@YAXPAX@Z 1000b1e0 f   itt_notify.obj
 0001:0000a220       ?__itt_model_record_allocation_init_3_0@@YAXPAXI@Z 1000b220 f   itt_notify.obj
 0001:0000a270       ?__itt_model_record_deallocation_init_3_0@@YAXPAX@Z 1000b270 f   itt_notify.obj
 0001:0000a2b0       ?__itt_model_induction_uses_init_3_0@@YAXPAXI@Z 1000b2b0 f   itt_notify.obj
 0001:0000a300       ?__itt_model_reduction_uses_init_3_0@@YAXPAXI@Z 1000b300 f   itt_notify.obj
 0001:0000a350       ?__itt_model_observe_uses_init_3_0@@YAXPAXI@Z 1000b350 f   itt_notify.obj
 0001:0000a3a0       ?__itt_model_clear_uses_init_3_0@@YAXPAX@Z 1000b3a0 f   itt_notify.obj
 0001:0000a3e0       ?__itt_model_site_beginW_init_3_0@@YAXPB_W@Z 1000b3e0 f   itt_notify.obj
 0001:0000a420       ?__itt_model_task_beginW_init_3_0@@YAXPB_W@Z 1000b420 f   itt_notify.obj
 0001:0000a460       ?__itt_model_iteration_taskW_init_3_0@@YAXPB_W@Z 1000b460 f   itt_notify.obj
 0001:0000a4a0       ?__itt_model_site_beginA_init_3_0@@YAXPBD@Z 1000b4a0 f   itt_notify.obj
 0001:0000a4e0       ?__itt_model_site_beginAL_init_3_0@@YAXPBDI@Z 1000b4e0 f   itt_notify.obj
 0001:0000a530       ?__itt_model_task_beginA_init_3_0@@YAXPBD@Z 1000b530 f   itt_notify.obj
 0001:0000a570       ?__itt_model_task_beginAL_init_3_0@@YAXPBDI@Z 1000b570 f   itt_notify.obj
 0001:0000a5c0       ?__itt_model_iteration_taskA_init_3_0@@YAXPBD@Z 1000b5c0 f   itt_notify.obj
 0001:0000a600       ?__itt_model_iteration_taskAL_init_3_0@@YAXPBDI@Z 1000b600 f   itt_notify.obj
 0001:0000a650       ?__itt_model_site_end_2_init_3_0@@YAXXZ 1000b650 f   itt_notify.obj
 0001:0000a690       ?__itt_model_task_end_2_init_3_0@@YAXXZ 1000b690 f   itt_notify.obj
 0001:0000a6d0       ?__itt_model_lock_acquire_2_init_3_0@@YAXPAX@Z 1000b6d0 f   itt_notify.obj
 0001:0000a710       ?__itt_model_lock_release_2_init_3_0@@YAXPAX@Z 1000b710 f   itt_notify.obj
 0001:0000a750       ?__itt_model_aggregate_task_init_3_0@@YAXI@Z 1000b750 f   itt_notify.obj
 0001:0000a790       ?__itt_model_disable_push_init_3_0@@YAXW4__itt_model_disable@@@Z 1000b790 f   itt_notify.obj
 0001:0000a7d0       ?__itt_model_disable_pop_init_3_0@@YAXXZ 1000b7d0 f   itt_notify.obj
 0001:0000a810       ?__itt_heap_function_createA_init_3_0@@YAPAXPBD0@Z 1000b810 f   itt_notify.obj
 0001:0000a860       ?__itt_heap_function_createW_init_3_0@@YAPAXPB_W0@Z 1000b860 f   itt_notify.obj
 0001:0000a8b0       ?__itt_heap_allocate_begin_init_3_0@@YAXPAXIH@Z 1000b8b0 f   itt_notify.obj
 0001:0000a900       ?__itt_heap_allocate_end_init_3_0@@YAXPAXPAPAXIH@Z 1000b900 f   itt_notify.obj
 0001:0000a950       ?__itt_heap_free_begin_init_3_0@@YAXPAX0@Z 1000b950 f   itt_notify.obj
 0001:0000a9a0       ?__itt_heap_free_end_init_3_0@@YAXPAX0@Z 1000b9a0 f   itt_notify.obj
 0001:0000a9f0       ?__itt_heap_reallocate_begin_init_3_0@@YAXPAX0IH@Z 1000b9f0 f   itt_notify.obj
 0001:0000aa40       ?__itt_heap_reallocate_end_init_3_0@@YAXPAX0PAPAXIH@Z 1000ba40 f   itt_notify.obj
 0001:0000aa90       ?__itt_heap_internal_access_begin_init_3_0@@YAXXZ 1000ba90 f   itt_notify.obj
 0001:0000aad0       ?__itt_heap_internal_access_end_init_3_0@@YAXXZ 1000bad0 f   itt_notify.obj
 0001:0000ab10       ?__itt_heap_record_memory_growth_begin_init_3_0@@YAXXZ 1000bb10 f   itt_notify.obj
 0001:0000ab50       ?__itt_heap_record_memory_growth_end_init_3_0@@YAXXZ 1000bb50 f   itt_notify.obj
 0001:0000ab90       ?__itt_heap_reset_detection_init_3_0@@YAXI@Z 1000bb90 f   itt_notify.obj
 0001:0000abd0       ?__itt_heap_record_init_3_0@@YAXI@Z 1000bbd0 f   itt_notify.obj
 0001:0000ac10       ?__itt_id_create_init_3_0@@YAXPBU___itt_domain@@U___itt_id@@@Z 1000bc10 f   itt_notify.obj
 0001:0000ac80       ?__itt_id_destroy_init_3_0@@YAXPBU___itt_domain@@U___itt_id@@@Z 1000bc80 f   itt_notify.obj
 0001:0000acf0       ?__itt_get_timestamp_init_3_0@@YA_KXZ 1000bcf0 f   itt_notify.obj
 0001:0000ad30       ?__itt_region_begin_init_3_0@@YAXPBU___itt_domain@@U___itt_id@@1PAU___itt_string_handle@@@Z 1000bd30 f   itt_notify.obj
 0001:0000add0       ?__itt_region_end_init_3_0@@YAXPBU___itt_domain@@U___itt_id@@@Z 1000bdd0 f   itt_notify.obj
 0001:0000ae40       ?__itt_frame_begin_v3_init_3_0@@YAXPBU___itt_domain@@PAU___itt_id@@@Z 1000be40 f   itt_notify.obj
 0001:0000ae90       ?__itt_frame_end_v3_init_3_0@@YAXPBU___itt_domain@@PAU___itt_id@@@Z 1000be90 f   itt_notify.obj
 0001:0000aee0       ?__itt_frame_submit_v3_init_3_0@@YAXPBU___itt_domain@@PAU___itt_id@@_K2@Z 1000bee0 f   itt_notify.obj
 0001:0000af40       ?__itt_task_group_init_3_0@@YAXPBU___itt_domain@@U___itt_id@@1PAU___itt_string_handle@@@Z 1000bf40 f   itt_notify.obj
 0001:0000afe0       ?__itt_task_begin_init_3_0@@YAXPBU___itt_domain@@U___itt_id@@1PAU___itt_string_handle@@@Z 1000bfe0 f   itt_notify.obj
 0001:0000b080       ?__itt_task_begin_fn_init_3_0@@YAXPBU___itt_domain@@U___itt_id@@1PAX@Z 1000c080 f   itt_notify.obj
 0001:0000b120       ?__itt_task_end_init_3_0@@YAXPBU___itt_domain@@@Z 1000c120 f   itt_notify.obj
 0001:0000b160       ?__itt_counter_inc_v3_init_3_0@@YAXPBU___itt_domain@@PAU___itt_string_handle@@@Z 1000c160 f   itt_notify.obj
 0001:0000b1b0       ?__itt_counter_inc_delta_v3_init_3_0@@YAXPBU___itt_domain@@PAU___itt_string_handle@@_K@Z 1000c1b0 f   itt_notify.obj
 0001:0000b200       ?__itt_marker_init_3_0@@YAXPBU___itt_domain@@U___itt_id@@PAU___itt_string_handle@@W4__itt_scope@@@Z 1000c200 f   itt_notify.obj
 0001:0000b270       ?__itt_metadata_add_init_3_0@@YAXPBU___itt_domain@@U___itt_id@@PAU___itt_string_handle@@W4__itt_metadata_type@@IPAX@Z 1000c270 f   itt_notify.obj
 0001:0000b2f0       ?__itt_metadata_str_addA_init_3_0@@YAXPBU___itt_domain@@U___itt_id@@PAU___itt_string_handle@@PBDI@Z 1000c2f0 f   itt_notify.obj
 0001:0000b370       ?__itt_metadata_str_addW_init_3_0@@YAXPBU___itt_domain@@U___itt_id@@PAU___itt_string_handle@@PB_WI@Z 1000c370 f   itt_notify.obj
 0001:0000b3f0       ?__itt_relation_add_to_current_init_3_0@@YAXPBU___itt_domain@@W4__itt_relation@@U___itt_id@@@Z 1000c3f0 f   itt_notify.obj
 0001:0000b460       ?__itt_relation_add_init_3_0@@YAXPBU___itt_domain@@U___itt_id@@W4__itt_relation@@1@Z 1000c460 f   itt_notify.obj
 0001:0000b500       ?__itt_event_createA_init_3_0@@YAHPBDH@Z 1000c500 f   itt_notify.obj
 0001:0000b550       ?__itt_event_createW_init_3_0@@YAHPB_WH@Z 1000c550 f   itt_notify.obj
 0001:0000b5a0       ?__itt_event_start_init_3_0@@YAHH@Z 1000c5a0 f   itt_notify.obj
 0001:0000b5f0       ?__itt_event_end_init_3_0@@YAHH@Z 1000c5f0 f   itt_notify.obj
 0001:0000b640       ?__itt_sync_set_nameA_init_3_0@@YAXPAXPBD1H@Z 1000c640 f   itt_notify.obj
 0001:0000b690       ?__itt_sync_set_nameW_init_3_0@@YAXPAXPB_W1H@Z 1000c690 f   itt_notify.obj
 0001:0000b6e0       ?__itt_notify_sync_nameA_init_3_0@@YAHPAXPBDH1HH@Z 1000c6e0 f   itt_notify.obj
 0001:0000b740       ?__itt_notify_sync_nameW_init_3_0@@YAHPAXPB_WH1HH@Z 1000c740 f   itt_notify.obj
 0001:0000b7a0       ?__itt_notify_sync_prepare_init_3_0@@YAXPAX@Z 1000c7a0 f   itt_notify.obj
 0001:0000b7e0       ?__itt_notify_sync_cancel_init_3_0@@YAXPAX@Z 1000c7e0 f   itt_notify.obj
 0001:0000b820       ?__itt_notify_sync_acquired_init_3_0@@YAXPAX@Z 1000c820 f   itt_notify.obj
 0001:0000b860       ?__itt_notify_sync_releasing_init_3_0@@YAXPAX@Z 1000c860 f   itt_notify.obj
 0001:0000b8a0       ?__itt_memory_read_init_3_0@@YAXPAXI@Z 1000c8a0 f   itt_notify.obj
 0001:0000b8f0       ?__itt_memory_write_init_3_0@@YAXPAXI@Z 1000c8f0 f   itt_notify.obj
 0001:0000b940       ?__itt_memory_update_init_3_0@@YAXPAXI@Z 1000c940 f   itt_notify.obj
 0001:0000b990       ?__itt_state_get_init_3_0@@YAHXZ 1000c990 f   itt_notify.obj
 0001:0000b9d0       ?__itt_state_set_init_3_0@@YAHH@Z 1000c9d0 f   itt_notify.obj
 0001:0000ba20       ?__itt_obj_mode_set_init_3_0@@YA?AW4__itt_obj_state@@W4__itt_obj_prop@@W41@@Z 1000ca20 f   itt_notify.obj
 0001:0000ba70       ?__itt_thr_mode_set_init_3_0@@YA?AW4__itt_thr_state@@W4__itt_thr_prop@@W41@@Z 1000ca70 f   itt_notify.obj
 0001:0000bac0       ?__itt_frame_createA_init_3_0@@YAPAU__itt_frame_t@@PBD@Z 1000cac0 f   itt_notify.obj
 0001:0000bb10       ?__itt_frame_createW_init_3_0@@YAPAU__itt_frame_t@@PB_W@Z 1000cb10 f   itt_notify.obj
 0001:0000bb60       ?__itt_frame_begin_init_3_0@@YAXPAU__itt_frame_t@@@Z 1000cb60 f   itt_notify.obj
 0001:0000bba0       ?__itt_frame_end_init_3_0@@YAXPAU__itt_frame_t@@@Z 1000cba0 f   itt_notify.obj
 0001:0000bbe0       ?__itt_counter_createA_init_3_0@@YAPAU___itt_counter@@PBD0@Z 1000cbe0 f   itt_notify.obj
 0001:0000bc30       ?__itt_counter_createW_init_3_0@@YAPAU___itt_counter@@PB_W0@Z 1000cc30 f   itt_notify.obj
 0001:0000bc80       ?__itt_counter_destroy_init_3_0@@YAXPAU___itt_counter@@@Z 1000cc80 f   itt_notify.obj
 0001:0000bcc0       ?__itt_counter_inc_init_3_0@@YAXPAU___itt_counter@@@Z 1000ccc0 f   itt_notify.obj
 0001:0000bd00       ?__itt_counter_inc_delta_init_3_0@@YAXPAU___itt_counter@@_K@Z 1000cd00 f   itt_notify.obj
 0001:0000bd50       ?__itt_mark_createA_init_3_0@@YAHPBD@Z 1000cd50 f   itt_notify.obj
 0001:0000bda0       ?__itt_mark_createW_init_3_0@@YAHPB_W@Z 1000cda0 f   itt_notify.obj
 0001:0000bdf0       ?__itt_markA_init_3_0@@YAHHPBD@Z 1000cdf0 f   itt_notify.obj
 0001:0000be40       ?__itt_markW_init_3_0@@YAHHPB_W@Z 1000ce40 f   itt_notify.obj
 0001:0000be90       ?__itt_mark_off_init_3_0@@YAHH@Z 1000ce90 f   itt_notify.obj
 0001:0000bee0       ?__itt_mark_globalA_init_3_0@@YAHHPBD@Z 1000cee0 f   itt_notify.obj
 0001:0000bf30       ?__itt_mark_globalW_init_3_0@@YAHHPB_W@Z 1000cf30 f   itt_notify.obj
 0001:0000bf80       ?__itt_mark_global_off_init_3_0@@YAHH@Z 1000cf80 f   itt_notify.obj
 0001:0000bfd0       ?__itt_stack_caller_create_init_3_0@@YAPAU___itt_caller@@XZ 1000cfd0 f   itt_notify.obj
 0001:0000c010       ?__itt_stack_caller_destroy_init_3_0@@YAXPAU___itt_caller@@@Z 1000d010 f   itt_notify.obj
 0001:0000c050       ?__itt_stack_callee_enter_init_3_0@@YAXPAU___itt_caller@@@Z 1000d050 f   itt_notify.obj
 0001:0000c090       ?__itt_stack_callee_leave_init_3_0@@YAXPAU___itt_caller@@@Z 1000d090 f   itt_notify.obj
 0001:0000c0d0       ?__itt_clock_domain_create_init_3_0@@YAPAU___itt_clock_domain@@P6AXPAU___itt_clock_info@@PAX@Z1@Z 1000d0d0 f   itt_notify.obj
 0001:0000c120       ?__itt_clock_domain_reset_init_3_0@@YAXXZ 1000d120 f   itt_notify.obj
 0001:0000c160       ?__itt_id_create_ex_init_3_0@@YAXPBU___itt_domain@@PAU___itt_clock_domain@@_KU___itt_id@@@Z 1000d160 f   itt_notify.obj
 0001:0000c1e0       ?__itt_id_destroy_ex_init_3_0@@YAXPBU___itt_domain@@PAU___itt_clock_domain@@_KU___itt_id@@@Z 1000d1e0 f   itt_notify.obj
 0001:0000c260       ?__itt_task_begin_ex_init_3_0@@YAXPBU___itt_domain@@PAU___itt_clock_domain@@_KU___itt_id@@3PAU___itt_string_handle@@@Z 1000d260 f   itt_notify.obj
 0001:0000c310       ?__itt_task_begin_fn_ex_init_3_0@@YAXPBU___itt_domain@@PAU___itt_clock_domain@@_KU___itt_id@@3PAX@Z 1000d310 f   itt_notify.obj
 0001:0000c3c0       ?__itt_task_end_ex_init_3_0@@YAXPBU___itt_domain@@PAU___itt_clock_domain@@_K@Z 1000d3c0 f   itt_notify.obj
 0001:0000c410       ?__itt_task_begin_overlapped_init_3_0@@YAXPBU___itt_domain@@U___itt_id@@1PAU___itt_string_handle@@@Z 1000d410 f   itt_notify.obj
 0001:0000c4b0       ?__itt_task_begin_overlapped_ex_init_3_0@@YAXPBU___itt_domain@@PAU___itt_clock_domain@@_KU___itt_id@@3PAU___itt_string_handle@@@Z 1000d4b0 f   itt_notify.obj
 0001:0000c560       ?__itt_task_end_overlapped_init_3_0@@YAXPBU___itt_domain@@U___itt_id@@@Z 1000d560 f   itt_notify.obj
 0001:0000c5d0       ?__itt_task_end_overlapped_ex_init_3_0@@YAXPBU___itt_domain@@PAU___itt_clock_domain@@_KU___itt_id@@@Z 1000d5d0 f   itt_notify.obj
 0001:0000c650       ?__itt_marker_ex_init_3_0@@YAXPBU___itt_domain@@PAU___itt_clock_domain@@_KU___itt_id@@PAU___itt_string_handle@@W4__itt_scope@@@Z 1000d650 f   itt_notify.obj
 0001:0000c6d0       ?__itt_metadata_add_with_scope_init_3_0@@YAXPBU___itt_domain@@W4__itt_scope@@PAU___itt_string_handle@@W4__itt_metadata_type@@IPAX@Z 1000d6d0 f   itt_notify.obj
 0001:0000c730       ?__itt_metadata_str_add_with_scopeA_init_3_0@@YAXPBU___itt_domain@@W4__itt_scope@@PAU___itt_string_handle@@PBDI@Z 1000d730 f   itt_notify.obj
 0001:0000c780       ?__itt_metadata_str_add_with_scopeW_init_3_0@@YAXPBU___itt_domain@@W4__itt_scope@@PAU___itt_string_handle@@PB_WI@Z 1000d780 f   itt_notify.obj
 0001:0000c7d0       ?__itt_relation_add_to_current_ex_init_3_0@@YAXPBU___itt_domain@@PAU___itt_clock_domain@@_KW4__itt_relation@@U___itt_id@@@Z 1000d7d0 f   itt_notify.obj
 0001:0000c850       ?__itt_relation_add_ex_init_3_0@@YAXPBU___itt_domain@@PAU___itt_clock_domain@@_KU___itt_id@@W4__itt_relation@@3@Z 1000d850 f   itt_notify.obj
 0001:0000c900       ?__itt_track_group_create_init_3_0@@YAPAU___itt_track_group@@PAU___itt_string_handle@@W4___itt_track_group_type@@@Z 1000d900 f   itt_notify.obj
 0001:0000c950       ?__itt_track_create_init_3_0@@YAPAU___itt_track@@PAU___itt_track_group@@PAU___itt_string_handle@@W4___itt_track_type@@@Z 1000d950 f   itt_notify.obj
 0001:0000c9a0       ?__itt_set_track_init_3_0@@YAXPAU___itt_track@@@Z 1000d9a0 f   itt_notify.obj
 0001:0000c9e0       ?__itt_api_version_init_3_0@@YAPBDXZ 1000d9e0 f   itt_notify.obj
 0001:0000ca20       ?__itt_av_saveA_init_3_0@@YAHPAXHPBHHPBDH@Z 1000da20 f   itt_notify.obj
 0001:0000ca80       ?__itt_av_saveW_init_3_0@@YAHPAXHPBHHPB_WH@Z 1000da80 f   itt_notify.obj
 0001:0000cae0       ?__itt_domain_createA_init_3_0@@YAPAU___itt_domain@@PBD@Z 1000dae0 f   itt_notify.obj
 0001:0000ccf0       ?__itt_domain_createW_init_3_0@@YAPAU___itt_domain@@PB_W@Z 1000dcf0 f   itt_notify.obj
 0001:0000cf00       ?__itt_string_handle_createA_init_3_0@@YAPAU___itt_string_handle@@PBD@Z 1000df00 f   itt_notify.obj
 0001:0000d100       ?__itt_string_handle_createW_init_3_0@@YAPAU___itt_string_handle@@PB_W@Z 1000e100 f   itt_notify.obj
 0001:0000d310       ?__itt_pause_init_3_0@@YAXXZ 1000e310 f   itt_notify.obj
 0001:0000d370       ?__itt_resume_init_3_0@@YAXXZ 1000e370 f   itt_notify.obj
 0001:0000d3d0       ?__itt_thread_set_nameA_init_3_0@@YAXPBD@Z 1000e3d0 f   itt_notify.obj
 0001:0000d420       ?__itt_thread_set_nameW_init_3_0@@YAXPB_W@Z 1000e420 f   itt_notify.obj
 0001:0000d470       ?__itt_thread_ignore_init_3_0@@YAXXZ 1000e470 f   itt_notify.obj
 0001:0000d4c0       ?__itt_thr_name_setA_init_3_0@@YAHPBDH@Z 1000e4c0 f   itt_notify.obj
 0001:0000d4e0       ?__itt_thr_name_setW_init_3_0@@YAHPB_WH@Z 1000e4e0 f   itt_notify.obj
 0001:0000d500       ?__itt_thr_ignore_init_3_0@@YAXXZ 1000e500 f   itt_notify.obj
 0001:0000d520       ?__itt_enable_attach_init_3_0@@YAXXZ 1000e520 f   itt_notify.obj
 0001:0000d530       ?__itt_report_error_impl@@YAXHZZ 1000e530 f   itt_notify.obj
 0001:0000d5a0       ?__itt_fsplit@@YAPBDPBD0PAPBDPAH@Z 1000e5a0 f   itt_notify.obj
 0001:0000d760       ?__itt_get_env_var@@YAPBDPBD@Z 1000e760 f   itt_notify.obj
 0001:0000d850       ?__itt_get_lib_name@@YAPBDXZ 1000e850 f   itt_notify.obj
 0001:0000d880       ?__itt_get_groups@@YA?AW4___itt_group_id@@XZ 1000e880 f   itt_notify.obj
 0001:0000daa8       $LN27                      1000eaa8     itt_notify.obj
 0001:0000dab0       $LN26                      1000eab0     itt_notify.obj
 0001:0000dad4       $LN25                      1000ead4     itt_notify.obj
 0001:0000dada       $LN24                      1000eada     itt_notify.obj
 0001:0000dadd       $LN23                      1000eadd     itt_notify.obj
 0001:0000daf0       ?__itt_lib_version@@YAHPAUHINSTANCE__@@@Z 1000eaf0 f   itt_notify.obj
 0001:0000db50       ?__itt_nullify_all_pointers@@YAXXZ 1000eb50 f   itt_notify.obj
 0001:0000e2c0       ?__TBB_machine_cmpswp4@@YAJPCXHH@Z 1000f2c0 f   cache_aligned_allocator.obj
 0001:0000e2e0       ?pause@msvc_intrinsics@internal@tbb@@YAXI@Z 1000f2e0 f   cache_aligned_allocator.obj
 0001:0000e300       ?DummyMalloc@internal@tbb@@YAPAXI@Z 1000f300 f   cache_aligned_allocator.obj
 0001:0000e350       ?DummyFree@internal@tbb@@YAXPAX@Z 1000f350 f   cache_aligned_allocator.obj
 0001:0000e3a0       ?dummy_padded_allocate@internal@tbb@@YAPAXII@Z 1000f3a0 f   cache_aligned_allocator.obj
 0001:0000e400       ?dummy_padded_free@internal@tbb@@YAXPAX@Z 1000f400 f   cache_aligned_allocator.obj
 0001:0000e450       ?padded_allocate@internal@tbb@@YAPAXII@Z 1000f450 f   cache_aligned_allocator.obj
 0001:0000e4d0       ?padded_free@internal@tbb@@YAXPAX@Z 1000f4d0 f   cache_aligned_allocator.obj
 0001:0000e6b0       ?__TBB_machine_fetchadd4@@YAJPCXH@Z 1000f6b0 f   pipeline.obj
 0001:0000ec38       $LN33                      1000fc38     pipeline.obj
 0001:0000ec40       $LN32                      1000fc40     pipeline.obj
 0001:0000ec4c       $LN31                      1000fc4c     pipeline.obj
 0001:0000f164       $LN10                      10010164     pipeline.obj
 0001:0000f16c       $LN9                       1001016c     pipeline.obj
 0001:0000f178       $LN7                       10010178     pipeline.obj
 0001:0000f350       $LN22                      10010350     pipeline.obj
 0001:0000f358       $LN21                      10010358     pipeline.obj
 0001:0000f364       $LN19                      10010364     pipeline.obj
 0001:0000ff78       $LN13                      10010f78     pipeline.obj
 0001:0000ff80       $LN12                      10010f80     pipeline.obj
 0001:0000ff98       $LN10                      10010f98     pipeline.obj
 0001:0000ff9d       $LN9                       10010f9d     pipeline.obj
 0001:0001009c       $LN5                       1001109c     pipeline.obj
 0001:000100a4       $LN4                       100110a4     pipeline.obj
 0001:000100b0       $LN3                       100110b0     pipeline.obj
 0001:000113bc       $LN32                      100123bc     pipeline.obj
 0001:000113c4       $LN31                      100123c4     pipeline.obj
 0001:000113d0       $LN29                      100123d0     pipeline.obj
 0001:00011568       $LN6                       10012568     pipeline.obj
 0001:00011570       $LN5                       10012570     pipeline.obj
 0001:0001157c       $LN4                       1001257c     pipeline.obj
 0001:000119e0       $LN20                      100129e0     pipeline.obj
 0001:000119e8       $LN19                      100129e8     pipeline.obj
 0001:000119f4       $LN17                      100129f4     pipeline.obj
 0001:00011c10       $LN11                      10012c10     pipeline.obj
 0001:00011c18       $LN10                      10012c18     pipeline.obj
 0001:00011c24       $LN8                       10012c24     pipeline.obj
 0001:00011f60       ?__TBB_machine_cmpswp4@@YAJPCXHH@Z 10012f60 f   queuing_mutex.obj
 0001:00011f80       ?__TBB_machine_fetchstore4@@YAJPCXH@Z 10012f80 f   queuing_mutex.obj
 0001:00011f90       ?pause@msvc_intrinsics@internal@tbb@@YAXI@Z 10012f90 f   queuing_mutex.obj
 0001:000123d8       $LN7                       100133d8     queuing_mutex.obj
 0001:000123e0       $LN6                       100133e0     queuing_mutex.obj
 0001:000123ec       $LN5                       100133ec     queuing_mutex.obj
 0001:00012458       $LN7                       10013458     queuing_mutex.obj
 0001:00012460       $LN6                       10013460     queuing_mutex.obj
 0001:0001246c       $LN5                       1001346c     queuing_mutex.obj
 0001:000124fc       $LN5                       100134fc     queuing_mutex.obj
 0001:00012504       $LN4                       10013504     queuing_mutex.obj
 0001:00012510       $LN3                       10013510     queuing_mutex.obj
 0001:00012610       ?__TBB_machine_cmpswp1@@YADPCXDD@Z 10013610 f   queuing_rw_mutex.obj
 0001:00012630       ?__TBB_machine_cmpswp4@@YAJPCXHH@Z 10013630 f   queuing_rw_mutex.obj
 0001:00012650       ?__TBB_machine_fetchadd4@@YAJPCXH@Z 10013650 f   queuing_rw_mutex.obj
 0001:00012660       ?__TBB_machine_fetchstore4@@YAJPCXH@Z 10013660 f   queuing_rw_mutex.obj
 0001:00012670       ?pause@msvc_intrinsics@internal@tbb@@YAXI@Z 10013670 f   queuing_rw_mutex.obj
 0001:00012a64       $LN38                      10013a64     queuing_rw_mutex.obj
 0001:00012a6c       $LN37                      10013a6c     queuing_rw_mutex.obj
 0001:00012a78       $LN36                      10013a78     queuing_rw_mutex.obj
 0001:00013050       $LN36                      10014050     queuing_rw_mutex.obj
 0001:00013058       $LN35                      10014058     queuing_rw_mutex.obj
 0001:00013064       $LN34                      10014064     queuing_rw_mutex.obj
 0001:00013624       $LN52                      10014624     queuing_rw_mutex.obj
 0001:0001362c       $LN51                      1001462c     queuing_rw_mutex.obj
 0001:0001365c       $LN50                      1001465c     queuing_rw_mutex.obj
 0001:00013661       $LN49                      10014661     queuing_rw_mutex.obj
 0001:00013663       $LN48                      10014663     queuing_rw_mutex.obj
 0001:00013665       $LN47                      10014665     queuing_rw_mutex.obj
 0001:00013c4c       $LN7                       10014c4c     queuing_rw_mutex.obj
 0001:00013c54       $LN6                       10014c54     queuing_rw_mutex.obj
 0001:00013c60       $LN5                       10014c60     queuing_rw_mutex.obj
 0001:00013cc8       $LN7                       10014cc8     queuing_rw_mutex.obj
 0001:00013cd0       $LN6                       10014cd0     queuing_rw_mutex.obj
 0001:00013cdc       $LN5                       10014cdc     queuing_rw_mutex.obj
 0001:00013d48       $LN7                       10014d48     queuing_rw_mutex.obj
 0001:00013d50       $LN6                       10014d50     queuing_rw_mutex.obj
 0001:00013d5c       $LN5                       10014d5c     queuing_rw_mutex.obj
 0001:00013dc8       $LN7                       10014dc8     queuing_rw_mutex.obj
 0001:00013dd0       $LN6                       10014dd0     queuing_rw_mutex.obj
 0001:00013ddc       $LN5                       10014ddc     queuing_rw_mutex.obj
 0001:00013e48       $LN7                       10014e48     queuing_rw_mutex.obj
 0001:00013e50       $LN6                       10014e50     queuing_rw_mutex.obj
 0001:00013e5c       $LN5                       10014e5c     queuing_rw_mutex.obj
 0001:00013fac       $LN5                       10014fac     queuing_rw_mutex.obj
 0001:00013fb4       $LN4                       10014fb4     queuing_rw_mutex.obj
 0001:00013fc0       $LN3                       10014fc0     queuing_rw_mutex.obj
 0001:0001401c       $LN5                       1001501c     queuing_rw_mutex.obj
 0001:00014024       $LN4                       10015024     queuing_rw_mutex.obj
 0001:00014030       $LN3                       10015030     queuing_rw_mutex.obj
 0001:00014520       ?__TBB_machine_cmpswp4@@YAJPCXHH@Z 10015520 f   reader_writer_lock.obj
 0001:00014540       ?__TBB_machine_fetchadd4@@YAJPCXH@Z 10015540 f   reader_writer_lock.obj
 0001:00014550       ?__TBB_machine_fetchstore4@@YAJPCXH@Z 10015550 f   reader_writer_lock.obj
 0001:00014560       ?pause@msvc_intrinsics@internal@tbb@@YAXI@Z 10015560 f   reader_writer_lock.obj
 0001:00014580       ?lock_or@msvc_intrinsics@internal@tbb@@YAXPCXH@Z 10015580 f   reader_writer_lock.obj
 0001:00014970       $LN9                       10015970     reader_writer_lock.obj
 0001:00014978       $LN8                       10015978     reader_writer_lock.obj
 0001:00014984       $LN6                       10015984     reader_writer_lock.obj
 0001:00014ef0       $LN24                      10015ef0     reader_writer_lock.obj
 0001:00014ef8       $LN23                      10015ef8     reader_writer_lock.obj
 0001:00014f04       $LN22                      10015f04     reader_writer_lock.obj
 0001:0001555c       $LN7                       1001655c     reader_writer_lock.obj
 0001:00015564       $LN6                       10016564     reader_writer_lock.obj
 0001:00015570       $LN5                       10016570     reader_writer_lock.obj
 0001:000155d8       $LN7                       100165d8     reader_writer_lock.obj
 0001:000155e0       $LN6                       100165e0     reader_writer_lock.obj
 0001:000155ec       $LN5                       100165ec     reader_writer_lock.obj
 0001:0001565c       $LN7                       1001665c     reader_writer_lock.obj
 0001:00015664       $LN6                       10016664     reader_writer_lock.obj
 0001:00015670       $LN5                       10016670     reader_writer_lock.obj
 0001:000156dc       $LN7                       100166dc     reader_writer_lock.obj
 0001:000156e4       $LN6                       100166e4     reader_writer_lock.obj
 0001:000156f0       $LN5                       100166f0     reader_writer_lock.obj
 0001:000158fc       $LN5                       100168fc     reader_writer_lock.obj
 0001:00015904       $LN4                       10016904     reader_writer_lock.obj
 0001:00015910       $LN3                       10016910     reader_writer_lock.obj
 0001:0001596c       $LN5                       1001696c     reader_writer_lock.obj
 0001:00015974       $LN4                       10016974     reader_writer_lock.obj
 0001:00015980       $LN3                       10016980     reader_writer_lock.obj
 0001:000159dc       $LN5                       100169dc     reader_writer_lock.obj
 0001:000159e4       $LN4                       100169e4     reader_writer_lock.obj
 0001:000159f0       $LN3                       100169f0     reader_writer_lock.obj
 0001:0001606c       $LN9                       1001706c     reader_writer_lock.obj
 0001:00016074       $LN8                       10017074     reader_writer_lock.obj
 0001:00016080       $LN7                       10017080     reader_writer_lock.obj
 0001:0001610c       $LN9                       1001710c     reader_writer_lock.obj
 0001:00016114       $LN8                       10017114     reader_writer_lock.obj
 0001:00016120       $LN7                       10017120     reader_writer_lock.obj
 0001:00016310       ?__TBB_machine_cmpswp4@@YAJPCXHH@Z 10017310 f   spin_rw_mutex.obj
 0001:00016330       ?__TBB_machine_fetchadd4@@YAJPCXH@Z 10017330 f   spin_rw_mutex.obj
 0001:00016340       ?pause@msvc_intrinsics@internal@tbb@@YAXI@Z 10017340 f   spin_rw_mutex.obj
 0001:00016360       ?lock_or@msvc_intrinsics@internal@tbb@@YAXPCXH@Z 10017360 f   spin_rw_mutex.obj
 0001:00016380       ?lock_and@msvc_intrinsics@internal@tbb@@YAXPCXH@Z 10017380 f   spin_rw_mutex.obj
 0001:00016480       $LN16                      10017480     spin_rw_mutex.obj
 0001:00016488       $LN15                      10017488     spin_rw_mutex.obj
 0001:00016494       $LN14                      10017494     spin_rw_mutex.obj
 0001:000165e8       $LN16                      100175e8     spin_rw_mutex.obj
 0001:000165f0       $LN15                      100175f0     spin_rw_mutex.obj
 0001:000165fc       $LN14                      100175fc     spin_rw_mutex.obj
 0001:00016764       $LN19                      10017764     spin_rw_mutex.obj
 0001:0001676c       $LN18                      1001776c     spin_rw_mutex.obj
 0001:00016778       $LN17                      10017778     spin_rw_mutex.obj
 0001:000169e0       ??$CAS@H@tbb@@YAHACHHH@Z   100179e0 f   spin_rw_mutex.obj
 0001:00016aec       $LN5                       10017aec     spin_rw_mutex.obj
 0001:00016af4       $LN4                       10017af4     spin_rw_mutex.obj
 0001:00016b00       $LN3                       10017b00     spin_rw_mutex.obj
 0001:00016ba0       ?pause@msvc_intrinsics@internal@tbb@@YAXI@Z 10017ba0 f   x86_rtm_rw_mutex.obj
 0001:00016d64       $LN22                      10017d64     x86_rtm_rw_mutex.obj
 0001:00016d6c       $LN21                      10017d6c     x86_rtm_rw_mutex.obj
 0001:00016d78       $LN20                      10017d78     x86_rtm_rw_mutex.obj
 0001:00016ebc       $LN20                      10017ebc     x86_rtm_rw_mutex.obj
 0001:00016ec4       $LN19                      10017ec4     x86_rtm_rw_mutex.obj
 0001:00016ed0       $LN18                      10017ed0     x86_rtm_rw_mutex.obj
 0001:000172c4       $LN20                      100182c4     x86_rtm_rw_mutex.obj
 0001:00017590       ?__TBB_machine_cmpswp1@@YADPCXDD@Z 10018590 f   spin_mutex.obj
 0001:000175b0       ?pause@msvc_intrinsics@internal@tbb@@YAXI@Z 100185b0 f   spin_mutex.obj
 0001:00017834       $LN7                       10018834     spin_mutex.obj
 0001:0001783c       $LN6                       1001883c     spin_mutex.obj
 0001:00017848       $LN5                       10018848     spin_mutex.obj
 0001:000180a0       ?__TBB_machine_cmpswp4@@YAJPCXHH@Z 100190a0 f   condition_variable.obj
 0001:000180c0       ?pause@msvc_intrinsics@internal@tbb@@YAXI@Z 100190c0 f   condition_variable.obj
 0001:00018768       $LN7                       10019768     condition_variable.obj
 0001:00018770       $LN6                       10019770     condition_variable.obj
 0001:0001877c       $LN5                       1001977c     condition_variable.obj
 0001:00018988       $LN7                       10019988     condition_variable.obj
 0001:00018990       $LN6                       10019990     condition_variable.obj
 0001:0001899c       $LN5                       1001999c     condition_variable.obj
 0001:00018c78       $LN7                       10019c78     tbb_thread.obj
 0001:00018c80       $LN6                       10019c80     tbb_thread.obj
 0001:00018c8c       $LN5                       10019c8c     tbb_thread.obj
 0001:00018e38       $LN12                      10019e38     tbb_thread.obj
 0001:00018e40       $LN11                      10019e40     tbb_thread.obj
 0001:00018e58       $LN10                      10019e58     tbb_thread.obj
 0001:00018e5b       $LN9                       10019e5b     tbb_thread.obj
 0001:00019114       $LN8                       1001a114     tbb_thread.obj
 0001:0001911c       $LN7                       1001a11c     tbb_thread.obj
 0001:00019134       $LN6                       1001a134     tbb_thread.obj
 0001:0001913a       $LN5                       1001a13a     tbb_thread.obj
 0001:0001933c       $LN10                      1001a33c     concurrent_monitor.obj
 0001:00019344       $LN9                       1001a344     concurrent_monitor.obj
 0001:00019350       $LN7                       1001a350     concurrent_monitor.obj
 0001:00019440       $LN9                       1001a440     concurrent_monitor.obj
 0001:00019448       $LN8                       1001a448     concurrent_monitor.obj
 0001:00019454       $LN6                       1001a454     concurrent_monitor.obj
 0001:00019594       $LN10                      1001a594     concurrent_monitor.obj
 0001:0001959c       $LN9                       1001a59c     concurrent_monitor.obj
 0001:000195a8       $LN7                       1001a5a8     concurrent_monitor.obj
 0001:00019720       $LN16                      1001a720     concurrent_monitor.obj
 0001:00019728       $LN15                      1001a728     concurrent_monitor.obj
 0001:00019740       $LN13                      1001a740     concurrent_monitor.obj
 0001:00019742       $LN12                      1001a742     concurrent_monitor.obj
 0001:000198d0       $LN16                      1001a8d0     concurrent_monitor.obj
 0001:000198d8       $LN15                      1001a8d8     concurrent_monitor.obj
 0001:000198f0       $LN13                      1001a8f0     concurrent_monitor.obj
 0001:000198f2       $LN12                      1001a8f2     concurrent_monitor.obj
 0001:000199d0       ?__TBB_machine_fetchstore1@@YADPCXD@Z 1001a9d0 f   private_server.obj
 0001:000199e0       ?__TBB_machine_cmpswp4@@YAJPCXHH@Z 1001a9e0 f   private_server.obj
 0001:00019a00       ?__TBB_machine_fetchadd4@@YAJPCXH@Z 1001aa00 f   private_server.obj
 0001:00019c54       $LN11                      1001ac54     private_server.obj
 0001:00019c5c       $LN10                      1001ac5c     private_server.obj
 0001:00019c68       $LN9                       1001ac68     private_server.obj
 0001:00019e0c       $LN7                       1001ae0c     private_server.obj
 0001:00019e14       $LN6                       1001ae14     private_server.obj
 0001:00019e20       $LN5                       1001ae20     private_server.obj
 0001:0001a004       $LN23                      1001b004     private_server.obj
 0001:0001a00c       $LN22                      1001b00c     private_server.obj
 0001:0001a024       $LN20                      1001b024     private_server.obj
 0001:0001a029       $LN19                      1001b029     private_server.obj
 0001:0001a68c       $LN5                       1001b68c     private_server.obj
 0001:0001a694       $LN4                       1001b694     private_server.obj
 0001:0001a6a0       $LN3                       1001b6a0     private_server.obj
 0001:0001a6fc       $LN5                       1001b6fc     private_server.obj
 0001:0001a704       $LN4                       1001b704     private_server.obj
 0001:0001a710       $LN3                       1001b710     private_server.obj
 0001:0001a76c       $LN5                       1001b76c     private_server.obj
 0001:0001a774       $LN4                       1001b774     private_server.obj
 0001:0001a780       $LN3                       1001b780     private_server.obj
 0001:0001b350       $LN11                      1001c350     private_server.obj
 0001:0001b358       $LN10                      1001c358     private_server.obj
 0001:0001b364       $LN9                       1001c364     private_server.obj
 0001:0001b7c0       $LN10                      1001c7c0     private_server.obj
 0001:0001b7c8       $LN9                       1001c7c8     private_server.obj
 0001:0001b7d4       $LN7                       1001c7d4     private_server.obj
 0001:0001bae4       $LN11                      1001cae4     rml_tbb.obj
 0001:0001baec       $LN10                      1001caec     rml_tbb.obj
 0001:0001bb10       $LN9                       1001cb10     rml_tbb.obj
 0001:0001bb1f       $LN8                       1001cb1f     rml_tbb.obj
 0001:0001bb31       $LN7                       1001cb31     rml_tbb.obj
 0001:0001bef4       $LN9                       1001cef4     tbb_misc.obj
 0001:0001befc       $LN8                       1001cefc     tbb_misc.obj
 0001:0001bf08       $LN7                       1001cf08     tbb_misc.obj
 0001:0001bfd8       $LN5                       1001cfd8     tbb_misc.obj
 0001:0001bfe0       $LN4                       1001cfe0     tbb_misc.obj
 0001:0001bfec       $LN3                       1001cfec     tbb_misc.obj
 0001:0001c3b4       $LN28                      1001d3b4     tbb_misc.obj
 0001:0001c410       ?__TBB_machine_fetchadd4@@YAJPCXH@Z 1001d410 f   tbb_misc.obj
 0001:0001c420       ?pause@msvc_intrinsics@internal@tbb@@YAXI@Z 1001d420 f   tbb_misc.obj
 0001:0001c4e4       $LN5                       1001d4e4     tbb_misc.obj
 0001:0001c4ec       $LN4                       1001d4ec     tbb_misc.obj
 0001:0001c4f8       $LN3                       1001d4f8     tbb_misc.obj
 0001:0001c698       $LN6                       1001d698     tbb_misc.obj
 0001:0001c6a0       $LN5                       1001d6a0     tbb_misc.obj
 0001:0001c6ac       $LN4                       1001d6ac     tbb_misc.obj
 0001:0001c788       $LN7                       1001d788     tbb_misc.obj
 0001:0001c790       $LN6                       1001d790     tbb_misc.obj
 0001:0001c79c       $LN5                       1001d79c     tbb_misc.obj
 0001:0001c908       $LN9                       1001d908     tbb_misc.obj
 0001:0001c910       $LN8                       1001d910     tbb_misc.obj
 0001:0001c91c       $LN7                       1001d91c     tbb_misc.obj
 0001:0001cb24       $LN5                       1001db24     tbb_misc.obj
 0001:0001cb2c       $LN4                       1001db2c     tbb_misc.obj
 0001:0001cb38       $LN3                       1001db38     tbb_misc.obj
 0001:0001d8d0       ?__TBB_machine_cmpswp4@@YAJPCXHH@Z 1001e8d0 f   tbb_misc_ex.obj
 0001:0001d8f0       ?pause@msvc_intrinsics@internal@tbb@@YAXI@Z 1001e8f0 f   tbb_misc_ex.obj
 0001:0001dc1c       $LN8                       1001ec1c     tbb_misc_ex.obj
 0001:0001dc24       $LN7                       1001ec24     tbb_misc_ex.obj
 0001:0001dc30       $LN6                       1001ec30     tbb_misc_ex.obj
 0001:0001dc40       ?initialize_hardware_concurrency_info@internal@tbb@@YAXXZ 1001ec40 f   tbb_misc_ex.obj
 0001:0001df60       $LN33                      1001ef60     tbb_misc_ex.obj
 0001:0001df68       $LN32                      1001ef68     tbb_misc_ex.obj
 0001:0001df98       $LN31                      1001ef98     tbb_misc_ex.obj
 0001:0001df9b       $LN30                      1001ef9b     tbb_misc_ex.obj
 0001:0001df9f       $LN29                      1001ef9f     tbb_misc_ex.obj
 0001:0001dfa3       $LN28                      1001efa3     tbb_misc_ex.obj
 0001:0001dfb0       ?__TBB_machine_fetchadd4@@YAJPCXH@Z 1001efb0 f   task.obj
 0001:0001f270       ?__TBB_machine_cmpswp4@@YAJPCXHH@Z 10020270 f   task_group_context.obj
 0001:0001f290       ?__TBB_machine_fetchadd4@@YAJPCXH@Z 10020290 f   task_group_context.obj
 0001:0001f2a0       ?__TBB_machine_fetchstore4@@YAJPCXH@Z 100202a0 f   task_group_context.obj
 0001:0001f2b0       ?pause@msvc_intrinsics@internal@tbb@@YAXI@Z 100202b0 f   task_group_context.obj
 0001:0001f594       $LN20                      10020594     task_group_context.obj
 0001:0001f59c       $LN19                      1002059c     task_group_context.obj
 0001:0001f5b4       $LN17                      100205b4     task_group_context.obj
 0001:0001f5b9       $LN16                      100205b9     task_group_context.obj
 0001:0001f73e       __catch$?register_pending_exception@task_group_context@tbb@@QAEXXZ$0 1002073e f   task_group_context.obj
 0001:0001f788       __catch$?register_pending_exception@task_group_context@tbb@@QAEXXZ$1 10020788 f   task_group_context.obj
 0001:0001f802       __catch$?register_pending_exception@task_group_context@tbb@@QAEXXZ$2 10020802 f   task_group_context.obj
 0001:0001f8b0       $LN28                      100208b0     task_group_context.obj
 0001:0001f8b8       $LN27                      100208b8     task_group_context.obj
 0001:0001f8d0       $LN25                      100208d0     task_group_context.obj
 0001:0001f8d4       $LN24                      100208d4     task_group_context.obj
 0001:0001fd9c       $LN15                      10020d9c     task_group_context.obj
 0001:0001fda4       $LN14                      10020da4     task_group_context.obj
 0001:0001fdb0       $LN13                      10020db0     task_group_context.obj
 0001:0001ff50       $LN11                      10020f50     task_group_context.obj
 0001:0001ff58       $LN10                      10020f58     task_group_context.obj
 0001:0001ff64       $LN8                       10020f64     task_group_context.obj
 0001:0002080c       $LN12                      1002180c     task_group_context.obj
 0001:00020814       $LN11                      10021814     task_group_context.obj
 0001:00020820       $LN9                       10021820     task_group_context.obj
 0001:000209c4       $LN17                      100219c4     task_group_context.obj
 0001:000209cc       $LN16                      100219cc     task_group_context.obj
 0001:000209e4       $LN14                      100219e4     task_group_context.obj
 0001:000209e7       $LN13                      100219e7     task_group_context.obj
 0001:00020bfc       $LN12                      10021bfc     task_group_context.obj
 0001:00020c04       $LN11                      10021c04     task_group_context.obj
 0001:00020c10       $LN9                       10021c10     task_group_context.obj
 0001:00020db4       $LN17                      10021db4     task_group_context.obj
 0001:00020dbc       $LN16                      10021dbc     task_group_context.obj
 0001:00020dd4       $LN14                      10021dd4     task_group_context.obj
 0001:00020dd7       $LN13                      10021dd7     task_group_context.obj
 0001:0002107c       $LN5                       1002207c     task_group_context.obj
 0001:00021084       $LN4                       10022084     task_group_context.obj
 0001:00021090       $LN3                       10022090     task_group_context.obj
 0001:000210ec       $LN5                       100220ec     task_group_context.obj
 0001:000210f4       $LN4                       100220f4     task_group_context.obj
 0001:00021100       $LN3                       10022100     task_group_context.obj
 0001:0002161c       $LN5                       1002261c     task_group_context.obj
 0001:00021624       $LN4                       10022624     task_group_context.obj
 0001:00021630       $LN3                       10022630     task_group_context.obj
 0001:00021824       $LN10                      10022824     task_group_context.obj
 0001:0002182c       $LN9                       1002282c     task_group_context.obj
 0001:00021838       $LN7                       10022838     task_group_context.obj
 0001:000218cc       $LN6                       100228cc     task_group_context.obj
 0001:000218d4       $LN5                       100228d4     task_group_context.obj
 0001:000218e0       $LN3                       100228e0     task_group_context.obj
 0001:00021c38       $LN5                       10022c38     task_group_context.obj
 0001:00021c40       $LN4                       10022c40     task_group_context.obj
 0001:00021c4c       $LN3                       10022c4c     task_group_context.obj
 0001:00021d94       $LN5                       10022d94     task_group_context.obj
 0001:00021d9c       $LN4                       10022d9c     task_group_context.obj
 0001:00021da8       $LN3                       10022da8     task_group_context.obj
 0001:000220f0       ?__TBB_machine_cmpswp4@@YAJPCXHH@Z 100230f0 f   governor.obj
 0001:00022110       ?pause@msvc_intrinsics@internal@tbb@@YAXI@Z 10023110 f   governor.obj
 0001:000222f8       $LN12                      100232f8     governor.obj
 0001:00022300       $LN11                      10023300     governor.obj
 0001:0002230c       $LN10                      1002330c     governor.obj
 0001:00022880       $LN12                      10023880     governor.obj
 0001:00022888       $LN11                      10023888     governor.obj
 0001:00022894       $LN10                      10023894     governor.obj
 0001:00022f00       ?__TBB_machine_cmpswp4@@YAJPCXHH@Z 10023f00 f   market.obj
 0001:00022f20       ?__TBB_machine_fetchadd4@@YAJPCXH@Z 10023f20 f   market.obj
 0001:000233d8       $LN24                      100243d8     market.obj
 0001:000233e0       $LN23                      100243e0     market.obj
 0001:000233ec       $LN21                      100243ec     market.obj
 0001:00023598       $LN12                      10024598     market.obj
 0001:000235a0       $LN11                      100245a0     market.obj
 0001:000235ac       $LN9                       100245ac     market.obj
 0001:00023788       $LN22                      10024788     market.obj
 0001:00023790       $LN21                      10024790     market.obj
 0001:0002379c       $LN20                      1002479c     market.obj
 0001:00023a58       $LN9                       10024a58     market.obj
 0001:00023a60       $LN8                       10024a60     market.obj
 0001:00023a6c       $LN7                       10024a6c     market.obj
 0001:00023bd4       $LN13                      10024bd4     market.obj
 0001:00023bdc       $LN12                      10024bdc     market.obj
 0001:00023be8       $LN11                      10024be8     market.obj
 0001:00023d80       $LN17                      10024d80     market.obj
 0001:00023d88       $LN16                      10024d88     market.obj
 0001:00023da0       $LN15                      10024da0     market.obj
 0001:00023da9       $LN14                      10024da9     market.obj
 0001:000241e8       $LN11                      100251e8     market.obj
 0001:000241f0       $LN10                      100251f0     market.obj
 0001:000241fc       $LN8                       100251fc     market.obj
 0001:00024420       $LN24                      10025420     market.obj
 0001:00024428       $LN23                      10025428     market.obj
 0001:00024434       $LN22                      10025434     market.obj
 0001:00024774       $LN27                      10025774     market.obj
 0001:0002477c       $LN26                      1002577c     market.obj
 0001:00024788       $LN24                      10025788     market.obj
 0001:0002498c       $LN9                       1002598c     market.obj
 0001:00024994       $LN8                       10025994     market.obj
 0001:000249ac       $LN6                       100259ac     market.obj
 0001:000249b1       $LN5                       100259b1     market.obj
 0001:00024c28       $LN24                      10025c28     market.obj
 0001:00024c30       $LN23                      10025c30     market.obj
 0001:00024c3c       $LN21                      10025c3c     market.obj
 0001:000253d4       $LN29                      100263d4     market.obj
 0001:000253dc       $LN28                      100263dc     market.obj
 0001:0002540c       $LN26                      1002640c     market.obj
 0001:0002540f       $LN25                      1002640f     market.obj
 0001:00025416       $LN24                      10026416     market.obj
 0001:0002541b       $LN23                      1002641b     market.obj
 0001:00025614       $LN20                      10026614     market.obj
 0001:0002561c       $LN19                      1002661c     market.obj
 0001:00025628       $LN17                      10026628     market.obj
 0001:00025a6c       $LN49                      10026a6c     market.obj
 0001:00025a74       $LN48                      10026a74     market.obj
 0001:00025a8c       $LN46                      10026a8c     market.obj
 0001:00025a8e       $LN45                      10026a8e     market.obj
 0001:00025ac0       ?calc_workers_soft_limit@internal@tbb@@YAIII@Z 10026ac0 f   market.obj
 0001:00025d2c       $LN5                       10026d2c     market.obj
 0001:00025d34       $LN4                       10026d34     market.obj
 0001:00025d40       $LN3                       10026d40     market.obj
 0001:00026bd0       ?__TBB_machine_cmpswp4@@YAJPCXHH@Z 10027bd0 f   arena.obj
 0001:00026bf0       ?__TBB_machine_fetchadd4@@YAJPCXH@Z 10027bf0 f   arena.obj
 0001:00026c00       ?pause@msvc_intrinsics@internal@tbb@@YAXI@Z 10027c00 f   arena.obj
 0001:00026c20       ?lg_bsr@msvc_intrinsics@internal@tbb@@YAII@Z 10027c20 f   arena.obj
 0001:00026c5c       $LN5                       10027c5c     arena.obj
 0001:00026c64       $LN4                       10027c64     arena.obj
 0001:00026c70       $LN3                       10027c70     arena.obj
 0001:00026c80       ?lock_or@msvc_intrinsics@internal@tbb@@YAXPCXH@Z 10027c80 f   arena.obj
 0001:00026ca0       ?lock_and@msvc_intrinsics@internal@tbb@@YAXPCXH@Z 10027ca0 f   arena.obj
 0001:00027a79       __catch$?internal_execute@task_arena_base@internal@interface7@tbb@@IBEXAAVdelegate_base@234@@Z$0 10028a79 f   arena.obj
 0001:00027b70       $LN57                      10028b70     arena.obj
 0001:00027b78       $LN56                      10028b78     arena.obj
 0001:00027bcc       $LN54                      10028bcc     arena.obj
 0001:00027be0       $LN53                      10028be0     arena.obj
 0001:00027be6       $LN52                      10028be6     arena.obj
 0001:00027bf4       $LN51                      10028bf4     arena.obj
 0001:00027bfa       $LN50                      10028bfa     arena.obj
 0001:00027bff       $LN49                      10028bff     arena.obj
 0001:00027c0c       $LN48                      10028c0c     arena.obj
 0001:00027ed4       $LN33                      10028ed4     arena.obj
 0001:00027edc       $LN32                      10028edc     arena.obj
 0001:00027ef4       $LN30                      10028ef4     arena.obj
 0001:00027efb       $LN29                      10028efb     arena.obj
 0001:00028124       $LN11                      10029124     arena.obj
 0001:0002812c       $LN10                      1002912c     arena.obj
 0001:00028138       $LN8                       10029138     arena.obj
 0001:00028ec0       $LN50                      10029ec0     arena.obj
 0001:00028ec8       $LN49                      10029ec8     arena.obj
 0001:00028eec       $LN48                      10029eec     arena.obj
 0001:00028eff       $LN47                      10029eff     arena.obj
 0001:00028f0d       $LN46                      10029f0d     arena.obj
 0001:000298d0       ?occupy_slot@internal@tbb@@YA_NAAPAVgeneric_scheduler@12@AAV312@@Z 1002a8d0 f   arena.obj
 0001:00029d50       $LN6                       1002ad50     arena.obj
 0001:00029d58       $LN5                       1002ad58     arena.obj
 0001:00029d70       $LN4                       1002ad70     arena.obj
 0001:00029d77       $LN3                       1002ad77     arena.obj
 0001:00029e3c       $LN10                      1002ae3c     arena.obj
 0001:00029e44       $LN9                       1002ae44     arena.obj
 0001:00029e50       $LN7                       1002ae50     arena.obj
 0001:00029f18       $LN10                      1002af18     arena.obj
 0001:00029f20       $LN9                       1002af20     arena.obj
 0001:00029f2c       $LN7                       1002af2c     arena.obj
 0001:0002a344       $LN8                       1002b344     arena.obj
 0001:0002a34c       $LN7                       1002b34c     arena.obj
 0001:0002a358       $LN6                       1002b358     arena.obj
 0001:0002a3f4       $LN8                       1002b3f4     arena.obj
 0001:0002a3fc       $LN7                       1002b3fc     arena.obj
 0001:0002a408       $LN6                       1002b408     arena.obj
 0001:0002ab90       $LN17                      1002bb90     arena.obj
 0001:0002ab98       $LN16                      1002bb98     arena.obj
 0001:0002abb0       $LN14                      1002bbb0     arena.obj
 0001:0002abb2       $LN13                      1002bbb2     arena.obj
 0001:0002b008       $LN7                       1002c008     arena.obj
 0001:0002b010       $LN6                       1002c010     arena.obj
 0001:0002b01c       $LN5                       1002c01c     arena.obj
 0001:0002b21c       $LN5                       1002c21c     arena.obj
 0001:0002b224       $LN4                       1002c224     arena.obj
 0001:0002b230       $LN3                       1002c230     arena.obj
 0001:0002b28c       $LN5                       1002c28c     arena.obj
 0001:0002b294       $LN4                       1002c294     arena.obj
 0001:0002b2a0       $LN3                       1002c2a0     arena.obj
 0001:0002b2fc       $LN5                       1002c2fc     arena.obj
 0001:0002b304       $LN4                       1002c304     arena.obj
 0001:0002b310       $LN3                       1002c310     arena.obj
 0001:0002b36c       $LN5                       1002c36c     arena.obj
 0001:0002b374       $LN4                       1002c374     arena.obj
 0001:0002b380       $LN3                       1002c380     arena.obj
 0001:0002bc30       ??0outermost_context@?1??execute@delegated_task@internal@interface7@tbb@@EAEPAVtask@5@XZ@QAE@PAV2345@AAVgeneric_scheduler@35@@Z 1002cc30 f   arena.obj
 0001:0002c1b4       $LN6                       1002d1b4     arena.obj
 0001:0002c1bc       $LN5                       1002d1bc     arena.obj
 0001:0002c1c8       $LN3                       1002d1c8     arena.obj
 0001:0002c470       ??1outermost_context@?1??execute@delegated_task@internal@interface7@tbb@@EAEPAVtask@5@XZ@QAE@XZ 1002d470 f   arena.obj
 0001:0002ccc8       $LN10                      1002dcc8     arena.obj
 0001:0002ccd0       $LN9                       1002dcd0     arena.obj
 0001:0002cce8       $LN7                       1002dce8     arena.obj
 0001:0002ccee       $LN6                       1002dcee     arena.obj
 0001:0002cdb4       $LN5                       1002ddb4     arena.obj
 0001:0002cdbc       $LN4                       1002ddbc     arena.obj
 0001:0002cdc8       $LN3                       1002ddc8     arena.obj
 0001:0002cf10       $LN5                       1002df10     arena.obj
 0001:0002cf18       $LN4                       1002df18     arena.obj
 0001:0002cf24       $LN3                       1002df24     arena.obj
 0001:0002d45c       $LN14                      1002e45c     arena.obj
 0001:0002d464       $LN13                      1002e464     arena.obj
 0001:0002d470       $LN12                      1002e470     arena.obj
 0001:0002d6f4       $LN10                      1002e6f4     arena.obj
 0001:0002d6fc       $LN9                       1002e6fc     arena.obj
 0001:0002d708       $LN7                       1002e708     arena.obj
 0001:0002d950       $LN16                      1002e950     arena.obj
 0001:0002d958       $LN15                      1002e958     arena.obj
 0001:0002d964       $LN13                      1002e964     arena.obj
 0001:0002db28       $LN12                      1002eb28     arena.obj
 0001:0002db30       $LN11                      1002eb30     arena.obj
 0001:0002db3c       $LN10                      1002eb3c     arena.obj
 0001:0002e490       $LN21                      1002f490     arena.obj
 0001:0002e498       $LN20                      1002f498     arena.obj
 0001:0002e4b0       $LN18                      1002f4b0     arena.obj
 0001:0002e4b3       $LN17                      1002f4b3     arena.obj
 0001:0002e760       $LN9                       1002f760     arena.obj
 0001:0002e768       $LN8                       1002f768     arena.obj
 0001:0002e774       $LN6                       1002f774     arena.obj
 0001:0002f49c       $LN11                      1003049c     arena.obj
 0001:0002f4a4       $LN10                      100304a4     arena.obj
 0001:0002f4b0       $LN8                       100304b0     arena.obj
 0001:0002fa00       ?__TBB_machine_cmpswp4@@YAJPCXHH@Z 10030a00 f   scheduler.obj
 0001:0002fa20       ?__TBB_machine_fetchadd4@@YAJPCXH@Z 10030a20 f   scheduler.obj
 0001:0002fa30       ?__TBB_machine_fetchstore4@@YAJPCXH@Z 10030a30 f   scheduler.obj
 0001:0002fa40       ?pause@msvc_intrinsics@internal@tbb@@YAXI@Z 10030a40 f   scheduler.obj
 0001:0002fa60       ?lock_and@msvc_intrinsics@internal@tbb@@YAXPCXH@Z 10030a60 f   scheduler.obj
 0001:0002fa80       ?__TBB_machine_time_stamp@@YA_KXZ 10030a80 f   scheduler.obj
 0001:00030180       $LN16                      10031180     scheduler.obj
 0001:00030188       $LN15                      10031188     scheduler.obj
 0001:00030194       $LN13                      10031194     scheduler.obj
 0001:00030498       $LN27                      10031498     scheduler.obj
 0001:000304a0       $LN26                      100314a0     scheduler.obj
 0001:000304ac       $LN24                      100314ac     scheduler.obj
 0001:00030b78       $LN21                      10031b78     scheduler.obj
 0001:00030b80       $LN20                      10031b80     scheduler.obj
 0001:00030b98       $LN18                      10031b98     scheduler.obj
 0001:00030b9e       $LN17                      10031b9e     scheduler.obj
 0001:00030dc0       $LN20                      10031dc0     scheduler.obj
 0001:00030dc8       $LN19                      10031dc8     scheduler.obj
 0001:00030dd4       $LN17                      10031dd4     scheduler.obj
 0001:00031748       $LN26                      10032748     scheduler.obj
 0001:00031750       $LN25                      10032750     scheduler.obj
 0001:00031774       $LN23                      10032774     scheduler.obj
 0001:00031776       $LN22                      10032776     scheduler.obj
 0001:0003177c       $LN21                      1003277c     scheduler.obj
 0001:000319a4       $LN21                      100329a4     scheduler.obj
 0001:000319ac       $LN20                      100329ac     scheduler.obj
 0001:000319b8       $LN18                      100329b8     scheduler.obj
 0001:00031be0       $LN18                      10032be0     scheduler.obj
 0001:00031be8       $LN17                      10032be8     scheduler.obj
 0001:00031bf4       $LN16                      10032bf4     scheduler.obj
 0001:00031dd8       $LN17                      10032dd8     scheduler.obj
 0001:00031de0       $LN16                      10032de0     scheduler.obj
 0001:00031dec       $LN14                      10032dec     scheduler.obj
 0001:00032c9c       $LN5                       10033c9c     scheduler.obj
 0001:00032ca4       $LN4                       10033ca4     scheduler.obj
 0001:00032cb0       $LN3                       10033cb0     scheduler.obj
 0001:00032d0c       $LN5                       10033d0c     scheduler.obj
 0001:00032d14       $LN4                       10033d14     scheduler.obj
 0001:00032d20       $LN3                       10033d20     scheduler.obj
 0001:00033480       $LN22                      10034480     scheduler.obj
 0001:00033488       $LN21                      10034488     scheduler.obj
 0001:00033494       $LN20                      10034494     scheduler.obj
 0001:00034048       $LN45                      10035048     scheduler.obj
 0001:00034050       $LN44                      10035050     scheduler.obj
 0001:0003405c       $LN43                      1003505c     scheduler.obj
 0001:00034440       $LN20                      10035440     scheduler.obj
 0001:00034448       $LN19                      10035448     scheduler.obj
 0001:00034454       $LN18                      10035454     scheduler.obj
 0001:00035488       __catch$?local_wait_for_all@?$custom_scheduler@UDefaultSchedulerTraits@internal@tbb@@@internal@tbb@@EAEXAAVtask@3@PAV43@@Z$3 10036488 f i scheduler.obj
 0001:000354f9       __catch$?local_wait_for_all@?$custom_scheduler@UDefaultSchedulerTraits@internal@tbb@@@internal@tbb@@EAEXAAVtask@3@PAV43@@Z$4 100364f9 f i scheduler.obj
 0001:0003559e       __catch$?local_wait_for_all@?$custom_scheduler@UDefaultSchedulerTraits@internal@tbb@@@internal@tbb@@EAEXAAVtask@3@PAV43@@Z$5 1003659e f i scheduler.obj
 0001:000359ac       $LN178                     100369ac     scheduler.obj
 0001:000359b4       $LN177                     100369b4     scheduler.obj
 0001:000359f0       $LN175                     100369f0     scheduler.obj
 0001:000359f4       $LN174                     100369f4     scheduler.obj
 0001:000359f8       $LN173                     100369f8     scheduler.obj
 0001:000359ff       $LN172                     100369ff     scheduler.obj
 0001:00035a0d       $LN171                     10036a0d     scheduler.obj
 0001:00035a1c       $LN179                     10036a1c     scheduler.obj
 0001:00036749       __catch$?local_wait_for_all@?$custom_scheduler@UIntelSchedulerTraits@internal@tbb@@@internal@tbb@@EAEXAAVtask@3@PAV43@@Z$3 10037749 f i scheduler.obj
 0001:000367ba       __catch$?local_wait_for_all@?$custom_scheduler@UIntelSchedulerTraits@internal@tbb@@@internal@tbb@@EAEXAAVtask@3@PAV43@@Z$4 100377ba f i scheduler.obj
 0001:0003685f       __catch$?local_wait_for_all@?$custom_scheduler@UIntelSchedulerTraits@internal@tbb@@@internal@tbb@@EAEXAAVtask@3@PAV43@@Z$5 1003785f f i scheduler.obj
 0001:00036c64       $LN178                     10037c64     scheduler.obj
 0001:00036c6c       $LN177                     10037c6c     scheduler.obj
 0001:00036ca8       $LN175                     10037ca8     scheduler.obj
 0001:00036cac       $LN174                     10037cac     scheduler.obj
 0001:00036cb0       $LN173                     10037cb0     scheduler.obj
 0001:00036cb7       $LN172                     10037cb7     scheduler.obj
 0001:00036cc5       $LN171                     10037cc5     scheduler.obj
 0001:00036cd4       $LN179                     10037cd4     scheduler.obj
 0001:00036e38       $LN22                      10037e38     scheduler.obj
 0001:00036e40       $LN21                      10037e40     scheduler.obj
 0001:00036e4c       $LN20                      10037e4c     scheduler.obj
 0001:00037108       $LN13                      10038108     scheduler.obj
 0001:00037110       $LN12                      10038110     scheduler.obj
 0001:0003711c       $LN10                      1003811c     scheduler.obj
 0001:00037814       $LN11                      10038814     scheduler.obj
 0001:0003781c       $LN10                      1003881c     scheduler.obj
 0001:00037828       $LN9                       10038828     scheduler.obj
 0001:0003856c       $LN100                     1003956c     scheduler.obj
 0001:00038574       $LN99                      10039574     scheduler.obj
 0001:0003858c       $LN98                      1003958c     scheduler.obj
 0001:00038591       $LN97                      10039591     scheduler.obj
 0001:00038ebc       $LN100                     10039ebc     scheduler.obj
 0001:00038ec4       $LN99                      10039ec4     scheduler.obj
 0001:00038edc       $LN98                      10039edc     scheduler.obj
 0001:00038ee1       $LN97                      10039ee1     scheduler.obj
 0001:00039840       ?__TBB_machine_fetchstore1@@YADPCXD@Z 1003a840 f   observer_proxy.obj
 0001:00039850       ?__TBB_machine_cmpswp4@@YAJPCXHH@Z 1003a850 f   observer_proxy.obj
 0001:00039870       ?__TBB_machine_fetchadd4@@YAJPCXH@Z 1003a870 f   observer_proxy.obj
 0001:00039880       ?__TBB_machine_fetchstore4@@YAJPCXH@Z 1003a880 f   observer_proxy.obj
 0001:00039c88       $LN41                      1003ac88     observer_proxy.obj
 0001:00039c90       $LN40                      1003ac90     observer_proxy.obj
 0001:00039c9c       $LN38                      1003ac9c     observer_proxy.obj
 0001:00039f48       $LN36                      1003af48     observer_proxy.obj
 0001:00039f50       $LN35                      1003af50     observer_proxy.obj
 0001:00039f68       $LN33                      1003af68     observer_proxy.obj
 0001:00039f6d       $LN32                      1003af6d     observer_proxy.obj
 0001:0003a1d4       $LN33                      1003b1d4     observer_proxy.obj
 0001:0003a1dc       $LN32                      1003b1dc     observer_proxy.obj
 0001:0003a200       $LN30                      1003b200     observer_proxy.obj
 0001:0003a205       $LN29                      1003b205     observer_proxy.obj
 0001:0003a20a       $LN28                      1003b20a     observer_proxy.obj
 0001:0003a444       $LN28                      1003b444     observer_proxy.obj
 0001:0003a44c       $LN27                      1003b44c     observer_proxy.obj
 0001:0003a458       $LN25                      1003b458     observer_proxy.obj
 0001:0003a4ec       $LN8                       1003b4ec     observer_proxy.obj
 0001:0003a4f4       $LN7                       1003b4f4     observer_proxy.obj
 0001:0003a500       $LN6                       1003b500     observer_proxy.obj
 0001:0003a854       $LN22                      1003b854     observer_proxy.obj
 0001:0003a85c       $LN21                      1003b85c     observer_proxy.obj
 0001:0003a868       $LN19                      1003b868     observer_proxy.obj
 0001:0003b090       $LN11                      1003c090     tbb_main.obj
 0001:0003b098       $LN10                      1003c098     tbb_main.obj
 0001:0003b0a4       $LN8                       1003c0a4     tbb_main.obj
 0001:0003b2ec       $LN26                      1003c2ec     tbb_main.obj
 0001:0003b2f4       $LN25                      1003c2f4     tbb_main.obj
 0001:0003b300       $LN23                      1003c300     tbb_main.obj
 0001:0003b370       ?__TBB_machine_cmpswp1@@YADPCXDD@Z 1003c370 f   tbb_main.obj
 0001:0003b390       ?__TBB_machine_fetchadd4@@YAJPCXH@Z 1003c390 f   tbb_main.obj
 0001:0003b3a0       ?pause@msvc_intrinsics@internal@tbb@@YAXI@Z 1003c3a0 f   tbb_main.obj
 0001:0003b6a0       $LN17                      1003c6a0     tbb_main.obj
 0001:0003b97c       $LN5                       1003c97c     tbb_main.obj
 0001:0003b984       $LN4                       1003c984     tbb_main.obj
 0001:0003b990       $LN3                       1003c990     tbb_main.obj
 0001:0003bf48       $LN8                       1003cf48     tbb_main.obj
 0001:0003bf50       $LN7                       1003cf50     tbb_main.obj
 0001:0003bf5c       $LN6                       1003cf5c     tbb_main.obj
 0001:0003c010       ?__TBB_machine_cmpswp4@@YAJPCXHH@Z 1003d010 f   concurrent_vector_v2.obj
 0001:0003c030       ?__TBB_machine_fetchadd4@@YAJPCXH@Z 1003d030 f   concurrent_vector_v2.obj
 0001:0003c040       ?pause@msvc_intrinsics@internal@tbb@@YAXI@Z 1003d040 f   concurrent_vector_v2.obj
 0001:0003c060       ?lg_bsr@msvc_intrinsics@internal@tbb@@YAII@Z 1003d060 f   concurrent_vector_v2.obj
 0001:0003c09c       $LN5                       1003d09c     concurrent_vector_v2.obj
 0001:0003c0a4       $LN4                       1003d0a4     concurrent_vector_v2.obj
 0001:0003c0b0       $LN3                       1003d0b0     concurrent_vector_v2.obj
 0001:0003cd58       $LN9                       1003dd58     concurrent_vector_v2.obj
 0001:0003cd60       $LN8                       1003dd60     concurrent_vector_v2.obj
 0001:0003cd6c       $LN7                       1003dd6c     concurrent_vector_v2.obj
 0001:0003ce28       $LN7                       1003de28     concurrent_vector_v2.obj
 0001:0003ce30       $LN6                       1003de30     concurrent_vector_v2.obj
 0001:0003ce3c       $LN5                       1003de3c     concurrent_vector_v2.obj
 0001:0003cf2c       $LN5                       1003df2c     concurrent_vector_v2.obj
 0001:0003cf34       $LN4                       1003df34     concurrent_vector_v2.obj
 0001:0003cf40       $LN3                       1003df40     concurrent_vector_v2.obj
 0001:0003d690       $LN8                       1003e690     concurrent_queue_v2.obj
 0001:0003d698       $LN7                       1003e698     concurrent_queue_v2.obj
 0001:0003d6a4       $LN6                       1003e6a4     concurrent_queue_v2.obj
 0001:0003d7ec       $LN10                      1003e7ec     concurrent_queue_v2.obj
 0001:0003d7f4       $LN9                       1003e7f4     concurrent_queue_v2.obj
 0001:0003d800       $LN8                       1003e800     concurrent_queue_v2.obj
 0001:0003d8d4       $LN13                      1003e8d4     concurrent_queue_v2.obj
 0001:0003d8dc       $LN12                      1003e8dc     concurrent_queue_v2.obj
 0001:0003d8e8       $LN11                      1003e8e8     concurrent_queue_v2.obj
 0001:0003dc70       ?__TBB_machine_cmpswp4@@YAJPCXHH@Z 1003ec70 f   concurrent_queue_v2.obj
 0001:0003dc90       ?__TBB_machine_fetchadd4@@YAJPCXH@Z 1003ec90 f   concurrent_queue_v2.obj
 0001:0003dca0       ?pause@msvc_intrinsics@internal@tbb@@YAXI@Z 1003eca0 f   concurrent_queue_v2.obj
 0001:0003de70       $LN14                      1003ee70     concurrent_queue_v2.obj
 0001:0003de78       $LN13                      1003ee78     concurrent_queue_v2.obj
 0001:0003de90       $LN11                      1003ee90     concurrent_queue_v2.obj
 0001:0003de95       $LN10                      1003ee95     concurrent_queue_v2.obj
 0001:0003e008       $LN12                      1003f008     concurrent_queue_v2.obj
 0001:0003e010       $LN11                      1003f010     concurrent_queue_v2.obj
 0001:0003e01c       $LN9                       1003f01c     concurrent_queue_v2.obj
 0001:0003e10c       $LN5                       1003f10c     concurrent_queue_v2.obj
 0001:0003e114       $LN4                       1003f114     concurrent_queue_v2.obj
 0001:0003e120       $LN3                       1003f120     concurrent_queue_v2.obj
 0001:0003e3b8       $LN9                       1003f3b8     concurrent_queue_v2.obj
 0001:0003e3c0       $LN8                       1003f3c0     concurrent_queue_v2.obj
 0001:0003e3cc       $LN6                       1003f3cc     concurrent_queue_v2.obj
 0001:0003e754       $LN18                      1003f754     spin_rw_mutex_v2.obj
 0001:0003e75c       $LN17                      1003f75c     spin_rw_mutex_v2.obj
 0001:0003e768       $LN16                      1003f768     spin_rw_mutex_v2.obj
 0001:0003e8e0       $LN18                      1003f8e0     spin_rw_mutex_v2.obj
 0001:0003e8e8       $LN17                      1003f8e8     spin_rw_mutex_v2.obj
 0001:0003e8f4       $LN16                      1003f8f4     spin_rw_mutex_v2.obj
 0001:0003eaa0       $LN24                      1003faa0     spin_rw_mutex_v2.obj
 0001:0003eaa8       $LN23                      1003faa8     spin_rw_mutex_v2.obj
 0001:0003eab4       $LN22                      1003fab4     spin_rw_mutex_v2.obj
 0001:0003ecf0       ?__TBB_machine_cmpswp4@@YAJPCXHH@Z 1003fcf0 f   spin_rw_mutex_v2.obj
 0001:0003ed10       ?__TBB_machine_fetchadd4@@YAJPCXH@Z 1003fd10 f   spin_rw_mutex_v2.obj
 0001:0003ed20       ?pause@msvc_intrinsics@internal@tbb@@YAXI@Z 1003fd20 f   spin_rw_mutex_v2.obj
 0001:0003ed40       ?lock_or@msvc_intrinsics@internal@tbb@@YAXPCXH@Z 1003fd40 f   spin_rw_mutex_v2.obj
 0001:0003ed60       ?CAS@tbb@@YA_NACIII@Z      1003fd60 f   spin_rw_mutex_v2.obj
 0001:0003ee8c       $LN5                       1003fe8c     spin_rw_mutex_v2.obj
 0001:0003ee94       $LN4                       1003fe94     spin_rw_mutex_v2.obj
 0001:0003eea0       $LN3                       1003fea0     spin_rw_mutex_v2.obj
 0001:0003ef50       $$000000                   1003ff50     atomic_support.obj
 0001:0003f090       $$000000                   10040090     itsx.obj
 0001:0003f0d0       $$000000                   100400d0     lock_byte.obj
 0001:0003f5e0       ?ArrayUnwindFilter@@YAHPAU_EXCEPTION_POINTERS@@@Z 100405e0 f   MSVCRTD:ehvecdtr.obj
 0001:0003fa70       $$000000                   10040a70     MSVCRTD:_ftol3_.obj
 0001:0003fdf0       $$000000                   10040df0     MSVCRTD:alloca16.obj
 0001:00040000       ?find_pe_section@@YAPAU_IMAGE_SECTION_HEADER@@QAEI@Z 10041000 f   MSVCRTD:utility.obj
 0001:000400a0       ?is_potentially_valid_image_base@@YA_NQAX@Z 100410a0 f   MSVCRTD:utility.obj
 0001:00040680       ?dllmain_crt_dispatch@@YGHQAUHINSTANCE__@@KQAX@Z 10041680 f   MSVCRTD:dll_dllmain.obj
 0001:000406ec       $LN11                      100416ec     MSVCRTD:dll_dllmain.obj
 0001:00040700       ?dllmain_crt_process_attach@@YAHQAUHINSTANCE__@@QAX@Z 10041700 f   MSVCRTD:dll_dllmain.obj
 0001:00040870       ?dllmain_crt_process_detach@@YAH_N@Z 10041870 f   MSVCRTD:dll_dllmain.obj
 0001:00040950       ?dllmain_dispatch@@YAHQAUHINSTANCE__@@KQAX@Z 10041950 f   MSVCRTD:dll_dllmain.obj
 0001:00040ae0       ?dllmain_raw@@YGHQAUHINSTANCE__@@KQAX@Z 10041ae0 f   MSVCRTD:dll_dllmain.obj
 0001:00040b70       ?DebuggerProbe@@YA_NK@Z    10041b70 f   MSVCRTD:_error_.obj
 0001:00040bb0       ?DebuggerRuntime@@YA_NKHPAXPB_W@Z 10041bb0 f   MSVCRTD:_error_.obj
 0001:00040df0       ?_getMemBlockDataString@@YAXPAD0PBDI@Z 10041df0 f   MSVCRTD:_error_.obj
 0001:00040e60       ?_strlen_priv@@YAIPBD@Z    10041e60 f   MSVCRTD:_error_.obj
 0001:00040e80       ?failwithmessage@@YAXPAXHHPBD@Z 10041e80 f   MSVCRTD:_error_.obj
 0001:00041080       ?notify_debugger@@YAXABUtagEXCEPTION_VISUALCPP_DEBUG_INFO@@@Z 10042080 f   MSVCRTD:_error_.obj
 0001:00041490       $$000000                   10042490     MSVCRTD:chkstk.obj
 0001:00041aa0       ___get_entropy             10042aa0 f   MSVCRTD:gs_support.obj
 0001:00041c50       ?GetPdbDll@@YAPAUHINSTANCE__@@XZ 10042c50 f   MSVCRTD:_pdblkup_.obj
 0001:00041d90       ?GetPdbDllFromInstallPath@@YAPAUHINSTANCE__@@XZ 10042d90 f   MSVCRTD:_pdblkup_.obj
 0001:00041ff0       ?GetPdbDllPathFromFilePath@@YAHPB_WPA_WI@Z 10042ff0 f   MSVCRTD:_pdblkup_.obj
 0001:000426d0       __ehhandler$??1concurrent_queue_base_v3@internal@tbb@@MAE@XZ 100436d0 f   concurrent_queue.obj
 0001:000426eb       __unwindfunclet$?internal_pop@concurrent_queue_base_v3@internal@tbb@@IAEXPAX@Z$3 100436eb f   concurrent_queue.obj
 0001:000426f3       __ehhandler$?internal_pop@concurrent_queue_base_v3@internal@tbb@@IAEXPAX@Z 100436f3 f   concurrent_queue.obj
 0001:00042718       __unwindfunclet$?internal_insert_item@concurrent_queue_base_v3@internal@tbb@@IAEXPBXW4copy_specifics@123@@Z$3 10043718 f   concurrent_queue.obj
 0001:00042720       __ehhandler$?internal_insert_item@concurrent_queue_base_v3@internal@tbb@@IAEXPBXW4copy_specifics@123@@Z 10043720 f   concurrent_queue.obj
 0001:00042745       __ehhandler$??1concurrent_queue_iterator_base_v3@internal@tbb@@IAE@XZ 10043745 f   concurrent_queue.obj
 0001:00042760       __unwindfunclet$?push@micro_queue@internal@tbb@@QAEXPBXIAAVconcurrent_queue_base_v3@23@W4copy_specifics@423@@Z$4 10043760 f   concurrent_queue.obj
 0001:00042768       __ehhandler$?push@micro_queue@internal@tbb@@QAEXPBXIAAVconcurrent_queue_base_v3@23@W4copy_specifics@423@@Z 10043768 f   concurrent_queue.obj
 0001:00042783       __unwindfunclet$?pop@micro_queue@internal@tbb@@QAE_NPAXIAAVconcurrent_queue_base_v3@23@@Z$0 10043783 f   concurrent_queue.obj
 0001:0004278b       __ehhandler$?pop@micro_queue@internal@tbb@@QAE_NPAXIAAVconcurrent_queue_base_v3@23@@Z 1004378b f   concurrent_queue.obj
 0001:000427a6       __ehhandler$?assign@micro_queue@internal@tbb@@QAEAAU123@ABU123@AAVconcurrent_queue_base_v3@23@W4copy_specifics@423@@Z 100437a6 f   concurrent_queue.obj
 0001:000427c1       __unwindfunclet$?make_invalid@micro_queue@internal@tbb@@QAEXI@Z$0 100437c1 f   concurrent_queue.obj
 0001:000427c9       __ehhandler$?make_invalid@micro_queue@internal@tbb@@QAEXI@Z 100437c9 f   concurrent_queue.obj
 0001:000427f0       __unwindfunclet$??$notify_relaxed@Upredicate_leq@internal@tbb@@@concurrent_monitor@internal@tbb@@QAEXABUpredicate_leq@12@@Z$0 100437f0 f   concurrent_queue.obj
 0001:000427f8       __unwindfunclet$??$notify_relaxed@Upredicate_leq@internal@tbb@@@concurrent_monitor@internal@tbb@@QAEXABUpredicate_leq@12@@Z$1 100437f8 f   concurrent_queue.obj
 0001:00042800       __ehhandler$??$notify_relaxed@Upredicate_leq@internal@tbb@@@concurrent_monitor@internal@tbb@@QAEXABUpredicate_leq@12@@Z 10043800 f   concurrent_queue.obj
 0001:00042820       __unwindfunclet$??0concurrent_monitor@internal@tbb@@QAE@XZ$0 10043820 f   concurrent_queue.obj
 0001:0004282b       __ehhandler$??0concurrent_monitor@internal@tbb@@QAE@XZ 1004382b f   concurrent_queue.obj
 0001:00042850       __ehhandler$??1circular_doubly_linked_list_with_sentinel@internal@tbb@@QAE@XZ 10043850 f   concurrent_queue.obj
 0001:00042870       __ehhandler$??1micro_queue_pop_finalizer@internal@tbb@@QAE@XZ 10043870 f   concurrent_queue.obj
 0001:00042890       __ehhandler$??1scoped_lock@spin_mutex@tbb@@QAE@XZ 10043890 f   concurrent_queue.obj
 0001:000428b0       __ehhandler$??1thread_context@concurrent_monitor@internal@tbb@@QAE@XZ 100438b0 f   concurrent_queue.obj
 0001:000428d0       __ehhandler$??1concurrent_vector_base_v3@internal@tbb@@IAE@XZ 100438d0 f   concurrent_vector.obj
 0001:000428eb       __unwindfunclet$?internal_grow@concurrent_vector_base_v3@internal@tbb@@IAEXIIIP6AXPAXPBXI@Z1@Z$0 100438eb f   concurrent_vector.obj
 0001:000428f3       __ehhandler$?internal_grow@concurrent_vector_base_v3@internal@tbb@@IAEXIIIP6AXPAXPBXI@Z1@Z 100438f3 f   concurrent_vector.obj
 0001:0004290e       __unwindfunclet$?internal_clear@concurrent_vector_base_v3@internal@tbb@@IAEIP6AXPAXI@Z@Z$0 1004390e f   concurrent_vector.obj
 0001:00042916       __ehhandler$?internal_clear@concurrent_vector_base_v3@internal@tbb@@IAEIP6AXPAXI@Z@Z 10043916 f   concurrent_vector.obj
 0001:00042931       __unwindfunclet$?internal_compact@concurrent_vector_base_v3@internal@tbb@@IAEPAXIPAXP6AX0I@ZP6AX0PBXI@Z@Z$2 10043931 f   concurrent_vector.obj
 0001:00042939       __unwindfunclet$?internal_compact@concurrent_vector_base_v3@internal@tbb@@IAEPAXIPAXP6AX0I@ZP6AX0PBXI@Z@Z$3 10043939 f   concurrent_vector.obj
 0001:00042941       __unwindfunclet$?internal_compact@concurrent_vector_base_v3@internal@tbb@@IAEPAXIPAXP6AX0I@ZP6AX0PBXI@Z@Z$4 10043941 f   concurrent_vector.obj
 0001:00042949       __ehhandler$?internal_compact@concurrent_vector_base_v3@internal@tbb@@IAEPAXIPAXP6AX0I@ZP6AX0PBXI@Z@Z 10043949 f   concurrent_vector.obj
 0001:00042967       __unwindfunclet$?internal_resize@concurrent_vector_base_v3@internal@tbb@@IAEXIIIPBXP6AXPAXI@ZP6AX10I@Z@Z$0 10043967 f   concurrent_vector.obj
 0001:0004296f       __unwindfunclet$?internal_resize@concurrent_vector_base_v3@internal@tbb@@IAEXIIIPBXP6AXPAXI@ZP6AX10I@Z@Z$1 1004396f f   concurrent_vector.obj
 0001:00042977       __ehhandler$?internal_resize@concurrent_vector_base_v3@internal@tbb@@IAEXIIIPBXP6AXPAXI@ZP6AX10I@Z@Z 10043977 f   concurrent_vector.obj
 0001:00042992       __unwindfunclet$?enable_segment@helper@concurrent_vector_base_v3@internal@tbb@@SAIAAV234@II_N@Z$0 10043992 f   concurrent_vector.obj
 0001:0004299a       __unwindfunclet$?enable_segment@helper@concurrent_vector_base_v3@internal@tbb@@SAIAAV234@II_N@Z$1 1004399a f   concurrent_vector.obj
 0001:000429a2       __ehhandler$?enable_segment@helper@concurrent_vector_base_v3@internal@tbb@@SAIAAV234@II_N@Z 100439a2 f   concurrent_vector.obj
 0001:000429bd       __unwindfunclet$?extend_segment_table@helper@concurrent_vector_base_v3@internal@tbb@@SAXAAV234@I@Z$0 100439bd f   concurrent_vector.obj
 0001:000429c5       __ehhandler$?extend_segment_table@helper@concurrent_vector_base_v3@internal@tbb@@SAXAAV234@I@Z 100439c5 f   concurrent_vector.obj
 0001:000429e0       __unwindfunclet$??$_Uninitialized_fill_n_unchecked@PAVsegment_t@concurrent_vector_base_v3@internal@tbb@@IV1234@@std@@YAPAVsegment_t@concurrent_vector_base_v3@internal@tbb@@QAV1234@IABV1234@U?$integral_constant@_N$0A@@0@@Z$0 100439e0 f   concurrent_vector.obj
 0001:000429e8       __ehhandler$??$_Uninitialized_fill_n_unchecked@PAVsegment_t@concurrent_vector_base_v3@internal@tbb@@IV1234@@std@@YAPAVsegment_t@concurrent_vector_base_v3@internal@tbb@@QAV1234@IABV1234@U?$integral_constant@_N$0A@@0@@Z 100439e8 f   concurrent_vector.obj
 0001:00042a10       __ehhandler$??$store@$01@segment_t@concurrent_vector_base_v3@internal@tbb@@QAEXPAX@Z 10043a10 f   concurrent_vector.obj
 0001:00042a30       __ehhandler$??$store@$02@segment_t@concurrent_vector_base_v3@internal@tbb@@QAEXPAX@Z 10043a30 f   concurrent_vector.obj
 0001:00042a50       __ehhandler$??1?$_Uninitialized_backout@PAVsegment_t@concurrent_vector_base_v3@internal@tbb@@@std@@QAE@XZ 10043a50 f   concurrent_vector.obj
 0001:00042a70       __ehhandler$??1helper@concurrent_vector_base_v3@internal@tbb@@QAE@XZ 10043a70 f   concurrent_vector.obj
 0001:00042a90       __ehhandler$??1segment_scope_guard@?1??enable_segment@helper@concurrent_vector_base_v3@internal@tbb@@SAIAAV345@II_N@Z@QAE@XZ 10043a90 f   concurrent_vector.obj
 0001:00042ab0       __ehhandler$??1segment_t@concurrent_vector_base_v3@internal@tbb@@QAE@XZ 10043ab0 f   concurrent_vector.obj
 0001:00042ad0       __ehhandler$?swap@internal@tbb@@YAXAAVsegment_t@concurrent_vector_base_v3@12@0@Z 10043ad0 f   concurrent_vector.obj
 0001:00042af0       __ehhandler$??1filter@tbb@@UAE@XZ 10043af0 f   pipeline.obj
 0001:00042b0b       __ehhandler$??1pipeline@tbb@@UAE@XZ 10043b0b f   pipeline.obj
 0001:00042b26       __unwindfunclet$?add_filter@pipeline@tbb@@QAEXAAVfilter@2@@Z$0 10043b26 f   pipeline.obj
 0001:00042b35       __unwindfunclet$?add_filter@pipeline@tbb@@QAEXAAVfilter@2@@Z$1 10043b35 f   pipeline.obj
 0001:00042b44       __unwindfunclet$?add_filter@pipeline@tbb@@QAEXAAVfilter@2@@Z$2 10043b44 f   pipeline.obj
 0001:00042b53       __unwindfunclet$?add_filter@pipeline@tbb@@QAEXAAVfilter@2@@Z$3 10043b53 f   pipeline.obj
 0001:00042b62       __ehhandler$?add_filter@pipeline@tbb@@QAEXAAVfilter@2@@Z 10043b62 f   pipeline.obj
 0001:00042b7d       __unwindfunclet$?run@pipeline@tbb@@QAEXI@Z$0 10043b7d f   pipeline.obj
 0001:00042b88       __ehhandler$?run@pipeline@tbb@@QAEXI@Z 10043b88 f   pipeline.obj
 0001:00042bb0       __unwindfunclet$?run@pipeline@tbb@@QAEXIAAVtask_group_context@2@@Z$0 10043bb0 f   pipeline.obj
 0001:00042bb8       __unwindfunclet$?run@pipeline@tbb@@QAEXIAAVtask_group_context@2@@Z$1 10043bb8 f   pipeline.obj
 0001:00042bc9       __ehhandler$?run@pipeline@tbb@@QAEXIAAVtask_group_context@2@@Z 10043bc9 f   pipeline.obj
 0001:00042be4       __unwindfunclet$?execute@stage_task@internal@tbb@@UAEPAVtask@3@XZ$2 10043be4 f   pipeline.obj
 0001:00042bf5       __unwindfunclet$?execute@stage_task@internal@tbb@@UAEPAVtask@3@XZ$3 10043bf5 f   pipeline.obj
 0001:00042c06       __ehhandler$?execute@stage_task@internal@tbb@@UAEPAVtask@3@XZ 10043c06 f   pipeline.obj
 0001:00042c30       __unwindfunclet$??$note_done@Vstage_task@internal@tbb@@@input_buffer@internal@tbb@@QAEXKAAVstage_task@12@@Z$0 10043c30 f   pipeline.obj
 0001:00042c38       __ehhandler$??$note_done@Vstage_task@internal@tbb@@@input_buffer@internal@tbb@@QAEXKAAVstage_task@12@@Z 10043c38 f   pipeline.obj
 0001:00042c60       __unwindfunclet$??0pipeline_root_task@internal@tbb@@QAE@AAVpipeline@2@@Z$0 10043c60 f   pipeline.obj
 0001:00042c68       __ehhandler$??0pipeline_root_task@internal@tbb@@QAE@AAVpipeline@2@@Z 10043c68 f   pipeline.obj
 0001:00042c90       __unwindfunclet$??0stage_task@internal@tbb@@QAE@AAVpipeline@2@@Z$0 10043c90 f   pipeline.obj
 0001:00042c98       __ehhandler$??0stage_task@internal@tbb@@QAE@AAVpipeline@2@@Z 10043c98 f   pipeline.obj
 0001:00042cc0       __ehhandler$??1input_buffer@internal@tbb@@QAE@XZ 10043cc0 f   pipeline.obj
 0001:00042ce0       __ehhandler$??1pipeline_cleaner@internal@tbb@@QAE@XZ 10043ce0 f   pipeline.obj
 0001:00042d00       __ehhandler$??1stage_task@internal@tbb@@UAE@XZ 10043d00 f   pipeline.obj
 0001:00042d20       __ehhandler$??3@YAXPAXABVallocate_additional_child_of_proxy@internal@tbb@@@Z 10043d20 f   pipeline.obj
 0001:00042d40       __ehhandler$??3@YAXPAXABVallocate_child_proxy@internal@tbb@@@Z 10043d40 f   pipeline.obj
 0001:00042d60       __ehhandler$??3@YAXPAXABVallocate_root_with_context_proxy@internal@tbb@@@Z 10043d60 f   pipeline.obj
 0001:00042d80       __unwindfunclet$?create_sema@input_buffer@internal@tbb@@AAEXI@Z$0 10043d80 f   pipeline.obj
 0001:00042d8f       __ehhandler$?create_sema@input_buffer@internal@tbb@@AAEXI@Z 10043d8f f   pipeline.obj
 0001:00042db0       __unwindfunclet$?execute@pipeline_root_task@internal@tbb@@EAEPAVtask@3@XZ$0 10043db0 f   pipeline.obj
 0001:00042dc1       __unwindfunclet$?execute@pipeline_root_task@internal@tbb@@EAEPAVtask@3@XZ$1 10043dc1 f   pipeline.obj
 0001:00042dd2       __ehhandler$?execute@pipeline_root_task@internal@tbb@@EAEPAVtask@3@XZ 10043dd2 f   pipeline.obj
 0001:00042df0       __unwindfunclet$?put_token@input_buffer@internal@tbb@@QAE_NAAUtask_info@23@_N@Z$0 10043df0 f   pipeline.obj
 0001:00042df8       __ehhandler$?put_token@input_buffer@internal@tbb@@QAE_NAAUtask_info@23@_N@Z 10043df8 f   pipeline.obj
 0001:00042e20       __unwindfunclet$?return_item@input_buffer@internal@tbb@@QAE_NAAUtask_info@23@_N@Z$0 10043e20 f   pipeline.obj
 0001:00042e28       __ehhandler$?return_item@input_buffer@internal@tbb@@QAE_NAAUtask_info@23@_N@Z 10043e28 f   pipeline.obj
 0001:00042e50       __unwindfunclet$?spawn_stage_task@stage_task@internal@tbb@@QAEXABUtask_info@23@@Z$0 10043e50 f   pipeline.obj
 0001:00042e61       __ehhandler$?spawn_stage_task@stage_task@internal@tbb@@QAEXABUtask_info@23@@Z 10043e61 f   pipeline.obj
 0001:00042e80       __unwindfunclet$?lock@reader_writer_lock@interface5@tbb@@QAEXXZ$0 10043e80 f   reader_writer_lock.obj
 0001:00042e8b       __ehhandler$?lock@reader_writer_lock@interface5@tbb@@QAEXXZ 10043e8b f   reader_writer_lock.obj
 0001:00042ea6       __unwindfunclet$?try_lock@reader_writer_lock@interface5@tbb@@QAE_NXZ$0 10043ea6 f   reader_writer_lock.obj
 0001:00042eb1       __ehhandler$?try_lock@reader_writer_lock@interface5@tbb@@QAE_NXZ 10043eb1 f   reader_writer_lock.obj
 0001:00042ecc       __unwindfunclet$?lock_read@reader_writer_lock@interface5@tbb@@QAEXXZ$0 10043ecc f   reader_writer_lock.obj
 0001:00042ed4       __ehhandler$?lock_read@reader_writer_lock@interface5@tbb@@QAEXXZ 10043ed4 f   reader_writer_lock.obj
 0001:00042ef0       __ehhandler$??1scoped_lock@reader_writer_lock@interface5@tbb@@QAE@XZ 10043ef0 f   reader_writer_lock.obj
 0001:00042f10       __ehhandler$??1scoped_lock_read@reader_writer_lock@interface5@tbb@@QAE@XZ 10043f10 f   reader_writer_lock.obj
 0001:00042f30       __ehhandler$??3scoped_lock@reader_writer_lock@interface5@tbb@@SAXPAX@Z 10043f30 f   reader_writer_lock.obj
 0001:00042f50       __ehhandler$?hardware_concurrency@tbb_thread_v3@internal@tbb@@SAIXZ 10043f50 f   tbb_thread.obj
 0001:00042f70       __ehhandler$?get_id@tbb_thread_v3@internal@tbb@@QBE?AVid@123@XZ 10043f70 f   tbb_thread.obj
 0001:00042f90       __ehhandler$??1concurrent_monitor@internal@tbb@@QAE@XZ 10043f90 f   concurrent_monitor.obj
 0001:00042fab       __unwindfunclet$?prepare_wait@concurrent_monitor@internal@tbb@@QAEXAAVthread_context@123@I@Z$0 10043fab f   concurrent_monitor.obj
 0001:00042fb3       __ehhandler$?prepare_wait@concurrent_monitor@internal@tbb@@QAEXAAVthread_context@123@I@Z 10043fb3 f   concurrent_monitor.obj
 0001:00042fce       __unwindfunclet$?cancel_wait@concurrent_monitor@internal@tbb@@QAEXAAVthread_context@123@@Z$0 10043fce f   concurrent_monitor.obj
 0001:00042fd6       __ehhandler$?cancel_wait@concurrent_monitor@internal@tbb@@QAEXAAVthread_context@123@@Z 10043fd6 f   concurrent_monitor.obj
 0001:00042ff1       __unwindfunclet$?notify_one_relaxed@concurrent_monitor@internal@tbb@@QAEXXZ$0 10043ff1 f   concurrent_monitor.obj
 0001:00042ff9       __ehhandler$?notify_one_relaxed@concurrent_monitor@internal@tbb@@QAEXXZ 10043ff9 f   concurrent_monitor.obj
 0001:00043014       __unwindfunclet$?notify_all_relaxed@concurrent_monitor@internal@tbb@@QAEXXZ$0 10044014 f   concurrent_monitor.obj
 0001:0004301c       __unwindfunclet$?notify_all_relaxed@concurrent_monitor@internal@tbb@@QAEXXZ$1 1004401c f   concurrent_monitor.obj
 0001:00043024       __ehhandler$?notify_all_relaxed@concurrent_monitor@internal@tbb@@QAEXXZ 10044024 f   concurrent_monitor.obj
 0001:0004303f       __unwindfunclet$?abort_all_relaxed@concurrent_monitor@internal@tbb@@QAEXXZ$0 1004403f f   concurrent_monitor.obj
 0001:00043047       __unwindfunclet$?abort_all_relaxed@concurrent_monitor@internal@tbb@@QAEXXZ$1 10044047 f   concurrent_monitor.obj
 0001:0004304f       __ehhandler$?abort_all_relaxed@concurrent_monitor@internal@tbb@@QAEXXZ 1004404f f   concurrent_monitor.obj
 0001:00043070       __unwindfunclet$?wake_some@private_server@rml@internal@tbb@@AAEXH@Z$1 10044070 f   private_server.obj
 0001:00043078       __ehhandler$?wake_some@private_server@rml@internal@tbb@@AAEXH@Z 10044078 f   private_server.obj
 0001:00043093       __ehhandler$??1private_server@rml@internal@tbb@@EAE@XZ 10044093 f   private_server.obj
 0001:000430b0       __unwindfunclet$??0padded_private_worker@rml@internal@tbb@@QAE@AAVprivate_server@123@AAVtbb_client@123@I@Z$0 100440b0 f   private_server.obj
 0001:000430b8       __ehhandler$??0padded_private_worker@rml@internal@tbb@@QAE@AAVprivate_server@123@AAVtbb_client@123@I@Z 100440b8 f   private_server.obj
 0001:000430e0       __unwindfunclet$??0private_worker@rml@internal@tbb@@IAE@AAVprivate_server@123@AAVtbb_client@123@I@Z$0 100440e0 f   private_server.obj
 0001:000430eb       __ehhandler$??0private_worker@rml@internal@tbb@@IAE@AAVprivate_server@123@AAVtbb_client@123@I@Z 100440eb f   private_server.obj
 0001:00043110       __unwindfunclet$??0thread_monitor@internal@rml@@QAE@XZ$0 10044110 f   private_server.obj
 0001:0004311b       __ehhandler$??0thread_monitor@internal@rml@@QAE@XZ 1004411b f   private_server.obj
 0001:00043140       __unwindfunclet$?try_insert_in_asleep_list@private_server@rml@internal@tbb@@AAE_NAAVprivate_worker@234@@Z$0 10044140 f   private_server.obj
 0001:00043148       __ehhandler$?try_insert_in_asleep_list@private_server@rml@internal@tbb@@AAE_NAAVprivate_worker@234@@Z 10044148 f   private_server.obj
 0001:00043170       __ehhandler$??1task_group_context@tbb@@QAE@XZ 10044170 f   task_group_context.obj
 0001:0004318b       __ehhandler$?register_pending_exception@task_group_context@tbb@@QAEXXZ 1004418b f   task_group_context.obj
 0001:000431a6       __unwindfunclet$?register_with@task_group_context@tbb@@QAEXPAVgeneric_scheduler@internal@2@@Z$0 100441a6 f   task_group_context.obj
 0001:000431ae       __ehhandler$?register_with@task_group_context@tbb@@QAEXPAVgeneric_scheduler@internal@2@@Z 100441ae f   task_group_context.obj
 0001:000431c9       __unwindfunclet$?allocate@tbb_exception_ptr@internal@tbb@@SAPAV123@XZ$0 100441c9 f   task_group_context.obj
 0001:000431d1       __ehhandler$?allocate@tbb_exception_ptr@internal@tbb@@SAPAV123@XZ 100441d1 f   task_group_context.obj
 0001:000431ec       __unwindfunclet$?allocate@tbb_exception_ptr@internal@tbb@@SAPAV123@ABVtbb_exception@3@@Z$0 100441ec f   task_group_context.obj
 0001:000431f4       __ehhandler$?allocate@tbb_exception_ptr@internal@tbb@@SAPAV123@ABVtbb_exception@3@@Z 100441f4 f   task_group_context.obj
 0001:00043210       __ehhandler$??$make_exception_ptr@Vcaptured_exception@tbb@@@std@@YA?AVexception_ptr@0@Vcaptured_exception@tbb@@@Z 10044210 f   task_group_context.obj
 0001:00043230       __unwindfunclet$??$propagate_task_group_state@H@generic_scheduler@internal@tbb@@QAEXPQtask_group_context@2@HAAV32@H@Z$0 10044230 f   task_group_context.obj
 0001:00043238       __ehhandler$??$propagate_task_group_state@H@generic_scheduler@internal@tbb@@QAEXPQtask_group_context@2@HAAV32@H@Z 10044238 f   task_group_context.obj
 0001:00043260       __unwindfunclet$??$propagate_task_group_state@H@market@internal@tbb@@QAE_NPQtask_group_context@2@HAAV32@H@Z$0 10044260 f   task_group_context.obj
 0001:00043268       __ehhandler$??$propagate_task_group_state@H@market@internal@tbb@@QAE_NPQtask_group_context@2@HAAV32@H@Z 10044268 f   task_group_context.obj
 0001:00043290       __unwindfunclet$??$propagate_task_group_state@I@generic_scheduler@internal@tbb@@QAEXPQtask_group_context@2@IAAV32@I@Z$0 10044290 f   task_group_context.obj
 0001:00043298       __ehhandler$??$propagate_task_group_state@I@generic_scheduler@internal@tbb@@QAEXPQtask_group_context@2@IAAV32@I@Z 10044298 f   task_group_context.obj
 0001:000432c0       __unwindfunclet$??$propagate_task_group_state@I@market@internal@tbb@@QAE_NPQtask_group_context@2@IAAV32@I@Z$0 100442c0 f   task_group_context.obj
 0001:000432c8       __ehhandler$??$propagate_task_group_state@I@market@internal@tbb@@QAE_NPQtask_group_context@2@IAAV32@I@Z 100442c8 f   task_group_context.obj
 0001:000432f0       __ehhandler$??0exception_ptr@std@@QAE@ABV01@@Z 100442f0 f   task_group_context.obj
 0001:00043310       __ehhandler$??0exception_ptr@std@@QAE@XZ 10044310 f   task_group_context.obj
 0001:00043330       __ehhandler$??1exception_ptr@std@@QAE@XZ 10044330 f   task_group_context.obj
 0001:00043350       __ehhandler$??3tbb_exception@tbb@@SAXPAX@Z 10044350 f   task_group_context.obj
 0001:00043370       __unwindfunclet$?_Copy_exception@exception_ptr@std@@SA?AV12@PAXPBX@Z$0 10044370 f   task_group_context.obj
 0001:00043378       __ehhandler$?_Copy_exception@exception_ptr@std@@SA?AV12@PAXPBX@Z 10044378 f   task_group_context.obj
 0001:000433a0       __ehhandler$?_Current_exception@exception_ptr@std@@SA?AV12@XZ 100443a0 f   task_group_context.obj
 0001:000433c0       __unwindfunclet$??0market@internal@tbb@@AAE@III@Z$0 100443c0 f   market.obj
 0001:000433cb       __ehhandler$??0market@internal@tbb@@AAE@III@Z 100443cb f   market.obj
 0001:000433e6       __unwindfunclet$?global_market@market@internal@tbb@@CAAAV123@_NII@Z$0 100443e6 f   market.obj
 0001:000433ee       __ehhandler$?global_market@market@internal@tbb@@CAAAV123@_NII@Z 100443ee f   market.obj
 0001:00043409       __unwindfunclet$?arena_in_need@market@internal@tbb@@AAEPAVarena@23@PAV423@@Z$0 10044409 f   market.obj
 0001:00043411       __ehhandler$?arena_in_need@market@internal@tbb@@AAEPAVarena@23@PAV423@@Z 10044411 f   market.obj
 0001:0004342c       __unwindfunclet$?create_arena@market@internal@tbb@@SAPAVarena@23@HHI@Z$0 1004442c f   market.obj
 0001:00043434       __ehhandler$?create_arena@market@internal@tbb@@SAPAVarena@23@HHI@Z 10044434 f   market.obj
 0001:0004344f       __unwindfunclet$?release@market@internal@tbb@@QAE_N_N0@Z$0 1004444f f   market.obj
 0001:00043457       __ehhandler$?release@market@internal@tbb@@QAE_N_N0@Z 10044457 f   market.obj
 0001:00043472       __unwindfunclet$?mandatory_concurrency_enable@market@internal@tbb@@QAE_NPAVarena@23@@Z$0 10044472 f   market.obj
 0001:0004347a       __ehhandler$?mandatory_concurrency_enable@market@internal@tbb@@QAE_NPAVarena@23@@Z 1004447a f   market.obj
 0001:00043495       __unwindfunclet$?mandatory_concurrency_disable@market@internal@tbb@@QAEXPAVarena@23@@Z$0 10044495 f   market.obj
 0001:0004349d       __ehhandler$?mandatory_concurrency_disable@market@internal@tbb@@QAEXPAVarena@23@@Z 1004449d f   market.obj
 0001:000434b8       __unwindfunclet$?set_active_num_workers@market@internal@tbb@@SAXI@Z$1 100444b8 f   market.obj
 0001:000434c0       __ehhandler$?set_active_num_workers@market@internal@tbb@@SAXI@Z 100444c0 f   market.obj
 0001:000434db       __unwindfunclet$?lower_arena_priority@market@internal@tbb@@QAE_NAAVarena@23@HI@Z$0 100444db f   market.obj
 0001:000434e3       __ehhandler$?lower_arena_priority@market@internal@tbb@@QAE_NAAVarena@23@HI@Z 100444e3 f   market.obj
 0001:000434fe       __unwindfunclet$?update_arena_priority@market@internal@tbb@@QAE_NAAVarena@23@H@Z$0 100444fe f   market.obj
 0001:00043506       __ehhandler$?update_arena_priority@market@internal@tbb@@QAE_NAAVarena@23@H@Z 10044506 f   market.obj
 0001:00043530       __ehhandler$??1scoped_lock@spin_rw_mutex_v3@tbb@@QAE@XZ 10044530 f   market.obj
 0001:00043550       __ehhandler$??1spin_rw_mutex_v3@tbb@@QAE@XZ 10044550 f   market.obj
 0001:00043570       __unwindfunclet$?internal_execute@task_arena_base@internal@interface7@tbb@@IBEXAAVdelegate_base@234@@Z$2 10044570 f   arena.obj
 0001:00043587       __unwindfunclet$?internal_execute@task_arena_base@internal@interface7@tbb@@IBEXAAVdelegate_base@234@@Z$3 10044587 f   arena.obj
 0001:0004358f       __unwindfunclet$?internal_execute@task_arena_base@internal@interface7@tbb@@IBEXAAVdelegate_base@234@@Z$4 1004458f f   arena.obj
 0001:0004359a       __unwindfunclet$?internal_execute@task_arena_base@internal@interface7@tbb@@IBEXAAVdelegate_base@234@@Z$5 1004459a f   arena.obj
 0001:000435a5       __unwindfunclet$?internal_execute@task_arena_base@internal@interface7@tbb@@IBEXAAVdelegate_base@234@@Z$6 100445a5 f   arena.obj
 0001:000435bc       __unwindfunclet$?internal_execute@task_arena_base@internal@interface7@tbb@@IBEXAAVdelegate_base@234@@Z$7 100445bc f   arena.obj
 0001:000435c7       __unwindfunclet$?internal_execute@task_arena_base@internal@interface7@tbb@@IBEXAAVdelegate_base@234@@Z$8 100445c7 f   arena.obj
 0001:000435d2       __unwindfunclet$?internal_execute@task_arena_base@internal@interface7@tbb@@IBEXAAVdelegate_base@234@@Z$9 100445d2 f   arena.obj
 0001:000435dd       __unwindfunclet$?internal_execute@task_arena_base@internal@interface7@tbb@@IBEXAAVdelegate_base@234@@Z$10 100445dd f   arena.obj
 0001:000435e8       __ehhandler$?internal_execute@task_arena_base@internal@interface7@tbb@@IBEXAAVdelegate_base@234@@Z 100445e8 f   arena.obj
 0001:00043610       __unwindfunclet$?internal_wait@task_arena_base@internal@interface7@tbb@@IBEXXZ$0 10044610 f   arena.obj
 0001:00043618       __unwindfunclet$?internal_wait@task_arena_base@internal@interface7@tbb@@IBEXXZ$1 10044618 f   arena.obj
 0001:00043620       __unwindfunclet$?internal_wait@task_arena_base@internal@interface7@tbb@@IBEXXZ$2 10044620 f   arena.obj
 0001:00043631       __ehhandler$?internal_wait@task_arena_base@internal@interface7@tbb@@IBEXXZ 10044631 f   arena.obj
 0001:0004364c       __unwindfunclet$?isolate_within_arena@internal@interface7@tbb@@YAXAAVdelegate_base@123@H@Z$0 1004464c f   arena.obj
 0001:00043654       __ehhandler$?isolate_within_arena@internal@interface7@tbb@@YAXAAVdelegate_base@123@H@Z 10044654 f   arena.obj
 0001:0004366f       __unwindfunclet$??0arena@internal@tbb@@QAE@AAVmarket@12@II@Z$0 1004466f f   arena.obj
 0001:00043677       __ehhandler$??0arena@internal@tbb@@QAE@AAVmarket@12@II@Z 10044677 f   arena.obj
 0001:000436a0       __unwindfunclet$??$_Uninitialized_copy_al_unchecked@PAPAPAVtask@tbb@@PAPAPAV12@V?$tbb_allocator@PAPAVtask@tbb@@@2@@std@@YAPAPAPAVtask@tbb@@PAPAPAV12@QAPAPAV12@1AAV?$tbb_allocator@PAPAVtask@tbb@@@2@U_General_ptr_iterator_tag@0@U_Unused_parameter@0@@Z$0 100446a0 f   arena.obj
 0001:000436a8       __ehhandler$??$_Uninitialized_copy_al_unchecked@PAPAPAVtask@tbb@@PAPAPAV12@V?$tbb_allocator@PAPAVtask@tbb@@@2@@std@@YAPAPAPAVtask@tbb@@PAPAPAV12@QAPAPAV12@1AAV?$tbb_allocator@PAPAVtask@tbb@@@2@U_General_ptr_iterator_tag@0@U_Unused_parameter@0@@Z 100446a8 f   arena.obj
 0001:000436d0       __unwindfunclet$??$_Uninitialized_value_construct_n1@PAPAPAVtask@tbb@@IV?$tbb_allocator@PAPAVtask@tbb@@@2@@std@@YAPAPAPAVtask@tbb@@QAPAPAV12@IAAV?$tbb_allocator@PAPAVtask@tbb@@@2@U?$integral_constant@_N$0A@@0@@Z$0 100446d0 f   arena.obj
 0001:000436d8       __ehhandler$??$_Uninitialized_value_construct_n1@PAPAPAVtask@tbb@@IV?$tbb_allocator@PAPAVtask@tbb@@@2@@std@@YAPAPAPAVtask@tbb@@QAPAPAV12@IAAV?$tbb_allocator@PAPAVtask@tbb@@@2@U?$integral_constant@_N$0A@@0@@Z 100446d8 f   arena.obj
 0001:00043700       __unwindfunclet$??$notify_relaxed@Vdelegated_task@internal@interface7@tbb@@@concurrent_monitor@internal@tbb@@QAEXABVdelegated_task@1interface7@2@@Z$0 10044700 f   arena.obj
 0001:00043708       __unwindfunclet$??$notify_relaxed@Vdelegated_task@internal@interface7@tbb@@@concurrent_monitor@internal@tbb@@QAEXABVdelegated_task@1interface7@2@@Z$1 10044708 f   arena.obj
 0001:00043710       __ehhandler$??$notify_relaxed@Vdelegated_task@internal@interface7@tbb@@@concurrent_monitor@internal@tbb@@QAEXABVdelegated_task@1interface7@2@@Z 10044710 f   arena.obj
 0001:00043730       __unwindfunclet$??0?$_Deque_const_iterator@V?$_Deque_val@U?$_Deque_simple_types@PAVtask@tbb@@@std@@@std@@@std@@QAE@IPBU_Container_base12@1@@Z$0 10044730 f   arena.obj
 0001:00043738       __ehhandler$??0?$_Deque_const_iterator@V?$_Deque_val@U?$_Deque_simple_types@PAVtask@tbb@@@std@@@std@@@std@@QAE@IPBU_Container_base12@1@@Z 10044738 f   arena.obj
 0001:00043760       __unwindfunclet$??0?$queue_and_mutex@PAVtask@tbb@@Vspin_mutex@2@@internal@tbb@@QAE@XZ$0 10044760 f   arena.obj
 0001:00043768       __ehhandler$??0?$queue_and_mutex@PAVtask@tbb@@Vspin_mutex@2@@internal@tbb@@QAE@XZ 10044768 f   arena.obj
 0001:00043790       __unwindfunclet$??0arena_base@internal@tbb@@QAE@XZ$0 10044790 f   arena.obj
 0001:0004379e       __ehhandler$??0arena_base@internal@tbb@@QAE@XZ 1004479e f   arena.obj
 0001:000437c0       __ehhandler$??1?$_Deque_alloc@U?$_Deque_base_types@PAVtask@tbb@@V?$tbb_allocator@PAVtask@tbb@@@2@@std@@@std@@QAE@XZ 100447c0 f   arena.obj
 0001:000437e0       __ehhandler$??1?$_Uninitialized_backout_al@PAPAPAVtask@tbb@@V?$tbb_allocator@PAPAVtask@tbb@@@2@@std@@QAE@XZ 100447e0 f   arena.obj
 0001:00043800       __ehhandler$??1?$context_guard_helper@$0A@@internal@tbb@@QAE@XZ 10044800 f   arena.obj
 0001:00043820       __ehhandler$??1?$deque@PAVtask@tbb@@V?$tbb_allocator@PAVtask@tbb@@@2@@std@@QAE@XZ 10044820 f   arena.obj
 0001:00043840       __ehhandler$??1_Iterator_base12@std@@QAE@XZ 10044840 f   arena.obj
 0001:00043860       __ehhandler$??1auto_empty_task@internal@tbb@@QAE@XZ 10044860 f   arena.obj
 0001:00043880       __ehhandler$??1delegated_task@internal@interface7@tbb@@EAE@XZ 10044880 f   arena.obj
 0001:000438a0       __ehhandler$??1nested_arena_context@internal@tbb@@QAE@XZ 100448a0 f   arena.obj
 0001:000438c0       __ehhandler$??1outermost_context@?1??execute@delegated_task@internal@interface7@tbb@@EAEPAVtask@5@XZ@QAE@XZ 100448c0 f   arena.obj
 0001:000438e0       __ehhandler$??_E?$padded@U?$queue_and_mutex@PAVtask@tbb@@Vspin_mutex@2@@internal@tbb@@$0IA@@internal@tbb@@QAEPAXI@Z 100448e0 f   arena.obj
 0001:00043900       __ehhandler$?_Adopt@_Iterator_base12@std@@QAEXPBU_Container_base12@2@@Z 10044900 f   arena.obj
 0001:00043920       __ehhandler$?_Orphan_all@_Container_base12@std@@QAEXXZ 10044920 f   arena.obj
 0001:00043940       __ehhandler$?_Orphan_me@_Iterator_base12@std@@QAEXXZ 10044940 f   arena.obj
 0001:00043960       __unwindfunclet$?_Orphan_off@?$deque@PAVtask@tbb@@V?$tbb_allocator@PAVtask@tbb@@@2@@std@@IBEXI@Z$0 10044960 f   arena.obj
 0001:00043972       __ehhandler$?_Orphan_off@?$deque@PAVtask@tbb@@V?$tbb_allocator@PAVtask@tbb@@@2@@std@@IBEXI@Z 10044972 f   arena.obj
 0001:00043990       __ehhandler$?begin@?$deque@PAVtask@tbb@@V?$tbb_allocator@PAVtask@tbb@@@2@@std@@QAE?AV?$_Deque_iterator@V?$_Deque_val@U?$_Deque_simple_types@PAVtask@tbb@@@std@@@std@@@2@XZ 10044990 f   arena.obj
 0001:000439b0       __ehhandler$?clear@?$deque@PAVtask@tbb@@V?$tbb_allocator@PAVtask@tbb@@@2@@std@@QAEXXZ 100449b0 f   arena.obj
 0001:000439d0       __unwindfunclet$?drain@?$task_stream@$02@internal@tbb@@QAEHXZ$0 100449d0 f   arena.obj
 0001:000439d8       __unwindfunclet$?drain@?$task_stream@$02@internal@tbb@@QAEHXZ$1 100449d8 f   arena.obj
 0001:000439e0       __unwindfunclet$?drain@?$task_stream@$02@internal@tbb@@QAEHXZ$2 100449e0 f   arena.obj
 0001:000439e8       __ehhandler$?drain@?$task_stream@$02@internal@tbb@@QAEHXZ 100449e8 f   arena.obj
 0001:00043a10       __ehhandler$?end@?$deque@PAVtask@tbb@@V?$tbb_allocator@PAVtask@tbb@@@2@@std@@QAE?AV?$_Deque_iterator@V?$_Deque_val@U?$_Deque_simple_types@PAVtask@tbb@@@std@@@std@@@2@XZ 10044a10 f   arena.obj
 0001:00043a30       __unwindfunclet$?execute@delegated_task@internal@interface7@tbb@@EAEPAVtask@4@XZ$0 10044a30 f   arena.obj
 0001:00043a38       __ehhandler$?execute@delegated_task@internal@interface7@tbb@@EAEPAVtask@4@XZ 10044a38 f   arena.obj
 0001:00043a60       __unwindfunclet$?initialize@?$task_stream@$02@internal@tbb@@QAEXI@Z$0 10044a60 f   arena.obj
 0001:00043a8d       __ehhandler$?initialize@?$task_stream@$02@internal@tbb@@QAEXI@Z 10044a8d f   arena.obj
 0001:00043ab0       __unwindfunclet$?push@?$task_stream@$02@internal@tbb@@QAEXPAVtask@3@HAAVFastRandom@23@@Z$0 10044ab0 f   arena.obj
 0001:00043ab8       __ehhandler$?push@?$task_stream@$02@internal@tbb@@QAEXPAVtask@3@HAAVFastRandom@23@@Z 10044ab8 f   arena.obj
 0001:00043ae0       __unwindfunclet$?rethrow_exception@std@@YAXVexception_ptr@1@@Z$0 10044ae0 f   arena.obj
 0001:00043ae8       __ehhandler$?rethrow_exception@std@@YAXVexception_ptr@1@@Z 10044ae8 f   arena.obj
 0001:00043b10       __unwindfunclet$?create_master@generic_scheduler@internal@tbb@@SAPAV123@PAVarena@23@@Z$0 10044b10 f   scheduler.obj
 0001:00043b18       __ehhandler$?create_master@generic_scheduler@internal@tbb@@SAPAV123@PAVarena@23@@Z 10044b18 f   scheduler.obj
 0001:00043b33       __unwindfunclet$?cleanup_master@generic_scheduler@internal@tbb@@QAE_N_N@Z$0 10044b33 f   scheduler.obj
 0001:00043b3b       __ehhandler$?cleanup_master@generic_scheduler@internal@tbb@@QAE_N_N@Z 10044b3b f   scheduler.obj
 0001:00043b56       __unwindfunclet$??0generic_scheduler@internal@tbb@@IAE@AAVmarket@12@@Z$0 10044b56 f   scheduler.obj
 0001:00043b5e       __ehhandler$??0generic_scheduler@internal@tbb@@IAE@AAVmarket@12@@Z 10044b5e f   scheduler.obj
 0001:00043b79       __unwindfunclet$?local_spawn@generic_scheduler@internal@tbb@@QAEXPAVtask@3@AAPAV43@@Z$0 10044b79 f   scheduler.obj
 0001:00043b84       __ehhandler$?local_spawn@generic_scheduler@internal@tbb@@QAEXPAVtask@3@AAPAV43@@Z 10044b84 f   scheduler.obj
 0001:00043bac       __unwindfunclet$?local_spawn_root_and_wait@generic_scheduler@internal@tbb@@QAEXPAVtask@3@AAPAV43@@Z$0 10044bac f   scheduler.obj
 0001:00043bb4       __ehhandler$?local_spawn_root_and_wait@generic_scheduler@internal@tbb@@QAEXPAVtask@3@AAPAV43@@Z 10044bb4 f   scheduler.obj
 0001:00043bcf       __unwindfunclet$?reload_tasks@generic_scheduler@internal@tbb@@QAEPAVtask@3@AAPAV43@AAPAPAV43@HH@Z$0 10044bcf f   scheduler.obj
 0001:00043bda       __ehhandler$?reload_tasks@generic_scheduler@internal@tbb@@QAEPAVtask@3@AAPAV43@AAPAPAV43@HH@Z 10044bda f   scheduler.obj
 0001:00043c02       __unwindfunclet$?winnow_task_pool@generic_scheduler@internal@tbb@@QAEPAVtask@3@H@Z$0 10044c02 f   scheduler.obj
 0001:00043c0a       __ehhandler$?winnow_task_pool@generic_scheduler@internal@tbb@@QAEPAVtask@3@H@Z 10044c0a f   scheduler.obj
 0001:00043c25       __unwindfunclet$?cleanup_local_context_list@generic_scheduler@internal@tbb@@QAEXXZ$0 10044c25 f   scheduler.obj
 0001:00043c2d       __ehhandler$?cleanup_local_context_list@generic_scheduler@internal@tbb@@QAEXXZ 10044c2d f   scheduler.obj
 0001:00043c50       __ehhandler$??1?$context_guard_helper@$00@internal@tbb@@QAE@XZ 10044c50 f   scheduler.obj
 0001:00043c70       __ehhandler$??1?$fast_reverse_vector@PAVtask@tbb@@$0BA@@internal@tbb@@QAE@XZ 10044c70 f   scheduler.obj
 0001:00043c90       __unwindfunclet$?front@?$deque@PAVtask@tbb@@V?$tbb_allocator@PAVtask@tbb@@@2@@std@@QAEAAPAVtask@tbb@@XZ$0 10044c90 f   scheduler.obj
 0001:00043c98       __ehhandler$?front@?$deque@PAVtask@tbb@@V?$tbb_allocator@PAVtask@tbb@@@2@@std@@QAEAAPAVtask@tbb@@XZ 10044c98 f   scheduler.obj
 0001:00043cc0       __unwindfunclet$?local_wait_for_all@?$custom_scheduler@UDefaultSchedulerTraits@internal@tbb@@@internal@tbb@@EAEXAAVtask@3@PAV43@@Z$7 10044cc0 f   scheduler.obj
 0001:00043cc8       __ehhandler$?local_wait_for_all@?$custom_scheduler@UDefaultSchedulerTraits@internal@tbb@@@internal@tbb@@EAEXAAVtask@3@PAV43@@Z 10044cc8 f   scheduler.obj
 0001:00043cf0       __unwindfunclet$?local_wait_for_all@?$custom_scheduler@UIntelSchedulerTraits@internal@tbb@@@internal@tbb@@EAEXAAVtask@3@PAV43@@Z$7 10044cf0 f   scheduler.obj
 0001:00043cf8       __ehhandler$?local_wait_for_all@?$custom_scheduler@UIntelSchedulerTraits@internal@tbb@@@internal@tbb@@EAEXAAVtask@3@PAV43@@Z 10044cf8 f   scheduler.obj
 0001:00043d20       __unwindfunclet$?pop@?$task_stream@$02@internal@tbb@@QAEPAVtask@3@HAAI@Z$0 10044d20 f   scheduler.obj
 0001:00043d28       __ehhandler$?pop@?$task_stream@$02@internal@tbb@@QAEPAVtask@3@HAAI@Z 10044d28 f   scheduler.obj
 0001:00043d50       __unwindfunclet$?observe@task_scheduler_observer_v3@internal@tbb@@QAEX_N@Z$0 10044d50 f   observer_proxy.obj
 0001:00043d5f       __unwindfunclet$?observe@task_scheduler_observer_v3@internal@tbb@@QAEX_N@Z$1 10044d5f f   observer_proxy.obj
 0001:00043d67       __ehhandler$?observe@task_scheduler_observer_v3@internal@tbb@@QAEX_N@Z 10044d67 f   observer_proxy.obj
 0001:00043d82       __unwindfunclet$?do_notify_entry_observers@observer_list@internal@tbb@@AAEXAAPAVobserver_proxy@23@_N@Z$0 10044d82 f   observer_proxy.obj
 0001:00043d8a       __ehhandler$?do_notify_entry_observers@observer_list@internal@tbb@@AAEXAAPAVobserver_proxy@23@_N@Z 10044d8a f   observer_proxy.obj
 0001:00043da5       __unwindfunclet$?do_notify_exit_observers@observer_list@internal@tbb@@AAEXPAVobserver_proxy@23@_N@Z$0 10044da5 f   observer_proxy.obj
 0001:00043dad       __ehhandler$?do_notify_exit_observers@observer_list@internal@tbb@@AAEXPAVobserver_proxy@23@_N@Z 10044dad f   observer_proxy.obj
 0001:00043dc8       __unwindfunclet$?clear@observer_list@internal@tbb@@QAEXXZ$0 10044dc8 f   observer_proxy.obj
 0001:00043dd0       __ehhandler$?clear@observer_list@internal@tbb@@QAEXXZ 10044dd0 f   observer_proxy.obj
 0001:00043deb       __unwindfunclet$?remove_ref@observer_list@internal@tbb@@QAEXPAVobserver_proxy@23@@Z$0 10044deb f   observer_proxy.obj
 0001:00043df3       __ehhandler$?remove_ref@observer_list@internal@tbb@@QAEXPAVobserver_proxy@23@@Z 10044df3 f   observer_proxy.obj
 0001:00043e0e       __ehhandler$??1observer_proxy@internal@tbb@@AAE@XZ 10044e0e f   observer_proxy.obj
 0001:00043e30       __ehhandler$??1check_observer_proxy_count@internal@tbb@@QAE@XZ 10044e30 f   observer_proxy.obj
 0001:00043e50       __unwindfunclet$?internal_create@global_control@interface9@tbb@@AAEXXZ$0 10044e50 f   tbb_main.obj
 0001:00043e58       __ehhandler$?internal_create@global_control@interface9@tbb@@AAEXXZ 10044e58 f   tbb_main.obj
 0001:00043e73       __unwindfunclet$?internal_destroy@global_control@interface9@tbb@@AAEXXZ$0 10044e73 f   tbb_main.obj
 0001:00043e7b       __ehhandler$?internal_destroy@global_control@interface9@tbb@@AAEXXZ 10044e7b f   tbb_main.obj
 0001:00043ea0       __ehhandler$??1concurrent_queue_base@internal@tbb@@MAE@XZ 10044ea0 f   concurrent_queue_v2.obj
 0001:00043ebb       __unwindfunclet$??0concurrent_queue_iterator_base@internal@tbb@@IAE@ABVconcurrent_queue_base@12@@Z$0 10044ebb f   concurrent_queue_v2.obj
 0001:00043eca       __ehhandler$??0concurrent_queue_iterator_base@internal@tbb@@IAE@ABVconcurrent_queue_base@12@@Z 10044eca f   concurrent_queue_v2.obj
 0001:00043ee5       __unwindfunclet$?push@micro_queue@internal@tbb@@QAEXPBXIAAVconcurrent_queue_base@23@@Z$0 10044ee5 f   concurrent_queue_v2.obj
 0001:00043eed       __unwindfunclet$?push@micro_queue@internal@tbb@@QAEXPBXIAAVconcurrent_queue_base@23@@Z$1 10044eed f   concurrent_queue_v2.obj
 0001:00043ef5       __ehhandler$?push@micro_queue@internal@tbb@@QAEXPBXIAAVconcurrent_queue_base@23@@Z 10044ef5 f   concurrent_queue_v2.obj
 0001:00043f10       __unwindfunclet$?pop@micro_queue@internal@tbb@@QAE_NPAXIAAVconcurrent_queue_base@23@@Z$0 10044f10 f   concurrent_queue_v2.obj
 0001:00043f18       __ehhandler$?pop@micro_queue@internal@tbb@@QAE_NPAXIAAVconcurrent_queue_base@23@@Z 10044f18 f   concurrent_queue_v2.obj
 0001:00043f40       __ehhandler$??1pop_finalizer@micro_queue@internal@tbb@@QAE@XZ 10044f40 f   concurrent_queue_v2.obj
 0001:00043f60       __ehhandler$??1push_finalizer@micro_queue@internal@tbb@@QAE@XZ 10044f60 f   concurrent_queue_v2.obj
 0001:00043f80       ??__Fthe_dummy_context@internal@tbb@@YAXXZ 10044f80 f   scheduler.obj
 0001:00043fa0       ??__Fthe_check_observer_proxy_count@internal@tbb@@YAXXZ 10044fa0 f   observer_proxy.obj
 0002:00000208       ?static_init_dl_data$initializer$@internal@tbb@@3P6AXXZA 10045208     dynamic_link.obj
 0002:0000020c       ?the_context_state_propagation_mutex$initializer$@internal@tbb@@3P6AXXZA 1004520c     scheduler.obj
 0002:00000210       ?the_dummy_context$initializer$@internal@tbb@@3P6AXXZA 10045210     scheduler.obj
 0002:00000214       ?the_global_observer_list$initializer$@internal@tbb@@3P6AXXZA 10045214     observer_proxy.obj
 0002:00000218       ?the_check_observer_proxy_count$initializer$@internal@tbb@@3P6AXXZA 10045218     observer_proxy.obj
 0002:0000021c       ??theMarketMutex$initializer$@market@internal@tbb@@0P6AXXZA@@3P6AXXZA 1004521c     tbb_main.obj
 0002:00000220       ?allowed_parallelism_ctl$initializer$@internal@tbb@@3P6AXXZA 10045220     tbb_main.obj
 0002:00000224       ?stack_size_ctl$initializer$@internal@tbb@@3P6AXXZA 10045224     tbb_main.obj
 0002:00000250       ___itt_null                10045250     concurrent_queue.obj
 0002:00000268       $SG132460                  10045268     concurrent_queue.obj
 0002:00000290       $SG132461                  10045290     concurrent_queue.obj
 0002:000002b8       $SG132499                  100452b8     concurrent_queue.obj
 0002:000002bc       $SG132500                  100452bc     concurrent_queue.obj
 0002:000002e4       $SG132524                  100452e4     concurrent_queue.obj
 0002:000002f8       $SG132525                  100452f8     concurrent_queue.obj
 0002:00000320       $SG132545                  10045320     concurrent_queue.obj
 0002:00000348       $SG132546                  10045348     concurrent_queue.obj
 0002:00000370       $SG132644                  10045370     concurrent_queue.obj
 0002:00000380       $SG132645                  10045380     concurrent_queue.obj
 0002:000003a8       $SG132646                  100453a8     concurrent_queue.obj
 0002:000003d0       $SG132647                  100453d0     concurrent_queue.obj
 0002:000003e0       $SG132648                  100453e0     concurrent_queue.obj
 0002:00000418       $SG132649                  10045418     concurrent_queue.obj
 0002:00000440       $SG132650                  10045440     concurrent_queue.obj
 0002:00000450       $SG132651                  10045450     concurrent_queue.obj
 0002:00000488       $SG132652                  10045488     concurrent_queue.obj
 0002:000004b0       $SG132653                  100454b0     concurrent_queue.obj
 0002:000004c0       $SG132654                  100454c0     concurrent_queue.obj
 0002:000004f0       $SG132655                  100454f0     concurrent_queue.obj
 0002:00000518       $SG132670                  10045518     concurrent_queue.obj
 0002:00000538       $SG132671                  10045538     concurrent_queue.obj
 0002:00000558       $SG132672                  10045558     concurrent_queue.obj
 0002:00000580       $SG132720                  10045580     concurrent_queue.obj
 0002:000005ac       $SG132721                  100455ac     concurrent_queue.obj
 0002:000005d4       $SG132752                  100455d4     concurrent_queue.obj
 0002:000005f4       $SG132753                  100455f4     concurrent_queue.obj
 0002:0000061c       $SG132804                  1004561c     concurrent_queue.obj
 0002:00000640       $SG132805                  10045640     concurrent_queue.obj
 0002:00000668       $SG132826                  10045668     concurrent_queue.obj
 0002:00000688       $SG132827                  10045688     concurrent_queue.obj
 0002:000006a8       $SG132828                  100456a8     concurrent_queue.obj
 0002:000006d0       $SG132844                  100456d0     concurrent_queue.obj
 0002:00000714       $SG132846                  10045714     concurrent_queue.obj
 0002:00000740       $SG132845                  10045740     concurrent_queue.obj
 0002:000007a4       $SG132984                  100457a4     concurrent_queue.obj
 0002:000007d4       $SG132985                  100457d4     concurrent_queue.obj
 0002:000007dc       $SG132986                  100457dc     concurrent_queue.obj
 0002:00000804       $SG132987                  10045804     concurrent_queue.obj
 0002:00000814       $SG132988                  10045814     concurrent_queue.obj
 0002:000009f0       ___itt_null                100459f0     concurrent_vector.obj
 0002:00000a08       $SG59759                   10045a08     concurrent_vector.obj
 0002:00000a78       $SG59760                   10045a78     concurrent_vector.obj
 0002:00000a8c       $SG59761                   10045a8c     concurrent_vector.obj
 0002:00000ab8       $SG59836                   10045ab8     concurrent_vector.obj
 0002:00000adc       $SG59837                   10045adc     concurrent_vector.obj
 0002:00000b08       $SG59838                   10045b08     concurrent_vector.obj
 0002:00000b34       $SG59891                   10045b34     concurrent_vector.obj
 0002:00000b5c       $SG59892                   10045b5c     concurrent_vector.obj
 0002:00000b88       $SG59915                   10045b88     concurrent_vector.obj
 0002:00000be0       $SG59916                   10045be0     concurrent_vector.obj
 0002:00000c18       $SG59917                   10045c18     concurrent_vector.obj
 0002:00000c44       $SG59944                   10045c44     concurrent_vector.obj
 0002:00000c48       $SG59945                   10045c48     concurrent_vector.obj
 0002:00000c74       $SG59969                   10045c74     concurrent_vector.obj
 0002:00000c90       $SG59970                   10045c90     concurrent_vector.obj
 0002:00000cbc       $SG60011                   10045cbc     concurrent_vector.obj
 0002:00000cd4       $SG60012                   10045cd4     concurrent_vector.obj
 0002:00000d00       $SG60022                   10045d00     concurrent_vector.obj
 0002:00000d5c       $SG60023                   10045d5c     concurrent_vector.obj
 0002:00000d74       $SG60024                   10045d74     concurrent_vector.obj
 0002:00000da0       $SG60041                   10045da0     concurrent_vector.obj
 0002:00000dcc       $SG60042                   10045dcc     concurrent_vector.obj
 0002:00000df8       $SG60092                   10045df8     concurrent_vector.obj
 0002:00000e10       $SG60093                   10045e10     concurrent_vector.obj
 0002:00000e3c       $SG60124                   10045e3c     concurrent_vector.obj
 0002:00000e5c       $SG60125                   10045e5c     concurrent_vector.obj
 0002:00000e6c       $SG60126                   10045e6c     concurrent_vector.obj
 0002:00000e98       $SG60158                   10045e98     concurrent_vector.obj
 0002:00000ea4       $SG60159                   10045ea4     concurrent_vector.obj
 0002:00000ed0       $SG60220                   10045ed0     concurrent_vector.obj
 0002:00000f08       $SG60221                   10045f08     concurrent_vector.obj
 0002:00001450       $SG115539                  10046450     dynamic_link.obj
 0002:00001474       $SG115540                  10046474     dynamic_link.obj
 0002:00001488       $SG115541                  10046488     dynamic_link.obj
 0002:000014ac       $SG115621                  100464ac     dynamic_link.obj
 0002:000014c0       $SG115623                  100464c0     dynamic_link.obj
 0002:000014d4       $SG115626                  100464d4     dynamic_link.obj
 0002:000014e4       $SG115627                  100464e4     dynamic_link.obj
 0002:000014f4       $SG115628                  100464f4     dynamic_link.obj
 0002:00001518       $SG115629                  10046518     dynamic_link.obj
 0002:00001528       $SG115630                  10046528     dynamic_link.obj
 0002:00001544       $SG115631                  10046544     dynamic_link.obj
 0002:00001568       $SG115715                  10046568     dynamic_link.obj
 0002:00001598       $SG115716                  10046598     dynamic_link.obj
 0002:0000159c       $SG115717                  1004659c     dynamic_link.obj
 0002:00001608       ?api_version@@3QBDB        10046608     itt_notify.obj
 0002:00001644       $SG82274                   10046644     itt_notify.obj
 0002:00001658       $SG99070                   10046658     itt_notify.obj
 0002:00001674       $SG99071                   10046674     itt_notify.obj
 0002:00001688       $SG99072                   10046688     itt_notify.obj
 0002:000016c0       $SG99073                   100466c0     itt_notify.obj
 0002:000016e4       $SG99074                   100466e4     itt_notify.obj
 0002:00001700       $SG99075                   10046700     itt_notify.obj
 0002:0000171c       $SG99076                   1004671c     itt_notify.obj
 0002:00001738       $SG99077                   10046738     itt_notify.obj
 0002:00001754       $SG99078                   10046754     itt_notify.obj
 0002:00001770       $SG99079                   10046770     itt_notify.obj
 0002:0000178c       $SG99080                   1004678c     itt_notify.obj
 0002:000017a8       $SG99081                   100467a8     itt_notify.obj
 0002:000017c4       $SG99082                   100467c4     itt_notify.obj
 0002:000017e0       $SG84381                   100467e0     itt_notify.obj
 0002:000017e4       $SG84382                   100467e4     itt_notify.obj
 0002:000017ec       $SG84383                   100467ec     itt_notify.obj
 0002:000017f4       $SG84384                   100467f4     itt_notify.obj
 0002:000017fc       $SG84385                   100467fc     itt_notify.obj
 0002:00001804       $SG84386                   10046804     itt_notify.obj
 0002:0000180c       $SG84387                   1004680c     itt_notify.obj
 0002:00001810       $SG84388                   10046810     itt_notify.obj
 0002:00001818       $SG84389                   10046818     itt_notify.obj
 0002:00001820       $SG84390                   10046820     itt_notify.obj
 0002:00001828       $SG84391                   10046828     itt_notify.obj
 0002:00001830       $SG84392                   10046830     itt_notify.obj
 0002:00001838       $SG84393                   10046838     itt_notify.obj
 0002:00001844       $SG84394                   10046844     itt_notify.obj
 0002:00001850       $SG84395                   10046850     itt_notify.obj
 0002:00001858       $SG84413                   10046858     itt_notify.obj
 0002:0000186c       $SG84414                   1004686c     itt_notify.obj
 0002:0000187c       $SG85222                   1004687c     itt_notify.obj
 0002:00001894       $SG85223                   10046894     itt_notify.obj
 0002:000018ac       $SG85224                   100468ac     itt_notify.obj
 0002:000018c8       $SG85225                   100468c8     itt_notify.obj
 0002:000018e4       $SG85226                   100468e4     itt_notify.obj
 0002:000018f0       $SG85227                   100468f0     itt_notify.obj
 0002:00001900       $SG85228                   10046900     itt_notify.obj
 0002:00001918       $SG85229                   10046918     itt_notify.obj
 0002:00001930       $SG85230                   10046930     itt_notify.obj
 0002:00001944       $SG85231                   10046944     itt_notify.obj
 0002:00001958       $SG85232                   10046958     itt_notify.obj
 0002:0000196c       $SG85233                   1004696c     itt_notify.obj
 0002:00001980       $SG85234                   10046980     itt_notify.obj
 0002:00001994       $SG85235                   10046994     itt_notify.obj
 0002:000019a4       $SG85236                   100469a4     itt_notify.obj
 0002:000019b8       $SG85237                   100469b8     itt_notify.obj
 0002:000019cc       $SG85238                   100469cc     itt_notify.obj
 0002:000019e0       $SG85239                   100469e0     itt_notify.obj
 0002:000019f4       $SG85240                   100469f4     itt_notify.obj
 0002:00001a08       $SG85241                   10046a08     itt_notify.obj
 0002:00001a1c       $SG85242                   10046a1c     itt_notify.obj
 0002:00001a30       $SG85243                   10046a30     itt_notify.obj
 0002:00001a44       $SG85244                   10046a44     itt_notify.obj
 0002:00001a5c       $SG85245                   10046a5c     itt_notify.obj
 0002:00001a70       $SG85246                   10046a70     itt_notify.obj
 0002:00001a84       $SG85247                   10046a84     itt_notify.obj
 0002:00001aa0       $SG85248                   10046aa0     itt_notify.obj
 0002:00001abc       $SG85249                   10046abc     itt_notify.obj
 0002:00001ad0       $SG85250                   10046ad0     itt_notify.obj
 0002:00001ae4       $SG85251                   10046ae4     itt_notify.obj
 0002:00001af8       $SG85252                   10046af8     itt_notify.obj
 0002:00001b10       $SG85253                   10046b10     itt_notify.obj
 0002:00001b28       $SG85254                   10046b28     itt_notify.obj
 0002:00001b40       $SG85255                   10046b40     itt_notify.obj
 0002:00001b58       $SG85256                   10046b58     itt_notify.obj
 0002:00001b70       $SG85257                   10046b70     itt_notify.obj
 0002:00001b8c       $SG85258                   10046b8c     itt_notify.obj
 0002:00001ba8       $SG85259                   10046ba8     itt_notify.obj
 0002:00001bc8       $SG85260                   10046bc8     itt_notify.obj
 0002:00001be8       $SG85261                   10046be8     itt_notify.obj
 0002:00001c04       $SG85262                   10046c04     itt_notify.obj
 0002:00001c20       $SG85263                   10046c20     itt_notify.obj
 0002:00001c3c       $SG85264                   10046c3c     itt_notify.obj
 0002:00001c54       $SG85265                   10046c54     itt_notify.obj
 0002:00001c6c       $SG85266                   10046c6c     itt_notify.obj
 0002:00001c84       $SG85267                   10046c84     itt_notify.obj
 0002:00001ca0       $SG85268                   10046ca0     itt_notify.obj
 0002:00001cb8       $SG85269                   10046cb8     itt_notify.obj
 0002:00001cd4       $SG85270                   10046cd4     itt_notify.obj
 0002:00001cec       $SG85271                   10046cec     itt_notify.obj
 0002:00001d08       $SG85272                   10046d08     itt_notify.obj
 0002:00001d24       $SG85273                   10046d24     itt_notify.obj
 0002:00001d44       $SG85274                   10046d44     itt_notify.obj
 0002:00001d5c       $SG85275                   10046d5c     itt_notify.obj
 0002:00001d74       $SG85276                   10046d74     itt_notify.obj
 0002:00001d90       $SG85277                   10046d90     itt_notify.obj
 0002:00001dac       $SG85278                   10046dac     itt_notify.obj
 0002:00001dc8       $SG85279                   10046dc8     itt_notify.obj
 0002:00001de4       $SG85280                   10046de4     itt_notify.obj
 0002:00001dfc       $SG85281                   10046dfc     itt_notify.obj
 0002:00001e18       $SG85282                   10046e18     itt_notify.obj
 0002:00001e34       $SG85283                   10046e34     itt_notify.obj
 0002:00001e50       $SG85284                   10046e50     itt_notify.obj
 0002:00001e68       $SG85285                   10046e68     itt_notify.obj
 0002:00001e80       $SG85286                   10046e80     itt_notify.obj
 0002:00001e94       $SG85287                   10046e94     itt_notify.obj
 0002:00001eb0       $SG85288                   10046eb0     itt_notify.obj
 0002:00001ecc       $SG85289                   10046ecc     itt_notify.obj
 0002:00001ef0       $SG85290                   10046ef0     itt_notify.obj
 0002:00001f10       $SG85291                   10046f10     itt_notify.obj
 0002:00001f38       $SG85292                   10046f38     itt_notify.obj
 0002:00001f5c       $SG85293                   10046f5c     itt_notify.obj
 0002:00001f78       $SG85294                   10046f78     itt_notify.obj
 0002:00001f8c       $SG85295                   10046f8c     itt_notify.obj
 0002:00001f9c       $SG85296                   10046f9c     itt_notify.obj
 0002:00001fb0       $SG85297                   10046fb0     itt_notify.obj
 0002:00001fc4       $SG85298                   10046fc4     itt_notify.obj
 0002:00001fd8       $SG85299                   10046fd8     itt_notify.obj
 0002:00001fec       $SG85300                   10046fec     itt_notify.obj
 0002:00002004       $SG85301                   10047004     itt_notify.obj
 0002:00002018       $SG85302                   10047018     itt_notify.obj
 0002:00002030       $SG85303                   10047030     itt_notify.obj
 0002:00002044       $SG85304                   10047044     itt_notify.obj
 0002:00002058       $SG85305                   10047058     itt_notify.obj
 0002:0000206c       $SG85306                   1004706c     itt_notify.obj
 0002:0000207c       $SG85307                   1004707c     itt_notify.obj
 0002:00002094       $SG85308                   10047094     itt_notify.obj
 0002:000020b0       $SG85309                   100470b0     itt_notify.obj
 0002:000020c0       $SG85310                   100470c0     itt_notify.obj
 0002:000020d4       $SG85311                   100470d4     itt_notify.obj
 0002:000020ec       $SG85312                   100470ec     itt_notify.obj
 0002:00002104       $SG85313                   10047104     itt_notify.obj
 0002:00002124       $SG85314                   10047124     itt_notify.obj
 0002:00002138       $SG85315                   10047138     itt_notify.obj
 0002:0000214c       $SG85316                   1004714c     itt_notify.obj
 0002:00002160       $SG85317                   10047160     itt_notify.obj
 0002:00002174       $SG85318                   10047174     itt_notify.obj
 0002:00002184       $SG85319                   10047184     itt_notify.obj
 0002:0000219c       $SG85320                   1004719c     itt_notify.obj
 0002:000021b4       $SG85321                   100471b4     itt_notify.obj
 0002:000021cc       $SG85322                   100471cc     itt_notify.obj
 0002:000021e4       $SG85323                   100471e4     itt_notify.obj
 0002:00002200       $SG85324                   10047200     itt_notify.obj
 0002:0000221c       $SG85325                   1004721c     itt_notify.obj
 0002:00002238       $SG85326                   10047238     itt_notify.obj
 0002:00002254       $SG85327                   10047254     itt_notify.obj
 0002:00002268       $SG85328                   10047268     itt_notify.obj
 0002:0000227c       $SG85329                   1004727c     itt_notify.obj
 0002:00002290       $SG85330                   10047290     itt_notify.obj
 0002:000022a0       $SG85331                   100472a0     itt_notify.obj
 0002:000022b0       $SG85332                   100472b0     itt_notify.obj
 0002:000022c4       $SG85333                   100472c4     itt_notify.obj
 0002:000022d8       $SG85334                   100472d8     itt_notify.obj
 0002:000022ec       $SG85335                   100472ec     itt_notify.obj
 0002:00002300       $SG85336                   10047300     itt_notify.obj
 0002:00002314       $SG85337                   10047314     itt_notify.obj
 0002:00002324       $SG85338                   10047324     itt_notify.obj
 0002:0000233c       $SG85339                   1004733c     itt_notify.obj
 0002:00002354       $SG85340                   10047354     itt_notify.obj
 0002:0000236c       $SG85341                   1004736c     itt_notify.obj
 0002:00002380       $SG85342                   10047380     itt_notify.obj
 0002:00002398       $SG85343                   10047398     itt_notify.obj
 0002:000023ac       $SG85344                   100473ac     itt_notify.obj
 0002:000023c0       $SG85345                   100473c0     itt_notify.obj
 0002:000023cc       $SG85346                   100473cc     itt_notify.obj
 0002:000023d8       $SG85347                   100473d8     itt_notify.obj
 0002:000023e8       $SG85348                   100473e8     itt_notify.obj
 0002:000023fc       $SG85349                   100473fc     itt_notify.obj
 0002:00002410       $SG85350                   10047410     itt_notify.obj
 0002:00002428       $SG85351                   10047428     itt_notify.obj
 0002:00002444       $SG85352                   10047444     itt_notify.obj
 0002:00002460       $SG85353                   10047460     itt_notify.obj
 0002:0000247c       $SG85354                   1004747c     itt_notify.obj
 0002:00002498       $SG85355                   10047498     itt_notify.obj
 0002:000024b4       $SG85356                   100474b4     itt_notify.obj
 0002:000024d0       $SG85357                   100474d0     itt_notify.obj
 0002:000024e4       $SG85358                   100474e4     itt_notify.obj
 0002:000024f8       $SG85359                   100474f8     itt_notify.obj
 0002:0000250c       $SG85360                   1004750c     itt_notify.obj
 0002:00002524       $SG85361                   10047524     itt_notify.obj
 0002:00002538       $SG85362                   10047538     itt_notify.obj
 0002:00002554       $SG85363                   10047554     itt_notify.obj
 0002:00002574       $SG85364                   10047574     itt_notify.obj
 0002:00002590       $SG85365                   10047590     itt_notify.obj
 0002:000025b0       $SG85366                   100475b0     itt_notify.obj
 0002:000025c0       $SG85367                   100475c0     itt_notify.obj
 0002:000025e0       $SG85368                   100475e0     itt_notify.obj
 0002:00002604       $SG85369                   10047604     itt_notify.obj
 0002:00002628       $SG85370                   10047628     itt_notify.obj
 0002:0000264c       $SG85371                   1004764c     itt_notify.obj
 0002:00002664       $SG85372                   10047664     itt_notify.obj
 0002:00002680       $SG85373                   10047680     itt_notify.obj
 0002:00002694       $SG85374                   10047694     itt_notify.obj
 0002:000026a4       $SG85375                   100476a4     itt_notify.obj
 0002:000026b8       $SG85376                   100476b8     itt_notify.obj
 0002:000026c8       $SG85377                   100476c8     itt_notify.obj
 0002:000026d8       ?dll_path@@3QBDB           100476d8     itt_notify.obj
 0002:000028d8       $SG85636                   100478d8     itt_notify.obj
 0002:000028f0       $SG85663                   100478f0     itt_notify.obj
 0002:00002908       $SG85666                   10047908     itt_notify.obj
 0002:0000290c       $SG85675                   1004790c     itt_notify.obj
 0002:0000291c       $SG85677                   1004791c     itt_notify.obj
 0002:00002930       $SG85697                   10047930     itt_notify.obj
 0002:00002940       $SG85745                   10047940     itt_notify.obj
 0002:00002950       ___itt_null                10047950     itt_notify.obj
 0002:00002968       ?MallocLinkTable@internal@tbb@@3QBUdynamic_link_descriptor@12@B 10047968     cache_aligned_allocator.obj
 0002:00002988       $SG129119                  10047988     cache_aligned_allocator.obj
 0002:00002998       $SG129120                  10047998     cache_aligned_allocator.obj
 0002:000029a8       $SG129121                  100479a8     cache_aligned_allocator.obj
 0002:000029c0       $SG129122                  100479c0     cache_aligned_allocator.obj
 0002:000029d8       $SG129127                  100479d8     cache_aligned_allocator.obj
 0002:000029f4       $SG129128                  100479f4     cache_aligned_allocator.obj
 0002:00002a24       $SG129129                  10047a24     cache_aligned_allocator.obj
 0002:00002a38       $SG129131                  10047a38     cache_aligned_allocator.obj
 0002:00002a48       $SG129132                  10047a48     cache_aligned_allocator.obj
 0002:00002a50       $SG129133                  10047a50     cache_aligned_allocator.obj
 0002:00002a5c       $SG129148                  10047a5c     cache_aligned_allocator.obj
 0002:00002a78       $SG129149                  10047a78     cache_aligned_allocator.obj
 0002:00002aa8       $SG129154                  10047aa8     cache_aligned_allocator.obj
 0002:00002ac0       $SG129155                  10047ac0     cache_aligned_allocator.obj
 0002:00002af0       $SG129161                  10047af0     cache_aligned_allocator.obj
 0002:00002b20       $SG129162                  10047b20     cache_aligned_allocator.obj
 0002:00002b50       $SG129167                  10047b50     cache_aligned_allocator.obj
 0002:00002b78       $SG129168                  10047b78     cache_aligned_allocator.obj
 0002:00002ba8       $SG129192                  10047ba8     cache_aligned_allocator.obj
 0002:00002bc8       $SG129193                  10047bc8     cache_aligned_allocator.obj
 0002:00002bf0       $SG129194                  10047bf0     cache_aligned_allocator.obj
 0002:00002c20       $SG129195                  10047c20     cache_aligned_allocator.obj
 0002:00002c38       $SG129196                  10047c38     cache_aligned_allocator.obj
 0002:00002c60       $SG129197                  10047c60     cache_aligned_allocator.obj
 0002:00002c90       $SG129202                  10047c90     cache_aligned_allocator.obj
 0002:00002cc8       $SG129203                  10047cc8     cache_aligned_allocator.obj
 0002:00002cf0       $SG129204                  10047cf0     cache_aligned_allocator.obj
 0002:00002d20       $SG129230                  10047d20     cache_aligned_allocator.obj
 0002:00002d60       $SG129231                  10047d60     cache_aligned_allocator.obj
 0002:00002d78       $SG129232                  10047d78     cache_aligned_allocator.obj
 0002:00002da8       $SG129233                  10047da8     cache_aligned_allocator.obj
 0002:00002dc8       $SG129234                  10047dc8     cache_aligned_allocator.obj
 0002:00002e04       $SG129235                  10047e04     cache_aligned_allocator.obj
 0002:00002e34       $SG129257                  10047e34     cache_aligned_allocator.obj
 0002:00002e6c       $SG129258                  10047e6c     cache_aligned_allocator.obj
 0002:00002ea0       $SG129259                  10047ea0     cache_aligned_allocator.obj
 0002:00002ef8       $SG129260                  10047ef8     cache_aligned_allocator.obj
 0002:00002f48       $SG129261                  10047f48     cache_aligned_allocator.obj
 0002:00002f78       ___itt_null                10047f78     pipeline.obj
 0002:00002f90       $SG118985                  10047f90     pipeline.obj
 0002:00002fac       $SG118986                  10047fac     pipeline.obj
 0002:00002fcc       $SG118987                  10047fcc     pipeline.obj
 0002:00002fe4       $SG118988                  10047fe4     pipeline.obj
 0002:00003004       $SG119129                  10048004     pipeline.obj
 0002:00003024       $SG119130                  10048024     pipeline.obj
 0002:0000302c       $SG119131                  1004802c     pipeline.obj
 0002:0000304c       $SG119196                  1004804c     pipeline.obj
 0002:00003070       $SG119197                  10048070     pipeline.obj
 0002:000030ac       $SG119198                  100480ac     pipeline.obj
 0002:000030cc       $SG119199                  100480cc     pipeline.obj
 0002:000030f0       $SG119200                  100480f0     pipeline.obj
 0002:0000312c       $SG119201                  1004812c     pipeline.obj
 0002:0000314c       $SG119202                  1004814c     pipeline.obj
 0002:0000317c       $SG119203                  1004817c     pipeline.obj
 0002:0000318c       $SG119204                  1004818c     pipeline.obj
 0002:000031ac       $SG119237                  100481ac     pipeline.obj
 0002:000031c8       $SG119238                  100481c8     pipeline.obj
 0002:00003204       $SG119239                  10048204     pipeline.obj
 0002:00003224       $SG119240                  10048224     pipeline.obj
 0002:00003240       $SG119241                  10048240     pipeline.obj
 0002:0000327c       $SG119242                  1004827c     pipeline.obj
 0002:0000329c       $SG119243                  1004829c     pipeline.obj
 0002:000032cc       $SG119244                  100482cc     pipeline.obj
 0002:000032dc       $SG119245                  100482dc     pipeline.obj
 0002:000032fc       $SG119248                  100482fc     pipeline.obj
 0002:00003310       $SG119249                  10048310     pipeline.obj
 0002:00003330       $SG119250                  10048330     pipeline.obj
 0002:00003350       $SG119253                  10048350     pipeline.obj
 0002:00003364       $SG119254                  10048364     pipeline.obj
 0002:00003384       $SG119255                  10048384     pipeline.obj
 0002:000033a4       $SG119278                  100483a4     pipeline.obj
 0002:000033d0       $SG119279                  100483d0     pipeline.obj
 0002:000033ec       $SG119280                  100483ec     pipeline.obj
 0002:0000340c       $SG119281                  1004840c     pipeline.obj
 0002:00003428       $SG119282                  10048428     pipeline.obj
 0002:00003438       $SG119283                  10048438     pipeline.obj
 0002:00003458       $SG119303                  10048458     pipeline.obj
 0002:00003464       $SG119304                  10048464     pipeline.obj
 0002:00003484       $SG119305                  10048484     pipeline.obj
 0002:000034bc       $SG119306                  100484bc     pipeline.obj
 0002:000034cc       $SG119307                  100484cc     pipeline.obj
 0002:000034ec       $SG119318                  100484ec     pipeline.obj
 0002:0000350c       $SG119319                  1004850c     pipeline.obj
 0002:00003544       $SG119320                  10048544     pipeline.obj
 0002:00003564       $SG119321                  10048564     pipeline.obj
 0002:00003594       $SG119322                  10048594     pipeline.obj
 0002:000035c8       $SG119323                  100485c8     pipeline.obj
 0002:000035e8       $SG119330                  100485e8     pipeline.obj
 0002:000035f8       $SG119331                  100485f8     pipeline.obj
 0002:00003618       $SG119332                  10048618     pipeline.obj
 0002:00003630       $SG119333                  10048630     pipeline.obj
 0002:00003650       $SG119336                  10048650     pipeline.obj
 0002:0000367c       $SG119337                  1004867c     pipeline.obj
 0002:000036a0       $SG119358                  100486a0     pipeline.obj
 0002:000036f8       $SG119359                  100486f8     pipeline.obj
 0002:0000370c       $SG119360                  1004870c     pipeline.obj
 0002:0000372c       $SG119368                  1004872c     pipeline.obj
 0002:00003750       $SG119369                  10048750     pipeline.obj
 0002:00003770       $SG119370                  10048770     pipeline.obj
 0002:00003790       $SG119375                  10048790     pipeline.obj
 0002:000037a4       $SG119376                  100487a4     pipeline.obj
 0002:000037ac       $SG119377                  100487ac     pipeline.obj
 0002:000037cc       $SG119381                  100487cc     pipeline.obj
 0002:000037fc       $SG119382                  100487fc     pipeline.obj
 0002:00003804       $SG119383                  10048804     pipeline.obj
 0002:00003a48       ___itt_null                10048a48     queuing_mutex.obj
 0002:00003a60       $SG43675                   10048a60     queuing_mutex.obj
 0002:00003a88       $SG43676                   10048a88     queuing_mutex.obj
 0002:00003a98       $SG43677                   10048a98     queuing_mutex.obj
 0002:00003ac0       $SG43679                   10048ac0     queuing_mutex.obj
 0002:00003ae8       $SG43680                   10048ae8     queuing_mutex.obj
 0002:00003af4       $SG43681                   10048af4     queuing_mutex.obj
 0002:00003b1c       $SG43694                   10048b1c     queuing_mutex.obj
 0002:00003b44       $SG43695                   10048b44     queuing_mutex.obj
 0002:00003b54       $SG43696                   10048b54     queuing_mutex.obj
 0002:00003b7c       $SG43720                   10048b7c     queuing_mutex.obj
 0002:00003b90       $SG43721                   10048b90     queuing_mutex.obj
 0002:00003ba0       $SG43722                   10048ba0     queuing_mutex.obj
 0002:00003bc8       $SG43726                   10048bc8     queuing_mutex.obj
 0002:00003bd0       $SG43727                   10048bd0     queuing_mutex.obj
 0002:00003bf8       $SG43733                   10048bf8     queuing_mutex.obj
 0002:00003bfc       $SG43734                   10048bfc     queuing_mutex.obj
 0002:00003c28       ___itt_null                10048c28     queuing_rw_mutex.obj
 0002:00003c40       $SG43637                   10048c40     queuing_rw_mutex.obj
 0002:00003c68       $SG43638                   10048c68     queuing_rw_mutex.obj
 0002:00003c74       $SG43639                   10048c74     queuing_rw_mutex.obj
 0002:00003c9c       $SG43643                   10048c9c     queuing_rw_mutex.obj
 0002:00003cb8       $SG43644                   10048cb8     queuing_rw_mutex.obj
 0002:00003cd4       $SG43645                   10048cd4     queuing_rw_mutex.obj
 0002:00003cfc       $SG43646                   10048cfc     queuing_rw_mutex.obj
 0002:00003d24       $SG43647                   10048d24     queuing_rw_mutex.obj
 0002:00003d48       $SG43648                   10048d48     queuing_rw_mutex.obj
 0002:00003d70       $SG43650                   10048d70     queuing_rw_mutex.obj
 0002:00003d90       $SG43651                   10048d90     queuing_rw_mutex.obj
 0002:00003db0       $SG43652                   10048db0     queuing_rw_mutex.obj
 0002:00003dd8       $SG43655                   10048dd8     queuing_rw_mutex.obj
 0002:00003df4       $SG43656                   10048df4     queuing_rw_mutex.obj
 0002:00003e10       $SG43657                   10048e10     queuing_rw_mutex.obj
 0002:00003e38       $SG43658                   10048e38     queuing_rw_mutex.obj
 0002:00003e60       $SG43659                   10048e60     queuing_rw_mutex.obj
 0002:00003e84       $SG43660                   10048e84     queuing_rw_mutex.obj
 0002:00003eac       $SG43664                   10048eac     queuing_rw_mutex.obj
 0002:00003ec0       $SG43665                   10048ec0     queuing_rw_mutex.obj
 0002:00003ee4       $SG43666                   10048ee4     queuing_rw_mutex.obj
 0002:00003f0c       $SG43687                   10048f0c     queuing_rw_mutex.obj
 0002:00003f34       $SG43688                   10048f34     queuing_rw_mutex.obj
 0002:00003f40       $SG43689                   10048f40     queuing_rw_mutex.obj
 0002:00003f68       $SG43743                   10048f68     queuing_rw_mutex.obj
 0002:00003f7c       $SG43744                   10048f7c     queuing_rw_mutex.obj
 0002:00003f88       $SG43745                   10048f88     queuing_rw_mutex.obj
 0002:00003fb0       $SG43753                   10048fb0     queuing_rw_mutex.obj
 0002:00003fc4       $SG43754                   10048fc4     queuing_rw_mutex.obj
 0002:00004000       $SG43755                   10049000     queuing_rw_mutex.obj
 0002:00004028       $SG43756                   10049028     queuing_rw_mutex.obj
 0002:00004044       $SG43757                   10049044     queuing_rw_mutex.obj
 0002:0000407c       $SG43758                   1004907c     queuing_rw_mutex.obj
 0002:000040a4       $SG43763                   100490a4     queuing_rw_mutex.obj
 0002:000040c8       $SG43764                   100490c8     queuing_rw_mutex.obj
 0002:000040f4       $SG43765                   100490f4     queuing_rw_mutex.obj
 0002:0000411c       $SG43767                   1004911c     queuing_rw_mutex.obj
 0002:00004138       $SG43768                   10049138     queuing_rw_mutex.obj
 0002:00004160       $SG43769                   10049160     queuing_rw_mutex.obj
 0002:00004188       $SG43771                   10049188     queuing_rw_mutex.obj
 0002:000041ac       $SG43772                   100491ac     queuing_rw_mutex.obj
 0002:000041d4       $SG43794                   100491d4     queuing_rw_mutex.obj
 0002:000041f4       $SG43795                   100491f4     queuing_rw_mutex.obj
 0002:0000420c       $SG43796                   1004920c     queuing_rw_mutex.obj
 0002:00004234       $SG43800                   10049234     queuing_rw_mutex.obj
 0002:00004258       $SG43801                   10049258     queuing_rw_mutex.obj
 0002:0000425c       $SG43802                   1004925c     queuing_rw_mutex.obj
 0002:00004284       $SG43848                   10049284     queuing_rw_mutex.obj
 0002:000042a8       $SG43849                   100492a8     queuing_rw_mutex.obj
 0002:000042c8       $SG43850                   100492c8     queuing_rw_mutex.obj
 0002:000042f0       $SG43851                   100492f0     queuing_rw_mutex.obj
 0002:0000430c       $SG43852                   1004930c     queuing_rw_mutex.obj
 0002:00004340       $SG43853                   10049340     queuing_rw_mutex.obj
 0002:00004368       $SG43862                   10049368     queuing_rw_mutex.obj
 0002:000043a0       $SG43863                   100493a0     queuing_rw_mutex.obj
 0002:000043c8       $SG43864                   100493c8     queuing_rw_mutex.obj
 0002:000043dc       $SG43865                   100493dc     queuing_rw_mutex.obj
 0002:00004410       $SG43866                   10049410     queuing_rw_mutex.obj
 0002:00004438       $SG43867                   10049438     queuing_rw_mutex.obj
 0002:00004470       $SG43868                   10049470     queuing_rw_mutex.obj
 0002:00004498       $SG43869                   10049498     queuing_rw_mutex.obj
 0002:000044b4       $SG43870                   100494b4     queuing_rw_mutex.obj
 0002:000044e8       $SG43871                   100494e8     queuing_rw_mutex.obj
 0002:00004510       $SG43872                   10049510     queuing_rw_mutex.obj
 0002:00004538       $SG43873                   10049538     queuing_rw_mutex.obj
 0002:0000455c       $SG43874                   1004955c     queuing_rw_mutex.obj
 0002:00004584       $SG43875                   10049584     queuing_rw_mutex.obj
 0002:00004590       $SG43876                   10049590     queuing_rw_mutex.obj
 0002:000045b8       $SG43884                   100495b8     queuing_rw_mutex.obj
 0002:000045e0       $SG43885                   100495e0     queuing_rw_mutex.obj
 0002:00004608       $SG43891                   10049608     queuing_rw_mutex.obj
 0002:0000460c       $SG43892                   1004960c     queuing_rw_mutex.obj
 0002:00004638       $SG131246                  10049638     reader_writer_lock.obj
 0002:0000463c       $SG131247                  1004963c     reader_writer_lock.obj
 0002:0000466c       $SG131255                  1004966c     reader_writer_lock.obj
 0002:000046a8       $SG131256                  100496a8     reader_writer_lock.obj
 0002:000046c0       $SG131257                  100496c0     reader_writer_lock.obj
 0002:000046ec       $SG131258                  100496ec     reader_writer_lock.obj
 0002:00004720       $SG131259                  10049720     reader_writer_lock.obj
 0002:00004730       $SG131260                  10049730     reader_writer_lock.obj
 0002:0000475c       $SG131261                  1004975c     reader_writer_lock.obj
 0002:00004790       $SG131262                  10049790     reader_writer_lock.obj
 0002:000047a0       $SG131263                  100497a0     reader_writer_lock.obj
 0002:000047cc       $SG131264                  100497cc     reader_writer_lock.obj
 0002:00004808       $SG131265                  10049808     reader_writer_lock.obj
 0002:00004818       $SG131266                  10049818     reader_writer_lock.obj
 0002:00004844       $SG131328                  10049844     reader_writer_lock.obj
 0002:00004878       $SG131329                  10049878     reader_writer_lock.obj
 0002:00004880       $SG131330                  10049880     reader_writer_lock.obj
 0002:000048ac       $SG131390                  100498ac     reader_writer_lock.obj
 0002:000048e8       $SG131391                  100498e8     reader_writer_lock.obj
 0002:00004914       $SG131392                  10049914     reader_writer_lock.obj
 0002:00004940       $SG131394                  10049940     reader_writer_lock.obj
 0002:0000495c       $SG131395                  1004995c     reader_writer_lock.obj
 0002:00004988       $SG131404                  10049988     reader_writer_lock.obj
 0002:000049a4       $SG131405                  100499a4     reader_writer_lock.obj
 0002:000049d0       $SG131406                  100499d0     reader_writer_lock.obj
 0002:000049f0       $SG131407                  100499f0     reader_writer_lock.obj
 0002:00004a1c       $SG131409                  10049a1c     reader_writer_lock.obj
 0002:00004a24       $SG131410                  10049a24     reader_writer_lock.obj
 0002:00004a50       $SG131411                  10049a50     reader_writer_lock.obj
 0002:00004a68       $SG131412                  10049a68     reader_writer_lock.obj
 0002:00004a94       $SG131426                  10049a94     reader_writer_lock.obj
 0002:00004ad4       $SG131427                  10049ad4     reader_writer_lock.obj
 0002:00004ae8       $SG131428                  10049ae8     reader_writer_lock.obj
 0002:00004b14       $SG131429                  10049b14     reader_writer_lock.obj
 0002:00004b20       $SG131430                  10049b20     reader_writer_lock.obj
 0002:00004b4c       $SG131431                  10049b4c     reader_writer_lock.obj
 0002:00004b68       $SG131432                  10049b68     reader_writer_lock.obj
 0002:00004b98       $SG131433                  10049b98     reader_writer_lock.obj
 0002:00004bdc       $SG131434                  10049bdc     reader_writer_lock.obj
 0002:00004bfc       $SG131435                  10049bfc     reader_writer_lock.obj
 0002:00004c28       $SG131449                  10049c28     reader_writer_lock.obj
 0002:00004c6c       $SG131450                  10049c6c     reader_writer_lock.obj
 0002:00004c7c       $SG131451                  10049c7c     reader_writer_lock.obj
 0002:00004ca8       $SG131454                  10049ca8     reader_writer_lock.obj
 0002:00004cb4       $SG131455                  10049cb4     reader_writer_lock.obj
 0002:00004ce0       $SG131458                  10049ce0     reader_writer_lock.obj
 0002:00004d14       $SG131459                  10049d14     reader_writer_lock.obj
 0002:00004d1c       $SG131460                  10049d1c     reader_writer_lock.obj
 0002:00004d48       $SG131468                  10049d48     reader_writer_lock.obj
 0002:00004d78       $SG131469                  10049d78     reader_writer_lock.obj
 0002:00004d98       $SG131470                  10049d98     reader_writer_lock.obj
 0002:00004dc8       $SG131499                  10049dc8     reader_writer_lock.obj
 0002:00004e14       $SG131500                  10049e14     reader_writer_lock.obj
 0002:00004e30       $SG131501                  10049e30     reader_writer_lock.obj
 0002:00004e60       ___itt_null                10049e60     reader_writer_lock.obj
 0002:00004e78       ___itt_null                10049e78     spin_rw_mutex.obj
 0002:00004e90       $SG43725                   10049e90     spin_rw_mutex.obj
 0002:00004ebc       $SG43726                   10049ebc     spin_rw_mutex.obj
 0002:00004ecc       $SG43727                   10049ecc     spin_rw_mutex.obj
 0002:00004ef4       $SG43747                   10049ef4     spin_rw_mutex.obj
 0002:00004f20       $SG43748                   10049f20     spin_rw_mutex.obj
 0002:00004f2c       $SG43749                   10049f2c     spin_rw_mutex.obj
 0002:00004f54       $SG43752                   10049f54     spin_rw_mutex.obj
 0002:00004f7c       $SG43753                   10049f7c     spin_rw_mutex.obj
 0002:00004fb8       $SG43754                   10049fb8     spin_rw_mutex.obj
 0002:00004fe0       $SG43763                   10049fe0     spin_rw_mutex.obj
 0002:0000500c       $SG43764                   1004a00c     spin_rw_mutex.obj
 0002:0000501c       $SG43765                   1004a01c     spin_rw_mutex.obj
 0002:00005044       $SG43774                   1004a044     spin_rw_mutex.obj
 0002:00005070       $SG43775                   1004a070     spin_rw_mutex.obj
 0002:00005080       $SG43776                   1004a080     spin_rw_mutex.obj
 0002:000050a8       $SG43804                   1004a0a8     spin_rw_mutex.obj
 0002:000050ac       $SG43805                   1004a0ac     spin_rw_mutex.obj
 0002:000050d8       ___itt_null                1004a0d8     x86_rtm_rw_mutex.obj
 0002:000050f0       $SG118058                  1004a0f0     x86_rtm_rw_mutex.obj
 0002:00005118       $SG118059                  1004a118     x86_rtm_rw_mutex.obj
 0002:00005124       $SG118060                  1004a124     x86_rtm_rw_mutex.obj
 0002:0000514c       $SG118062                  1004a14c     x86_rtm_rw_mutex.obj
 0002:00005170       $SG118063                  1004a170     x86_rtm_rw_mutex.obj
 0002:00005180       $SG118064                  1004a180     x86_rtm_rw_mutex.obj
 0002:000051a8       $SG118066                  1004a1a8     x86_rtm_rw_mutex.obj
 0002:000051d0       $SG118067                  1004a1d0     x86_rtm_rw_mutex.obj
 0002:000051e0       $SG118068                  1004a1e0     x86_rtm_rw_mutex.obj
 0002:00005208       $SG118070                  1004a208     x86_rtm_rw_mutex.obj
 0002:0000522c       $SG118071                  1004a22c     x86_rtm_rw_mutex.obj
 0002:00005234       $SG118072                  1004a234     x86_rtm_rw_mutex.obj
 0002:0000525c       $SG118074                  1004a25c     x86_rtm_rw_mutex.obj
 0002:00005278       $SG118075                  1004a278     x86_rtm_rw_mutex.obj
 0002:00005280       $SG118076                  1004a280     x86_rtm_rw_mutex.obj
 0002:000052a8       $SG118094                  1004a2a8     x86_rtm_rw_mutex.obj
 0002:000052cc       $SG118095                  1004a2cc     x86_rtm_rw_mutex.obj
 0002:000052f4       $SG118096                  1004a2f4     x86_rtm_rw_mutex.obj
 0002:0000531c       $SG118104                  1004a31c     x86_rtm_rw_mutex.obj
 0002:0000534c       $SG118105                  1004a34c     x86_rtm_rw_mutex.obj
 0002:00005354       $SG118106                  1004a354     x86_rtm_rw_mutex.obj
 0002:0000537c       $SG118123                  1004a37c     x86_rtm_rw_mutex.obj
 0002:000053a0       $SG118124                  1004a3a0     x86_rtm_rw_mutex.obj
 0002:000053c8       $SG118125                  1004a3c8     x86_rtm_rw_mutex.obj
 0002:000053f0       $SG118143                  1004a3f0     x86_rtm_rw_mutex.obj
 0002:00005420       $SG118144                  1004a420     x86_rtm_rw_mutex.obj
 0002:00005428       $SG118145                  1004a428     x86_rtm_rw_mutex.obj
 0002:00005450       $SG118150                  1004a450     x86_rtm_rw_mutex.obj
 0002:0000546c       $SG118151                  1004a46c     x86_rtm_rw_mutex.obj
 0002:00005474       $SG118152                  1004a474     x86_rtm_rw_mutex.obj
 0002:0000549c       $SG118162                  1004a49c     x86_rtm_rw_mutex.obj
 0002:000054c8       $SG118163                  1004a4c8     x86_rtm_rw_mutex.obj
 0002:000054d0       $SG118164                  1004a4d0     x86_rtm_rw_mutex.obj
 0002:000054f8       $SG118167                  1004a4f8     x86_rtm_rw_mutex.obj
 0002:00005514       $SG118168                  1004a514     x86_rtm_rw_mutex.obj
 0002:0000551c       $SG118169                  1004a51c     x86_rtm_rw_mutex.obj
 0002:00005544       $SG118178                  1004a544     x86_rtm_rw_mutex.obj
 0002:00005578       $SG118179                  1004a578     x86_rtm_rw_mutex.obj
 0002:000055a0       $SG118180                  1004a5a0     x86_rtm_rw_mutex.obj
 0002:000055c8       $SG118182                  1004a5c8     x86_rtm_rw_mutex.obj
 0002:000055f8       $SG118183                  1004a5f8     x86_rtm_rw_mutex.obj
 0002:00005600       $SG118184                  1004a600     x86_rtm_rw_mutex.obj
 0002:00005628       $SG118190                  1004a628     x86_rtm_rw_mutex.obj
 0002:0000562c       $SG118191                  1004a62c     x86_rtm_rw_mutex.obj
 0002:000056f8       ___itt_null                1004a6f8     spin_mutex.obj
 0002:00005710       $SG43789                   1004a710     spin_mutex.obj
 0002:00005738       $SG43790                   1004a738     spin_mutex.obj
 0002:00005744       $SG43791                   1004a744     spin_mutex.obj
 0002:00005768       $SG43805                   1004a768     spin_mutex.obj
 0002:000057a8       $SG43806                   1004a7a8     spin_mutex.obj
 0002:000057b4       $SG43807                   1004a7b4     spin_mutex.obj
 0002:000057d8       $SG43817                   1004a7d8     spin_mutex.obj
 0002:00005800       $SG43818                   1004a800     spin_mutex.obj
 0002:0000580c       $SG43819                   1004a80c     spin_mutex.obj
 0002:00005830       $SG43826                   1004a830     spin_mutex.obj
 0002:00005834       $SG43827                   1004a834     spin_mutex.obj
 0002:00005858       ___itt_null                1004a858     critical_section.obj
 0002:00005870       $SG131006                  1004a870     critical_section.obj
 0002:00005874       $SG131007                  1004a874     critical_section.obj
 0002:000058a0       ___itt_null                1004a8a0     mutex.obj
 0002:000058b8       $SG117762                  1004a8b8     mutex.obj
 0002:00005900       $SG117764                  1004a900     mutex.obj
 0002:0000592c       $SG117765                  1004a92c     mutex.obj
 0002:00005934       $SG117766                  1004a934     mutex.obj
 0002:00005954       $SG117768                  1004a954     mutex.obj
 0002:0000597c       $SG117769                  1004a97c     mutex.obj
 0002:00005984       $SG117770                  1004a984     mutex.obj
 0002:000059a4       $SG117780                  1004a9a4     mutex.obj
 0002:000059cc       $SG117781                  1004a9cc     mutex.obj
 0002:000059d8       $SG117782                  1004a9d8     mutex.obj
 0002:000059f8       $SG117784                  1004a9f8     mutex.obj
 0002:00005a38       $SG117785                  1004aa38     mutex.obj
 0002:00005a40       $SG117786                  1004aa40     mutex.obj
 0002:00005a60       $SG117789                  1004aa60     mutex.obj
 0002:00005a8c       $SG117790                  1004aa8c     mutex.obj
 0002:00005a94       $SG117791                  1004aa94     mutex.obj
 0002:00005ab4       $SG117793                  1004aab4     mutex.obj
 0002:00005adc       $SG117794                  1004aadc     mutex.obj
 0002:00005ae4       $SG117795                  1004aae4     mutex.obj
 0002:00005b04       $SG117808                  1004ab04     mutex.obj
 0002:00005b30       $SG117809                  1004ab30     mutex.obj
 0002:00005b38       $SG117810                  1004ab38     mutex.obj
 0002:00005b58       $SG117812                  1004ab58     mutex.obj
 0002:00005b80       $SG117813                  1004ab80     mutex.obj
 0002:00005b88       $SG117814                  1004ab88     mutex.obj
 0002:00005ba8       $SG117816                  1004aba8     mutex.obj
 0002:00005bf0       $SG117817                  1004abf0     mutex.obj
 0002:00005c00       $SG117818                  1004ac00     mutex.obj
 0002:00005c20       $SG117825                  1004ac20     mutex.obj
 0002:00005c24       $SG117826                  1004ac24     mutex.obj
 0002:00005c3c       $SG117836                  1004ac3c     mutex.obj
 0002:00005c58       $SG117837                  1004ac58     mutex.obj
 0002:00005c60       $SG117838                  1004ac60     mutex.obj
 0002:00005c80       $SG117840                  1004ac80     mutex.obj
 0002:00005ca8       $SG117841                  1004aca8     mutex.obj
 0002:00005cb0       $SG117842                  1004acb0     mutex.obj
 0002:00005cd0       ___itt_null                1004acd0     recursive_mutex.obj
 0002:00005ce8       $SG117118                  1004ace8     recursive_mutex.obj
 0002:00005d20       $SG117119                  1004ad20     recursive_mutex.obj
 0002:00005d28       $SG117120                  1004ad28     recursive_mutex.obj
 0002:00005d50       $SG117122                  1004ad50     recursive_mutex.obj
 0002:00005d84       $SG117123                  1004ad84     recursive_mutex.obj
 0002:00005d8c       $SG117124                  1004ad8c     recursive_mutex.obj
 0002:00005db4       $SG117133                  1004adb4     recursive_mutex.obj
 0002:00005de8       $SG117134                  1004ade8     recursive_mutex.obj
 0002:00005df4       $SG117135                  1004adf4     recursive_mutex.obj
 0002:00005e1c       $SG117138                  1004ae1c     recursive_mutex.obj
 0002:00005e54       $SG117139                  1004ae54     recursive_mutex.obj
 0002:00005e5c       $SG117140                  1004ae5c     recursive_mutex.obj
 0002:00005e84       $SG117142                  1004ae84     recursive_mutex.obj
 0002:00005eb8       $SG117143                  1004aeb8     recursive_mutex.obj
 0002:00005ec0       $SG117144                  1004aec0     recursive_mutex.obj
 0002:00005ee8       $SG117156                  1004aee8     recursive_mutex.obj
 0002:00005f20       $SG117157                  1004af20     recursive_mutex.obj
 0002:00005f28       $SG117158                  1004af28     recursive_mutex.obj
 0002:00005f50       $SG117160                  1004af50     recursive_mutex.obj
 0002:00005f84       $SG117161                  1004af84     recursive_mutex.obj
 0002:00005f8c       $SG117162                  1004af8c     recursive_mutex.obj
 0002:00005fb4       $SG117169                  1004afb4     recursive_mutex.obj
 0002:00005fb8       $SG117170                  1004afb8     recursive_mutex.obj
 0002:00005fe4       $SG117180                  1004afe4     recursive_mutex.obj
 0002:00006008       $SG117181                  1004b008     recursive_mutex.obj
 0002:00006010       $SG117182                  1004b010     recursive_mutex.obj
 0002:00006038       $SG117184                  1004b038     recursive_mutex.obj
 0002:00006068       $SG117185                  1004b068     recursive_mutex.obj
 0002:00006070       $SG117186                  1004b070     recursive_mutex.obj
 0002:00006098       $SG131628                  1004b098     condition_variable.obj
 0002:000060bc       $SG131629                  1004b0bc     condition_variable.obj
 0002:000060e8       $SG131632                  1004b0e8     condition_variable.obj
 0002:00006118       $SG131633                  1004b118     condition_variable.obj
 0002:00006128       $SG131634                  1004b128     condition_variable.obj
 0002:00006154       ?CondVarLinkTable@internal@tbb@@3QBUdynamic_link_descriptor@12@B 1004b154     condition_variable.obj
 0002:00006174       $SG131690                  1004b174     condition_variable.obj
 0002:00006190       $SG131691                  1004b190     condition_variable.obj
 0002:000061ac       $SG131692                  1004b1ac     condition_variable.obj
 0002:000061c4       $SG131693                  1004b1c4     condition_variable.obj
 0002:000061e0       $SG131701                  1004b1e0     condition_variable.obj
 0002:00006224       $SG131702                  1004b224     condition_variable.obj
 0002:00006250       $SG131704                  1004b250     condition_variable.obj
 0002:00006260       ___itt_null                1004b260     condition_variable.obj
 0002:000062e0       $SG129929                  1004b2e0     tbb_thread.obj
 0002:000062f4       $SG129931                  1004b2f4     tbb_thread.obj
 0002:00006308       $SG129939                  1004b308     tbb_thread.obj
 0002:0000631c       $SG129953                  1004b31c     tbb_thread.obj
 0002:000063a8       $SG129560                  1004b3a8     concurrent_monitor.obj
 0002:000063bc       $SG129561                  1004b3bc     concurrent_monitor.obj
 0002:000063d0       $SG129562                  1004b3d0     concurrent_monitor.obj
 0002:00006400       ___itt_null                1004b400     private_server.obj
 0002:00006418       $SG133295                  1004b418     private_server.obj
 0002:00006428       $SG133296                  1004b428     private_server.obj
 0002:00006438       $SG133297                  1004b438     private_server.obj
 0002:00006460       $SG133312                  1004b460     private_server.obj
 0002:0000646c       $SG133313                  1004b46c     private_server.obj
 0002:00006494       $SG133424                  1004b494     private_server.obj
 0002:000064b0       $SG133425                  1004b4b0     private_server.obj
 0002:000064d8       $SG133461                  1004b4d8     private_server.obj
 0002:000064ec       $SG133462                  1004b4ec     private_server.obj
 0002:00006514       $SG117594                  1004b514     private_server.obj
 0002:00006528       $SG117596                  1004b528     private_server.obj
 0002:00006548       $SG117749                  1004b548     private_server.obj
 0002:00006570       $SG117750                  1004b570     private_server.obj
 0002:0000659c       $SG117751                  1004b59c     private_server.obj
 0002:000065a0       $SG117752                  1004b5a0     private_server.obj
 0002:000065cc       $SG117758                  1004b5cc     private_server.obj
 0002:000065d0       $SG117759                  1004b5d0     private_server.obj
 0002:000066d4       $SG94785                   1004b6d4     rml_tbb.obj
 0002:000066e4       $SG94786                   1004b6e4     rml_tbb.obj
 0002:0000670c       $SG94787                   1004b70c     rml_tbb.obj
 0002:00006720       $SG94788                   1004b720     rml_tbb.obj
 0002:00006738       $SG94789                   1004b738     rml_tbb.obj
 0002:0000674c       $SG94790                   1004b74c     rml_tbb.obj
 0002:0000676c       $SG94793                   1004b76c     rml_tbb.obj
 0002:0000677c       $SG94806                   1004b77c     rml_tbb.obj
 0002:00006794       $SG94807                   1004b794     rml_tbb.obj
 0002:000067bc       $SG94814                   1004b7bc     rml_tbb.obj
 0002:000067e0       $SG94815                   1004b7e0     rml_tbb.obj
 0002:00006808       $SG20844                   1004b808     tbb_misc.obj
 0002:00006833       $SG20848                   1004b833     tbb_misc.obj
 0002:00006834       $SG20846                   1004b834     tbb_misc.obj
 0002:00006850       $SG20849                   1004b850     tbb_misc.obj
 0002:00006858       $SG20850                   1004b858     tbb_misc.obj
 0002:00006868       $SG20892                   1004b868     tbb_misc.obj
 0002:0000687c       $SG129133                  1004b87c     tbb_misc.obj
 0002:000068b0       $SG129137                  1004b8b0     tbb_misc.obj
 0002:000068f4       $SG129141                  1004b8f4     tbb_misc.obj
 0002:00006928       $SG129145                  1004b928     tbb_misc.obj
 0002:00006968       $SG129149                  1004b968     tbb_misc.obj
 0002:0000699c       $SG129160                  1004b99c     tbb_misc.obj
 0002:000069a4       $SG129161                  1004b9a4     tbb_misc.obj
 0002:000069c4       $SG129162                  1004b9c4     tbb_misc.obj
 0002:000069ec       $SG129163                  1004b9ec     tbb_misc.obj
 0002:00006a0c       $SG129231                  1004ba0c     tbb_misc.obj
 0002:00006a24       $SG129232                  1004ba24     tbb_misc.obj
 0002:00006a40       $SG129233                  1004ba40     tbb_misc.obj
 0002:00006a60       $SG129254                  1004ba60     tbb_misc.obj
 0002:00006a78       $SG129261                  1004ba78     tbb_misc.obj
 0002:00006a9c       $SG129268                  1004ba9c     tbb_misc.obj
 0002:00006ac4       $SG129271                  1004bac4     tbb_misc.obj
 0002:00006adc       $SG129292                  1004badc     tbb_misc.obj
 0002:00006afc       $SG129295                  1004bafc     tbb_misc.obj
 0002:00006b14       $SG129298                  1004bb14     tbb_misc.obj
 0002:00006b38       $SG129301                  1004bb38     tbb_misc.obj
 0002:00006b54       $SG129304                  1004bb54     tbb_misc.obj
 0002:00006b88       $SG129307                  1004bb88     tbb_misc.obj
 0002:00006bb4       $SG129314                  1004bbb4     tbb_misc.obj
 0002:00006be0       $SG129317                  1004bbe0     tbb_misc.obj
 0002:00006bec       $SG129326                  1004bbec     tbb_misc.obj
 0002:00006c04       $SG129329                  1004bc04     tbb_misc.obj
 0002:00006c20       $SG129413                  1004bc20     tbb_misc.obj
 0002:00006c24       $SG129436                  1004bc24     tbb_misc.obj
 0002:00006c30       ?VersionString@internal@tbb@@3QBDB 1004bc30     tbb_misc.obj
 0002:00006cd0       $SG129504                  1004bcd0     tbb_misc.obj
 0002:00006dc8       ?ProcessorGroupsApiLinkTable@internal@tbb@@3QBUdynamic_link_descriptor@12@B 1004bdc8     tbb_misc_ex.obj
 0002:00006de8       $SG115570                  1004bde8     tbb_misc_ex.obj
 0002:00006e00       $SG115571                  1004be00     tbb_misc_ex.obj
 0002:00006e20       $SG115572                  1004be20     tbb_misc_ex.obj
 0002:00006e38       $SG115573                  1004be38     tbb_misc_ex.obj
 0002:00006e50       $SG115611                  1004be50     tbb_misc_ex.obj
 0002:00006e60       $SG115613                  1004be60     tbb_misc_ex.obj
 0002:00006e88       $SG115614                  1004be88     tbb_misc_ex.obj
 0002:00006eac       $SG115616                  1004beac     tbb_misc_ex.obj
 0002:00006ee0       $SG115617                  1004bee0     tbb_misc_ex.obj
 0002:00006f04       $SG115621                  1004bf04     tbb_misc_ex.obj
 0002:00006f30       $SG115622                  1004bf30     tbb_misc_ex.obj
 0002:00006f54       $SG115624                  1004bf54     tbb_misc_ex.obj
 0002:00006f78       $SG115623                  1004bf78     tbb_misc_ex.obj
 0002:00006fc0       $SG115625                  1004bfc0     tbb_misc_ex.obj
 0002:00006fc4       $SG115626                  1004bfc4     tbb_misc_ex.obj
 0002:00006fd8       $SG115628                  1004bfd8     tbb_misc_ex.obj
 0002:00006fe4       $SG115629                  1004bfe4     tbb_misc_ex.obj
 0002:00006ff0       $SG115633                  1004bff0     tbb_misc_ex.obj
 0002:00007030       $SG115634                  1004c030     tbb_misc_ex.obj
 0002:00007068       $SG115635                  1004c068     tbb_misc_ex.obj
 0002:0000708c       $SG115652                  1004c08c     tbb_misc_ex.obj
 0002:000070cc       $SG115653                  1004c0cc     tbb_misc_ex.obj
 0002:00007104       $SG115654                  1004c104     tbb_misc_ex.obj
 0002:00007128       $SG115658                  1004c128     tbb_misc_ex.obj
 0002:00007130       $SG115659                  1004c130     tbb_misc_ex.obj
 0002:00007154       $SG115660                  1004c154     tbb_misc_ex.obj
 0002:00007178       $SG115661                  1004c178     tbb_misc_ex.obj
 0002:0000719c       $SG115671                  1004c19c     tbb_misc_ex.obj
 0002:000071c0       $SG115669                  1004c1c0     tbb_misc_ex.obj
 0002:00007204       $SG115670                  1004c204     tbb_misc_ex.obj
 0002:00007240       ___itt_null                1004c240     task.obj
 0002:00007258       $SG136412                  1004c258     task.obj
 0002:00007290       $SG136413                  1004c290     task.obj
 0002:00007294       $SG136414                  1004c294     task.obj
 0002:000072b0       $SG136423                  1004c2b0     task.obj
 0002:000072f0       $SG136424                  1004c2f0     task.obj
 0002:000072f4       $SG136425                  1004c2f4     task.obj
 0002:00007310       $SG136444                  1004c310     task.obj
 0002:00007338       $SG136445                  1004c338     task.obj
 0002:0000733c       $SG136446                  1004c33c     task.obj
 0002:00007358       $SG136447                  1004c358     task.obj
 0002:00007398       $SG136448                  1004c398     task.obj
 0002:000073a4       $SG136449                  1004c3a4     task.obj
 0002:000073c0       $SG136460                  1004c3c0     task.obj
 0002:00007400       $SG136461                  1004c400     task.obj
 0002:00007404       $SG136462                  1004c404     task.obj
 0002:00007420       $SG136520                  1004c420     task.obj
 0002:0000743c       $SG136521                  1004c43c     task.obj
 0002:00007448       $SG136522                  1004c448     task.obj
 0002:00007464       $SG136523                  1004c464     task.obj
 0002:0000747c       $SG136525                  1004c47c     task.obj
 0002:00007498       $SG136524                  1004c498     task.obj
 0002:00007500       $SG136537                  1004c500     task.obj
 0002:00007524       $SG136538                  1004c524     task.obj
 0002:0000752c       $SG136539                  1004c52c     task.obj
 0002:00007548       $SG136545                  1004c548     task.obj
 0002:00007568       $SG136546                  1004c568     task.obj
 0002:00007584       $SG136561                  1004c584     task.obj
 0002:000075b0       $SG136562                  1004c5b0     task.obj
 0002:000075dc       $SG136563                  1004c5dc     task.obj
 0002:000075f8       $SG136564                  1004c5f8     task.obj
 0002:00007618       $SG136565                  1004c618     task.obj
 0002:00007638       $SG136566                  1004c638     task.obj
 0002:00007654       $SG136568                  1004c654     task.obj
 0002:00007690       $SG136569                  1004c690     task.obj
 0002:000076d0       $SG136570                  1004c6d0     task.obj
 0002:000076ec       $SG145816                  1004c6ec     task.obj
 0002:00007714       $SG145817                  1004c714     task.obj
 0002:00007734       $SG145818                  1004c734     task.obj
 0002:00007750       $SG145819                  1004c750     task.obj
 0002:00007770       $SG145820                  1004c770     task.obj
 0002:0000778c       $SG145823                  1004c78c     task.obj
 0002:000077c8       $SG145821                  1004c7c8     task.obj
 0002:00007810       $SG145822                  1004c810     task.obj
 0002:00007830       $SG145824                  1004c830     task.obj
 0002:00007850       $SG145869                  1004c850     task.obj
 0002:00007878       $SG145870                  1004c878     task.obj
 0002:00007898       $SG145871                  1004c898     task.obj
 0002:000078b4       $SG145872                  1004c8b4     task.obj
 0002:000078d4       $SG145873                  1004c8d4     task.obj
 0002:000078f0       $SG145874                  1004c8f0     task.obj
 0002:00007938       $SG145875                  1004c938     task.obj
 0002:00007958       $SG145876                  1004c958     task.obj
 0002:00007994       $SG145877                  1004c994     task.obj
 0002:000079b4       ?venom@internal@tbb@@3IB   1004c9b4     task.obj
 0002:00007ab8       $SG147793                  1004cab8     task_group_context.obj
 0002:00007ae8       $SG147794                  1004cae8     task_group_context.obj
 0002:00007b0c       $SG147795                  1004cb0c     task_group_context.obj
 0002:00007b38       $SG147814                  1004cb38     task_group_context.obj
 0002:00007b68       $SG147815                  1004cb68     task_group_context.obj
 0002:00007b8c       $SG147816                  1004cb8c     task_group_context.obj
 0002:00007bb8       ___itt_null                1004cbb8     task_group_context.obj
 0002:00007bd0       $SG148191                  1004cbd0     task_group_context.obj
 0002:00007bec       $SG148192                  1004cbec     task_group_context.obj
 0002:00007c20       $SG148193                  1004cc20     task_group_context.obj
 0002:00007c4c       $SG148210                  1004cc4c     task_group_context.obj
 0002:00007c68       $SG148211                  1004cc68     task_group_context.obj
 0002:00007c9c       $SG148212                  1004cc9c     task_group_context.obj
 0002:00007cc8       $SG135602                  1004ccc8     task_group_context.obj
 0002:00007d10       $SG135603                  1004cd10     task_group_context.obj
 0002:00007d1c       $SG135604                  1004cd1c     task_group_context.obj
 0002:00007d48       $SG135800                  1004cd48     task_group_context.obj
 0002:00007d68       $SG135801                  1004cd68     task_group_context.obj
 0002:00007dac       $SG135802                  1004cdac     task_group_context.obj
 0002:00007dd8       $SG135803                  1004cdd8     task_group_context.obj
 0002:00007e0c       $SG135805                  1004ce0c     task_group_context.obj
 0002:00007e38       $SG135804                  1004ce38     task_group_context.obj
 0002:00007e88       $SG135819                  1004ce88     task_group_context.obj
 0002:00007e94       $SG135820                  1004ce94     task_group_context.obj
 0002:00007ec0       $SG135841                  1004cec0     task_group_context.obj
 0002:00007edc       $SG135842                  1004cedc     task_group_context.obj
 0002:00007f0c       $SG135843                  1004cf0c     task_group_context.obj
 0002:00007f38       $SG135844                  1004cf38     task_group_context.obj
 0002:00007f60       $SG135845                  1004cf60     task_group_context.obj
 0002:00007f6c       $SG135846                  1004cf6c     task_group_context.obj
 0002:00007f98       $SG135878                  1004cf98     task_group_context.obj
 0002:00007fb4       $SG135880                  1004cfb4     task_group_context.obj
 0002:00007fe0       $SG135879                  1004cfe0     task_group_context.obj
 0002:00008024       $SG135916                  1004d024     task_group_context.obj
 0002:0000804c       $SG135917                  1004d04c     task_group_context.obj
 0002:00008074       $SG135918                  1004d074     task_group_context.obj
 0002:000080a0       $SG135919                  1004d0a0     task_group_context.obj
 0002:000080d0       $SG135920                  1004d0d0     task_group_context.obj
 0002:000080f8       $SG135921                  1004d0f8     task_group_context.obj
 0002:00008124       $SG135932                  1004d124     task_group_context.obj
 0002:0000813c       $SG135933                  1004d13c     task_group_context.obj
 0002:00008140       $SG135946                  1004d140     task_group_context.obj
 0002:00008160       $SG135947                  1004d160     task_group_context.obj
 0002:000081ac       $SG135948                  1004d1ac     task_group_context.obj
 0002:000081d8       ?priority_from_normalized_rep@internal@tbb@@3QBW4priority_t@2@B 1004d1d8     task_group_context.obj
 0002:000081e4       ?venom@internal@tbb@@3IB   1004d1e4     task_group_context.obj
 0002:00008220       ___itt_null                1004d220     governor.obj
 0002:00008238       ?CilkLinkTable@internal@tbb@@3QBUdynamic_link_descriptor@12@B 1004d238     governor.obj
 0002:00008240       $SG135658                  1004d240     governor.obj
 0002:00008256       $SG135824                  1004d256     governor.obj
 0002:00008258       $SG135663                  1004d258     governor.obj
 0002:00008268       $SG135670                  1004d268     governor.obj
 0002:00008298       $SG135675                  1004d298     governor.obj
 0002:000082d8       $SG135677                  1004d2d8     governor.obj
 0002:00008304       $SG135689                  1004d304     governor.obj
 0002:00008314       $SG135690                  1004d314     governor.obj
 0002:00008334       $SG135691                  1004d334     governor.obj
 0002:00008350       $SG135687                  1004d350     governor.obj
 0002:000083a4       $SG135692                  1004d3a4     governor.obj
 0002:000083ac       $SG135693                  1004d3ac     governor.obj
 0002:000083cc       $SG135698                  1004d3cc     governor.obj
 0002:000083ec       $SG135699                  1004d3ec     governor.obj
 0002:00008404       $SG135700                  1004d404     governor.obj
 0002:00008424       $SG135713                  1004d424     governor.obj
 0002:00008434       $SG135714                  1004d434     governor.obj
 0002:00008454       $SG135718                  1004d454     governor.obj
 0002:00008460       $SG135719                  1004d460     governor.obj
 0002:00008480       $SG135729                  1004d480     governor.obj
 0002:000084b4       $SG135730                  1004d4b4     governor.obj
 0002:000084c0       $SG135731                  1004d4c0     governor.obj
 0002:000084e0       $SG135746                  1004d4e0     governor.obj
 0002:000084fc       $SG135747                  1004d4fc     governor.obj
 0002:00008508       $SG135748                  1004d508     governor.obj
 0002:00008528       $SG135767                  1004d528     governor.obj
 0002:00008564       $SG135768                  1004d564     governor.obj
 0002:0000857c       $SG135769                  1004d57c     governor.obj
 0002:0000859c       $SG135770                  1004d59c     governor.obj
 0002:000085d0       $SG135771                  1004d5d0     governor.obj
 0002:000085e0       $SG135772                  1004d5e0     governor.obj
 0002:00008600       $SG135773                  1004d600     governor.obj
 0002:00008640       $SG135774                  1004d640     governor.obj
 0002:00008658       $SG135775                  1004d658     governor.obj
 0002:00008678       $SG135776                  1004d678     governor.obj
 0002:000086b0       $SG135777                  1004d6b0     governor.obj
 0002:000086c8       $SG135778                  1004d6c8     governor.obj
 0002:000086e8       $SG135780                  1004d6e8     governor.obj
 0002:0000870c       $SG135781                  1004d70c     governor.obj
 0002:00008718       $SG135782                  1004d718     governor.obj
 0002:00008738       $SG135784                  1004d738     governor.obj
 0002:00008778       $SG135785                  1004d778     governor.obj
 0002:0000877c       $SG135786                  1004d77c     governor.obj
 0002:0000879c       $SG135787                  1004d79c     governor.obj
 0002:000087a8       $SG135788                  1004d7a8     governor.obj
 0002:000087c8       $SG135797                  1004d7c8     governor.obj
 0002:000087fc       $SG135798                  1004d7fc     governor.obj
 0002:00008808       $SG135799                  1004d808     governor.obj
 0002:00008828       $SG135801                  1004d828     governor.obj
 0002:00008854       $SG135802                  1004d854     governor.obj
 0002:00008860       $SG135803                  1004d860     governor.obj
 0002:00008880       $SG135812                  1004d880     governor.obj
 0002:000088ac       $SG135813                  1004d8ac     governor.obj
 0002:000088b8       $SG135814                  1004d8b8     governor.obj
 0002:000088d8       $SG135820                  1004d8d8     governor.obj
 0002:000088e0       $SG135821                  1004d8e0     governor.obj
 0002:000088e4       $SG135822                  1004d8e4     governor.obj
 0002:000088ec       $SG135823                  1004d8ec     governor.obj
 0002:000088f0       $SG135826                  1004d8f0     governor.obj
 0002:00008900       $SG135827                  1004d900     governor.obj
 0002:00008908       $SG135847                  1004d908     governor.obj
 0002:00008910       $SG135848                  1004d910     governor.obj
 0002:00008930       $SG135850                  1004d930     governor.obj
 0002:0000893c       $SG135851                  1004d93c     governor.obj
 0002:00008940       $SG135852                  1004d940     governor.obj
 0002:00008960       $SG135854                  1004d960     governor.obj
 0002:00008974       $SG135856                  1004d974     governor.obj
 0002:00008994       $SG135860                  1004d994     governor.obj
 0002:000089a8       $SG135855                  1004d9a8     governor.obj
 0002:00008a24       $SG135858                  1004da24     governor.obj
 0002:00008a4c       $SG135861                  1004da4c     governor.obj
 0002:00008a8c       $SG135862                  1004da8c     governor.obj
 0002:00008aac       $SG135864                  1004daac     governor.obj
 0002:00008abc       $SG135897                  1004dabc     governor.obj
 0002:00008af0       $SG135865                  1004daf0     governor.obj
 0002:00008b6c       $SG135866                  1004db6c     governor.obj
 0002:00008b8c       $SG135889                  1004db8c     governor.obj
 0002:00008bb4       $SG135890                  1004dbb4     governor.obj
 0002:00008bc4       $SG135891                  1004dbc4     governor.obj
 0002:00008be4       $SG135898                  1004dbe4     governor.obj
 0002:00008bf8       $SG135892                  1004dbf8     governor.obj
 0002:00008c40       $SG135893                  1004dc40     governor.obj
 0002:00008c78       $SG135894                  1004dc78     governor.obj
 0002:00008c98       $SG135899                  1004dc98     governor.obj
 0002:00008cb8       $SG135913                  1004dcb8     governor.obj
 0002:00008d10       $SG135914                  1004dd10     governor.obj
 0002:00008d14       $SG135915                  1004dd14     governor.obj
 0002:00008d34       ?venom@internal@tbb@@3IB   1004dd34     governor.obj
 0002:00008d38       ___itt_null                1004dd38     market.obj
 0002:00008d50       $SG135726                  1004dd50     market.obj
 0002:00008d64       $SG135727                  1004dd64     market.obj
 0002:00008d84       $SG135739                  1004dd84     market.obj
 0002:00008da0       $SG135740                  1004dda0     market.obj
 0002:00008dc0       $SG135741                  1004ddc0     market.obj
 0002:00008ddc       $SG135742                  1004dddc     market.obj
 0002:00008de8       $SG135743                  1004dde8     market.obj
 0002:00008e08       $SG135791                  1004de08     market.obj
 0002:00008e50       $SG135792                  1004de50     market.obj
 0002:00008e7c       $SG135793                  1004de7c     market.obj
 0002:00008e9c       $SG135799                  1004de9c     market.obj
 0002:00008ed8       $SG135795                  1004ded8     market.obj
 0002:00008f88       $SG135797                  1004df88     market.obj
 0002:00008ff0       $SG135800                  1004dff0     market.obj
 0002:00009068       $SG135801                  1004e068     market.obj
 0002:00009088       $SG135804                  1004e088     market.obj
 0002:000090cc       $SG135811                  1004e0cc     market.obj
 0002:000090e8       $SG135833                  1004e0e8     market.obj
 0002:0000911c       $SG135834                  1004e11c     market.obj
 0002:00009130       $SG135835                  1004e130     market.obj
 0002:00009150       $SG135837                  1004e150     market.obj
 0002:0000919c       $SG135838                  1004e19c     market.obj
 0002:000091a8       $SG135839                  1004e1a8     market.obj
 0002:000091c8       $SG135841                  1004e1c8     market.obj
 0002:000091fc       $SG135842                  1004e1fc     market.obj
 0002:00009210       $SG135843                  1004e210     market.obj
 0002:00009230       $SG135844                  1004e230     market.obj
 0002:00009244       $SG135845                  1004e244     market.obj
 0002:00009264       $SG135847                  1004e264     market.obj
 0002:0000927c       $SG135848                  1004e27c     market.obj
 0002:0000929c       $SG135850                  1004e29c     market.obj
 0002:000092d4       $SG135851                  1004e2d4     market.obj
 0002:00009304       $SG135852                  1004e304     market.obj
 0002:00009324       $SG135885                  1004e324     market.obj
 0002:00009350       $SG135886                  1004e350     market.obj
 0002:00009370       $SG135908                  1004e370     market.obj
 0002:00009380       $SG135909                  1004e380     market.obj
 0002:000093a0       $SG135910                  1004e3a0     market.obj
 0002:000093c0       $SG135911                  1004e3c0     market.obj
 0002:000093e0       $SG135919                  1004e3e0     market.obj
 0002:00009414       $SG135920                  1004e414     market.obj
 0002:00009428       $SG135921                  1004e428     market.obj
 0002:00009448       $SG135922                  1004e448     market.obj
 0002:00009464       $SG135923                  1004e464     market.obj
 0002:00009484       $SG135947                  1004e484     market.obj
 0002:00009488       $SG135948                  1004e488     market.obj
 0002:000094a8       $SG135949                  1004e4a8     market.obj
 0002:000094bc       $SG135950                  1004e4bc     market.obj
 0002:000094dc       $SG135951                  1004e4dc     market.obj
 0002:000094ec       $SG135952                  1004e4ec     market.obj
 0002:0000950c       $SG135956                  1004e50c     market.obj
 0002:00009528       $SG135957                  1004e528     market.obj
 0002:00009590       $SG135958                  1004e590     market.obj
 0002:000095b0       $SG136096                  1004e5b0     market.obj
 0002:000095c4       $SG136097                  1004e5c4     market.obj
 0002:000095e4       $SG136121                  1004e5e4     market.obj
 0002:000095f4       $SG136122                  1004e5f4     market.obj
 0002:00009614       $SG136124                  1004e614     market.obj
 0002:00009630       $SG136125                  1004e630     market.obj
 0002:00009650       $SG136127                  1004e650     market.obj
 0002:0000966c       $SG136128                  1004e66c     market.obj
 0002:0000968c       $SG136183                  1004e68c     market.obj
 0002:000096bc       $SG136184                  1004e6bc     market.obj
 0002:000096dc       $SG136222                  1004e6dc     market.obj
 0002:000096f8       $SG136185                  1004e6f8     market.obj
 0002:0000973c       $SG136186                  1004e73c     market.obj
 0002:0000975c       $SG136223                  1004e75c     market.obj
 0002:0000977c       $SG136225                  1004e77c     market.obj
 0002:00009788       $SG136226                  1004e788     market.obj
 0002:000097a8       $SG136263                  1004e7a8     market.obj
 0002:000097d4       $SG136264                  1004e7d4     market.obj
 0002:000097e0       $SG136265                  1004e7e0     market.obj
 0002:00009800       $SG136273                  1004e800     market.obj
 0002:0000981c       $SG136274                  1004e81c     market.obj
 0002:0000983c       $SG136284                  1004e83c     market.obj
 0002:00009858       $SG136285                  1004e858     market.obj
 0002:00009878       $SG136286                  1004e878     market.obj
 0002:00009898       $SG136287                  1004e898     market.obj
 0002:000098b8       $SG136297                  1004e8b8     market.obj
 0002:000098f4       $SG136298                  1004e8f4     market.obj
 0002:00009914       $SG136305                  1004e914     market.obj
 0002:00009950       $SG136299                  1004e950     market.obj
 0002:000099a0       $SG136300                  1004e9a0     market.obj
 0002:000099c0       $SG136306                  1004e9c0     market.obj
 0002:000099e0       $SG136325                  1004e9e0     market.obj
 0002:000099f8       $SG136326                  1004e9f8     market.obj
 0002:00009a18       $SG136338                  1004ea18     market.obj
 0002:00009a2c       $SG136339                  1004ea2c     market.obj
 0002:00009a4c       $SG136340                  1004ea4c     market.obj
 0002:00009a68       $SG136341                  1004ea68     market.obj
 0002:00009a88       $SG136356                  1004ea88     market.obj
 0002:00009a94       $SG136357                  1004ea94     market.obj
 0002:00009ab4       $SG136358                  1004eab4     market.obj
 0002:00009ad8       $SG136359                  1004ead8     market.obj
 0002:00009afc       $SG136360                  1004eafc     market.obj
 0002:00009b1c       $SG136361                  1004eb1c     market.obj
 0002:00009b34       $SG136362                  1004eb34     market.obj
 0002:00009b54       $SG136375                  1004eb54     market.obj
 0002:00009b78       $SG136376                  1004eb78     market.obj
 0002:00009b98       $SG136377                  1004eb98     market.obj
 0002:00009be0       $SG136378                  1004ebe0     market.obj
 0002:00009c00       $SG136395                  1004ec00     market.obj
 0002:00009c24       $SG136396                  1004ec24     market.obj
 0002:00009c44       $SG136397                  1004ec44     market.obj
 0002:00009c70       $SG136398                  1004ec70     market.obj
 0002:00009c90       $SG136402                  1004ec90     market.obj
 0002:00009cbc       $SG136403                  1004ecbc     market.obj
 0002:00009cdc       $SG136446                  1004ecdc     market.obj
 0002:00009d08       $SG136435                  1004ed08     market.obj
 0002:00009d58       $SG136436                  1004ed58     market.obj
 0002:00009d78       $SG136447                  1004ed78     market.obj
 0002:00009d98       $SG136452                  1004ed98     market.obj
 0002:00009dc0       $SG136453                  1004edc0     market.obj
 0002:00009de0       $SG136454                  1004ede0     market.obj
 0002:00009e0c       $SG136455                  1004ee0c     market.obj
 0002:00009e2c       $SG136457                  1004ee2c     market.obj
 0002:00009e4c       $SG136458                  1004ee4c     market.obj
 0002:00009e6c       $SG136459                  1004ee6c     market.obj
 0002:00009e80       $SG136460                  1004ee80     market.obj
 0002:00009ea0       $SG136462                  1004eea0     market.obj
 0002:00009eb4       $SG136463                  1004eeb4     market.obj
 0002:00009ed4       $SG136464                  1004eed4     market.obj
 0002:00009efc       $SG136465                  1004eefc     market.obj
 0002:00009f1c       $SG136466                  1004ef1c     market.obj
 0002:00009f48       $SG136467                  1004ef48     market.obj
 0002:00009f68       $SG136468                  1004ef68     market.obj
 0002:00009fc4       $SG136469                  1004efc4     market.obj
 0002:00009fe4       $SG136470                  1004efe4     market.obj
 0002:0000a010       $SG136471                  1004f010     market.obj
 0002:0000a030       ?venom@internal@tbb@@3IB   1004f030     market.obj
 0002:0000a440       $SG139313                  1004f440     arena.obj
 0002:0000a45a       $SG152703                  1004f45a     arena.obj
 0002:0000a45b       $SG152706                  1004f45b     arena.obj
 0002:0000a45c       $SG139314                  1004f45c     arena.obj
 0002:0000a47c       $SG139318                  1004f47c     arena.obj
 0002:0000a490       $SG139319                  1004f490     arena.obj
 0002:0000a4b0       $SG139463                  1004f4b0     arena.obj
 0002:0000a4d0       $SG139464                  1004f4d0     arena.obj
 0002:0000a4f0       $SG139512                  1004f4f0     arena.obj
 0002:0000a504       $SG139513                  1004f504     arena.obj
 0002:0000a524       $SG139514                  1004f524     arena.obj
 0002:0000a53c       $SG139515                  1004f53c     arena.obj
 0002:0000a55c       $SG139516                  1004f55c     arena.obj
 0002:0000a58c       $SG139517                  1004f58c     arena.obj
 0002:0000a5ac       $SG139518                  1004f5ac     arena.obj
 0002:0000a5c8       $SG139519                  1004f5c8     arena.obj
 0002:0000a5e8       $SG139520                  1004f5e8     arena.obj
 0002:0000a5fc       $SG139521                  1004f5fc     arena.obj
 0002:0000a61c       $SG139524                  1004f61c     arena.obj
 0002:0000a644       $SG139525                  1004f644     arena.obj
 0002:0000a664       $SG139526                  1004f664     arena.obj
 0002:0000a684       $SG139527                  1004f684     arena.obj
 0002:0000a6c4       $SG139528                  1004f6c4     arena.obj
 0002:0000a6e0       $SG139529                  1004f6e0     arena.obj
 0002:0000a700       $SG139531                  1004f700     arena.obj
 0002:0000a720       $SG139532                  1004f720     arena.obj
 0002:0000a740       $SG139533                  1004f740     arena.obj
 0002:0000a760       $SG139534                  1004f760     arena.obj
 0002:0000a780       $SG139535                  1004f780     arena.obj
 0002:0000a7b0       $SG139536                  1004f7b0     arena.obj
 0002:0000a7d0       $SG139537                  1004f7d0     arena.obj
 0002:0000a7ec       $SG139538                  1004f7ec     arena.obj
 0002:0000a80c       $SG139539                  1004f80c     arena.obj
 0002:0000a820       $SG139540                  1004f820     arena.obj
 0002:0000a840       $SG139541                  1004f840     arena.obj
 0002:0000a87c       $SG139542                  1004f87c     arena.obj
 0002:0000a8a4       $SG139543                  1004f8a4     arena.obj
 0002:0000a8c4       $SG139544                  1004f8c4     arena.obj
 0002:0000a8f0       $SG139545                  1004f8f0     arena.obj
 0002:0000a91c       $SG139546                  1004f91c     arena.obj
 0002:0000a93c       $SG139551                  1004f93c     arena.obj
 0002:0000a95c       $SG139552                  1004f95c     arena.obj
 0002:0000a97c       $SG139553                  1004f97c     arena.obj
 0002:0000a9ac       $SG139554                  1004f9ac     arena.obj
 0002:0000a9cc       $SG139555                  1004f9cc     arena.obj
 0002:0000a9e8       $SG139556                  1004f9e8     arena.obj
 0002:0000aa08       $SG139557                  1004fa08     arena.obj
 0002:0000aa1c       $SG139558                  1004fa1c     arena.obj
 0002:0000aa3c       $SG139584                  1004fa3c     arena.obj
 0002:0000aa58       $SG139585                  1004fa58     arena.obj
 0002:0000aa64       $SG139586                  1004fa64     arena.obj
 0002:0000aa84       $SG139587                  1004fa84     arena.obj
 0002:0000aab8       $SG139588                  1004fab8     arena.obj
 0002:0000aae4       $SG139589                  1004fae4     arena.obj
 0002:0000ab04       $SG139590                  1004fb04     arena.obj
 0002:0000ab18       $SG139591                  1004fb18     arena.obj
 0002:0000ab40       $SG139592                  1004fb40     arena.obj
 0002:0000ab60       $SG139593                  1004fb60     arena.obj
 0002:0000ab80       $SG139594                  1004fb80     arena.obj
 0002:0000abc4       $SG139595                  1004fbc4     arena.obj
 0002:0000abe4       $SG139596                  1004fbe4     arena.obj
 0002:0000ac08       $SG139597                  1004fc08     arena.obj
 0002:0000ac28       $SG139598                  1004fc28     arena.obj
 0002:0000ac5c       $SG139599                  1004fc5c     arena.obj
 0002:0000ac7c       $SG139600                  1004fc7c     arena.obj
 0002:0000ac98       $SG139601                  1004fc98     arena.obj
 0002:0000acb8       $SG139602                  1004fcb8     arena.obj
 0002:0000acd8       $SG139603                  1004fcd8     arena.obj
 0002:0000acf8       $SG139641                  1004fcf8     arena.obj
 0002:0000ad24       $SG139642                  1004fd24     arena.obj
 0002:0000ad5c       $SG139643                  1004fd5c     arena.obj
 0002:0000ad7c       $SG139644                  1004fd7c     arena.obj
 0002:0000ada8       $SG139645                  1004fda8     arena.obj
 0002:0000add4       $SG139646                  1004fdd4     arena.obj
 0002:0000adf4       $SG139647                  1004fdf4     arena.obj
 0002:0000ae10       $SG139648                  1004fe10     arena.obj
 0002:0000ae38       $SG139649                  1004fe38     arena.obj
 0002:0000ae58       $SG139675                  1004fe58     arena.obj
 0002:0000ae6c       $SG139676                  1004fe6c     arena.obj
 0002:0000ae8c       $SG139677                  1004fe8c     arena.obj
 0002:0000aeb4       $SG139678                  1004feb4     arena.obj
 0002:0000aec4       $SG139679                  1004fec4     arena.obj
 0002:0000aee4       $SG139680                  1004fee4     arena.obj
 0002:0000af04       $SG139681                  1004ff04     arena.obj
 0002:0000af3c       $SG139682                  1004ff3c     arena.obj
 0002:0000af5c       $SG139683                  1004ff5c     arena.obj
 0002:0000af80       $SG139684                  1004ff80     arena.obj
 0002:0000afb8       $SG139685                  1004ffb8     arena.obj
 0002:0000afd8       $SG139686                  1004ffd8     arena.obj
 0002:0000b004       $SG139687                  10050004     arena.obj
 0002:0000b024       $SG139688                  10050024     arena.obj
 0002:0000b03c       $SG139689                  1005003c     arena.obj
 0002:0000b058       ___itt_null                10050058     arena.obj
 0002:0000b070       $SG139690                  10050070     arena.obj
 0002:0000b090       $SG139691                  10050090     arena.obj
 0002:0000b0b8       $SG139692                  100500b8     arena.obj
 0002:0000b0d8       $SG139693                  100500d8     arena.obj
 0002:0000b100       $SG139694                  10050100     arena.obj
 0002:0000b11c       $SG139695                  1005011c     arena.obj
 0002:0000b13c       $SG139696                  1005013c     arena.obj
 0002:0000b164       $SG139697                  10050164     arena.obj
 0002:0000b174       $SG139698                  10050174     arena.obj
 0002:0000b194       $SG139700                  10050194     arena.obj
 0002:0000b1a8       $SG139701                  100501a8     arena.obj
 0002:0000b1c8       $SG139702                  100501c8     arena.obj
 0002:0000b200       $SG139703                  10050200     arena.obj
 0002:0000b220       $SG139857                  10050220     arena.obj
 0002:0000b238       $SG139858                  10050238     arena.obj
 0002:0000b258       $SG139859                  10050258     arena.obj
 0002:0000b2a4       $SG139860                  100502a4     arena.obj
 0002:0000b2c4       $SG139950                  100502c4     arena.obj
 0002:0000b2cc       $SG139951                  100502cc     arena.obj
 0002:0000b2ec       $SG139990                  100502ec     arena.obj
 0002:0000b320       $SG139991                  10050320     arena.obj
 0002:0000b35c       $SG139992                  1005035c     arena.obj
 0002:0000b37c       $SG139997                  1005037c     arena.obj
 0002:0000b3b4       $SG139998                  100503b4     arena.obj
 0002:0000b3c0       $SG139994                  100503c0     arena.obj
 0002:0000b414       $SG139995                  10050414     arena.obj
 0002:0000b424       $SG139996                  10050424     arena.obj
 0002:0000b444       $SG139999                  10050444     arena.obj
 0002:0000b464       $SG140000                  10050464     arena.obj
 0002:0000b48c       $SG140001                  1005048c     arena.obj
 0002:0000b4b0       $SG140002                  100504b0     arena.obj
 0002:0000b4d0       $SG140049                  100504d0     arena.obj
 0002:0000b4e8       $SG140050                  100504e8     arena.obj
 0002:0000b508       $SG140051                  10050508     arena.obj
 0002:0000b514       $SG140052                  10050514     arena.obj
 0002:0000b534       $SG140054                  10050534     arena.obj
 0002:0000b544       $SG140055                  10050544     arena.obj
 0002:0000b564       $SG140064                  10050564     arena.obj
 0002:0000b57c       $SG140065                  1005057c     arena.obj
 0002:0000b5ac       $SG140066                  100505ac     arena.obj
 0002:0000b5cc       $SG140400                  100505cc     arena.obj
 0002:0000b5fc       $SG140404                  100505fc     arena.obj
 0002:0000b608       $SG140399                  10050608     arena.obj
 0002:0000b650       $SG140401                  10050650     arena.obj
 0002:0000b670       $SG140405                  10050670     arena.obj
 0002:0000b690       $SG140417                  10050690     arena.obj
 0002:0000b69c       $SG140418                  1005069c     arena.obj
 0002:0000b6bc       $SG140420                  100506bc     arena.obj
 0002:0000b6d8       $SG140421                  100506d8     arena.obj
 0002:0000b6f8       $SG140422                  100506f8     arena.obj
 0002:0000b73c       $SG140423                  1005073c     arena.obj
 0002:0000b75c       $SG140434                  1005075c     arena.obj
 0002:0000b768       $SG140435                  10050768     arena.obj
 0002:0000b788       $SG140436                  10050788     arena.obj
 0002:0000b7a8       $SG140437                  100507a8     arena.obj
 0002:0000b7ac       $SG140438                  100507ac     arena.obj
 0002:0000b7cc       $SG140439                  100507cc     arena.obj
 0002:0000b7fc       $SG140440                  100507fc     arena.obj
 0002:0000b81c       $SG140442                  1005081c     arena.obj
 0002:0000b858       $SG140441                  10050858     arena.obj
 0002:0000b8e8       $SG140443                  100508e8     arena.obj
 0002:0000b908       $SG140672                  10050908     arena.obj
 0002:0000b914       $SG140673                  10050914     arena.obj
 0002:0000b934       $SG140674                  10050934     arena.obj
 0002:0000b954       $SG140675                  10050954     arena.obj
 0002:0000b958       $SG140676                  10050958     arena.obj
 0002:0000b978       $SG140685                  10050978     arena.obj
 0002:0000b994       $SG140686                  10050994     arena.obj
 0002:0000b9b4       $SG140687                  100509b4     arena.obj
 0002:0000b9d4       $SG140688                  100509d4     arena.obj
 0002:0000b9f4       $SG140695                  100509f4     arena.obj
 0002:0000ba18       $SG140696                  10050a18     arena.obj
 0002:0000ba38       $SG140766                  10050a38     arena.obj
 0002:0000ba44       $SG140767                  10050a44     arena.obj
 0002:0000ba64       $SG140768                  10050a64     arena.obj
 0002:0000ba84       $SG140769                  10050a84     arena.obj
 0002:0000ba88       $SG140770                  10050a88     arena.obj
 0002:0000baa8       $SG140771                  10050aa8     arena.obj
 0002:0000baf0       $SG140772                  10050af0     arena.obj
 0002:0000bb24       $SG140773                  10050b24     arena.obj
 0002:0000bb44       $SG140776                  10050b44     arena.obj
 0002:0000bb50       $SG140777                  10050b50     arena.obj
 0002:0000bb6c       $SG140778                  10050b6c     arena.obj
 0002:0000bb8c       $SG140815                  10050b8c     arena.obj
 0002:0000bb9c       $SG140816                  10050b9c     arena.obj
 0002:0000bbbc       $SG140817                  10050bbc     arena.obj
 0002:0000bbf8       $SG140818                  10050bf8     arena.obj
 0002:0000bbfc       $SG140819                  10050bfc     arena.obj
 0002:0000bc1c       $SG140832                  10050c1c     arena.obj
 0002:0000bc40       $SG140833                  10050c40     arena.obj
 0002:0000bc60       $SG140834                  10050c60     arena.obj
 0002:0000bc8c       $SG140835                  10050c8c     arena.obj
 0002:0000bcac       $SG152690                  10050cac     arena.obj
 0002:0000bccc       $SG152691                  10050ccc     arena.obj
 0002:0000bce8       $SG152693                  10050ce8     arena.obj
 0002:0000bd0c       $SG152694                  10050d0c     arena.obj
 0002:0000bd24       $SG152695                  10050d24     arena.obj
 0002:0000bd40       $SG152704                  10050d40     arena.obj
 0002:0000bd58       $SG152705                  10050d58     arena.obj
 0002:0000bd74       $SG152707                  10050d74     arena.obj
 0002:0000bda0       $SG152708                  10050da0     arena.obj
 0002:0000bdbc       $SG152756                  10050dbc     arena.obj
 0002:0000bde4       $SG152757                  10050de4     arena.obj
 0002:0000be04       $SG152758                  10050e04     arena.obj
 0002:0000be20       $SG152759                  10050e20     arena.obj
 0002:0000be40       $SG152760                  10050e40     arena.obj
 0002:0000be5c       $SG152763                  10050e5c     arena.obj
 0002:0000be98       $SG152761                  10050e98     arena.obj
 0002:0000bee0       $SG152762                  10050ee0     arena.obj
 0002:0000bf00       $SG152764                  10050f00     arena.obj
 0002:0000bf20       ?venom@internal@tbb@@3IB   10050f20     arena.obj
 0002:0000ccf8       ___itt_null                10051cf8     scheduler.obj
 0002:0000cd10       $SG151570                  10051d10     scheduler.obj
 0002:0000cd36       $SG147227                  10051d36     scheduler.obj
 0002:0000cd37       $SG147230                  10051d37     scheduler.obj
 0002:0000cd38       $SG151571                  10051d38     scheduler.obj
 0002:0000cd57       $SG147264                  10051d57     scheduler.obj
 0002:0000cd58       $SG151572                  10051d58     scheduler.obj
 0002:0000cd74       $SG151573                  10051d74     scheduler.obj
 0002:0000cd93       $SG147267                  10051d93     scheduler.obj
 0002:0000cd94       $SG151574                  10051d94     scheduler.obj
 0002:0000cdb0       $SG151575                  10051db0     scheduler.obj
 0002:0000cdf8       $SG151576                  10051df8     scheduler.obj
 0002:0000ce18       $SG151577                  10051e18     scheduler.obj
 0002:0000ce54       $SG151578                  10051e54     scheduler.obj
 0002:0000ce74       $SG135801                  10051e74     scheduler.obj
 0002:0000ce98       $SG135800                  10051e98     scheduler.obj
 0002:0000cef4       $SG135822                  10051ef4     scheduler.obj
 0002:0000cf2c       $SG135823                  10051f2c     scheduler.obj
 0002:0000cf3c       $SG135824                  10051f3c     scheduler.obj
 0002:0000cf60       $SG135825                  10051f60     scheduler.obj
 0002:0000cf94       $SG135826                  10051f94     scheduler.obj
 0002:0000cfa8       $SG135827                  10051fa8     scheduler.obj
 0002:0000cfcc       $SG135849                  10051fcc     scheduler.obj
 0002:0000cffc       $SG135850                  10051ffc     scheduler.obj
 0002:0000d014       $SG135851                  10052014     scheduler.obj
 0002:0000d038       $SG135852                  10052038     scheduler.obj
 0002:0000d054       $SG135853                  10052054     scheduler.obj
 0002:0000d088       $SG135854                  10052088     scheduler.obj
 0002:0000d0ac       $SG135855                  100520ac     scheduler.obj
 0002:0000d0c8       $SG135856                  100520c8     scheduler.obj
 0002:0000d0d8       $SG135857                  100520d8     scheduler.obj
 0002:0000d0fc       $SG135978                  100520fc     scheduler.obj
 0002:0000d130       $SG135979                  10052130     scheduler.obj
 0002:0000d178       $SG135980                  10052178     scheduler.obj
 0002:0000d19c       $SG135982                  1005219c     scheduler.obj
 0002:0000d1c0       $SG135981                  100521c0     scheduler.obj
 0002:0000d210       $SG135983                  10052210     scheduler.obj
 0002:0000d234       $SG136000                  10052234     scheduler.obj
 0002:0000d244       $SG136001                  10052244     scheduler.obj
 0002:0000d268       $SG136003                  10052268     scheduler.obj
 0002:0000d288       $SG136004                  10052288     scheduler.obj
 0002:0000d2a0       $SG136005                  100522a0     scheduler.obj
 0002:0000d2c4       $SG136033                  100522c4     scheduler.obj
 0002:0000d2e4       $SG136034                  100522e4     scheduler.obj
 0002:0000d2fc       $SG136035                  100522fc     scheduler.obj
 0002:0000d320       $SG136038                  10052320     scheduler.obj
 0002:0000d34c       $SG136039                  1005234c     scheduler.obj
 0002:0000d350       $SG136040                  10052350     scheduler.obj
 0002:0000d374       $SG136041                  10052374     scheduler.obj
 0002:0000d39c       $SG136042                  1005239c     scheduler.obj
 0002:0000d3b8       $SG136043                  100523b8     scheduler.obj
 0002:0000d3dc       $SG136179                  100523dc     scheduler.obj
 0002:0000d3f4       $SG136180                  100523f4     scheduler.obj
 0002:0000d418       $SG136181                  10052418     scheduler.obj
 0002:0000d424       $SG136182                  10052424     scheduler.obj
 0002:0000d448       $SG136527                  10052448     scheduler.obj
 0002:0000d450       $SG136528                  10052450     scheduler.obj
 0002:0000d474       $SG136529                  10052474     scheduler.obj
 0002:0000d48c       $SG136530                  1005248c     scheduler.obj
 0002:0000d4b0       $SG136550                  100524b0     scheduler.obj
 0002:0000d4c8       $SG136551                  100524c8     scheduler.obj
 0002:0000d4ec       $SG136552                  100524ec     scheduler.obj
 0002:0000d4f4       $SG136553                  100524f4     scheduler.obj
 0002:0000d518       $SG136554                  10052518     scheduler.obj
 0002:0000d53c       $SG136555                  1005253c     scheduler.obj
 0002:0000d550       $SG136556                  10052550     scheduler.obj
 0002:0000d574       $SG136558                  10052574     scheduler.obj
 0002:0000d5ac       $SG136559                  100525ac     scheduler.obj
 0002:0000d5e8       $SG136560                  100525e8     scheduler.obj
 0002:0000d60c       $SG136580                  1005260c     scheduler.obj
 0002:0000d628       $SG136581                  10052628     scheduler.obj
 0002:0000d634       $SG136582                  10052634     scheduler.obj
 0002:0000d658       $SG136612                  10052658     scheduler.obj
 0002:0000d678       $SG136613                  10052678     scheduler.obj
 0002:0000d69c       $SG136641                  1005269c     scheduler.obj
 0002:0000d6b8       $SG136642                  100526b8     scheduler.obj
 0002:0000d6dc       $SG136643                  100526dc     scheduler.obj
 0002:0000d714       $SG136644                  10052714     scheduler.obj
 0002:0000d728       $SG136645                  10052728     scheduler.obj
 0002:0000d74c       $SG136649                  1005274c     scheduler.obj
 0002:0000d754       $SG136650                  10052754     scheduler.obj
 0002:0000d778       $SG136676                  10052778     scheduler.obj
 0002:0000d79c       $SG136677                  1005279c     scheduler.obj
 0002:0000d7ac       $SG136678                  100527ac     scheduler.obj
 0002:0000d7d0       $SG136681                  100527d0     scheduler.obj
 0002:0000d7f4       $SG136682                  100527f4     scheduler.obj
 0002:0000d818       $SG136685                  10052818     scheduler.obj
 0002:0000d820       $SG136686                  10052820     scheduler.obj
 0002:0000d844       $SG136687                  10052844     scheduler.obj
 0002:0000d84c       $SG136688                  1005284c     scheduler.obj
 0002:0000d870       $SG136709                  10052870     scheduler.obj
 0002:0000d884       $SG136710                  10052884     scheduler.obj
 0002:0000d8a8       $SG136711                  100528a8     scheduler.obj
 0002:0000d8c8       $SG136712                  100528c8     scheduler.obj
 0002:0000d928       $SG136713                  10052928     scheduler.obj
 0002:0000d94c       $SG136715                  1005294c     scheduler.obj
 0002:0000d960       $SG136716                  10052960     scheduler.obj
 0002:0000d984       $SG136717                  10052984     scheduler.obj
 0002:0000d9c0       $SG136718                  100529c0     scheduler.obj
 0002:0000d9e4       $SG136848                  100529e4     scheduler.obj
 0002:0000d9ec       $SG136849                  100529ec     scheduler.obj
 0002:0000da10       $SG136851                  10052a10     scheduler.obj
 0002:0000da28       $SG136852                  10052a28     scheduler.obj
 0002:0000da4c       $SG136861                  10052a4c     scheduler.obj
 0002:0000da58       $SG136862                  10052a58     scheduler.obj
 0002:0000da7c       $SG136863                  10052a7c     scheduler.obj
 0002:0000da84       $SG136864                  10052a84     scheduler.obj
 0002:0000daa8       $SG136884                  10052aa8     scheduler.obj
 0002:0000dab8       $SG136885                  10052ab8     scheduler.obj
 0002:0000dacc       $SG136886                  10052acc     scheduler.obj
 0002:0000daf0       $SG136939                  10052af0     scheduler.obj
 0002:0000db10       $SG136940                  10052b10     scheduler.obj
 0002:0000db18       $SG136941                  10052b18     scheduler.obj
 0002:0000db3c       $SG136985                  10052b3c     scheduler.obj
 0002:0000db4c       $SG136986                  10052b4c     scheduler.obj
 0002:0000db70       $SG136987                  10052b70     scheduler.obj
 0002:0000db80       $SG136988                  10052b80     scheduler.obj
 0002:0000dba4       $SG136990                  10052ba4     scheduler.obj
 0002:0000dbdc       $SG136991                  10052bdc     scheduler.obj
 0002:0000dbf4       $SG136992                  10052bf4     scheduler.obj
 0002:0000dc18       $SG136993                  10052c18     scheduler.obj
 0002:0000dc58       $SG136994                  10052c58     scheduler.obj
 0002:0000dc78       $SG136995                  10052c78     scheduler.obj
 0002:0000dc9c       $SG137004                  10052c9c     scheduler.obj
 0002:0000dcb8       $SG137005                  10052cb8     scheduler.obj
 0002:0000dccc       $SG137006                  10052ccc     scheduler.obj
 0002:0000dcf0       $SG137030                  10052cf0     scheduler.obj
 0002:0000dcfc       $SG137031                  10052cfc     scheduler.obj
 0002:0000dd20       $SG137036                  10052d20     scheduler.obj
 0002:0000dd54       $SG137037                  10052d54     scheduler.obj
 0002:0000dd6c       $SG137038                  10052d6c     scheduler.obj
 0002:0000dd90       $SG137039                  10052d90     scheduler.obj
 0002:0000ddac       $SG137040                  10052dac     scheduler.obj
 0002:0000ddd0       $SG137041                  10052dd0     scheduler.obj
 0002:0000de10       $SG137042                  10052e10     scheduler.obj
 0002:0000de28       $SG137043                  10052e28     scheduler.obj
 0002:0000de4c       $SG137047                  10052e4c     scheduler.obj
 0002:0000de6c       $SG137048                  10052e6c     scheduler.obj
 0002:0000de90       $SG146319                  10052e90     scheduler.obj
 0002:0000deb8       $SG146320                  10052eb8     scheduler.obj
 0002:0000ded8       $SG146321                  10052ed8     scheduler.obj
 0002:0000def4       $SG146322                  10052ef4     scheduler.obj
 0002:0000df14       $SG146323                  10052f14     scheduler.obj
 0002:0000df30       $SG146324                  10052f30     scheduler.obj
 0002:0000df78       $SG146325                  10052f78     scheduler.obj
 0002:0000df98       $SG146326                  10052f98     scheduler.obj
 0002:0000dfd4       $SG146327                  10052fd4     scheduler.obj
 0002:0000dff4       $SG146452                  10052ff4     scheduler.obj
 0002:0000e00c       $SG146453                  1005300c     scheduler.obj
 0002:0000e034       $SG146454                  10053034     scheduler.obj
 0002:0000e04c       ?venom@internal@tbb@@3IB   1005304c     scheduler.obj
 0002:0000e050       $SG146455                  10053050     scheduler.obj
 0002:0000e094       $SG146456                  10053094     scheduler.obj
 0002:0000e0bc       $SG146457                  100530bc     scheduler.obj
 0002:0000e0d8       $SG146458                  100530d8     scheduler.obj
 0002:0000e100       $SG146460                  10053100     scheduler.obj
 0002:0000e124       $SG146461                  10053124     scheduler.obj
 0002:0000e13c       $SG146462                  1005313c     scheduler.obj
 0002:0000e164       $SG146465                  10053164     scheduler.obj
 0002:0000e1a0       $SG146463                  100531a0     scheduler.obj
 0002:0000e1e4       $SG146464                  100531e4     scheduler.obj
 0002:0000e20c       $SG146479                  1005320c     scheduler.obj
 0002:0000e220       $SG146466                  10053220     scheduler.obj
 0002:0000e264       $SG146467                  10053264     scheduler.obj
 0002:0000e28c       $SG146474                  1005328c     scheduler.obj
 0002:0000e2b4       $SG146475                  100532b4     scheduler.obj
 0002:0000e2dc       $SG146477                  100532dc     scheduler.obj
 0002:0000e2fc       $SG146478                  100532fc     scheduler.obj
 0002:0000e324       $SG146480                  10053324     scheduler.obj
 0002:0000e334       $SG146481                  10053334     scheduler.obj
 0002:0000e35c       $SG146482                  1005335c     scheduler.obj
 0002:0000e370       $SG146483                  10053370     scheduler.obj
 0002:0000e398       $SG146484                  10053398     scheduler.obj
 0002:0000e3d4       $SG146501                  100533d4     scheduler.obj
 0002:0000e3f8       $SG146485                  100533f8     scheduler.obj
 0002:0000e438       $SG146486                  10053438     scheduler.obj
 0002:0000e460       $SG146488                  10053460     scheduler.obj
 0002:0000e4ac       $SG146489                  100534ac     scheduler.obj
 0002:0000e4d4       $SG146507                  100534d4     scheduler.obj
 0002:0000e508       $SG146500                  10053508     scheduler.obj
 0002:0000e548       $SG146502                  10053548     scheduler.obj
 0002:0000e570       $SG146505                  10053570     scheduler.obj
 0002:0000e590       $SG146506                  10053590     scheduler.obj
 0002:0000e5b8       $SG146508                  100535b8     scheduler.obj
 0002:0000e5d4       $SG146509                  100535d4     scheduler.obj
 0002:0000e5fc       $SG146514                  100535fc     scheduler.obj
 0002:0000e608       $SG146513                  10053608     scheduler.obj
 0002:0000e654       $SG146515                  10053654     scheduler.obj
 0002:0000e67c       $SG146517                  1005367c     scheduler.obj
 0002:0000e6bc       $SG146518                  100536bc     scheduler.obj
 0002:0000e6c4       $SG146519                  100536c4     scheduler.obj
 0002:0000e6ec       $SG146521                  100536ec     scheduler.obj
 0002:0000e6f8       $SG146520                  100536f8     scheduler.obj
 0002:0000e744       $SG146522                  10053744     scheduler.obj
 0002:0000e76c       $SG146525                  1005376c     scheduler.obj
 0002:0000e7a8       $SG146526                  100537a8     scheduler.obj
 0002:0000e7b0       $SG146527                  100537b0     scheduler.obj
 0002:0000e7d8       $SG146529                  100537d8     scheduler.obj
 0002:0000e7e8       $SG146530                  100537e8     scheduler.obj
 0002:0000e7f0       $SG146531                  100537f0     scheduler.obj
 0002:0000e818       $SG146533                  10053818     scheduler.obj
 0002:0000e83c       $SG146534                  1005383c     scheduler.obj
 0002:0000e864       $SG146538                  10053864     scheduler.obj
 0002:0000e88c       $SG146539                  1005388c     scheduler.obj
 0002:0000e8b4       $SG146544                  100538b4     scheduler.obj
 0002:0000e8d0       $SG146542                  100538d0     scheduler.obj
 0002:0000e914       $SG146543                  10053914     scheduler.obj
 0002:0000e93c       $SG146545                  1005393c     scheduler.obj
 0002:0000e964       $SG146549                  10053964     scheduler.obj
 0002:0000e978       $SG146550                  10053978     scheduler.obj
 0002:0000e980       $SG146551                  10053980     scheduler.obj
 0002:0000e9a8       $SG146555                  100539a8     scheduler.obj
 0002:0000e9c0       $SG146556                  100539c0     scheduler.obj
 0002:0000e9c4       $SG146563                  100539c4     scheduler.obj
 0002:0000e9dc       $SG146564                  100539dc     scheduler.obj
 0002:0000e9e4       $SG146565                  100539e4     scheduler.obj
 0002:0000ea0c       $SG146569                  10053a0c     scheduler.obj
 0002:0000ea44       $SG146570                  10053a44     scheduler.obj
 0002:0000ea60       $SG146571                  10053a60     scheduler.obj
 0002:0000ea88       $SG146572                  10053a88     scheduler.obj
 0002:0000eab8       $SG146573                  10053ab8     scheduler.obj
 0002:0000eae0       $SG146578                  10053ae0     scheduler.obj
 0002:0000eb08       $SG146579                  10053b08     scheduler.obj
 0002:0000eb44       $SG146580                  10053b44     scheduler.obj
 0002:0000eb6c       $SG146660                  10053b6c     scheduler.obj
 0002:0000eb84       $SG146662                  10053b84     scheduler.obj
 0002:0000eb98       $SG146581                  10053b98     scheduler.obj
 0002:0000ebe0       $SG146582                  10053be0     scheduler.obj
 0002:0000ec28       $SG146583                  10053c28     scheduler.obj
 0002:0000ec50       $SG146661                  10053c50     scheduler.obj
 0002:0000ec78       $SG146663                  10053c78     scheduler.obj
 0002:0000eca0       $SG146667                  10053ca0     scheduler.obj
 0002:0000eca4       $SG146668                  10053ca4     scheduler.obj
 0002:0000eccc       $SG146669                  10053ccc     scheduler.obj
 0002:0000ece4       $SG146670                  10053ce4     scheduler.obj
 0002:0000ed0c       $SG146674                  10053d0c     scheduler.obj
 0002:0000ed1c       $SG146675                  10053d1c     scheduler.obj
 0002:0000ed44       $SG146684                  10053d44     scheduler.obj
 0002:0000ed68       $SG146685                  10053d68     scheduler.obj
 0002:0000ed78       $SG146686                  10053d78     scheduler.obj
 0002:0000eda0       $SG146698                  10053da0     scheduler.obj
 0002:0000eda4       $SG146699                  10053da4     scheduler.obj
 0002:0000edcc       $SG146707                  10053dcc     scheduler.obj
 0002:0000ee08       $SG146708                  10053e08     scheduler.obj
 0002:0000ee30       $SG146711                  10053e30     scheduler.obj
 0002:0000ee54       $SG146712                  10053e54     scheduler.obj
 0002:0000ee64       $SG146713                  10053e64     scheduler.obj
 0002:0000ee8c       $SG146721                  10053e8c     scheduler.obj
 0002:0000eec0       $SG146722                  10053ec0     scheduler.obj
 0002:0000eee8       $SG146839                  10053ee8     scheduler.obj
 0002:0000ef00       $SG146840                  10053f00     scheduler.obj
 0002:0000ef28       $SG146841                  10053f28     scheduler.obj
 0002:0000ef40       $SG146842                  10053f40     scheduler.obj
 0002:0000ef84       $SG146843                  10053f84     scheduler.obj
 0002:0000efac       $SG146844                  10053fac     scheduler.obj
 0002:0000efc8       $SG146845                  10053fc8     scheduler.obj
 0002:0000eff0       $SG146847                  10053ff0     scheduler.obj
 0002:0000f014       $SG146848                  10054014     scheduler.obj
 0002:0000f02c       $SG146849                  1005402c     scheduler.obj
 0002:0000f054       $SG146852                  10054054     scheduler.obj
 0002:0000f090       $SG146850                  10054090     scheduler.obj
 0002:0000f0d4       $SG146851                  100540d4     scheduler.obj
 0002:0000f0fc       $SG146866                  100540fc     scheduler.obj
 0002:0000f110       $SG146853                  10054110     scheduler.obj
 0002:0000f154       $SG146854                  10054154     scheduler.obj
 0002:0000f17c       $SG146861                  1005417c     scheduler.obj
 0002:0000f1a4       $SG146862                  100541a4     scheduler.obj
 0002:0000f1cc       $SG146864                  100541cc     scheduler.obj
 0002:0000f1ec       $SG146865                  100541ec     scheduler.obj
 0002:0000f214       $SG146867                  10054214     scheduler.obj
 0002:0000f224       $SG146868                  10054224     scheduler.obj
 0002:0000f24c       $SG146869                  1005424c     scheduler.obj
 0002:0000f260       $SG146870                  10054260     scheduler.obj
 0002:0000f288       $SG146871                  10054288     scheduler.obj
 0002:0000f2c4       $SG146888                  100542c4     scheduler.obj
 0002:0000f2e8       $SG146872                  100542e8     scheduler.obj
 0002:0000f328       $SG146873                  10054328     scheduler.obj
 0002:0000f350       $SG146875                  10054350     scheduler.obj
 0002:0000f39c       $SG146876                  1005439c     scheduler.obj
 0002:0000f3c4       $SG146894                  100543c4     scheduler.obj
 0002:0000f3f8       $SG146887                  100543f8     scheduler.obj
 0002:0000f438       $SG146889                  10054438     scheduler.obj
 0002:0000f460       $SG146892                  10054460     scheduler.obj
 0002:0000f480       $SG146893                  10054480     scheduler.obj
 0002:0000f4a8       $SG146895                  100544a8     scheduler.obj
 0002:0000f4c4       $SG146896                  100544c4     scheduler.obj
 0002:0000f4ec       $SG146901                  100544ec     scheduler.obj
 0002:0000f4f8       $SG146900                  100544f8     scheduler.obj
 0002:0000f544       $SG146902                  10054544     scheduler.obj
 0002:0000f56c       $SG146904                  1005456c     scheduler.obj
 0002:0000f5ac       $SG146905                  100545ac     scheduler.obj
 0002:0000f5b4       $SG146906                  100545b4     scheduler.obj
 0002:0000f5dc       $SG146908                  100545dc     scheduler.obj
 0002:0000f5e8       $SG146907                  100545e8     scheduler.obj
 0002:0000f634       $SG146909                  10054634     scheduler.obj
 0002:0000f65c       $SG146912                  1005465c     scheduler.obj
 0002:0000f698       $SG146913                  10054698     scheduler.obj
 0002:0000f6a0       $SG146914                  100546a0     scheduler.obj
 0002:0000f6c8       $SG146916                  100546c8     scheduler.obj
 0002:0000f6d8       $SG146917                  100546d8     scheduler.obj
 0002:0000f6e0       $SG146918                  100546e0     scheduler.obj
 0002:0000f708       $SG146920                  10054708     scheduler.obj
 0002:0000f72c       $SG146921                  1005472c     scheduler.obj
 0002:0000f754       $SG146925                  10054754     scheduler.obj
 0002:0000f77c       $SG146926                  1005477c     scheduler.obj
 0002:0000f7a4       $SG146931                  100547a4     scheduler.obj
 0002:0000f7c0       $SG146929                  100547c0     scheduler.obj
 0002:0000f804       $SG146930                  10054804     scheduler.obj
 0002:0000f82c       $SG146932                  1005482c     scheduler.obj
 0002:0000f854       $SG146936                  10054854     scheduler.obj
 0002:0000f868       $SG146937                  10054868     scheduler.obj
 0002:0000f870       $SG146938                  10054870     scheduler.obj
 0002:0000f898       $SG146942                  10054898     scheduler.obj
 0002:0000f8b0       $SG146943                  100548b0     scheduler.obj
 0002:0000f8b4       $SG146950                  100548b4     scheduler.obj
 0002:0000f8cc       $SG146951                  100548cc     scheduler.obj
 0002:0000f8d4       $SG146952                  100548d4     scheduler.obj
 0002:0000f8fc       $SG146956                  100548fc     scheduler.obj
 0002:0000f934       $SG146957                  10054934     scheduler.obj
 0002:0000f950       $SG146958                  10054950     scheduler.obj
 0002:0000f978       $SG146959                  10054978     scheduler.obj
 0002:0000f9a8       $SG146960                  100549a8     scheduler.obj
 0002:0000f9d0       $SG146965                  100549d0     scheduler.obj
 0002:0000f9f8       $SG146966                  100549f8     scheduler.obj
 0002:0000fa34       $SG146967                  10054a34     scheduler.obj
 0002:0000fa5c       $SG147047                  10054a5c     scheduler.obj
 0002:0000fa74       $SG147049                  10054a74     scheduler.obj
 0002:0000fa88       $SG146968                  10054a88     scheduler.obj
 0002:0000fad0       $SG146969                  10054ad0     scheduler.obj
 0002:0000fb18       $SG146970                  10054b18     scheduler.obj
 0002:0000fb40       $SG147048                  10054b40     scheduler.obj
 0002:0000fb68       $SG147050                  10054b68     scheduler.obj
 0002:0000fb90       $SG147054                  10054b90     scheduler.obj
 0002:0000fb94       $SG147055                  10054b94     scheduler.obj
 0002:0000fbbc       $SG147056                  10054bbc     scheduler.obj
 0002:0000fbd4       $SG147057                  10054bd4     scheduler.obj
 0002:0000fbfc       $SG147061                  10054bfc     scheduler.obj
 0002:0000fc0c       $SG147062                  10054c0c     scheduler.obj
 0002:0000fc34       $SG147071                  10054c34     scheduler.obj
 0002:0000fc58       $SG147072                  10054c58     scheduler.obj
 0002:0000fc68       $SG147073                  10054c68     scheduler.obj
 0002:0000fc90       $SG147085                  10054c90     scheduler.obj
 0002:0000fc94       $SG147086                  10054c94     scheduler.obj
 0002:0000fcbc       $SG147094                  10054cbc     scheduler.obj
 0002:0000fcf8       $SG147095                  10054cf8     scheduler.obj
 0002:0000fd20       $SG147098                  10054d20     scheduler.obj
 0002:0000fd44       $SG147099                  10054d44     scheduler.obj
 0002:0000fd54       $SG147100                  10054d54     scheduler.obj
 0002:0000fd7c       $SG147108                  10054d7c     scheduler.obj
 0002:0000fdb0       $SG147109                  10054db0     scheduler.obj
 0002:0000fdd8       $SG147214                  10054dd8     scheduler.obj
 0002:0000fdf8       $SG147215                  10054df8     scheduler.obj
 0002:0000fe14       $SG147217                  10054e14     scheduler.obj
 0002:0000fe38       $SG147218                  10054e38     scheduler.obj
 0002:0000fe50       $SG147219                  10054e50     scheduler.obj
 0002:0000fe6c       $SG147228                  10054e6c     scheduler.obj
 0002:0000fe84       $SG147229                  10054e84     scheduler.obj
 0002:0000fea0       $SG147231                  10054ea0     scheduler.obj
 0002:0000fecc       $SG147232                  10054ecc     scheduler.obj
 0002:0000fee8       $SG147251                  10054ee8     scheduler.obj
 0002:0000ff08       $SG147252                  10054f08     scheduler.obj
 0002:0000ff24       $SG147254                  10054f24     scheduler.obj
 0002:0000ff48       $SG147255                  10054f48     scheduler.obj
 0002:0000ff60       $SG147256                  10054f60     scheduler.obj
 0002:0000ff7c       $SG147265                  10054f7c     scheduler.obj
 0002:0000ff94       $SG147266                  10054f94     scheduler.obj
 0002:0000ffb0       $SG147268                  10054fb0     scheduler.obj
 0002:0000ffdc       $SG147269                  10054fdc     scheduler.obj
 0002:0000fff8       $SG147306                  10054ff8     scheduler.obj
 0002:00010020       $SG147307                  10055020     scheduler.obj
 0002:00010040       $SG147308                  10055040     scheduler.obj
 0002:0001005c       $SG147309                  1005505c     scheduler.obj
 0002:0001007c       $SG147310                  1005507c     scheduler.obj
 0002:00010098       $SG147311                  10055098     scheduler.obj
 0002:000100e0       $SG147312                  100550e0     scheduler.obj
 0002:00010100       $SG147313                  10055100     scheduler.obj
 0002:0001013c       $SG147314                  1005513c     scheduler.obj
 0002:0001015c       $SG147344                  1005515c     scheduler.obj
 0002:00010184       $SG147345                  10055184     scheduler.obj
 0002:000101a4       $SG147346                  100551a4     scheduler.obj
 0002:000101c0       $SG147347                  100551c0     scheduler.obj
 0002:000101e0       $SG147348                  100551e0     scheduler.obj
 0002:000101fc       $SG147351                  100551fc     scheduler.obj
 0002:00010238       $SG147349                  10055238     scheduler.obj
 0002:00010280       $SG147350                  10055280     scheduler.obj
 0002:000102a0       $SG147352                  100552a0     scheduler.obj
 0002:000111e0       ___itt_null                100561e0     observer_proxy.obj
 0002:000111f8       $SG135720                  100561f8     observer_proxy.obj
 0002:00011238       $SG135721                  10056238     observer_proxy.obj
 0002:00011260       $SG135734                  10056260     observer_proxy.obj
 0002:00011288       $SG135735                  10056288     observer_proxy.obj
 0002:00011298       $SG135736                  10056298     observer_proxy.obj
 0002:000112c0       $SG135761                  100562c0     observer_proxy.obj
 0002:00011300       $SG135762                  10056300     observer_proxy.obj
 0002:00011324       $SG135763                  10056324     observer_proxy.obj
 0002:0001134c       $SG135764                  1005634c     observer_proxy.obj
 0002:00011358       $SG135765                  10056358     observer_proxy.obj
 0002:00011380       $SG135766                  10056380     observer_proxy.obj
 0002:00011394       $SG135767                  10056394     observer_proxy.obj
 0002:000113bc       $SG135770                  100563bc     observer_proxy.obj
 0002:000113d8       $SG135771                  100563d8     observer_proxy.obj
 0002:00011400       $SG135772                  10056400     observer_proxy.obj
 0002:00011424       $SG135773                  10056424     observer_proxy.obj
 0002:00011440       $SG135774                  10056440     observer_proxy.obj
 0002:00011468       $SG135775                  10056468     observer_proxy.obj
 0002:0001148c       $SG135776                  1005648c     observer_proxy.obj
 0002:000114a4       $SG135777                  100564a4     observer_proxy.obj
 0002:000114cc       $SG135800                  100564cc     observer_proxy.obj
 0002:000114fc       $SG135801                  100564fc     observer_proxy.obj
 0002:00011504       $SG135802                  10056504     observer_proxy.obj
 0002:0001152c       $SG135803                  1005652c     observer_proxy.obj
 0002:00011550       $SG135804                  10056550     observer_proxy.obj
 0002:00011564       $SG135805                  10056564     observer_proxy.obj
 0002:0001158c       $SG135808                  1005658c     observer_proxy.obj
 0002:00011598       $SG135809                  10056598     observer_proxy.obj
 0002:000115c0       $SG135810                  100565c0     observer_proxy.obj
 0002:000115cc       $SG135811                  100565cc     observer_proxy.obj
 0002:000115f4       $SG135814                  100565f4     observer_proxy.obj
 0002:00011600       $SG135815                  10056600     observer_proxy.obj
 0002:00011628       $SG135816                  10056628     observer_proxy.obj
 0002:00011634       $SG135817                  10056634     observer_proxy.obj
 0002:0001165c       $SG135818                  1005665c     observer_proxy.obj
 0002:0001168c       $SG135819                  1005668c     observer_proxy.obj
 0002:000116b4       $SG135835                  100566b4     observer_proxy.obj
 0002:000116c0       $SG135836                  100566c0     observer_proxy.obj
 0002:000116e8       $SG135837                  100566e8     observer_proxy.obj
 0002:000116f0       $SG135838                  100566f0     observer_proxy.obj
 0002:00011718       $SG135840                  10056718     observer_proxy.obj
 0002:00011720       $SG135841                  10056720     observer_proxy.obj
 0002:00011748       $SG135843                  10056748     observer_proxy.obj
 0002:00011760       $SG135844                  10056760     observer_proxy.obj
 0002:00011788       $SG135875                  10056788     observer_proxy.obj
 0002:000117b4       $SG135876                  100567b4     observer_proxy.obj
 0002:000117dc       $SG135877                  100567dc     observer_proxy.obj
 0002:000117ec       $SG135878                  100567ec     observer_proxy.obj
 0002:00011814       $SG135881                  10056814     observer_proxy.obj
 0002:00011828       $SG135882                  10056828     observer_proxy.obj
 0002:00011850       $SG135884                  10056850     observer_proxy.obj
 0002:00011860       $SG135885                  10056860     observer_proxy.obj
 0002:00011888       $SG135886                  10056888     observer_proxy.obj
 0002:000118a4       $SG135887                  100568a4     observer_proxy.obj
 0002:000118ac       $SG135888                  100568ac     observer_proxy.obj
 0002:000118d4       $SG135914                  100568d4     observer_proxy.obj
 0002:00011910       $SG135915                  10056910     observer_proxy.obj
 0002:0001191c       $SG135916                  1005691c     observer_proxy.obj
 0002:00011944       $SG135920                  10056944     observer_proxy.obj
 0002:00011948       $SG135919                  10056948     observer_proxy.obj
 0002:00011988       $SG135921                  10056988     observer_proxy.obj
 0002:000119b0       $SG135923                  100569b0     observer_proxy.obj
 0002:000119c4       $SG135924                  100569c4     observer_proxy.obj
 0002:000119ec       $SG135926                  100569ec     observer_proxy.obj
 0002:00011a0c       $SG135927                  10056a0c     observer_proxy.obj
 0002:00011a34       $SG135928                  10056a34     observer_proxy.obj
 0002:00011a50       $SG135929                  10056a50     observer_proxy.obj
 0002:00011a58       $SG135930                  10056a58     observer_proxy.obj
 0002:00011a80       $SG135963                  10056a80     observer_proxy.obj
 0002:00011a9c       $SG135964                  10056a9c     observer_proxy.obj
 0002:00011ac4       $SG135968                  10056ac4     observer_proxy.obj
 0002:00011aec       $SG135969                  10056aec     observer_proxy.obj
 0002:00011b14       $SG135970                  10056b14     observer_proxy.obj
 0002:00011b28       $SG135971                  10056b28     observer_proxy.obj
 0002:00011b50       $SG135976                  10056b50     observer_proxy.obj
 0002:00011b6c       $SG135977                  10056b6c     observer_proxy.obj
 0002:00011b94       $SG135978                  10056b94     observer_proxy.obj
 0002:00011bb8       $SG135979                  10056bb8     observer_proxy.obj
 0002:00011bd8       $SG135980                  10056bd8     observer_proxy.obj
 0002:00011c00       $SG135981                  10056c00     observer_proxy.obj
 0002:00011c20       $SG135982                  10056c20     observer_proxy.obj
 0002:00011c3c       $SG135983                  10056c3c     observer_proxy.obj
 0002:00011c64       $SG135985                  10056c64     observer_proxy.obj
 0002:00011c7c       $SG135986                  10056c7c     observer_proxy.obj
 0002:00011ca4       ?venom@internal@tbb@@3IB   10056ca4     observer_proxy.obj
 0002:00011d28       ___itt_null                10056d28     tbb_main.obj
 0002:00011d40       ?_pad@internal@tbb@@3QBDB  10056d40     tbb_main.obj
 0002:00011dbc       $SG133258                  10056dbc     tbb_main.obj
 0002:00011dec       $SG133259                  10056dec     tbb_main.obj
 0002:00011df4       $SG133260                  10056df4     tbb_main.obj
 0002:00011e14       $SG133281                  10056e14     tbb_main.obj
 0002:00011e20       $SG133282                  10056e20     tbb_main.obj
 0002:00011e28       $SG133283                  10056e28     tbb_main.obj
 0002:00011e34       $SG133284                  10056e34     tbb_main.obj
 0002:00011e44       $SG133638                  10056e44     tbb_main.obj
 0002:00011e70       $SG133639                  10056e70     tbb_main.obj
 0002:00011e90       $SG133659                  10056e90     tbb_main.obj
 0002:00011ebc       $SG133660                  10056ebc     tbb_main.obj
 0002:00011edc       $SG133661                  10056edc     tbb_main.obj
 0002:00011ee8       $SG133662                  10056ee8     tbb_main.obj
 0002:00011f08       $SG133672                  10056f08     tbb_main.obj
 0002:00011f20       $SG133673                  10056f20     tbb_main.obj
 0002:00011f40       $SG133679                  10056f40     tbb_main.obj
 0002:00011f68       $SG133680                  10056f68     tbb_main.obj
 0002:00012020       ___itt_null                10057020     concurrent_vector_v2.obj
 0002:00012038       $SG54686                   10057038     concurrent_vector_v2.obj
 0002:00012088       $SG54687                   10057088     concurrent_vector_v2.obj
 0002:000120b4       $SG54688                   100570b4     concurrent_vector_v2.obj
 0002:000120cc       $SG54689                   100570cc     concurrent_vector_v2.obj
 0002:000120f8       $SG54711                   100570f8     concurrent_vector_v2.obj
 0002:00012128       $SG54712                   10057128     concurrent_vector_v2.obj
 0002:00012140       $SG54713                   10057140     concurrent_vector_v2.obj
 0002:0001216c       $SG54742                   1005716c     concurrent_vector_v2.obj
 0002:00012184       $SG54743                   10057184     concurrent_vector_v2.obj
 0002:000121b0       $SG54749                   100571b0     concurrent_vector_v2.obj
 0002:0001220c       $SG54750                   1005720c     concurrent_vector_v2.obj
 0002:00012224       $SG54751                   10057224     concurrent_vector_v2.obj
 0002:00012250       $SG54786                   10057250     concurrent_vector_v2.obj
 0002:00012280       $SG54787                   10057280     concurrent_vector_v2.obj
 0002:000122ac       $SG54791                   100572ac     concurrent_vector_v2.obj
 0002:000122b8       $SG54792                   100572b8     concurrent_vector_v2.obj
 0002:000122e4       $SG54832                   100572e4     concurrent_vector_v2.obj
 0002:00012304       $SG54833                   10057304     concurrent_vector_v2.obj
 0002:00012314       $SG54834                   10057314     concurrent_vector_v2.obj
 0002:00012340       $SG54838                   10057340     concurrent_vector_v2.obj
 0002:0001234c       $SG54839                   1005734c     concurrent_vector_v2.obj
 0002:00012378       $SG54861                   10057378     concurrent_vector_v2.obj
 0002:00012384       $SG54862                   10057384     concurrent_vector_v2.obj
 0002:000123b0       $SG54863                   100573b0     concurrent_vector_v2.obj
 0002:000123b8       $SG54864                   100573b8     concurrent_vector_v2.obj
 0002:000123e4       $SG54865                   100573e4     concurrent_vector_v2.obj
 0002:000123ec       $SG54866                   100573ec     concurrent_vector_v2.obj
 0002:00012470       $SG42440                   10057470     concurrent_queue_v2.obj
 0002:00012474       $SG42441                   10057474     concurrent_queue_v2.obj
 0002:000124a0       $SG42506                   100574a0     concurrent_queue_v2.obj
 0002:000124b0       $SG42507                   100574b0     concurrent_queue_v2.obj
 0002:000124d8       $SG42508                   100574d8     concurrent_queue_v2.obj
 0002:00012504       $SG42509                   10057504     concurrent_queue_v2.obj
 0002:00012514       $SG42510                   10057514     concurrent_queue_v2.obj
 0002:0001254c       $SG42511                   1005754c     concurrent_queue_v2.obj
 0002:00012578       $SG42512                   10057578     concurrent_queue_v2.obj
 0002:00012588       $SG42513                   10057588     concurrent_queue_v2.obj
 0002:000125c0       $SG42514                   100575c0     concurrent_queue_v2.obj
 0002:000125ec       $SG42515                   100575ec     concurrent_queue_v2.obj
 0002:000125fc       $SG42516                   100575fc     concurrent_queue_v2.obj
 0002:0001262c       $SG42517                   1005762c     concurrent_queue_v2.obj
 0002:00012658       $SG42534                   10057658     concurrent_queue_v2.obj
 0002:00012678       $SG42535                   10057678     concurrent_queue_v2.obj
 0002:00012698       $SG42536                   10057698     concurrent_queue_v2.obj
 0002:000126c4       $SG42593                   100576c4     concurrent_queue_v2.obj
 0002:000126e8       $SG42594                   100576e8     concurrent_queue_v2.obj
 0002:00012714       $SG42661                   10057714     concurrent_queue_v2.obj
 0002:00012744       $SG42662                   10057744     concurrent_queue_v2.obj
 0002:0001274c       $SG42663                   1005774c     concurrent_queue_v2.obj
 0002:00012778       $SG42664                   10057778     concurrent_queue_v2.obj
 0002:00012794       $SG42665                   10057794     concurrent_queue_v2.obj
 0002:00012800       $SG43313                   10057800     spin_rw_mutex_v2.obj
 0002:00012808       $SG43314                   10057808     spin_rw_mutex_v2.obj
 0002:00012830       $SG43334                   10057830     spin_rw_mutex_v2.obj
 0002:00012850       $SG43335                   10057850     spin_rw_mutex_v2.obj
 0002:00012870       $SG43336                   10057870     spin_rw_mutex_v2.obj
 0002:00012898       $SG43344                   10057898     spin_rw_mutex_v2.obj
 0002:000128b8       $SG43345                   100578b8     spin_rw_mutex_v2.obj
 0002:000128d8       $SG43346                   100578d8     spin_rw_mutex_v2.obj
 0002:00012900       $SG43365                   10057900     spin_rw_mutex_v2.obj
 0002:0001292c       $SG43366                   1005792c     spin_rw_mutex_v2.obj
 0002:00012944       $SG43367                   10057944     spin_rw_mutex_v2.obj
 0002:0001296c       $SG43368                   1005796c     spin_rw_mutex_v2.obj
 0002:00012998       $SG43369                   10057998     spin_rw_mutex_v2.obj
 0002:000129b4       $SG43370                   100579b4     spin_rw_mutex_v2.obj
 0002:000129dc       $SG43390                   100579dc     spin_rw_mutex_v2.obj
 0002:00012a08       $SG43391                   10057a08     spin_rw_mutex_v2.obj
 0002:00012a14       $SG43392                   10057a14     spin_rw_mutex_v2.obj
 0002:00012a3c       $SG43393                   10057a3c     spin_rw_mutex_v2.obj
 0002:00012a6c       $SG43394                   10057a6c     spin_rw_mutex_v2.obj
 0002:00012a7c       $SG43395                   10057a7c     spin_rw_mutex_v2.obj
 0002:00012aa4       $SG43399                   10057aa4     spin_rw_mutex_v2.obj
 0002:00012acc       $SG43400                   10057acc     spin_rw_mutex_v2.obj
 0002:00012afc       $SG43401                   10057afc     spin_rw_mutex_v2.obj
 0002:00012b24       $SG43402                   10057b24     spin_rw_mutex_v2.obj
 0002:00012b40       $SG43403                   10057b40     spin_rw_mutex_v2.obj
 0002:00012b60       $SG43404                   10057b60     spin_rw_mutex_v2.obj
 0002:00012b88       $SG43414                   10057b88     spin_rw_mutex_v2.obj
 0002:00012ba8       $SG43415                   10057ba8     spin_rw_mutex_v2.obj
 0002:00012bc8       $SG43416                   10057bc8     spin_rw_mutex_v2.obj
 0002:00012bf0       $SG43417                   10057bf0     spin_rw_mutex_v2.obj
 0002:00012c1c       $SG43418                   10057c1c     spin_rw_mutex_v2.obj
 0002:00012c34       $SG43419                   10057c34     spin_rw_mutex_v2.obj
 0002:00012c5c       $SG43420                   10057c5c     spin_rw_mutex_v2.obj
 0002:00012c8c       $SG43421                   10057c8c     spin_rw_mutex_v2.obj
 0002:00012ca8       $SG43422                   10057ca8     spin_rw_mutex_v2.obj
 0002:00012cd0       $SG43433                   10057cd0     spin_rw_mutex_v2.obj
 0002:00012cfc       $SG43434                   10057cfc     spin_rw_mutex_v2.obj
 0002:00012d14       $SG43435                   10057d14     spin_rw_mutex_v2.obj
 0002:00012d3c       $SG43436                   10057d3c     spin_rw_mutex_v2.obj
 0002:00012d68       $SG43437                   10057d68     spin_rw_mutex_v2.obj
 0002:00012d84       $SG43438                   10057d84     spin_rw_mutex_v2.obj
 0002:00012db0       ___itt_null                10057db0     spin_rw_mutex_v2.obj
 0002:00012dd0       _GS_ExceptionPointers      10057dd0     MSVCRTD:gs_report.obj
 0002:00012de0       _Int32ToUInt32             10057de0     MSVCRTD:_ftol3_.obj
 0002:00012de8       _DP2to32                   10057de8     MSVCRTD:_ftol3_.obj
 0002:00012df0       _MantissaMask              10057df0     MSVCRTD:_ftol3_.obj
 0002:00012df8       _IntegerBit                10057df8     MSVCRTD:_ftol3_.obj
 0002:00012e00       _SignBit64                 10057e00     MSVCRTD:_ftol3_.obj
 0002:00012e08       _MinFP64                   10057e08     MSVCRTD:_ftol3_.obj
 0002:00012e10       _MinInt64                  10057e10     MSVCRTD:_ftol3_.obj
 0002:00012e18       _MaxInt64                  10057e18     MSVCRTD:_ftol3_.obj
 0002:00012e20       _MaxUInt64                 10057e20     MSVCRTD:_ftol3_.obj
 0002:00012e28       _MaxFP32                   10057e28     MSVCRTD:_ftol3_.obj
 0002:00012e30       _MinFP32                   10057e30     MSVCRTD:_ftol3_.obj
 0002:00012e38       _MinSubInexact             10057e38     MSVCRTD:_ftol3_.obj
 0002:00012e40       _FpExcptTable              10057e40     MSVCRTD:_ftol3_.obj
 0002:00012e50       _i1075                     10057e50     MSVCRTD:_ftol3_.obj
 0002:00012e54       _i1087                     10057e54     MSVCRTD:_ftol3_.obj
 0002:00012e58       _x0800                     10057e58     MSVCRTD:_ftol3_.obj
 0002:00012e5c       _x17FF                     10057e5c     MSVCRTD:_ftol3_.obj
 0002:00012e60       _CWMask                    10057e60     MSVCRTD:_ftol3_.obj
 0002:00012e68       ?_RTC_ErrorMessages@@3QBQBDB 10057e68     MSVCRTD:_error_.obj
 0002:00012e80       ?_RTC_NoFalsePositives@@3QBHB 10057e80     MSVCRTD:_error_.obj
 0002:00012e98       ?stack_premsg@@3QBDB       10057e98     MSVCRTD:_error_.obj
 0002:00012eb4       ?stack_postmsg@@3QBDB      10057eb4     MSVCRTD:_error_.obj
 0002:00012ec8       ?uninit_premsg@@3QBDB      10057ec8     MSVCRTD:_error_.obj
 0002:00012ed8       ?uninit_postmsg@@3QBDB     10057ed8     MSVCRTD:_error_.obj
 0002:00013418       ?_RTC_errlist@@3QBQBDB     10058418     MSVCRTD:_userapi_.obj
 0002:000134fc       ?mspdbName@@3QB_WB         100584fc     MSVCRTD:_pdblkup_.obj
 0002:00013520       ?debugCrtFileName@@3QB_WB  10058520     MSVCRTD:_pdblkup_.obj
 0002:0001366c       ?dllExt@?1??GetPdbDllPathFromFilePath@@YAHPB_WPA_WI@Z@4QB_WB 1005866c     MSVCRTD:_pdblkup_.obj
 0002:00013674       ?mspdbFilename@?1??GetPdbDllPathFromFilePath@@YAHPB_WPA_WI@Z@4QB_WB 10058674     MSVCRTD:_pdblkup_.obj
 0002:00014e9c       __RTC_InitBase.rtc$IMZ     10059e9c     concurrent_hash_map.obj
 0002:00014ea0       __RTC_InitBase.rtc$IMZ     10059ea0     concurrent_queue.obj
 0002:00014ea4       __RTC_InitBase.rtc$IMZ     10059ea4     concurrent_vector.obj
 0002:00014ea8       __RTC_InitBase.rtc$IMZ     10059ea8     dynamic_link.obj
 0002:00014eac       __RTC_InitBase.rtc$IMZ     10059eac     itt_notify.obj
 0002:00014eb0       __RTC_InitBase.rtc$IMZ     10059eb0     cache_aligned_allocator.obj
 0002:00014eb4       __RTC_InitBase.rtc$IMZ     10059eb4     pipeline.obj
 0002:00014eb8       __RTC_InitBase.rtc$IMZ     10059eb8     queuing_mutex.obj
 0002:00014ebc       __RTC_InitBase.rtc$IMZ     10059ebc     queuing_rw_mutex.obj
 0002:00014ec0       __RTC_InitBase.rtc$IMZ     10059ec0     reader_writer_lock.obj
 0002:00014ec4       __RTC_InitBase.rtc$IMZ     10059ec4     spin_rw_mutex.obj
 0002:00014ec8       __RTC_InitBase.rtc$IMZ     10059ec8     x86_rtm_rw_mutex.obj
 0002:00014ecc       __RTC_InitBase.rtc$IMZ     10059ecc     spin_mutex.obj
 0002:00014ed0       __RTC_InitBase.rtc$IMZ     10059ed0     critical_section.obj
 0002:00014ed4       __RTC_InitBase.rtc$IMZ     10059ed4     mutex.obj
 0002:00014ed8       __RTC_InitBase.rtc$IMZ     10059ed8     recursive_mutex.obj
 0002:00014edc       __RTC_InitBase.rtc$IMZ     10059edc     condition_variable.obj
 0002:00014ee0       __RTC_InitBase.rtc$IMZ     10059ee0     tbb_thread.obj
 0002:00014ee4       __RTC_InitBase.rtc$IMZ     10059ee4     concurrent_monitor.obj
 0002:00014ee8       __RTC_InitBase.rtc$IMZ     10059ee8     private_server.obj
 0002:00014eec       __RTC_InitBase.rtc$IMZ     10059eec     rml_tbb.obj
 0002:00014ef0       __RTC_InitBase.rtc$IMZ     10059ef0     tbb_misc.obj
 0002:00014ef4       __RTC_InitBase.rtc$IMZ     10059ef4     tbb_misc_ex.obj
 0002:00014ef8       __RTC_InitBase.rtc$IMZ     10059ef8     task.obj
 0002:00014efc       __RTC_InitBase.rtc$IMZ     10059efc     task_group_context.obj
 0002:00014f00       __RTC_InitBase.rtc$IMZ     10059f00     governor.obj
 0002:00014f04       __RTC_InitBase.rtc$IMZ     10059f04     market.obj
 0002:00014f08       __RTC_InitBase.rtc$IMZ     10059f08     arena.obj
 0002:00014f0c       __RTC_InitBase.rtc$IMZ     10059f0c     scheduler.obj
 0002:00014f10       __RTC_InitBase.rtc$IMZ     10059f10     observer_proxy.obj
 0002:00014f14       __RTC_InitBase.rtc$IMZ     10059f14     tbb_main.obj
 0002:00014f18       __RTC_InitBase.rtc$IMZ     10059f18     concurrent_vector_v2.obj
 0002:00014f1c       __RTC_InitBase.rtc$IMZ     10059f1c     concurrent_queue_v2.obj
 0002:00014f20       __RTC_InitBase.rtc$IMZ     10059f20     spin_rw_mutex_v2.obj
 0002:00014f24       __RTC_InitBase.rtc$IMZ     10059f24     task_v2.obj
 0002:00014f30       __RTC_Shutdown.rtc$TMZ     10059f30     concurrent_hash_map.obj
 0002:00014f34       __RTC_Shutdown.rtc$TMZ     10059f34     concurrent_queue.obj
 0002:00014f38       __RTC_Shutdown.rtc$TMZ     10059f38     concurrent_vector.obj
 0002:00014f3c       __RTC_Shutdown.rtc$TMZ     10059f3c     dynamic_link.obj
 0002:00014f40       __RTC_Shutdown.rtc$TMZ     10059f40     itt_notify.obj
 0002:00014f44       __RTC_Shutdown.rtc$TMZ     10059f44     cache_aligned_allocator.obj
 0002:00014f48       __RTC_Shutdown.rtc$TMZ     10059f48     pipeline.obj
 0002:00014f4c       __RTC_Shutdown.rtc$TMZ     10059f4c     queuing_mutex.obj
 0002:00014f50       __RTC_Shutdown.rtc$TMZ     10059f50     queuing_rw_mutex.obj
 0002:00014f54       __RTC_Shutdown.rtc$TMZ     10059f54     reader_writer_lock.obj
 0002:00014f58       __RTC_Shutdown.rtc$TMZ     10059f58     spin_rw_mutex.obj
 0002:00014f5c       __RTC_Shutdown.rtc$TMZ     10059f5c     x86_rtm_rw_mutex.obj
 0002:00014f60       __RTC_Shutdown.rtc$TMZ     10059f60     spin_mutex.obj
 0002:00014f64       __RTC_Shutdown.rtc$TMZ     10059f64     critical_section.obj
 0002:00014f68       __RTC_Shutdown.rtc$TMZ     10059f68     mutex.obj
 0002:00014f6c       __RTC_Shutdown.rtc$TMZ     10059f6c     recursive_mutex.obj
 0002:00014f70       __RTC_Shutdown.rtc$TMZ     10059f70     condition_variable.obj
 0002:00014f74       __RTC_Shutdown.rtc$TMZ     10059f74     tbb_thread.obj
 0002:00014f78       __RTC_Shutdown.rtc$TMZ     10059f78     concurrent_monitor.obj
 0002:00014f7c       __RTC_Shutdown.rtc$TMZ     10059f7c     private_server.obj
 0002:00014f80       __RTC_Shutdown.rtc$TMZ     10059f80     rml_tbb.obj
 0002:00014f84       __RTC_Shutdown.rtc$TMZ     10059f84     tbb_misc.obj
 0002:00014f88       __RTC_Shutdown.rtc$TMZ     10059f88     tbb_misc_ex.obj
 0002:00014f8c       __RTC_Shutdown.rtc$TMZ     10059f8c     task.obj
 0002:00014f90       __RTC_Shutdown.rtc$TMZ     10059f90     task_group_context.obj
 0002:00014f94       __RTC_Shutdown.rtc$TMZ     10059f94     governor.obj
 0002:00014f98       __RTC_Shutdown.rtc$TMZ     10059f98     market.obj
 0002:00014f9c       __RTC_Shutdown.rtc$TMZ     10059f9c     arena.obj
 0002:00014fa0       __RTC_Shutdown.rtc$TMZ     10059fa0     scheduler.obj
 0002:00014fa4       __RTC_Shutdown.rtc$TMZ     10059fa4     observer_proxy.obj
 0002:00014fa8       __RTC_Shutdown.rtc$TMZ     10059fa8     tbb_main.obj
 0002:00014fac       __RTC_Shutdown.rtc$TMZ     10059fac     concurrent_vector_v2.obj
 0002:00014fb0       __RTC_Shutdown.rtc$TMZ     10059fb0     concurrent_queue_v2.obj
 0002:00014fb4       __RTC_Shutdown.rtc$TMZ     10059fb4     spin_rw_mutex_v2.obj
 0002:00014fb8       __RTC_Shutdown.rtc$TMZ     10059fb8     task_v2.obj
 0002:00014fc0       __ehfuncinfo$??1scoped_lock@spin_mutex@tbb@@QAE@XZ 10059fc0     concurrent_queue.obj
 0002:00014fe4       __unwindtable$?make_invalid@micro_queue@internal@tbb@@QAEXI@Z 10059fe4     concurrent_queue.obj
 0002:00014fec       __unwindtable$?pop@micro_queue@internal@tbb@@QAE_NPAXIAAVconcurrent_queue_base_v3@23@@Z 10059fec     concurrent_queue.obj
 0002:00014ff4       __catchsym$?assign@micro_queue@internal@tbb@@QAEAAU123@ABU123@AAVconcurrent_queue_base_v3@23@W4copy_specifics@423@@Z$2 10059ff4     concurrent_queue.obj
 0002:00015004       __unwindtable$?assign@micro_queue@internal@tbb@@QAEAAU123@ABU123@AAVconcurrent_queue_base_v3@23@W4copy_specifics@423@@Z 1005a004     concurrent_queue.obj
 0002:00015014       __catchsym$?push@micro_queue@internal@tbb@@QAEXPBXIAAVconcurrent_queue_base_v3@23@W4copy_specifics@423@@Z$6 1005a014     concurrent_queue.obj
 0002:00015024       __catchsym$?push@micro_queue@internal@tbb@@QAEXPBXIAAVconcurrent_queue_base_v3@23@W4copy_specifics@423@@Z$5 1005a024     concurrent_queue.obj
 0002:00015034       __tryblocktable$?assign@micro_queue@internal@tbb@@QAEAAU123@ABU123@AAVconcurrent_queue_base_v3@23@W4copy_specifics@423@@Z 1005a034     concurrent_queue.obj
 0002:00015048       __tryblocktable$?internal_insert_item@concurrent_queue_base_v3@internal@tbb@@IAEXPBXW4copy_specifics@123@@Z 1005a048     concurrent_queue.obj
 0002:0001505c       __tryblocktable$?internal_pop@concurrent_queue_base_v3@internal@tbb@@IAEXPAX@Z 1005a05c     concurrent_queue.obj
 0002:00015070       __unwindtable$?internal_insert_item@concurrent_queue_base_v3@internal@tbb@@IAEXPBXW4copy_specifics@123@@Z 1005a070     concurrent_queue.obj
 0002:00015088       __unwindtable$?internal_pop@concurrent_queue_base_v3@internal@tbb@@IAEXPAX@Z 1005a088     concurrent_queue.obj
 0002:000150a0       __catchsym$?internal_insert_item@concurrent_queue_base_v3@internal@tbb@@IAEXPBXW4copy_specifics@123@@Z$4 1005a0a0     concurrent_queue.obj
 0002:000150c0       __catchsym$?internal_pop@concurrent_queue_base_v3@internal@tbb@@IAEXPAX@Z$4 1005a0c0     concurrent_queue.obj
 0002:000150e0       __ehfuncinfo$?make_invalid@micro_queue@internal@tbb@@QAEXI@Z 1005a0e0     concurrent_queue.obj
 0002:00015104       __ehfuncinfo$?assign@micro_queue@internal@tbb@@QAEAAU123@ABU123@AAVconcurrent_queue_base_v3@23@W4copy_specifics@423@@Z 1005a104     concurrent_queue.obj
 0002:00015128       __ehfuncinfo$?pop@micro_queue@internal@tbb@@QAE_NPAXIAAVconcurrent_queue_base_v3@23@@Z 1005a128     concurrent_queue.obj
 0002:0001514c       __ehfuncinfo$?push@micro_queue@internal@tbb@@QAEXPBXIAAVconcurrent_queue_base_v3@23@W4copy_specifics@423@@Z 1005a14c     concurrent_queue.obj
 0002:00015170       __ehfuncinfo$??1concurrent_queue_iterator_base_v3@internal@tbb@@IAE@XZ 1005a170     concurrent_queue.obj
 0002:00015194       __ehfuncinfo$?internal_insert_item@concurrent_queue_base_v3@internal@tbb@@IAEXPBXW4copy_specifics@123@@Z 1005a194     concurrent_queue.obj
 0002:000151b8       __ehfuncinfo$?internal_pop@concurrent_queue_base_v3@internal@tbb@@IAEXPAX@Z 1005a1b8     concurrent_queue.obj
 0002:000151dc       __ehfuncinfo$??1concurrent_queue_base_v3@internal@tbb@@MAE@XZ 1005a1dc     concurrent_queue.obj
 0002:00015200       __tryblocktable$?push@micro_queue@internal@tbb@@QAEXPBXIAAVconcurrent_queue_base_v3@23@W4copy_specifics@423@@Z 1005a200     concurrent_queue.obj
 0002:00015228       __unwindtable$?push@micro_queue@internal@tbb@@QAEXPBXIAAVconcurrent_queue_base_v3@23@W4copy_specifics@423@@Z 1005a228     concurrent_queue.obj
 0002:00015250       __ehfuncinfo$??1circular_doubly_linked_list_with_sentinel@internal@tbb@@QAE@XZ 1005a250     concurrent_queue.obj
 0002:00015274       __ehfuncinfo$??1thread_context@concurrent_monitor@internal@tbb@@QAE@XZ 1005a274     concurrent_queue.obj
 0002:00015298       __unwindtable$??0concurrent_monitor@internal@tbb@@QAE@XZ 1005a298     concurrent_queue.obj
 0002:000152a0       __ehfuncinfo$??0concurrent_monitor@internal@tbb@@QAE@XZ 1005a2a0     concurrent_queue.obj
 0002:000152c4       __ehfuncinfo$??1micro_queue_pop_finalizer@internal@tbb@@QAE@XZ 1005a2c4     concurrent_queue.obj
 0002:000152e8       __unwindtable$??$notify_relaxed@Upredicate_leq@internal@tbb@@@concurrent_monitor@internal@tbb@@QAEXABUpredicate_leq@12@@Z 1005a2e8     concurrent_queue.obj
 0002:000152f8       __ehfuncinfo$??$notify_relaxed@Upredicate_leq@internal@tbb@@@concurrent_monitor@internal@tbb@@QAEXABUpredicate_leq@12@@Z 1005a2f8     concurrent_queue.obj
 0002:0001531c       __ehfuncinfo$??1segment_t@concurrent_vector_base_v3@internal@tbb@@QAE@XZ 1005a31c     concurrent_vector.obj
 0002:00015340       __ehfuncinfo$?swap@internal@tbb@@YAXAAVsegment_t@concurrent_vector_base_v3@12@0@Z 1005a340     concurrent_vector.obj
 0002:00015364       __unwindtable$?extend_segment_table@helper@concurrent_vector_base_v3@internal@tbb@@SAXAAV234@I@Z 1005a364     concurrent_vector.obj
 0002:0001536c       __unwindtable$?internal_clear@concurrent_vector_base_v3@internal@tbb@@IAEIP6AXPAXI@Z@Z 1005a36c     concurrent_vector.obj
 0002:00015374       __unwindtable$?internal_grow@concurrent_vector_base_v3@internal@tbb@@IAEXIIIP6AXPAXPBXI@Z1@Z 1005a374     concurrent_vector.obj
 0002:0001537c       __unwindtable$?enable_segment@helper@concurrent_vector_base_v3@internal@tbb@@SAIAAV234@II_N@Z 1005a37c     concurrent_vector.obj
 0002:0001538c       __unwindtable$?internal_resize@concurrent_vector_base_v3@internal@tbb@@IAEXIIIPBXP6AXPAXI@ZP6AX10I@Z@Z 1005a38c     concurrent_vector.obj
 0002:0001539c       __catchsym$?internal_compact@concurrent_vector_base_v3@internal@tbb@@IAEPAXIPAXP6AX0I@ZP6AX0PBXI@Z@Z$5 1005a39c     concurrent_vector.obj
 0002:000153ac       __tryblocktable$?internal_compact@concurrent_vector_base_v3@internal@tbb@@IAEPAXIPAXP6AX0I@ZP6AX0PBXI@Z@Z 1005a3ac     concurrent_vector.obj
 0002:000153c0       __ehfuncinfo$?extend_segment_table@helper@concurrent_vector_base_v3@internal@tbb@@SAXAAV234@I@Z 1005a3c0     concurrent_vector.obj
 0002:000153e4       __ehfuncinfo$?enable_segment@helper@concurrent_vector_base_v3@internal@tbb@@SAIAAV234@II_N@Z 1005a3e4     concurrent_vector.obj
 0002:00015408       __ehfuncinfo$?internal_resize@concurrent_vector_base_v3@internal@tbb@@IAEXIIIPBXP6AXPAXI@ZP6AX10I@Z@Z 1005a408     concurrent_vector.obj
 0002:0001542c       __ehfuncinfo$?internal_compact@concurrent_vector_base_v3@internal@tbb@@IAEPAXIPAXP6AX0I@ZP6AX0PBXI@Z@Z 1005a42c     concurrent_vector.obj
 0002:00015450       __ehfuncinfo$?internal_clear@concurrent_vector_base_v3@internal@tbb@@IAEIP6AXPAXI@Z@Z 1005a450     concurrent_vector.obj
 0002:00015474       __ehfuncinfo$?internal_grow@concurrent_vector_base_v3@internal@tbb@@IAEXIIIP6AXPAXPBXI@Z1@Z 1005a474     concurrent_vector.obj
 0002:00015498       __ehfuncinfo$??1concurrent_vector_base_v3@internal@tbb@@IAE@XZ 1005a498     concurrent_vector.obj
 0002:000154bc       __unwindtable$?internal_compact@concurrent_vector_base_v3@internal@tbb@@IAEPAXIPAXP6AX0I@ZP6AX0PBXI@Z@Z 1005a4bc     concurrent_vector.obj
 0002:000154e4       __ehfuncinfo$??$store@$02@segment_t@concurrent_vector_base_v3@internal@tbb@@QAEXPAX@Z 1005a4e4     concurrent_vector.obj
 0002:00015508       __ehfuncinfo$??1helper@concurrent_vector_base_v3@internal@tbb@@QAE@XZ 1005a508     concurrent_vector.obj
 0002:0001552c       __ehfuncinfo$??1segment_scope_guard@?1??enable_segment@helper@concurrent_vector_base_v3@internal@tbb@@SAIAAV345@II_N@Z@QAE@XZ 1005a52c     concurrent_vector.obj
 0002:00015550       __unwindtable$??$_Uninitialized_fill_n_unchecked@PAVsegment_t@concurrent_vector_base_v3@internal@tbb@@IV1234@@std@@YAPAVsegment_t@concurrent_vector_base_v3@internal@tbb@@QAV1234@IABV1234@U?$integral_constant@_N$0A@@0@@Z 1005a550     concurrent_vector.obj
 0002:00015558       __ehfuncinfo$??$_Uninitialized_fill_n_unchecked@PAVsegment_t@concurrent_vector_base_v3@internal@tbb@@IV1234@@std@@YAPAVsegment_t@concurrent_vector_base_v3@internal@tbb@@QAV1234@IABV1234@U?$integral_constant@_N$0A@@0@@Z 1005a558     concurrent_vector.obj
 0002:0001557c       __ehfuncinfo$??$store@$01@segment_t@concurrent_vector_base_v3@internal@tbb@@QAEXPAX@Z 1005a57c     concurrent_vector.obj
 0002:000155a0       __ehfuncinfo$??1?$_Uninitialized_backout@PAVsegment_t@concurrent_vector_base_v3@internal@tbb@@@std@@QAE@XZ 1005a5a0     concurrent_vector.obj
 0002:000155c4       __ehfuncinfo$??3@YAXPAXABVallocate_root_with_context_proxy@internal@tbb@@@Z 1005a5c4     pipeline.obj
 0002:000155e8       __ehfuncinfo$??3@YAXPAXABVallocate_child_proxy@internal@tbb@@@Z 1005a5e8     pipeline.obj
 0002:0001560c       __ehfuncinfo$??3@YAXPAXABVallocate_additional_child_of_proxy@internal@tbb@@@Z 1005a60c     pipeline.obj
 0002:00015630       __unwindtable$?run@pipeline@tbb@@QAEXI@Z 1005a630     pipeline.obj
 0002:00015638       __unwindtable$?execute@stage_task@internal@tbb@@UAEPAVtask@3@XZ 1005a638     pipeline.obj
 0002:00015648       __unwindtable$?run@pipeline@tbb@@QAEXIAAVtask_group_context@2@@Z 1005a648     pipeline.obj
 0002:00015658       __unwindtable$?add_filter@pipeline@tbb@@QAEXAAVfilter@2@@Z 1005a658     pipeline.obj
 0002:00015678       __ehfuncinfo$?execute@stage_task@internal@tbb@@UAEPAVtask@3@XZ 1005a678     pipeline.obj
 0002:0001569c       __ehfuncinfo$?run@pipeline@tbb@@QAEXIAAVtask_group_context@2@@Z 1005a69c     pipeline.obj
 0002:000156c0       __ehfuncinfo$?run@pipeline@tbb@@QAEXI@Z 1005a6c0     pipeline.obj
 0002:000156e4       __ehfuncinfo$?add_filter@pipeline@tbb@@QAEXAAVfilter@2@@Z 1005a6e4     pipeline.obj
 0002:00015708       __ehfuncinfo$??1pipeline@tbb@@UAE@XZ 1005a708     pipeline.obj
 0002:0001572c       __ehfuncinfo$??1filter@tbb@@UAE@XZ 1005a72c     pipeline.obj
 0002:00015750       __unwindtable$?create_sema@input_buffer@internal@tbb@@AAEXI@Z 1005a750     pipeline.obj
 0002:00015758       __ehfuncinfo$?create_sema@input_buffer@internal@tbb@@AAEXI@Z 1005a758     pipeline.obj
 0002:0001577c       __ehfuncinfo$??1input_buffer@internal@tbb@@QAE@XZ 1005a77c     pipeline.obj
 0002:000157a0       __unwindtable$?put_token@input_buffer@internal@tbb@@QAE_NAAUtask_info@23@_N@Z 1005a7a0     pipeline.obj
 0002:000157a8       __ehfuncinfo$?put_token@input_buffer@internal@tbb@@QAE_NAAUtask_info@23@_N@Z 1005a7a8     pipeline.obj
 0002:000157cc       __unwindtable$?return_item@input_buffer@internal@tbb@@QAE_NAAUtask_info@23@_N@Z 1005a7cc     pipeline.obj
 0002:000157d4       __ehfuncinfo$?return_item@input_buffer@internal@tbb@@QAE_NAAUtask_info@23@_N@Z 1005a7d4     pipeline.obj
 0002:000157f8       __unwindtable$??0stage_task@internal@tbb@@QAE@AAVpipeline@2@@Z 1005a7f8     pipeline.obj
 0002:00015800       __ehfuncinfo$??0stage_task@internal@tbb@@QAE@AAVpipeline@2@@Z 1005a800     pipeline.obj
 0002:00015824       __ehfuncinfo$??1stage_task@internal@tbb@@UAE@XZ 1005a824     pipeline.obj
 0002:00015848       __unwindtable$?spawn_stage_task@stage_task@internal@tbb@@QAEXABUtask_info@23@@Z 1005a848     pipeline.obj
 0002:00015850       __ehfuncinfo$?spawn_stage_task@stage_task@internal@tbb@@QAEXABUtask_info@23@@Z 1005a850     pipeline.obj
 0002:00015874       __unwindtable$??$note_done@Vstage_task@internal@tbb@@@input_buffer@internal@tbb@@QAEXKAAVstage_task@12@@Z 1005a874     pipeline.obj
 0002:0001587c       __ehfuncinfo$??$note_done@Vstage_task@internal@tbb@@@input_buffer@internal@tbb@@QAEXKAAVstage_task@12@@Z 1005a87c     pipeline.obj
 0002:000158a0       __unwindtable$?execute@pipeline_root_task@internal@tbb@@EAEPAVtask@3@XZ 1005a8a0     pipeline.obj
 0002:000158b0       __ehfuncinfo$?execute@pipeline_root_task@internal@tbb@@EAEPAVtask@3@XZ 1005a8b0     pipeline.obj
 0002:000158d4       __unwindtable$??0pipeline_root_task@internal@tbb@@QAE@AAVpipeline@2@@Z 1005a8d4     pipeline.obj
 0002:000158dc       __ehfuncinfo$??0pipeline_root_task@internal@tbb@@QAE@AAVpipeline@2@@Z 1005a8dc     pipeline.obj
 0002:00015900       __ehfuncinfo$??1pipeline_cleaner@internal@tbb@@QAE@XZ 1005a900     pipeline.obj
 0002:00015924       __ehfuncinfo$??1scoped_lock@reader_writer_lock@interface5@tbb@@QAE@XZ 1005a924     reader_writer_lock.obj
 0002:00015948       __ehfuncinfo$??3scoped_lock@reader_writer_lock@interface5@tbb@@SAXPAX@Z 1005a948     reader_writer_lock.obj
 0002:0001596c       __ehfuncinfo$??1scoped_lock_read@reader_writer_lock@interface5@tbb@@QAE@XZ 1005a96c     reader_writer_lock.obj
 0002:00015990       __unwindtable$?lock_read@reader_writer_lock@interface5@tbb@@QAEXXZ 1005a990     reader_writer_lock.obj
 0002:00015998       __unwindtable$?try_lock@reader_writer_lock@interface5@tbb@@QAE_NXZ 1005a998     reader_writer_lock.obj
 0002:000159a0       __unwindtable$?lock@reader_writer_lock@interface5@tbb@@QAEXXZ 1005a9a0     reader_writer_lock.obj
 0002:000159a8       __ehfuncinfo$?lock_read@reader_writer_lock@interface5@tbb@@QAEXXZ 1005a9a8     reader_writer_lock.obj
 0002:000159cc       __ehfuncinfo$?try_lock@reader_writer_lock@interface5@tbb@@QAE_NXZ 1005a9cc     reader_writer_lock.obj
 0002:000159f0       __ehfuncinfo$?lock@reader_writer_lock@interface5@tbb@@QAEXXZ 1005a9f0     reader_writer_lock.obj
 0002:00015a14       __ehfuncinfo$?get_id@tbb_thread_v3@internal@tbb@@QBE?AVid@123@XZ 1005aa14     tbb_thread.obj
 0002:00015a38       __ehfuncinfo$?hardware_concurrency@tbb_thread_v3@internal@tbb@@SAIXZ 1005aa38     tbb_thread.obj
 0002:00015a5c       __unwindtable$?notify_one_relaxed@concurrent_monitor@internal@tbb@@QAEXXZ 1005aa5c     concurrent_monitor.obj
 0002:00015a64       __unwindtable$?cancel_wait@concurrent_monitor@internal@tbb@@QAEXAAVthread_context@123@@Z 1005aa64     concurrent_monitor.obj
 0002:00015a6c       __unwindtable$?prepare_wait@concurrent_monitor@internal@tbb@@QAEXAAVthread_context@123@I@Z 1005aa6c     concurrent_monitor.obj
 0002:00015a74       __unwindtable$?abort_all_relaxed@concurrent_monitor@internal@tbb@@QAEXXZ 1005aa74     concurrent_monitor.obj
 0002:00015a84       __unwindtable$?notify_all_relaxed@concurrent_monitor@internal@tbb@@QAEXXZ 1005aa84     concurrent_monitor.obj
 0002:00015a94       __ehfuncinfo$?abort_all_relaxed@concurrent_monitor@internal@tbb@@QAEXXZ 1005aa94     concurrent_monitor.obj
 0002:00015ab8       __ehfuncinfo$?notify_all_relaxed@concurrent_monitor@internal@tbb@@QAEXXZ 1005aab8     concurrent_monitor.obj
 0002:00015adc       __ehfuncinfo$?notify_one_relaxed@concurrent_monitor@internal@tbb@@QAEXXZ 1005aadc     concurrent_monitor.obj
 0002:00015b00       __ehfuncinfo$?cancel_wait@concurrent_monitor@internal@tbb@@QAEXAAVthread_context@123@@Z 1005ab00     concurrent_monitor.obj
 0002:00015b24       __ehfuncinfo$?prepare_wait@concurrent_monitor@internal@tbb@@QAEXAAVthread_context@123@I@Z 1005ab24     concurrent_monitor.obj
 0002:00015b48       __ehfuncinfo$??1concurrent_monitor@internal@tbb@@QAE@XZ 1005ab48     concurrent_monitor.obj
 0002:00015b6c       __unwindtable$??0thread_monitor@internal@rml@@QAE@XZ 1005ab6c     private_server.obj
 0002:00015b74       __ehfuncinfo$??0thread_monitor@internal@rml@@QAE@XZ 1005ab74     private_server.obj
 0002:00015b98       __unwindtable$??0private_worker@rml@internal@tbb@@IAE@AAVprivate_server@123@AAVtbb_client@123@I@Z 1005ab98     private_server.obj
 0002:00015ba0       __ehfuncinfo$??0private_worker@rml@internal@tbb@@IAE@AAVprivate_server@123@AAVtbb_client@123@I@Z 1005aba0     private_server.obj
 0002:00015bc4       __unwindtable$??0padded_private_worker@rml@internal@tbb@@QAE@AAVprivate_server@123@AAVtbb_client@123@I@Z 1005abc4     private_server.obj
 0002:00015bcc       __ehfuncinfo$??0padded_private_worker@rml@internal@tbb@@QAE@AAVprivate_server@123@AAVtbb_client@123@I@Z 1005abcc     private_server.obj
 0002:00015bf0       __unwindtable$?try_insert_in_asleep_list@private_server@rml@internal@tbb@@AAE_NAAVprivate_worker@234@@Z 1005abf0     private_server.obj
 0002:00015bf8       __ehfuncinfo$?try_insert_in_asleep_list@private_server@rml@internal@tbb@@AAE_NAAVprivate_worker@234@@Z 1005abf8     private_server.obj
 0002:00015c1c       __unwindtable$?wake_some@private_server@rml@internal@tbb@@AAEXH@Z 1005ac1c     private_server.obj
 0002:00015c24       __ehfuncinfo$??1private_server@rml@internal@tbb@@EAE@XZ 1005ac24     private_server.obj
 0002:00015c48       __ehfuncinfo$?wake_some@private_server@rml@internal@tbb@@AAEXH@Z 1005ac48     private_server.obj
 0002:00015f20       __ehfuncinfo$??0exception_ptr@std@@QAE@XZ 1005af20     task_group_context.obj
 0002:00015f44       __ehfuncinfo$??1exception_ptr@std@@QAE@XZ 1005af44     task_group_context.obj
 0002:00015f68       __ehfuncinfo$??0exception_ptr@std@@QAE@ABV01@@Z 1005af68     task_group_context.obj
 0002:00015f8c       __ehfuncinfo$?_Current_exception@exception_ptr@std@@SA?AV12@XZ 1005af8c     task_group_context.obj
 0002:00015fb0       __unwindtable$?_Copy_exception@exception_ptr@std@@SA?AV12@PAXPBX@Z 1005afb0     task_group_context.obj
 0002:00015fb8       __ehfuncinfo$?_Copy_exception@exception_ptr@std@@SA?AV12@PAXPBX@Z 1005afb8     task_group_context.obj
 0002:00015fdc       __unwindtable$?allocate@tbb_exception_ptr@internal@tbb@@SAPAV123@ABVtbb_exception@3@@Z 1005afdc     task_group_context.obj
 0002:00015fe4       __unwindtable$?allocate@tbb_exception_ptr@internal@tbb@@SAPAV123@XZ 1005afe4     task_group_context.obj
 0002:00015fec       __unwindtable$?register_with@task_group_context@tbb@@QAEXPAVgeneric_scheduler@internal@2@@Z 1005afec     task_group_context.obj
 0002:00015ff4       __unwindtable$?register_pending_exception@task_group_context@tbb@@QAEXXZ 1005aff4     task_group_context.obj
 0002:00016004       __tryblocktable$?register_pending_exception@task_group_context@tbb@@QAEXXZ 1005b004     task_group_context.obj
 0002:00016018       __ehfuncinfo$?allocate@tbb_exception_ptr@internal@tbb@@SAPAV123@ABVtbb_exception@3@@Z 1005b018     task_group_context.obj
 0002:0001603c       __ehfuncinfo$?allocate@tbb_exception_ptr@internal@tbb@@SAPAV123@XZ 1005b03c     task_group_context.obj
 0002:00016060       __ehfuncinfo$?register_with@task_group_context@tbb@@QAEXPAVgeneric_scheduler@internal@2@@Z 1005b060     task_group_context.obj
 0002:00016084       __ehfuncinfo$?register_pending_exception@task_group_context@tbb@@QAEXXZ 1005b084     task_group_context.obj
 0002:000160a8       __ehfuncinfo$??1task_group_context@tbb@@QAE@XZ 1005b0a8     task_group_context.obj
 0002:000160cc       __catchsym$?register_pending_exception@task_group_context@tbb@@QAEXXZ$4 1005b0cc     task_group_context.obj
 0002:000160fc       __ehfuncinfo$??3tbb_exception@tbb@@SAXPAX@Z 1005b0fc     task_group_context.obj
 0002:00016120       __ehfuncinfo$??$make_exception_ptr@Vcaptured_exception@tbb@@@std@@YA?AVexception_ptr@0@Vcaptured_exception@tbb@@@Z 1005b120     task_group_context.obj
 0002:00016144       __unwindtable$??$propagate_task_group_state@I@market@internal@tbb@@QAE_NPQtask_group_context@2@IAAV32@I@Z 1005b144     task_group_context.obj
 0002:0001614c       __ehfuncinfo$??$propagate_task_group_state@I@market@internal@tbb@@QAE_NPQtask_group_context@2@IAAV32@I@Z 1005b14c     task_group_context.obj
 0002:00016170       __unwindtable$??$propagate_task_group_state@H@market@internal@tbb@@QAE_NPQtask_group_context@2@HAAV32@H@Z 1005b170     task_group_context.obj
 0002:00016178       __ehfuncinfo$??$propagate_task_group_state@H@market@internal@tbb@@QAE_NPQtask_group_context@2@HAAV32@H@Z 1005b178     task_group_context.obj
 0002:0001619c       __unwindtable$??$propagate_task_group_state@I@generic_scheduler@internal@tbb@@QAEXPQtask_group_context@2@IAAV32@I@Z 1005b19c     task_group_context.obj
 0002:000161a4       __ehfuncinfo$??$propagate_task_group_state@I@generic_scheduler@internal@tbb@@QAEXPQtask_group_context@2@IAAV32@I@Z 1005b1a4     task_group_context.obj
 0002:000161c8       __unwindtable$??$propagate_task_group_state@H@generic_scheduler@internal@tbb@@QAEXPQtask_group_context@2@HAAV32@H@Z 1005b1c8     task_group_context.obj
 0002:000161d0       __ehfuncinfo$??$propagate_task_group_state@H@generic_scheduler@internal@tbb@@QAEXPQtask_group_context@2@HAAV32@H@Z 1005b1d0     task_group_context.obj
 0002:0001624c       __ehfuncinfo$??1spin_rw_mutex_v3@tbb@@QAE@XZ 1005b24c     market.obj
 0002:00016270       __ehfuncinfo$??1scoped_lock@spin_rw_mutex_v3@tbb@@QAE@XZ 1005b270     market.obj
 0002:00016294       __unwindtable$?update_arena_priority@market@internal@tbb@@QAE_NAAVarena@23@H@Z 1005b294     market.obj
 0002:0001629c       __unwindtable$?lower_arena_priority@market@internal@tbb@@QAE_NAAVarena@23@HI@Z 1005b29c     market.obj
 0002:000162a4       __unwindtable$?set_active_num_workers@market@internal@tbb@@SAXI@Z 1005b2a4     market.obj
 0002:000162ac       __unwindtable$?mandatory_concurrency_disable@market@internal@tbb@@QAEXPAVarena@23@@Z 1005b2ac     market.obj
 0002:000162b4       __unwindtable$?mandatory_concurrency_enable@market@internal@tbb@@QAE_NPAVarena@23@@Z 1005b2b4     market.obj
 0002:000162bc       __unwindtable$?release@market@internal@tbb@@QAE_N_N0@Z 1005b2bc     market.obj
 0002:000162c4       __unwindtable$?create_arena@market@internal@tbb@@SAPAVarena@23@HHI@Z 1005b2c4     market.obj
 0002:000162cc       __unwindtable$?arena_in_need@market@internal@tbb@@AAEPAVarena@23@PAV423@@Z 1005b2cc     market.obj
 0002:000162d4       __unwindtable$?global_market@market@internal@tbb@@CAAAV123@_NII@Z 1005b2d4     market.obj
 0002:000162dc       __unwindtable$??0market@internal@tbb@@AAE@III@Z 1005b2dc     market.obj
 0002:000162e4       __ehfuncinfo$?update_arena_priority@market@internal@tbb@@QAE_NAAVarena@23@H@Z 1005b2e4     market.obj
 0002:00016308       __ehfuncinfo$?lower_arena_priority@market@internal@tbb@@QAE_NAAVarena@23@HI@Z 1005b308     market.obj
 0002:0001632c       __ehfuncinfo$?set_active_num_workers@market@internal@tbb@@SAXI@Z 1005b32c     market.obj
 0002:00016350       __ehfuncinfo$?mandatory_concurrency_disable@market@internal@tbb@@QAEXPAVarena@23@@Z 1005b350     market.obj
 0002:00016374       __ehfuncinfo$?mandatory_concurrency_enable@market@internal@tbb@@QAE_NPAVarena@23@@Z 1005b374     market.obj
 0002:00016398       __ehfuncinfo$?release@market@internal@tbb@@QAE_N_N0@Z 1005b398     market.obj
 0002:000163bc       __ehfuncinfo$?create_arena@market@internal@tbb@@SAPAVarena@23@HHI@Z 1005b3bc     market.obj
 0002:000163e0       __ehfuncinfo$?arena_in_need@market@internal@tbb@@AAEPAVarena@23@PAV423@@Z 1005b3e0     market.obj
 0002:00016404       __ehfuncinfo$?global_market@market@internal@tbb@@CAAAV123@_NII@Z 1005b404     market.obj
 0002:00016428       __ehfuncinfo$??0market@internal@tbb@@AAE@III@Z 1005b428     market.obj
 0002:0001644c       __unwindtable$?rethrow_exception@std@@YAXVexception_ptr@1@@Z 1005b44c     arena.obj
 0002:00016454       __ehfuncinfo$?rethrow_exception@std@@YAXVexception_ptr@1@@Z 1005b454     arena.obj
 0002:00016478       __ehfuncinfo$?_Orphan_all@_Container_base12@std@@QAEXXZ 1005b478     arena.obj
 0002:0001649c       __ehfuncinfo$??1_Iterator_base12@std@@QAE@XZ 1005b49c     arena.obj
 0002:000164c0       __ehfuncinfo$?_Adopt@_Iterator_base12@std@@QAEXPBU_Container_base12@2@@Z 1005b4c0     arena.obj
 0002:000164e4       __ehfuncinfo$?_Orphan_me@_Iterator_base12@std@@QAEXXZ 1005b4e4     arena.obj
 0002:00016508       __unwindtable$??0arena@internal@tbb@@QAE@AAVmarket@12@II@Z 1005b508     arena.obj
 0002:00016510       __unwindtable$?isolate_within_arena@internal@interface7@tbb@@YAXAAVdelegate_base@123@H@Z 1005b510     arena.obj
 0002:00016518       __catchsym$?internal_execute@task_arena_base@internal@interface7@tbb@@IBEXAAVdelegate_base@234@@Z$11 1005b518     arena.obj
 0002:00016528       __tryblocktable$?internal_execute@task_arena_base@internal@interface7@tbb@@IBEXAAVdelegate_base@234@@Z 1005b528     arena.obj
 0002:0001653c       __unwindtable$?internal_wait@task_arena_base@internal@interface7@tbb@@IBEXXZ 1005b53c     arena.obj
 0002:00016554       __ehfuncinfo$??0arena@internal@tbb@@QAE@AAVmarket@12@II@Z 1005b554     arena.obj
 0002:00016578       __ehfuncinfo$?isolate_within_arena@internal@interface7@tbb@@YAXAAVdelegate_base@123@H@Z 1005b578     arena.obj
 0002:0001659c       __ehfuncinfo$?internal_wait@task_arena_base@internal@interface7@tbb@@IBEXXZ 1005b59c     arena.obj
 0002:000165c0       __ehfuncinfo$?internal_execute@task_arena_base@internal@interface7@tbb@@IBEXAAVdelegate_base@234@@Z 1005b5c0     arena.obj
 0002:000165e4       __unwindtable$?internal_execute@task_arena_base@internal@interface7@tbb@@IBEXAAVdelegate_base@234@@Z 1005b5e4     arena.obj
 0002:0001663c       __unwindtable$?initialize@?$task_stream@$02@internal@tbb@@QAEXI@Z 1005b63c     arena.obj
 0002:00016644       __ehfuncinfo$?initialize@?$task_stream@$02@internal@tbb@@QAEXI@Z 1005b644     arena.obj
 0002:00016668       __unwindtable$?push@?$task_stream@$02@internal@tbb@@QAEXPAVtask@3@HAAVFastRandom@23@@Z 1005b668     arena.obj
 0002:00016670       __ehfuncinfo$?push@?$task_stream@$02@internal@tbb@@QAEXPAVtask@3@HAAVFastRandom@23@@Z 1005b670     arena.obj
 0002:00016694       __unwindtable$?drain@?$task_stream@$02@internal@tbb@@QAEHXZ 1005b694     arena.obj
 0002:000166ac       __ehfuncinfo$?drain@?$task_stream@$02@internal@tbb@@QAEHXZ 1005b6ac     arena.obj
 0002:000166d0       __unwindtable$??0arena_base@internal@tbb@@QAE@XZ 1005b6d0     arena.obj
 0002:000166d8       __ehfuncinfo$??0arena_base@internal@tbb@@QAE@XZ 1005b6d8     arena.obj
 0002:000166fc       __ehfuncinfo$??1nested_arena_context@internal@tbb@@QAE@XZ 1005b6fc     arena.obj
 0002:00016720       __ehfuncinfo$??1auto_empty_task@internal@tbb@@QAE@XZ 1005b720     arena.obj
 0002:00016744       __unwindtable$?execute@delegated_task@internal@interface7@tbb@@EAEPAVtask@4@XZ 1005b744     arena.obj
 0002:0001674c       __ehfuncinfo$?execute@delegated_task@internal@interface7@tbb@@EAEPAVtask@4@XZ 1005b74c     arena.obj
 0002:00016770       __ehfuncinfo$??1delegated_task@internal@interface7@tbb@@EAE@XZ 1005b770     arena.obj
 0002:00016794       __ehfuncinfo$??1outermost_context@?1??execute@delegated_task@internal@interface7@tbb@@EAEPAVtask@5@XZ@QAE@XZ 1005b794     arena.obj
 0002:000167b8       __ehfuncinfo$??1?$context_guard_helper@$0A@@internal@tbb@@QAE@XZ 1005b7b8     arena.obj
 0002:000167dc       __ehfuncinfo$??1?$_Deque_alloc@U?$_Deque_base_types@PAVtask@tbb@@V?$tbb_allocator@PAVtask@tbb@@@2@@std@@@std@@QAE@XZ 1005b7dc     arena.obj
 0002:00016800       __ehfuncinfo$??1?$deque@PAVtask@tbb@@V?$tbb_allocator@PAVtask@tbb@@@2@@std@@QAE@XZ 1005b800     arena.obj
 0002:00016824       __ehfuncinfo$?begin@?$deque@PAVtask@tbb@@V?$tbb_allocator@PAVtask@tbb@@@2@@std@@QAE?AV?$_Deque_iterator@V?$_Deque_val@U?$_Deque_simple_types@PAVtask@tbb@@@std@@@std@@@2@XZ 1005b824     arena.obj
 0002:00016848       __ehfuncinfo$?end@?$deque@PAVtask@tbb@@V?$tbb_allocator@PAVtask@tbb@@@2@@std@@QAE?AV?$_Deque_iterator@V?$_Deque_val@U?$_Deque_simple_types@PAVtask@tbb@@@std@@@std@@@2@XZ 1005b848     arena.obj
 0002:0001686c       __ehfuncinfo$?clear@?$deque@PAVtask@tbb@@V?$tbb_allocator@PAVtask@tbb@@@2@@std@@QAEXXZ 1005b86c     arena.obj
 0002:00016890       __unwindtable$?_Orphan_off@?$deque@PAVtask@tbb@@V?$tbb_allocator@PAVtask@tbb@@@2@@std@@IBEXI@Z 1005b890     arena.obj
 0002:00016898       __ehfuncinfo$?_Orphan_off@?$deque@PAVtask@tbb@@V?$tbb_allocator@PAVtask@tbb@@@2@@std@@IBEXI@Z 1005b898     arena.obj
 0002:000168bc       __unwindtable$??0?$queue_and_mutex@PAVtask@tbb@@Vspin_mutex@2@@internal@tbb@@QAE@XZ 1005b8bc     arena.obj
 0002:000168c4       __ehfuncinfo$??0?$queue_and_mutex@PAVtask@tbb@@Vspin_mutex@2@@internal@tbb@@QAE@XZ 1005b8c4     arena.obj
 0002:000168e8       __ehfuncinfo$??_E?$padded@U?$queue_and_mutex@PAVtask@tbb@@Vspin_mutex@2@@internal@tbb@@$0IA@@internal@tbb@@QAEPAXI@Z 1005b8e8     arena.obj
 0002:0001690c       __unwindtable$??0?$_Deque_const_iterator@V?$_Deque_val@U?$_Deque_simple_types@PAVtask@tbb@@@std@@@std@@@std@@QAE@IPBU_Container_base12@1@@Z 1005b90c     arena.obj
 0002:00016914       __ehfuncinfo$??0?$_Deque_const_iterator@V?$_Deque_val@U?$_Deque_simple_types@PAVtask@tbb@@@std@@@std@@@std@@QAE@IPBU_Container_base12@1@@Z 1005b914     arena.obj
 0002:00016938       __unwindtable$??$notify_relaxed@Vdelegated_task@internal@interface7@tbb@@@concurrent_monitor@internal@tbb@@QAEXABVdelegated_task@1interface7@2@@Z 1005b938     arena.obj
 0002:00016948       __ehfuncinfo$??$notify_relaxed@Vdelegated_task@internal@interface7@tbb@@@concurrent_monitor@internal@tbb@@QAEXABVdelegated_task@1interface7@2@@Z 1005b948     arena.obj
 0002:0001696c       __unwindtable$??$_Uninitialized_copy_al_unchecked@PAPAPAVtask@tbb@@PAPAPAV12@V?$tbb_allocator@PAPAVtask@tbb@@@2@@std@@YAPAPAPAVtask@tbb@@PAPAPAV12@QAPAPAV12@1AAV?$tbb_allocator@PAPAVtask@tbb@@@2@U_General_ptr_iterator_tag@0@U_Unused_parameter@0@@Z 1005b96c     arena.obj
 0002:00016974       __ehfuncinfo$??$_Uninitialized_copy_al_unchecked@PAPAPAVtask@tbb@@PAPAPAV12@V?$tbb_allocator@PAPAVtask@tbb@@@2@@std@@YAPAPAPAVtask@tbb@@PAPAPAV12@QAPAPAV12@1AAV?$tbb_allocator@PAPAVtask@tbb@@@2@U_General_ptr_iterator_tag@0@U_Unused_parameter@0@@Z 1005b974     arena.obj
 0002:00016998       __unwindtable$??$_Uninitialized_value_construct_n1@PAPAPAVtask@tbb@@IV?$tbb_allocator@PAPAVtask@tbb@@@2@@std@@YAPAPAPAVtask@tbb@@QAPAPAV12@IAAV?$tbb_allocator@PAPAVtask@tbb@@@2@U?$integral_constant@_N$0A@@0@@Z 1005b998     arena.obj
 0002:000169a0       __ehfuncinfo$??$_Uninitialized_value_construct_n1@PAPAPAVtask@tbb@@IV?$tbb_allocator@PAPAVtask@tbb@@@2@@std@@YAPAPAPAVtask@tbb@@QAPAPAV12@IAAV?$tbb_allocator@PAPAVtask@tbb@@@2@U?$integral_constant@_N$0A@@0@@Z 1005b9a0     arena.obj
 0002:000169c4       __ehfuncinfo$??1?$_Uninitialized_backout_al@PAPAPAVtask@tbb@@V?$tbb_allocator@PAPAVtask@tbb@@@2@@std@@QAE@XZ 1005b9c4     arena.obj
 0002:000169e8       __unwindtable$?cleanup_local_context_list@generic_scheduler@internal@tbb@@QAEXXZ 1005b9e8     scheduler.obj
 0002:000169f0       __unwindtable$?winnow_task_pool@generic_scheduler@internal@tbb@@QAEPAVtask@3@H@Z 1005b9f0     scheduler.obj
 0002:000169f8       __unwindtable$?reload_tasks@generic_scheduler@internal@tbb@@QAEPAVtask@3@AAPAV43@AAPAPAV43@HH@Z 1005b9f8     scheduler.obj
 0002:00016a00       __unwindtable$?local_spawn_root_and_wait@generic_scheduler@internal@tbb@@QAEXPAVtask@3@AAPAV43@@Z 1005ba00     scheduler.obj
 0002:00016a08       __unwindtable$?local_spawn@generic_scheduler@internal@tbb@@QAEXPAVtask@3@AAPAV43@@Z 1005ba08     scheduler.obj
 0002:00016a10       __unwindtable$??0generic_scheduler@internal@tbb@@IAE@AAVmarket@12@@Z 1005ba10     scheduler.obj
 0002:00016a18       __unwindtable$?cleanup_master@generic_scheduler@internal@tbb@@QAE_N_N@Z 1005ba18     scheduler.obj
 0002:00016a20       __unwindtable$?create_master@generic_scheduler@internal@tbb@@SAPAV123@PAVarena@23@@Z 1005ba20     scheduler.obj
 0002:00016a28       __ehfuncinfo$?cleanup_local_context_list@generic_scheduler@internal@tbb@@QAEXXZ 1005ba28     scheduler.obj
 0002:00016a4c       __ehfuncinfo$?winnow_task_pool@generic_scheduler@internal@tbb@@QAEPAVtask@3@H@Z 1005ba4c     scheduler.obj
 0002:00016a70       __ehfuncinfo$?reload_tasks@generic_scheduler@internal@tbb@@QAEPAVtask@3@AAPAV43@AAPAPAV43@HH@Z 1005ba70     scheduler.obj
 0002:00016a94       __ehfuncinfo$?local_spawn_root_and_wait@generic_scheduler@internal@tbb@@QAEXPAVtask@3@AAPAV43@@Z 1005ba94     scheduler.obj
 0002:00016ab8       __ehfuncinfo$?local_spawn@generic_scheduler@internal@tbb@@QAEXPAVtask@3@AAPAV43@@Z 1005bab8     scheduler.obj
 0002:00016adc       __ehfuncinfo$??0generic_scheduler@internal@tbb@@IAE@AAVmarket@12@@Z 1005badc     scheduler.obj
 0002:00016b00       __ehfuncinfo$?cleanup_master@generic_scheduler@internal@tbb@@QAE_N_N@Z 1005bb00     scheduler.obj
 0002:00016b24       __ehfuncinfo$?create_master@generic_scheduler@internal@tbb@@SAPAV123@PAVarena@23@@Z 1005bb24     scheduler.obj
 0002:00016b48       __unwindtable$?pop@?$task_stream@$02@internal@tbb@@QAEPAVtask@3@HAAI@Z 1005bb48     scheduler.obj
 0002:00016b50       __ehfuncinfo$?pop@?$task_stream@$02@internal@tbb@@QAEPAVtask@3@HAAI@Z 1005bb50     scheduler.obj
 0002:00016b74       __tryblocktable$?local_wait_for_all@?$custom_scheduler@UDefaultSchedulerTraits@internal@tbb@@@internal@tbb@@EAEXAAVtask@3@PAV43@@Z 1005bb74     scheduler.obj
 0002:00016b88       __unwindtable$?local_wait_for_all@?$custom_scheduler@UDefaultSchedulerTraits@internal@tbb@@@internal@tbb@@EAEXAAVtask@3@PAV43@@Z 1005bb88     scheduler.obj
 0002:00016ba0       __ehfuncinfo$?local_wait_for_all@?$custom_scheduler@UDefaultSchedulerTraits@internal@tbb@@@internal@tbb@@EAEXAAVtask@3@PAV43@@Z 1005bba0     scheduler.obj
 0002:00016bc4       __catchsym$?local_wait_for_all@?$custom_scheduler@UDefaultSchedulerTraits@internal@tbb@@@internal@tbb@@EAEXAAVtask@3@PAV43@@Z$8 1005bbc4     scheduler.obj
 0002:00016bf4       __tryblocktable$?local_wait_for_all@?$custom_scheduler@UIntelSchedulerTraits@internal@tbb@@@internal@tbb@@EAEXAAVtask@3@PAV43@@Z 1005bbf4     scheduler.obj
 0002:00016c08       __unwindtable$?local_wait_for_all@?$custom_scheduler@UIntelSchedulerTraits@internal@tbb@@@internal@tbb@@EAEXAAVtask@3@PAV43@@Z 1005bc08     scheduler.obj
 0002:00016c20       __ehfuncinfo$?local_wait_for_all@?$custom_scheduler@UIntelSchedulerTraits@internal@tbb@@@internal@tbb@@EAEXAAVtask@3@PAV43@@Z 1005bc20     scheduler.obj
 0002:00016c44       __catchsym$?local_wait_for_all@?$custom_scheduler@UIntelSchedulerTraits@internal@tbb@@@internal@tbb@@EAEXAAVtask@3@PAV43@@Z$8 1005bc44     scheduler.obj
 0002:00016c74       __ehfuncinfo$??1?$fast_reverse_vector@PAVtask@tbb@@$0BA@@internal@tbb@@QAE@XZ 1005bc74     scheduler.obj
 0002:00016c98       __ehfuncinfo$??1?$context_guard_helper@$00@internal@tbb@@QAE@XZ 1005bc98     scheduler.obj
 0002:00016cbc       __unwindtable$?front@?$deque@PAVtask@tbb@@V?$tbb_allocator@PAVtask@tbb@@@2@@std@@QAEAAPAVtask@tbb@@XZ 1005bcbc     scheduler.obj
 0002:00016cc4       __ehfuncinfo$?front@?$deque@PAVtask@tbb@@V?$tbb_allocator@PAVtask@tbb@@@2@@std@@QAEAAPAVtask@tbb@@XZ 1005bcc4     scheduler.obj
 0002:00016ce8       __unwindtable$?remove_ref@observer_list@internal@tbb@@QAEXPAVobserver_proxy@23@@Z 1005bce8     observer_proxy.obj
 0002:00016cf0       __unwindtable$?clear@observer_list@internal@tbb@@QAEXXZ 1005bcf0     observer_proxy.obj
 0002:00016cf8       __unwindtable$?do_notify_exit_observers@observer_list@internal@tbb@@AAEXPAVobserver_proxy@23@_N@Z 1005bcf8     observer_proxy.obj
 0002:00016d00       __unwindtable$?do_notify_entry_observers@observer_list@internal@tbb@@AAEXAAPAVobserver_proxy@23@_N@Z 1005bd00     observer_proxy.obj
 0002:00016d08       __unwindtable$?observe@task_scheduler_observer_v3@internal@tbb@@QAEX_N@Z 1005bd08     observer_proxy.obj
 0002:00016d18       __ehfuncinfo$??1observer_proxy@internal@tbb@@AAE@XZ 1005bd18     observer_proxy.obj
 0002:00016d3c       __ehfuncinfo$?remove_ref@observer_list@internal@tbb@@QAEXPAVobserver_proxy@23@@Z 1005bd3c     observer_proxy.obj
 0002:00016d60       __ehfuncinfo$?clear@observer_list@internal@tbb@@QAEXXZ 1005bd60     observer_proxy.obj
 0002:00016d84       __ehfuncinfo$?do_notify_exit_observers@observer_list@internal@tbb@@AAEXPAVobserver_proxy@23@_N@Z 1005bd84     observer_proxy.obj
 0002:00016da8       __ehfuncinfo$?do_notify_entry_observers@observer_list@internal@tbb@@AAEXAAPAVobserver_proxy@23@_N@Z 1005bda8     observer_proxy.obj
 0002:00016dcc       __ehfuncinfo$?observe@task_scheduler_observer_v3@internal@tbb@@QAEX_N@Z 1005bdcc     observer_proxy.obj
 0002:00016df0       __ehfuncinfo$??1check_observer_proxy_count@internal@tbb@@QAE@XZ 1005bdf0     observer_proxy.obj
 0002:00016e14       __unwindtable$?internal_destroy@global_control@interface9@tbb@@AAEXXZ 1005be14     tbb_main.obj
 0002:00016e1c       __unwindtable$?internal_create@global_control@interface9@tbb@@AAEXXZ 1005be1c     tbb_main.obj
 0002:00016e24       __ehfuncinfo$?internal_destroy@global_control@interface9@tbb@@AAEXXZ 1005be24     tbb_main.obj
 0002:00016e48       __ehfuncinfo$?internal_create@global_control@interface9@tbb@@AAEXXZ 1005be48     tbb_main.obj
 0002:00016e6c       __unwindtable$?pop@micro_queue@internal@tbb@@QAE_NPAXIAAVconcurrent_queue_base@23@@Z 1005be6c     concurrent_queue_v2.obj
 0002:00016e74       __unwindtable$??0concurrent_queue_iterator_base@internal@tbb@@IAE@ABVconcurrent_queue_base@12@@Z 1005be74     concurrent_queue_v2.obj
 0002:00016e7c       __unwindtable$?push@micro_queue@internal@tbb@@QAEXPBXIAAVconcurrent_queue_base@23@@Z 1005be7c     concurrent_queue_v2.obj
 0002:00016e8c       __ehfuncinfo$?pop@micro_queue@internal@tbb@@QAE_NPAXIAAVconcurrent_queue_base@23@@Z 1005be8c     concurrent_queue_v2.obj
 0002:00016eb0       __ehfuncinfo$?push@micro_queue@internal@tbb@@QAEXPBXIAAVconcurrent_queue_base@23@@Z 1005beb0     concurrent_queue_v2.obj
 0002:00016ed4       __ehfuncinfo$??0concurrent_queue_iterator_base@internal@tbb@@IAE@ABVconcurrent_queue_base@12@@Z 1005bed4     concurrent_queue_v2.obj
 0002:00016ef8       __ehfuncinfo$??1concurrent_queue_base@internal@tbb@@MAE@XZ 1005bef8     concurrent_queue_v2.obj
 0002:00016f1c       __ehfuncinfo$??1push_finalizer@micro_queue@internal@tbb@@QAE@XZ 1005bf1c     concurrent_queue_v2.obj
 0002:00016f40       __ehfuncinfo$??1pop_finalizer@micro_queue@internal@tbb@@QAE@XZ 1005bf40     concurrent_queue_v2.obj
 0002:00016f68       __sehtable$??_M@YGXPAXIIP6EX0@Z@Z 1005bf68     MSVCRTD:ehvecdtr.obj
 0002:00016f88       __sehtable$?__ArrayUnwind@@YGXPAXIIP6EX0@Z@Z 1005bf88     MSVCRTD:ehvecdtr.obj
 0002:00016fa8       __sehtable$??_L@YGXPAXIIP6EX0@Z1@Z 1005bfa8     MSVCRTD:ehvecctr.obj
 0002:00016fc8       __sehtable$___scrt_is_nonwritable_in_current_image 1005bfc8     MSVCRTD:utility.obj
 0002:00016fe8       __sehtable$?dllmain_crt_process_attach@@YAHQAUHINSTANCE__@@QAX@Z 1005bfe8     MSVCRTD:dll_dllmain.obj
 0002:00017008       __sehtable$?dllmain_crt_process_detach@@YAH_N@Z 1005c008     MSVCRTD:dll_dllmain.obj
 0002:00017028       __sehtable$?dllmain_dispatch@@YAHQAUHINSTANCE__@@KQAX@Z 1005c028     MSVCRTD:dll_dllmain.obj
 0002:00017048       __sehtable$?notify_debugger@@YAXABUtagEXCEPTION_VISUALCPP_DEBUG_INFO@@@Z 1005c048     MSVCRTD:_error_.obj
 0002:000170a0       .edata                     1005c0a0     tbb_debug.exp
 0002:000170c8       rgpv                       1005c0c8     tbb_debug.exp
 0002:00017464       rgszName                   1005c464     tbb_debug.exp
 0002:00017800       rgwOrd                     1005c800     tbb_debug.exp
 0002:000179ce       szName                     1005c9ce     tbb_debug.exp
 0002:000179dc       $N00001                    1005c9dc     tbb_debug.exp
 0002:00017a0b       $N00002                    1005ca0b     tbb_debug.exp
 0002:00017a3d       $N00003                    1005ca3d     tbb_debug.exp
 0002:00017a90       $N00004                    1005ca90     tbb_debug.exp
 0002:00017ae9       $N00005                    1005cae9     tbb_debug.exp
 0002:00017b43       $N00006                    1005cb43     tbb_debug.exp
 0002:00017b5b       $N00007                    1005cb5b     tbb_debug.exp
 0002:00017b7d       $N00008                    1005cb7d     tbb_debug.exp
 0002:00017bab       $N00009                    1005cbab     tbb_debug.exp
 0002:00017bdc       $N00010                    1005cbdc     tbb_debug.exp
 0002:00017c13       $N00011                    1005cc13     tbb_debug.exp
 0002:00017c4d       $N00012                    1005cc4d     tbb_debug.exp
 0002:00017c7f       $N00013                    1005cc7f     tbb_debug.exp
 0002:00017c95       $N00014                    1005cc95     tbb_debug.exp
 0002:00017cad       $N00015                    1005ccad     tbb_debug.exp
 0002:00017ccf       $N00016                    1005cccf     tbb_debug.exp
 0002:00017ce5       $N00017                    1005cce5     tbb_debug.exp
 0002:00017d0e       $N00018                    1005cd0e     tbb_debug.exp
 0002:00017d2f       $N00019                    1005cd2f     tbb_debug.exp
 0002:00017d54       $N00020                    1005cd54     tbb_debug.exp
 0002:00017d89       $N00021                    1005cd89     tbb_debug.exp
 0002:00017dc3       $N00022                    1005cdc3     tbb_debug.exp
 0002:00017df7       $N00023                    1005cdf7     tbb_debug.exp
 0002:00017e24       $N00024                    1005ce24     tbb_debug.exp
 0002:00017e61       $N00025                    1005ce61     tbb_debug.exp
 0002:00017ea1       $N00026                    1005cea1     tbb_debug.exp
 0002:00017eed       $N00027                    1005ceed     tbb_debug.exp
 0002:00017f2b       $N00028                    1005cf2b     tbb_debug.exp
 0002:00017f70       $N00029                    1005cf70     tbb_debug.exp
 0002:00017fac       $N00030                    1005cfac     tbb_debug.exp
 0002:00017ff6       $N00031                    1005cff6     tbb_debug.exp
 0002:00018022       $N00032                    1005d022     tbb_debug.exp
 0002:00018052       $N00033                    1005d052     tbb_debug.exp
 0002:00018076       $N00034                    1005d076     tbb_debug.exp
 0002:000180b3       $N00035                    1005d0b3     tbb_debug.exp
 0002:000180f6       $N00036                    1005d0f6     tbb_debug.exp
 0002:0001813c       $N00037                    1005d13c     tbb_debug.exp
 0002:00018168       $N00038                    1005d168     tbb_debug.exp
 0002:000181a0       $N00039                    1005d1a0     tbb_debug.exp
 0002:000181d4       $N00040                    1005d1d4     tbb_debug.exp
 0002:0001820b       $N00041                    1005d20b     tbb_debug.exp
 0002:00018231       $N00042                    1005d231     tbb_debug.exp
 0002:0001824d       $N00043                    1005d24d     tbb_debug.exp
 0002:0001827f       $N00044                    1005d27f     tbb_debug.exp
 0002:000182b3       $N00045                    1005d2b3     tbb_debug.exp
 0002:000182db       $N00046                    1005d2db     tbb_debug.exp
 0002:000182fb       $N00047                    1005d2fb     tbb_debug.exp
 0002:00018337       $N00048                    1005d337     tbb_debug.exp
 0002:00018362       $N00049                    1005d362     tbb_debug.exp
 0002:000183a1       $N00050                    1005d3a1     tbb_debug.exp
 0002:000183e9       $N00051                    1005d3e9     tbb_debug.exp
 0002:00018423       $N00052                    1005d423     tbb_debug.exp
 0002:00018464       $N00053                    1005d464     tbb_debug.exp
 0002:0001849c       $N00054                    1005d49c     tbb_debug.exp
 0002:000184e2       $N00055                    1005d4e2     tbb_debug.exp
 0002:0001850a       $N00056                    1005d50a     tbb_debug.exp
 0002:00018544       $N00057                    1005d544     tbb_debug.exp
 0002:0001856b       $N00058                    1005d56b     tbb_debug.exp
 0002:000185a3       $N00059                    1005d5a3     tbb_debug.exp
 0002:000185c8       $N00060                    1005d5c8     tbb_debug.exp
 0002:000185f5       $N00061                    1005d5f5     tbb_debug.exp
 0002:00018623       $N00062                    1005d623     tbb_debug.exp
 0002:00018650       $N00063                    1005d650     tbb_debug.exp
 0002:0001868e       $N00064                    1005d68e     tbb_debug.exp
 0002:000186c4       $N00065                    1005d6c4     tbb_debug.exp
 0002:00018704       $N00066                    1005d704     tbb_debug.exp
 0002:0001873f       $N00067                    1005d73f     tbb_debug.exp
 0002:00018777       $N00068                    1005d777     tbb_debug.exp
 0002:000187ad       $N00069                    1005d7ad     tbb_debug.exp
 0002:0001880d       $N00070                    1005d80d     tbb_debug.exp
 0002:00018846       $N00071                    1005d846     tbb_debug.exp
 0002:0001887d       $N00072                    1005d87d     tbb_debug.exp
 0002:000188dd       $N00073                    1005d8dd     tbb_debug.exp
 0002:00018938       $N00074                    1005d938     tbb_debug.exp
 0002:00018996       $N00075                    1005d996     tbb_debug.exp
 0002:000189d7       $N00076                    1005d9d7     tbb_debug.exp
 0002:00018a17       $N00077                    1005da17     tbb_debug.exp
 0002:00018a56       $N00078                    1005da56     tbb_debug.exp
 0002:00018a98       $N00079                    1005da98     tbb_debug.exp
 0002:00018ae0       $N00080                    1005dae0     tbb_debug.exp
 0002:00018b29       $N00081                    1005db29     tbb_debug.exp
 0002:00018b83       $N00082                    1005db83     tbb_debug.exp
 0002:00018be0       $N00083                    1005dbe0     tbb_debug.exp
 0002:00018c3d       $N00084                    1005dc3d     tbb_debug.exp
 0002:00018cbb       $N00085                    1005dcbb     tbb_debug.exp
 0002:00018cf8       $N00086                    1005dcf8     tbb_debug.exp
 0002:00018d1e       $N00087                    1005dd1e     tbb_debug.exp
 0002:00018d4c       $N00088                    1005dd4c     tbb_debug.exp
 0002:00018d7d       $N00089                    1005dd7d     tbb_debug.exp
 0002:00018dbb       $N00090                    1005ddbb     tbb_debug.exp
 0002:00018deb       $N00091                    1005ddeb     tbb_debug.exp
 0002:00018e3c       $N00092                    1005de3c     tbb_debug.exp
 0002:00018e92       $N00093                    1005de92     tbb_debug.exp
 0002:00018ebd       $N00094                    1005debd     tbb_debug.exp
 0002:00018eee       $N00095                    1005deee     tbb_debug.exp
 0002:00018f33       $N00096                    1005df33     tbb_debug.exp
 0002:00018f83       $N00097                    1005df83     tbb_debug.exp
 0002:00018fd6       $N00098                    1005dfd6     tbb_debug.exp
 0002:0001900d       $N00099                    1005e00d     tbb_debug.exp
 0002:00019053       $N00100                    1005e053     tbb_debug.exp
 0002:00019082       $N00101                    1005e082     tbb_debug.exp
 0002:000190ba       $N00102                    1005e0ba     tbb_debug.exp
 0002:000190de       $N00103                    1005e0de     tbb_debug.exp
 0002:0001911a       $N00104                    1005e11a     tbb_debug.exp
 0002:00019148       $N00105                    1005e148     tbb_debug.exp
 0002:00019190       $N00106                    1005e190     tbb_debug.exp
 0002:000191dd       $N00107                    1005e1dd     tbb_debug.exp
 0002:00019237       $N00108                    1005e237     tbb_debug.exp
 0002:0001926a       $N00109                    1005e26a     tbb_debug.exp
 0002:0001929b       $N00110                    1005e29b     tbb_debug.exp
 0002:000192f5       $N00111                    1005e2f5     tbb_debug.exp
 0002:00019334       $N00112                    1005e334     tbb_debug.exp
 0002:00019381       $N00113                    1005e381     tbb_debug.exp
 0002:000193d8       $N00114                    1005e3d8     tbb_debug.exp
 0002:0001941d       $N00115                    1005e41d     tbb_debug.exp
 0002:00019467       $N00116                    1005e467     tbb_debug.exp
 0002:000194b8       $N00117                    1005e4b8     tbb_debug.exp
 0002:000194fd       $N00118                    1005e4fd     tbb_debug.exp
 0002:00019550       $N00119                    1005e550     tbb_debug.exp
 0002:000195aa       $N00120                    1005e5aa     tbb_debug.exp
 0002:00019610       $N00121                    1005e610     tbb_debug.exp
 0002:00019655       $N00122                    1005e655     tbb_debug.exp
 0002:000196b2       $N00123                    1005e6b2     tbb_debug.exp
 0002:000196e9       $N00124                    1005e6e9     tbb_debug.exp
 0002:00019743       $N00125                    1005e743     tbb_debug.exp
 0002:0001977f       $N00126                    1005e77f     tbb_debug.exp
 0002:000197be       $N00127                    1005e7be     tbb_debug.exp
 0002:00019806       $N00128                    1005e806     tbb_debug.exp
 0002:00019851       $N00129                    1005e851     tbb_debug.exp
 0002:0001988e       $N00130                    1005e88e     tbb_debug.exp
 0002:000198ce       $N00131                    1005e8ce     tbb_debug.exp
 0002:00019914       $N00132                    1005e914     tbb_debug.exp
 0002:0001995d       $N00133                    1005e95d     tbb_debug.exp
 0002:000199a7       $N00134                    1005e9a7     tbb_debug.exp
 0002:000199f4       $N00135                    1005e9f4     tbb_debug.exp
 0002:00019a39       $N00136                    1005ea39     tbb_debug.exp
 0002:00019a8b       $N00137                    1005ea8b     tbb_debug.exp
 0002:00019abb       $N00138                    1005eabb     tbb_debug.exp
 0002:00019af5       $N00139                    1005eaf5     tbb_debug.exp
 0002:00019b2a       $N00140                    1005eb2a     tbb_debug.exp
 0002:00019b81       $N00141                    1005eb81     tbb_debug.exp
 0002:00019bb9       $N00142                    1005ebb9     tbb_debug.exp
 0002:00019bef       $N00143                    1005ebef     tbb_debug.exp
 0002:00019c27       $N00144                    1005ec27     tbb_debug.exp
 0002:00019c5d       $N00145                    1005ec5d     tbb_debug.exp
 0002:00019c9e       $N00146                    1005ec9e     tbb_debug.exp
 0002:00019ce2       $N00147                    1005ece2     tbb_debug.exp
 0002:00019d3b       $N00148                    1005ed3b     tbb_debug.exp
 0002:00019d7f       $N00149                    1005ed7f     tbb_debug.exp
 0002:00019dc6       $N00150                    1005edc6     tbb_debug.exp
 0002:00019df0       $N00151                    1005edf0     tbb_debug.exp
 0002:00019e2a       $N00152                    1005ee2a     tbb_debug.exp
 0002:00019e67       $N00153                    1005ee67     tbb_debug.exp
 0002:00019ea4       $N00154                    1005eea4     tbb_debug.exp
 0002:00019ee9       $N00155                    1005eee9     tbb_debug.exp
 0002:00019f2d       $N00156                    1005ef2d     tbb_debug.exp
 0002:00019f75       $N00157                    1005ef75     tbb_debug.exp
 0002:00019fbf       $N00158                    1005efbf     tbb_debug.exp
 0002:00019ffa       $N00159                    1005effa     tbb_debug.exp
 0002:0001a03f       $N00160                    1005f03f     tbb_debug.exp
 0002:0001a07f       $N00161                    1005f07f     tbb_debug.exp
 0002:0001a0bc       $N00162                    1005f0bc     tbb_debug.exp
 0002:0001a0f7       $N00163                    1005f0f7     tbb_debug.exp
 0002:0001a134       $N00164                    1005f134     tbb_debug.exp
 0002:0001a16f       $N00165                    1005f16f     tbb_debug.exp
 0002:0001a1d2       $N00166                    1005f1d2     tbb_debug.exp
 0002:0001a204       $N00167                    1005f204     tbb_debug.exp
 0002:0001a234       $N00168                    1005f234     tbb_debug.exp
 0002:0001a28c       $N00169                    1005f28c     tbb_debug.exp
 0002:0001a2cb       $N00170                    1005f2cb     tbb_debug.exp
 0002:0001a309       $N00171                    1005f309     tbb_debug.exp
 0002:0001a331       $N00172                    1005f331     tbb_debug.exp
 0002:0001a35f       $N00173                    1005f35f     tbb_debug.exp
 0002:0001a3aa       $N00174                    1005f3aa     tbb_debug.exp
 0002:0001a3d8       $N00175                    1005f3d8     tbb_debug.exp
 0002:0001a413       $N00176                    1005f413     tbb_debug.exp
 0002:0001a444       $N00177                    1005f444     tbb_debug.exp
 0002:0001a47f       $N00178                    1005f47f     tbb_debug.exp
 0002:0001a4a8       $N00179                    1005f4a8     tbb_debug.exp
 0002:0001a4d8       $N00180                    1005f4d8     tbb_debug.exp
 0002:0001a50d       $N00181                    1005f50d     tbb_debug.exp
 0002:0001a537       $N00182                    1005f537     tbb_debug.exp
 0002:0001a57a       $N00183                    1005f57a     tbb_debug.exp
 0002:0001a5ac       $N00184                    1005f5ac     tbb_debug.exp
 0002:0001a5d3       $N00185                    1005f5d3     tbb_debug.exp
 0002:0001a5f4       $N00186                    1005f5f4     tbb_debug.exp
 0002:0001a62f       $N00187                    1005f62f     tbb_debug.exp
 0002:0001a668       $N00188                    1005f668     tbb_debug.exp
 0002:0001a6a8       $N00189                    1005f6a8     tbb_debug.exp
 0002:0001a6e3       $N00190                    1005f6e3     tbb_debug.exp
 0002:0001a712       $N00191                    1005f712     tbb_debug.exp
 0002:0001a744       $N00192                    1005f744     tbb_debug.exp
 0002:0001a76a       $N00193                    1005f76a     tbb_debug.exp
 0002:0001a7a5       $N00194                    1005f7a5     tbb_debug.exp
 0002:0001a7c0       $N00195                    1005f7c0     tbb_debug.exp
 0002:0001a7f3       $N00196                    1005f7f3     tbb_debug.exp
 0002:0001a81b       $N00197                    1005f81b     tbb_debug.exp
 0002:0001a836       $N00198                    1005f836     tbb_debug.exp
 0002:0001a85e       $N00199                    1005f85e     tbb_debug.exp
 0002:0001a895       $N00200                    1005f895     tbb_debug.exp
 0002:0001a8ba       $N00201                    1005f8ba     tbb_debug.exp
 0002:0001a8f6       $N00202                    1005f8f6     tbb_debug.exp
 0002:0001a92e       $N00203                    1005f92e     tbb_debug.exp
 0002:0001a959       $N00204                    1005f959     tbb_debug.exp
 0002:0001a995       $N00205                    1005f995     tbb_debug.exp
 0002:0001a9d5       $N00206                    1005f9d5     tbb_debug.exp
 0002:0001a9fa       $N00207                    1005f9fa     tbb_debug.exp
 0002:0001aa31       $N00208                    1005fa31     tbb_debug.exp
 0002:0001aa6b       $N00209                    1005fa6b     tbb_debug.exp
 0002:0001aaa5       $N00210                    1005faa5     tbb_debug.exp
 0002:0001aae4       $N00211                    1005fae4     tbb_debug.exp
 0002:0001ab19       $N00212                    1005fb19     tbb_debug.exp
 0002:0001ab53       $N00213                    1005fb53     tbb_debug.exp
 0002:0001ab97       $N00214                    1005fb97     tbb_debug.exp
 0002:0001abc9       $N00215                    1005fbc9     tbb_debug.exp
 0002:0001ac06       $N00216                    1005fc06     tbb_debug.exp
 0002:0001ac29       $N00217                    1005fc29     tbb_debug.exp
 0002:0001ac50       $N00218                    1005fc50     tbb_debug.exp
 0002:0001ac72       $N00219                    1005fc72     tbb_debug.exp
 0002:0001aca2       $N00220                    1005fca2     tbb_debug.exp
 0002:0001acc3       $N00221                    1005fcc3     tbb_debug.exp
 0002:0001ace2       $N00222                    1005fce2     tbb_debug.exp
 0002:0001ad00       $N00223                    1005fd00     tbb_debug.exp
 0002:0001ad16       $N00224                    1005fd16     tbb_debug.exp
 0002:0001ad2e       $N00225                    1005fd2e     tbb_debug.exp
 0002:0001ad48       $N00226                    1005fd48     tbb_debug.exp
 0002:0001ad68       $N00227                    1005fd68     tbb_debug.exp
 0002:0001ad7c       $N00228                    1005fd7c     tbb_debug.exp
 0002:0001ad91       $N00229                    1005fd91     tbb_debug.exp
 0002:0001adaf       $N00230                    1005fdaf     tbb_debug.exp
 0002:0001adc9       $N00231                    1005fdc9     tbb_debug.exp
 0002:0001b33e       .idata$6                   1006033e     kernel32:KERNEL32.dll
 0002:0001b4ac       .idata$6                   100604ac     msvcprtd:MSVCP140D.dll
 0002:0001b602       .idata$6                   10060602     vcruntimed:VCRUNTIME140D.dll
 0002:0001b8a4       .idata$6                   100608a4     ucrtd:ucrtbased.dll
 0003:00000000       ?dummy@?1??make_invalid@micro_queue@internal@tbb@@QAEXI@Z@4Upage@concurrent_queue_base_v3@34@A 10061000     concurrent_queue.obj
 0003:000002b0       ?api_list@@3PAU___itt_api_info@@A 100612b0     itt_notify.obj
 0003:00000f54       ?ittnotify_lib_name@@3PBDB 10061f54     itt_notify.obj
 0003:00000f58       ?__itt_fini_ittlib_ptr@@3P6AXXZA 10061f58     itt_notify.obj
 0003:00000f60       ?group_list@@3PAU___itt_group_list@@A 10061f60     itt_notify.obj
 0003:00000fe0       ?group_alias@@3PAU___itt_group_alias@@A 10061fe0     itt_notify.obj
 0003:00001000       ?env_value@?1??__itt_get_env_var@@YAPBDPBD@Z@4PADA 10062000     itt_notify.obj
 0003:00001004       ?MallocHandler@internal@tbb@@3P6APAXI@ZA 10062004     cache_aligned_allocator.obj
 0003:00001008       ?FreeHandler@internal@tbb@@3P6AXPAX@ZA 10062008     cache_aligned_allocator.obj
 0003:0000100c       ?padded_allocate_handler@internal@tbb@@3P6APAXII@ZA 1006200c     cache_aligned_allocator.obj
 0003:00001010       ?padded_free_handler@internal@tbb@@3P6AXPAX@ZA 10062010     cache_aligned_allocator.obj
 0003:00001014       ?NFS_LineSize@internal@tbb@@3IA 10062014     cache_aligned_allocator.obj
 0003:00001018       ?__TBB_init_condvar@internal@tbb@@3P6GXPAU_RTL_CONDITION_VARIABLE@@@ZA 10062018     condition_variable.obj
 0003:0000101c       ?__TBB_condvar_wait@internal@tbb@@3P6GHPAU_RTL_CONDITION_VARIABLE@@PAU_RTL_CRITICAL_SECTION@@K@ZA 1006201c     condition_variable.obj
 0003:00001020       ?__TBB_condvar_notify_one@internal@tbb@@3P6GXPAU_RTL_CONDITION_VARIABLE@@@ZA 10062020     condition_variable.obj
 0003:00001024       ?__TBB_condvar_notify_all@internal@tbb@@3P6GXPAU_RTL_CONDITION_VARIABLE@@@ZA 10062024     condition_variable.obj
 0003:00001028       ?__TBB_destroy_condvar@internal@tbb@@3P6GXPAU_RTL_CONDITION_VARIABLE@@@ZA 10062028     condition_variable.obj
 0003:0000102c       ?SyncType_RML@internal@rml@@3PB_WB 1006202c     private_server.obj
 0003:00001030       ?SyncObj_ThreadMonitor@internal@rml@@3PB_WB 10062030     private_server.obj
 0003:0000103c       ?controls@internal@tbb@@3PAPAVcontrol_storage@12@A 1006203c     tbb_main.obj
 0003:000019c0       ?static_invalid_page@internal@tbb@@3PAXA 100629c0     concurrent_queue.obj
 0003:000019f0       ?static_init_dl_data@internal@tbb@@3Ustatic_init_dl_data_t@12@A 100629f0     dynamic_link.obj
 0003:000019f8       ?ap_data@internal@tbb@@3Uap_data_t@12@A 100629f8     dynamic_link.obj
 0003:00001b08       ?env_buff@?1??__itt_get_env_var@@YAPBDPBD@Z@4PADA 10062b08     itt_notify.obj
 0003:00002b00       ?current_thread@?1??__itt_fini_ittlib@@9@4KC 10063b00     itt_notify.obj
 0003:00002b04       ?current_thread@?1??__itt_init_ittlib@@9@4KC 10063b04     itt_notify.obj
 0003:00002b08       ?initialization_state@internal@tbb@@3U?$atomic@W4do_once_state@internal@tbb@@@2@A 10063b08     cache_aligned_allocator.obj
 0003:00002b0c       ?condvar_api_state@internal@tbb@@3U?$atomic@W4do_once_state@internal@tbb@@@2@A 10063b0c     condition_variable.obj
 0003:00002b18       ?assertion_handler@tbb@@3P6AXPBDH00@ZA 10063b18     tbb_misc.obj
 0003:00002b1c       ?PrintVersionFlag@internal@tbb@@3_NA 10063b1c     tbb_misc.obj
 0003:00002b1d       ?already_failed@?6??assertion_failure@tbb@@YAXPBDH00@Z@4_NA 10063b1d     tbb_misc.obj
 0003:00002b20       ?cache@?1??__TBB_machine_store8_slow_perf_warning@@9@4PAU?$atomic@PAX@tbb@@A 10063b20     tbb_misc.obj
 0003:00002b30       ?k@?1??__TBB_machine_store8_slow_perf_warning@@9@4U?$atomic@I@tbb@@A 10063b30     tbb_misc.obj
 0003:00002b3c       ?TBB_GetActiveProcessorCount@internal@tbb@@3P6GKG@ZA 10063b3c     tbb_misc_ex.obj
 0003:00002e40       ?TBB_GetActiveProcessorGroupCount@internal@tbb@@3P6GGXZA 10063e40     tbb_misc_ex.obj
 0003:00002e44       ?TBB_SetThreadGroupAffinity@internal@tbb@@3P6GHPAXPBUTBB_GROUP_AFFINITY@12@PAU312@@ZA 10063e44     tbb_misc_ex.obj
 0003:00002e48       ?TBB_GetThreadGroupAffinity@internal@tbb@@3P6GHPAXPAUTBB_GROUP_AFFINITY@12@@ZA 10063e48     tbb_misc_ex.obj
 0003:00002e4c       ?hardware_concurrency_info@internal@tbb@@3U?$atomic@W4do_once_state@internal@tbb@@@2@A 10063e4c     tbb_misc_ex.obj
 0003:00002e50       ?watch_stack_handler@internal@tbb@@3P6AHPAU__cilk_tbb_unwatch_thunk@@U__cilk_tbb_stack_op_thunk@@@ZA 10063e50     governor.obj
 0003:00002e54       ?cilkrts_load_state@internal@tbb@@3U?$atomic@W4do_once_state@internal@tbb@@@2@A 10063e54     governor.obj
 0003:00002e60       ?the_dummy_context@internal@tbb@@3Vtask_group_context@2@A 10063e60     scheduler.obj
 0003:00002fe0       ?the_check_observer_proxy_count@internal@tbb@@3Ucheck_observer_proxy_count@12@A 10063fe0     observer_proxy.obj
 0003:00002fe4       ?observer_proxy_count@internal@tbb@@3U?$atomic@H@2@A 10063fe4     observer_proxy.obj
 0003:00003018       ?stack_size_ctl@internal@tbb@@3Vstack_size_control@12@A 10064018     tbb_main.obj
 0003:00003099       ?ITT_Present@internal@tbb@@3_NA 10064099     tbb_main.obj
 0003:0000309a       ?ITT_InitializationDone@internal@tbb@@3_NA 1006409a     tbb_main.obj
 0003:0000309c       ?allowed_parallelism_ctl@internal@tbb@@3Vallowed_parallelism_control@12@A 1006409c     tbb_main.obj
 0003:0000311c       ?init@?1??_RTC_InitBase@@9@4_NA 1006411c     MSVCRTD:_init_.obj
 0003:00003120       _GS_ExceptionRecord        10064120     MSVCRTD:gs_report.obj
 0003:00003170       _GS_ContextRecord          10064170     MSVCRTD:gs_report.obj
 0003:00003450       ?module_local_atexit_table@@3U_onexit_table_t@@A 10064450     MSVCRTD:utility.obj
 0003:0000345c       ?module_local_at_quick_exit_table@@3U_onexit_table_t@@A 1006445c     MSVCRTD:utility.obj
 0003:00003468       ?module_local_atexit_table_initialized@@3_NA 10064468     MSVCRTD:utility.obj
 0003:00003469       ?is_initialized_as_dll@@3_NA 10064469     MSVCRTD:utility.obj
 0003:0000346c       ?__proc_attached@@3HA      1006446c     MSVCRTD:dll_dllmain.obj
 0003:00003470       ?_RTC_ErrorReportFunc@@3P6AHHPBDH00ZZA 10064470     MSVCRTD:_userapi_.obj
 0003:00003474       ?_RTC_ErrorReportFuncW@@3P6AHHPB_WH00ZZA 10064474     MSVCRTD:_userapi_.obj
 0003:00003490       ?mspdb@@3PAUHINSTANCE__@@A 10064490     MSVCRTD:_pdblkup_.obj
 0003:00003494       ?alreadyTried@?1??GetPdbDll@@YAPAUHINSTANCE__@@XZ@4_NA 10064494     MSVCRTD:_pdblkup_.obj
 0003:00003495       ?PDBOK@?1??_RTC_GetSrcLine@@YAHPAEPA_WKPAH1K@Z@4_NA 10064495     MSVCRTD:_pdblkup_.obj
 0004:000000a0       $R000000                   100650a0     tbb_resource.res
 0004:00000480       $R0003E0                   10065480     tbb_resource.res
