 tbb_debug

 Timestamp is 5b3cd38c (Wed Jul  4 23:02:52 2018)

 Preferred load address is 10000000

 Start         Length     Name                   Class
 0001:00000000 00000130H .text$di                CODE
 0001:00000130 000be9d0H .text$mn                CODE
 0001:000beb00 00002040H .text$x                 CODE
 0001:000c0b40 0000004fH .text$yd                CODE
 0002:00000000 000001b4H .idata$5                DATA
 0002:000001b4 00000004H .00cfg                  DATA
 0002:000001b8 00000004H .CRT$XCA                DATA
 0002:000001bc 00000004H .CRT$XCC                DATA
 0002:000001c0 00000020H .CRT$XCU                DATA
 0002:000001e0 00000004H .CRT$XCZ                DATA
 0002:000001e4 00000004H .CRT$XIA                DATA
 0002:000001e8 00000010H .CRT$XIC                DATA
 0002:000001f8 00000004H .CRT$XIZ                DATA
 0002:000001fc 00000004H .CRT$XPA                DATA
 0002:00000200 00000008H .CRT$XPX                DATA
 0002:00000208 00000004H .CRT$XPXA               DATA
 0002:0000020c 00000004H .CRT$XPZ                DATA
 0002:00000210 00000004H .CRT$XTA                DATA
 0002:00000214 0000000cH .CRT$XTZ                DATA
 0002:00000218 00000000H .gfids$y                DATA
 0002:00000220 00030ad8H .rdata                  DATA
 0002:00030cf8 00001778H .rdata$r                DATA
 0002:00032470 00000350H .rdata$sxdata           DATA
 0002:000327c0 0000036cH .rdata$zzzdbg           DATA
 0002:00032b2c 00000004H .rtc$IAA                DATA
 0002:00032b30 0000008cH .rtc$IMZ                DATA
 0002:00032bbc 00000004H .rtc$IZZ                DATA
 0002:00032bc0 00000004H .rtc$TAA                DATA
 0002:00032bc4 0000008cH .rtc$TMZ                DATA
 0002:00032c50 00000008H .rtc$TZZ                DATA
 0002:00032c58 00003698H .xdata$x                DATA
 0002:000362f0 00003d48H .edata                  DATA
 0002:0003a038 00000014H .idata$2                DATA
 0002:0003a04c 00000014H .idata$3                DATA
 0002:0003a060 000001b4H .idata$4                DATA
 0002:0003a214 00000808H .idata$6                DATA
 0003:00000000 00001860H .data                   DATA
 0003:00001860 00000c20H .data$r                 DATA
 0003:00002480 00002ce4H .bss                    DATA
 0004:00000000 000000a0H .rsrc$01                DATA
 0004:000000a0 00000560H .rsrc$02                DATA

  Address         Publics by Value              Rva+Base       Lib:Object

 0000:00000000       ___hybrid_code_map         00000000     <absolute>
 0000:00000000       ___guard_longjmp_count     00000000     <absolute>
 0000:00000000       ___hybrid_auxiliary_iat    00000000     <absolute>
 0000:00000000       ___enclave_config          00000000     <absolute>
 0000:00000000       ___hybrid_code_map_count   00000000     <absolute>
 0000:00000000       __except_list              00000000     <absolute>
 0000:00000000       ___guard_iat_table         00000000     <absolute>
 0000:00000000       ___guard_iat_count         00000000     <absolute>
 0000:00000000       ___guard_fids_table        00000000     <absolute>
 0000:00000000       ___dynamic_value_reloc_table 00000000     <absolute>
 0000:00000000       ___guard_fids_count        00000000     <absolute>
 0000:00000000       ___guard_longjmp_table     00000000     <absolute>
 0000:000000d4       ___safe_se_handler_count   000000d4     <absolute>
 0000:00000100       ___guard_flags             00000100     <absolute>
 0000:00000000       ___ImageBase               10000000     <linker-defined>
 0001:00000130       ?internal_grow_predicate@hash_map_segment_base@internal@tbb@@QBE_NXZ 10001130 f   concurrent_hash_map.obj
 0001:00000190       ??$__TBB_load_with_acquire@H@internal@tbb@@YAHADH@Z 10001190 f i concurrent_hash_map.obj
 0001:000001b0       ??$to_bits_ref@$$CDI@?$atomic_impl@I@internal@tbb@@CAAAHADI@Z 100011b0 f i concurrent_hash_map.obj
 0001:000001e0       ??$to_value@I@?$atomic_impl@I@internal@tbb@@CAIH@Z 100011e0 f i concurrent_hash_map.obj
 0001:00000250       ??0?$converter@I@?$atomic_impl@I@internal@tbb@@QAE@XZ 10001250 f i concurrent_hash_map.obj
 0001:00000270       ??0?$ptr_converter@PDI@?$atomic_impl@I@internal@tbb@@QAE@PDI@Z 10001270 f i concurrent_hash_map.obj
 0001:00000290       ??B?$atomic_impl@I@internal@tbb@@QDEIXZ 10001290 f i concurrent_hash_map.obj
 0001:000002d0       ?__empty_global_delete@@YAXPAX@Z 100012d0 f i concurrent_hash_map.obj
 0001:000002e0       ?__empty_global_delete@@YAXPAXI@Z 100012e0 f i concurrent_hash_map.obj
 0001:000002e0       ?__global_delete@@YAXPAXI@Z 100012e0 f i concurrent_hash_map.obj
 0001:000002f0       ?load_with_acquire@?$machine_load_store@H$03@internal@tbb@@SAHADH@Z 100012f0 f i concurrent_hash_map.obj
 0001:00000360       ??0concurrent_queue_base_v3@internal@tbb@@IAE@I@Z 10001360 f   concurrent_queue.obj
 0001:000005b0       ??1concurrent_queue_base_v3@internal@tbb@@MAE@XZ 100015b0 f   concurrent_queue.obj
 0001:00000680       ?internal_push@concurrent_queue_base_v3@internal@tbb@@IAEXPBX@Z 10001680 f   concurrent_queue.obj
 0001:000006b0       ?internal_pop@concurrent_queue_base_v3@internal@tbb@@IAEXPAX@Z 100016b0 f   concurrent_queue.obj
 0001:00000950       ?internal_abort@concurrent_queue_base_v3@internal@tbb@@IAEXXZ 10001950 f   concurrent_queue.obj
 0001:000009b0       ?internal_push_if_not_full@concurrent_queue_base_v3@internal@tbb@@IAE_NPBX@Z 100019b0 f   concurrent_queue.obj
 0001:000009e0       ?internal_pop_if_present@concurrent_queue_base_v3@internal@tbb@@IAE_NPAX@Z 100019e0 f   concurrent_queue.obj
 0001:00000ab0       ?internal_size@concurrent_queue_base_v3@internal@tbb@@IBEHXZ 10001ab0 f   concurrent_queue.obj
 0001:00000b30       ?internal_empty@concurrent_queue_base_v3@internal@tbb@@IBE_NXZ 10001b30 f   concurrent_queue.obj
 0001:00000bc0       ?internal_set_capacity@concurrent_queue_base_v3@internal@tbb@@IAEXHI@Z 10001bc0 f   concurrent_queue.obj
 0001:00000c00       ?internal_finish_clear@concurrent_queue_base_v3@internal@tbb@@IAEXXZ 10001c00 f   concurrent_queue.obj
 0001:00000cf0       ?internal_throw_exception@concurrent_queue_base_v3@internal@tbb@@IBEXXZ 10001cf0 f   concurrent_queue.obj
 0001:00000d20       ?assign@concurrent_queue_base_v3@internal@tbb@@IAEXABV123@@Z 10001d20 f   concurrent_queue.obj
 0001:00000d50       ?internal_insert_item@concurrent_queue_base_v3@internal@tbb@@IAEXPBXW4copy_specifics@123@@Z 10001d50 f   concurrent_queue.obj
 0001:00001060       ?internal_insert_if_not_full@concurrent_queue_base_v3@internal@tbb@@IAE_NPBXW4copy_specifics@123@@Z 10002060 f   concurrent_queue.obj
 0001:00001130       ?internal_assign@concurrent_queue_base_v3@internal@tbb@@IAEXABV123@W4copy_specifics@123@@Z 10002130 f   concurrent_queue.obj
 0001:00001290       ?move_content@concurrent_queue_base_v8@internal@tbb@@IAEXAAV123@@Z 10002290 f   concurrent_queue.obj
 0001:000012c0       ?internal_push_move_if_not_full@concurrent_queue_base_v8@internal@tbb@@IAE_NPBX@Z 100022c0 f   concurrent_queue.obj
 0001:000012f0       ?internal_push_move@concurrent_queue_base_v8@internal@tbb@@IAEXPBX@Z 100022f0 f   concurrent_queue.obj
 0001:00001320       ?initialize@concurrent_queue_iterator_base_v3@internal@tbb@@AAEXABVconcurrent_queue_base_v3@23@I@Z 10002320 f   concurrent_queue.obj
 0001:000013c0       ??0concurrent_queue_iterator_base_v3@internal@tbb@@IAE@ABVconcurrent_queue_base_v3@12@@Z 100023c0 f   concurrent_queue.obj
 0001:000013f0       ??0concurrent_queue_iterator_base_v3@internal@tbb@@IAE@ABVconcurrent_queue_base_v3@12@I@Z 100023f0 f   concurrent_queue.obj
 0001:00001430       ?assign@concurrent_queue_iterator_base_v3@internal@tbb@@IAEXABV123@@Z 10002430 f   concurrent_queue.obj
 0001:000014f0       ?advance@concurrent_queue_iterator_base_v3@internal@tbb@@IAEXXZ 100024f0 f   concurrent_queue.obj
 0001:00001650       ??1concurrent_queue_iterator_base_v3@internal@tbb@@IAE@XZ 10002650 f   concurrent_queue.obj
 0001:000016c0       ?push@micro_queue@internal@tbb@@QAEXPBXIAAVconcurrent_queue_base_v3@23@W4copy_specifics@423@@Z 100026c0 f   concurrent_queue.obj
 0001:00001a00       ?abort_push@micro_queue@internal@tbb@@QAEXIAAVconcurrent_queue_base_v3@23@@Z 10002a00 f   concurrent_queue.obj
 0001:00001a40       ?pop@micro_queue@internal@tbb@@QAE_NPAXIAAVconcurrent_queue_base_v3@23@@Z 10002a40 f   concurrent_queue.obj
 0001:00001c50       ?assign@micro_queue@internal@tbb@@QAEAAU123@ABU123@AAVconcurrent_queue_base_v3@23@W4copy_specifics@423@@Z 10002c50 f   concurrent_queue.obj
 0001:00001f60       ?make_copy@micro_queue@internal@tbb@@QAEPAUpage@concurrent_queue_base_v3@23@AAV523@PBU4523@IIAAIW4copy_specifics@523@@Z 10002f60 f   concurrent_queue.obj
 0001:00002070       ?make_invalid@micro_queue@internal@tbb@@QAEXI@Z 10003070 f   concurrent_queue.obj
 0001:00002180       ??$__TBB_load_relaxed@I@internal@tbb@@YAIADI@Z 10003180 f i concurrent_queue.obj
 0001:000021a0       ??$__TBB_load_with_acquire@C@internal@tbb@@YACADC@Z 100031a0 f i concurrent_queue.obj
 0001:000021c0       ??$__TBB_store_relaxed@IH@internal@tbb@@YAXACIH@Z 100031c0 f i concurrent_queue.obj
 0001:000021e0       ??$__TBB_store_with_release@CC@internal@tbb@@YAXACCC@Z 100031e0 f i concurrent_queue.obj
 0001:00002200       ??$__TBB_store_with_release@HH@internal@tbb@@YAXACHH@Z 10003200 f i concurrent_queue.obj
 0001:00002220       ??$compare_and_swap@$0A@@?$atomic_impl@I@internal@tbb@@QAEIII@Z 10003220 f i concurrent_queue.obj
 0001:00002270       ??$fetch_and_add@$0A@@?$atomic_impl_with_arithmetic@IID@internal@tbb@@QAEII@Z 10003270 f i concurrent_queue.obj
 0001:000022a0       ??$is_aligned@$$BY07Umicro_queue@internal@tbb@@@internal@tbb@@YA_NPAY07Umicro_queue@01@I@Z 100032a0 f i concurrent_queue.obj
 0001:000022d0       ??$is_aligned@U?$atomic@I@tbb@@@internal@tbb@@YA_NPAU?$atomic@I@1@I@Z 100032d0 f i concurrent_queue.obj
 0001:00002300       ??$is_aligned@Vconcurrent_queue_rep@internal@tbb@@@internal@tbb@@YA_NPAVconcurrent_queue_rep@01@I@Z 10003300 f i concurrent_queue.obj
 0001:00002330       ??$is_power_of_two@I@internal@tbb@@YA_NI@Z 10003330 f i concurrent_queue.obj
 0001:00002370       ??$modulo_power_of_two@II@internal@tbb@@YAIII@Z 10003370 f i concurrent_queue.obj
 0001:000023c0       ??$notify@Upredicate_leq@internal@tbb@@@concurrent_monitor@internal@tbb@@QAEXABUpredicate_leq@12@@Z 100033c0 f i concurrent_queue.obj
 0001:000023f0       ??$notify_relaxed@Upredicate_leq@internal@tbb@@@concurrent_monitor@internal@tbb@@QAEXABUpredicate_leq@12@@Z 100033f0 f i concurrent_queue.obj
 0001:000025d0       ??$punned_cast@PAVbinary_semaphore@internal@tbb@@$$CBV?$aligned_space@Vbinary_semaphore@internal@tbb@@$00@3@@internal@tbb@@YAPAVbinary_semaphore@01@PBV?$aligned_space@Vbinary_semaphore@internal@tbb@@$00@1@@Z 100035d0 f i concurrent_queue.obj
 0001:000025f0       ??$spin_wait_until_eq@U?$atomic@I@tbb@@I@internal@tbb@@YAXADU?$atomic@I@1@I@Z 100035f0 f i concurrent_queue.obj
 0001:00002670       ??$spin_wait_while_eq@U?$atomic@I@tbb@@I@internal@tbb@@YAXADU?$atomic@I@1@I@Z 10003670 f i concurrent_queue.obj
 0001:000026f0       ??$suppress_unused_warning@E@internal@tbb@@YAXABE@Z 100036f0 f i concurrent_queue.obj
 0001:00002700       ??$to_bits@I@?$atomic_impl@I@internal@tbb@@CAHI@Z 10003700 f i concurrent_queue.obj
 0001:00002730       ??$to_bits@PAUpage@concurrent_queue_base_v3@internal@tbb@@@?$atomic_impl@PAUpage@concurrent_queue_base_v3@internal@tbb@@@internal@tbb@@CAHPAUpage@concurrent_queue_base_v3@12@@Z 10003730 f i concurrent_queue.obj
 0001:00002760       ??$to_bits@_N@?$atomic_impl@_N@internal@tbb@@CAC_N@Z 10003760 f i concurrent_queue.obj
 0001:00002790       ??$to_bits_ref@$$CD_N@?$atomic_impl@_N@internal@tbb@@CAAACAD_N@Z 10003790 f i concurrent_queue.obj
 0001:000027c0       ??$to_bits_ref@I@?$atomic_impl@I@internal@tbb@@CAAAHAAI@Z 100037c0 f i concurrent_queue.obj
 0001:000027f0       ??$to_bits_ref@PAUpage@concurrent_queue_base_v3@internal@tbb@@@?$atomic_impl@PAUpage@concurrent_queue_base_v3@internal@tbb@@@internal@tbb@@CAAAHAAPAUpage@concurrent_queue_base_v3@12@@Z 100037f0 f i concurrent_queue.obj
 0001:00002820       ??$to_bits_ref@SAUpage@concurrent_queue_base_v3@internal@tbb@@@?$atomic_impl@PAUpage@concurrent_queue_base_v3@internal@tbb@@@internal@tbb@@CAAAHADSAUpage@concurrent_queue_base_v3@12@@Z 10003820 f i concurrent_queue.obj
 0001:00002850       ??$to_bits_ref@_N@?$atomic_impl@_N@internal@tbb@@CAAACAA_N@Z 10003850 f i concurrent_queue.obj
 0001:00002880       ??$to_value@PAUpage@concurrent_queue_base_v3@internal@tbb@@@?$atomic_impl@PAUpage@concurrent_queue_base_v3@internal@tbb@@@internal@tbb@@CAPAUpage@concurrent_queue_base_v3@12@H@Z 10003880 f i concurrent_queue.obj
 0001:000028f0       ??$to_value@_N@?$atomic_impl@_N@internal@tbb@@CA_NC@Z 100038f0 f i concurrent_queue.obj
 0001:00002960       ??0?$cache_aligned_allocator@Vconcurrent_queue_iterator_rep@internal@tbb@@@tbb@@QAE@XZ 10003960 f i concurrent_queue.obj
 0001:00002980       ??0?$cache_aligned_allocator@Vconcurrent_queue_rep@internal@tbb@@@tbb@@QAE@XZ 10003980 f i concurrent_queue.obj
 0001:000029a0       ??0?$converter@I@?$atomic_impl@I@internal@tbb@@QAE@I@Z 100039a0 f i concurrent_queue.obj
 0001:000029c0       ??0?$converter@PAUpage@concurrent_queue_base_v3@internal@tbb@@@?$atomic_impl@PAUpage@concurrent_queue_base_v3@internal@tbb@@@internal@tbb@@QAE@PAUpage@concurrent_queue_base_v3@23@@Z 100039c0 f i concurrent_queue.obj
 0001:000029e0       ??0?$converter@PAUpage@concurrent_queue_base_v3@internal@tbb@@@?$atomic_impl@PAUpage@concurrent_queue_base_v3@internal@tbb@@@internal@tbb@@QAE@XZ 100039e0 f i concurrent_queue.obj
 0001:00002a00       ??0?$converter@_N@?$atomic_impl@_N@internal@tbb@@QAE@XZ 10003a00 f i concurrent_queue.obj
 0001:00002a20       ??0?$converter@_N@?$atomic_impl@_N@internal@tbb@@QAE@_N@Z 10003a20 f i concurrent_queue.obj
 0001:00002a40       ??0?$ptr_converter@PAI@?$atomic_impl@I@internal@tbb@@QAE@PAI@Z 10003a40 f i concurrent_queue.obj
 0001:00002a60       ??0?$ptr_converter@PAPAUpage@concurrent_queue_base_v3@internal@tbb@@@?$atomic_impl@PAUpage@concurrent_queue_base_v3@internal@tbb@@@internal@tbb@@QAE@PAPAUpage@concurrent_queue_base_v3@23@@Z 10003a60 f i concurrent_queue.obj
 0001:00002a80       ??0?$ptr_converter@PA_N@?$atomic_impl@_N@internal@tbb@@QAE@PA_N@Z 10003a80 f i concurrent_queue.obj
 0001:00002aa0       ??0?$ptr_converter@PDSAUpage@concurrent_queue_base_v3@internal@tbb@@@?$atomic_impl@PAUpage@concurrent_queue_base_v3@internal@tbb@@@internal@tbb@@QAE@PDSAUpage@concurrent_queue_base_v3@23@@Z 10003aa0 f i concurrent_queue.obj
 0001:00002ac0       ??0?$ptr_converter@PD_N@?$atomic_impl@_N@internal@tbb@@QAE@PD_N@Z 10003ac0 f i concurrent_queue.obj
 0001:00002ae0       ??0atomic_backoff@internal@tbb@@QAE@XZ 10003ae0 f i concurrent_queue.obj
 0001:00002b10       ??0atomic_backoff@internal@tbb@@QAE@_N@Z 10003b10 f i concurrent_queue.obj
 0001:00002b50       ??0circular_doubly_linked_list_with_sentinel@internal@tbb@@QAE@XZ 10003b50 f i concurrent_queue.obj
 0001:00002b90       ??0concurrent_monitor@internal@tbb@@QAE@XZ 10003b90 f i concurrent_queue.obj
 0001:00002c20       ??0concurrent_queue_iterator_rep@internal@tbb@@QAE@ABVconcurrent_queue_base_v3@12@I@Z 10003c20 f i concurrent_queue.obj
 0001:00002cc0       ??0micro_queue_pop_finalizer@internal@tbb@@QAE@AAUmicro_queue@12@AAVconcurrent_queue_base_v3@12@IPAUpage@412@@Z 10003cc0 f i concurrent_queue.obj
 0001:00002d10       ??0mutex_copy_deprecated_and_disabled@internal@tbb@@QAE@XZ 10003d10 f i concurrent_queue.obj
 0001:00002d40       ??0no_copy@internal@tbb@@QAE@XZ 10003d40 f i concurrent_queue.obj
 0001:00002d60       ??0node_t@circular_doubly_linked_list_with_sentinel@internal@tbb@@QAE@XZ 10003d60 f i concurrent_queue.obj
 0001:00002d90       ??0predicate_leq@internal@tbb@@QAE@I@Z 10003d90 f i concurrent_queue.obj
 0001:00002db0       ??0scoped_lock@spin_mutex@tbb@@QAE@AAV12@@Z 10003db0 f i concurrent_queue.obj
 0001:00002e10       ??0spin_mutex@tbb@@QAE@XZ  10003e10 f i concurrent_queue.obj
 0001:00002e50       ??0thread_context@concurrent_monitor@internal@tbb@@QAE@XZ 10003e50 f i concurrent_queue.obj
 0001:00002ec0       ??1binary_semaphore@internal@tbb@@QAE@XZ 10003ec0 f i concurrent_queue.obj
 0001:00002f00       ??1circular_doubly_linked_list_with_sentinel@internal@tbb@@QAE@XZ 10003f00 f i concurrent_queue.obj
 0001:00002f80       ??1micro_queue_pop_finalizer@internal@tbb@@QAE@XZ 10003f80 f i concurrent_queue.obj
 0001:000030a0       ??1scoped_lock@spin_mutex@tbb@@QAE@XZ 100040a0 f i concurrent_queue.obj
 0001:00003100       ??1thread_context@concurrent_monitor@internal@tbb@@QAE@XZ 10004100 f i concurrent_queue.obj
 0001:00003180       ??2@YAPAXIPAX@Z            10004180 f i concurrent_queue.obj
 0001:00003190       ??4?$atomic@I@tbb@@QAEAAU01@ABU01@@Z 10004190 f i concurrent_queue.obj
 0001:000031d0       ??4?$atomic@I@tbb@@QAEII@Z 100041d0 f i concurrent_queue.obj
 0001:00003200       ??4?$atomic@PAUpage@concurrent_queue_base_v3@internal@tbb@@@tbb@@QAEPAUpage@concurrent_queue_base_v3@internal@1@PAU2341@@Z 10004200 f i concurrent_queue.obj
 0001:00003230       ??4?$atomic@_N@tbb@@QAE_N_N@Z 10004230 f i concurrent_queue.obj
 0001:00003260       ??B?$atomic_impl@PAUpage@concurrent_queue_base_v3@internal@tbb@@@internal@tbb@@QDEPAUpage@concurrent_queue_base_v3@12@XZ 10004260 f i concurrent_queue.obj
 0001:000032a0       ??B?$atomic_impl@_N@internal@tbb@@QDE_NXZ 100042a0 f i concurrent_queue.obj
 0001:000032e0       ??E?$atomic_impl_with_arithmetic@IID@internal@tbb@@QAEIH@Z 100042e0 f i concurrent_queue.obj
 0001:00003310       ??E?$atomic_impl_with_arithmetic@IID@internal@tbb@@QAEIXZ 10004310 f i concurrent_queue.obj
 0001:00003340       ??F?$atomic_impl_with_arithmetic@IID@internal@tbb@@QAEIH@Z 10004340 f i concurrent_queue.obj
 0001:00003370       ??F?$atomic_impl_with_arithmetic@IID@internal@tbb@@QAEIXZ 10004370 f i concurrent_queue.obj
 0001:000033a0       ??Rpredicate_leq@internal@tbb@@QBE_NI@Z 100043a0 f i concurrent_queue.obj
 0001:000033e0       ??Y?$atomic_impl_with_arithmetic@IID@internal@tbb@@QAEII@Z 100043e0 f i concurrent_queue.obj
 0001:00003410       ??_Gbinary_semaphore@internal@tbb@@QAEPAXI@Z 10004410 f i concurrent_queue.obj
 0001:00003450       ??_Gconcurrent_queue_base_v3@internal@tbb@@MAEPAXI@Z 10004450 f i concurrent_queue.obj
 0001:00003450       ??_Econcurrent_queue_base_v3@internal@tbb@@MAEPAXI@Z 10004450 f i concurrent_queue.obj
 0001:00003490       ?P@binary_semaphore@internal@tbb@@QAEXXZ 10004490 f i concurrent_queue.obj
 0001:000034d0       ?V@binary_semaphore@internal@tbb@@QAEXXZ 100044d0 f i concurrent_queue.obj
 0001:00003510       ?__TBB_store_relaxed@internal@tbb@@YAXACII@Z 10004510 f i concurrent_queue.obj
 0001:00003530       ?abort_all@concurrent_monitor@internal@tbb@@QAEXXZ 10004530 f i concurrent_queue.obj
 0001:00003560       ?add@circular_doubly_linked_list_with_sentinel@internal@tbb@@QAEXPAUnode_t@123@@Z 10004560 f i concurrent_queue.obj
 0001:000035d0       ?allocate@?$cache_aligned_allocator@Vconcurrent_queue_iterator_rep@internal@tbb@@@tbb@@QAEPAVconcurrent_queue_iterator_rep@internal@2@IPBX@Z 100045d0 f i concurrent_queue.obj
 0001:00003600       ?allocate@?$cache_aligned_allocator@Vconcurrent_queue_rep@internal@tbb@@@tbb@@QAEPAVconcurrent_queue_rep@internal@2@IPBX@Z 10004600 f i concurrent_queue.obj
 0001:00003640       ?atomic_fence@tbb@@YAXXZ   10004640 f i concurrent_queue.obj
 0001:00003650       ?begin@?$aligned_space@Vbinary_semaphore@internal@tbb@@$00@tbb@@QBEPAVbinary_semaphore@internal@2@XZ 10004650 f i concurrent_queue.obj
 0001:00003680       ?choose@concurrent_queue_rep@internal@tbb@@QAEAAUmicro_queue@23@I@Z 10004680 f i concurrent_queue.obj
 0001:000036c0       ?clear@circular_doubly_linked_list_with_sentinel@internal@tbb@@QAEXXZ 100046c0 f i concurrent_queue.obj
 0001:00003710       ?commit_wait@concurrent_monitor@internal@tbb@@QAE_NAAVthread_context@123@@Z 10004710 f i concurrent_queue.obj
 0001:00003800       ?compare_and_swap@?$atomic_impl@I@internal@tbb@@QAEIII@Z 10004800 f i concurrent_queue.obj
 0001:00003830       ?compare_and_swap@?$atomic_traits@$03$0A@@internal@tbb@@SAHPCXHH@Z 10004830 f i concurrent_queue.obj
 0001:00003850       ?deallocate@?$cache_aligned_allocator@Vconcurrent_queue_iterator_rep@internal@tbb@@@tbb@@QAEXPAVconcurrent_queue_iterator_rep@internal@2@I@Z 10004850 f i concurrent_queue.obj
 0001:00003880       ?deallocate@?$cache_aligned_allocator@Vconcurrent_queue_rep@internal@tbb@@@tbb@@QAEXPAVconcurrent_queue_rep@internal@2@I@Z 10004880 f i concurrent_queue.obj
 0001:000038b0       ?empty@circular_doubly_linked_list_with_sentinel@internal@tbb@@QBE_NXZ 100048b0 f i concurrent_queue.obj
 0001:00003900       ?end@circular_doubly_linked_list_with_sentinel@internal@tbb@@QBEPBUnode_t@123@XZ 10004900 f i concurrent_queue.obj
 0001:00003920       ?fetch_and_add@?$atomic_impl_with_arithmetic@IID@internal@tbb@@QAEII@Z 10004920 f i concurrent_queue.obj
 0001:00003950       ?fetch_and_add@?$atomic_traits@$03$0A@@internal@tbb@@SAHPCXH@Z 10004950 f i concurrent_queue.obj
 0001:00003970       ?front@circular_doubly_linked_list_with_sentinel@internal@tbb@@QBEPAUnode_t@123@XZ 10004970 f i concurrent_queue.obj
 0001:00003990       ?get_item@concurrent_queue_iterator_rep@internal@tbb@@QAE_NAAPAXI@Z 10004990 f i concurrent_queue.obj
 0001:00003a80       ?index@concurrent_queue_rep@internal@tbb@@SAII@Z 10004a80 f i concurrent_queue.obj
 0001:00003aa0       ?last@circular_doubly_linked_list_with_sentinel@internal@tbb@@QBEPAUnode_t@123@XZ 10004aa0 f i concurrent_queue.obj
 0001:00003ac0       ?load@?$machine_load_store_relaxed@I$03@internal@tbb@@SAIADI@Z 10004ac0 f i concurrent_queue.obj
 0001:00003ad0       ?load_with_acquire@?$machine_load_store@C$00@internal@tbb@@SACADC@Z 10004ad0 f i concurrent_queue.obj
 0001:00003af0       ?pause@atomic_backoff@internal@tbb@@QAEXXZ 10004af0 f i concurrent_queue.obj
 0001:00003b50       ?remove@circular_doubly_linked_list_with_sentinel@internal@tbb@@QAEXAAUnode_t@123@@Z 10004b50 f i concurrent_queue.obj
 0001:00003bd0       ?semaphore@thread_context@concurrent_monitor@internal@tbb@@QAEAAVbinary_semaphore@34@XZ 10004bd0 f i concurrent_queue.obj
 0001:00003c00       ?size@circular_doubly_linked_list_with_sentinel@internal@tbb@@QBEIXZ 10004c00 f i concurrent_queue.obj
 0001:00003c20       ?store@?$machine_load_store_relaxed@I$03@internal@tbb@@SAXACII@Z 10004c20 f i concurrent_queue.obj
 0001:00003c30       ?store_with_release@?$atomic_impl@I@internal@tbb@@IAEII@Z 10004c30 f i concurrent_queue.obj
 0001:00003c80       ?store_with_release@?$atomic_impl@PAUpage@concurrent_queue_base_v3@internal@tbb@@@internal@tbb@@IAEPAUpage@concurrent_queue_base_v3@23@PAU4523@@Z 10004c80 f i concurrent_queue.obj
 0001:00003cd0       ?store_with_release@?$atomic_impl@_N@internal@tbb@@IAE_N_N@Z 10004cd0 f i concurrent_queue.obj
 0001:00003d20       ?store_with_release@?$machine_load_store@C$00@internal@tbb@@SAXACCC@Z 10004d20 f i concurrent_queue.obj
 0001:00003d30       ?store_with_release@?$machine_load_store@H$03@internal@tbb@@SAXACHH@Z 10004d30 f i concurrent_queue.obj
 0001:00003d40       ?throw_exception@internal@tbb@@YAXW4exception_id@12@@Z 10004d40 f i concurrent_queue.obj
 0001:00003d60       ?to_thread_context@concurrent_monitor@internal@tbb@@AAEPAVthread_context@123@PAUnode_t@circular_doubly_linked_list_with_sentinel@23@@Z 10004d60 f i concurrent_queue.obj
 0001:00003e30       ??1concurrent_vector_base_v3@internal@tbb@@IAE@XZ 10004e30 f   concurrent_vector.obj
 0001:00003f70       ?internal_reserve@concurrent_vector_base_v3@internal@tbb@@IAEXIII@Z 10004f70 f   concurrent_vector.obj
 0001:00004070       ?internal_capacity@concurrent_vector_base_v3@internal@tbb@@IBEIXZ 10005070 f   concurrent_vector.obj
 0001:000040b0       ?internal_grow@concurrent_vector_base_v3@internal@tbb@@IAEXIIIP6AXPAXPBXI@Z1@Z 100050b0 f   concurrent_vector.obj
 0001:00004280       ?internal_grow_by@concurrent_vector_base_v3@internal@tbb@@IAEIIIP6AXPAXPBXI@Z1@Z 10005280 f   concurrent_vector.obj
 0001:000042e0       ?internal_push_back@concurrent_vector_base_v3@internal@tbb@@IAEPAXIAAI@Z 100052e0 f   concurrent_vector.obj
 0001:000043e0       ?internal_clear@concurrent_vector_base_v3@internal@tbb@@IAEIP6AXPAXI@Z@Z 100053e0 f   concurrent_vector.obj
 0001:00004540       ?internal_compact@concurrent_vector_base_v3@internal@tbb@@IAEPAXIPAXP6AX0I@ZP6AX0PBXI@Z@Z 10005540 f   concurrent_vector.obj
 0001:00004af0       ?internal_copy@concurrent_vector_base_v3@internal@tbb@@IAEXABV123@IP6AXPAXPBXI@Z@Z 10005af0 f   concurrent_vector.obj
 0001:00004cd0       ?internal_assign@concurrent_vector_base_v3@internal@tbb@@IAEXABV123@IP6AXPAXI@ZP6AX1PBXI@Z4@Z 10005cd0 f   concurrent_vector.obj
 0001:000050c0       ?internal_throw_exception@concurrent_vector_base_v3@internal@tbb@@IBEXI@Z 100060c0 f   concurrent_vector.obj
 0001:00005120       ?internal_swap@concurrent_vector_base_v3@internal@tbb@@IAEXAAV123@@Z 10006120 f   concurrent_vector.obj
 0001:00005290       ?internal_resize@concurrent_vector_base_v3@internal@tbb@@IAEXIIIPBXP6AXPAXI@ZP6AX10I@Z@Z 10006290 f   concurrent_vector.obj
 0001:00005450       ?internal_grow_to_at_least_with_result@concurrent_vector_base_v3@internal@tbb@@IAEIIIP6AXPAXPBXI@Z1@Z 10006450 f   concurrent_vector.obj
 0001:00005680       ?internal_grow_to_at_least@concurrent_vector_base_v3@internal@tbb@@IAEXIIP6AXPAXPBXI@Z1@Z 10006680 f   concurrent_vector.obj
 0001:000056c0       ?enable_segment@helper@concurrent_vector_base_v3@internal@tbb@@SAIAAV234@II_N@Z 100066c0 f   concurrent_vector.obj
 0001:000059d0       ?extend_segment_table@helper@concurrent_vector_base_v3@internal@tbb@@SAXAAV234@I@Z 100069d0 f   concurrent_vector.obj
 0001:00005c50       ?cleanup@helper@concurrent_vector_base_v3@internal@tbb@@QAEXXZ 10006c50 f   concurrent_vector.obj
 0001:00005f60       ??$?9Usegment_allocated@concurrent_vector_base_v3@internal@tbb@@@internal@tbb@@YA_NABVsegment_value_t@concurrent_vector_base_v3@01@Usegment_allocated@301@@Z 10006f60 f i concurrent_vector.obj
 0001:00005fb0       ??$?9Usegment_not_used@concurrent_vector_base_v3@internal@tbb@@@internal@tbb@@YA_NABVsegment_value_t@concurrent_vector_base_v3@01@Usegment_not_used@301@@Z 10006fb0 f i concurrent_vector.obj
 0001:00006000       ??$_Construct_in_place@Vsegment_t@concurrent_vector_base_v3@internal@tbb@@ABV1234@@std@@YAXAAVsegment_t@concurrent_vector_base_v3@internal@tbb@@ABV1234@@Z 10007000 f i concurrent_vector.obj
 0001:00006050       ??$_Copy_no_deprecate@PAVsegment_t@concurrent_vector_base_v3@internal@tbb@@PAV1234@@std@@YAPAVsegment_t@concurrent_vector_base_v3@internal@tbb@@PAV1234@00@Z 10007050 f i concurrent_vector.obj
 0001:00006140       ??$_Copy_no_deprecate@PAVsegment_t@concurrent_vector_base_v3@internal@tbb@@V?$_Array_iterator@Vsegment_t@concurrent_vector_base_v3@internal@tbb@@$0CA@@std@@@std@@YA?AV?$_Array_iterator@Vsegment_t@concurrent_vector_base_v3@internal@tbb@@$0CA@@0@PAVsegment_t@concurrent_vector_base_v3@internal@tbb@@0V10@@Z 10007140 f i concurrent_vector.obj
 0001:00006260       ??$_Copy_unchecked1@PAVsegment_t@concurrent_vector_base_v3@internal@tbb@@PAV1234@@std@@YAPAVsegment_t@concurrent_vector_base_v3@internal@tbb@@PAV1234@00U_General_ptr_iterator_tag@0@@Z 10007260 f i concurrent_vector.obj
 0001:000062a0       ??$_Copy_unchecked@PAVsegment_t@concurrent_vector_base_v3@internal@tbb@@PAV1234@@std@@YAPAVsegment_t@concurrent_vector_base_v3@internal@tbb@@PAV1234@00@Z 100072a0 f i concurrent_vector.obj
 0001:000062f0       ??$_Debug_range2@PAVsegment_t@concurrent_vector_base_v3@internal@tbb@@@std@@YAXPAVsegment_t@concurrent_vector_base_v3@internal@tbb@@0PB_WIUrandom_access_iterator_tag@0@@Z 100072f0 f i concurrent_vector.obj
 0001:00006340       ??$_Debug_range@PAVsegment_t@concurrent_vector_base_v3@internal@tbb@@@std@@YAXPAVsegment_t@concurrent_vector_base_v3@internal@tbb@@0PB_WI@Z 10007340 f i concurrent_vector.obj
 0001:00006380       ??$_Destroy_in_place@Vsegment_t@concurrent_vector_base_v3@internal@tbb@@@std@@YAXAAVsegment_t@concurrent_vector_base_v3@internal@tbb@@@Z 10007380 f i concurrent_vector.obj
 0001:000063a0       ??$_Destroy_range1@PAVsegment_t@concurrent_vector_base_v3@internal@tbb@@@std@@YAXPAVsegment_t@concurrent_vector_base_v3@internal@tbb@@0U?$integral_constant@_N$0A@@0@@Z 100073a0 f i concurrent_vector.obj
 0001:000063d0       ??$_Destroy_range@PAVsegment_t@concurrent_vector_base_v3@internal@tbb@@@std@@YAXPAVsegment_t@concurrent_vector_base_v3@internal@tbb@@0@Z 100073d0 f i concurrent_vector.obj
 0001:00006400       ??$_Emplace_back@ABVsegment_t@concurrent_vector_base_v3@internal@tbb@@@?$_Uninitialized_backout@PAVsegment_t@concurrent_vector_base_v3@internal@tbb@@@std@@QAEXABVsegment_t@concurrent_vector_base_v3@internal@tbb@@@Z 10007400 f i concurrent_vector.obj
 0001:00006450       ??$_Fill_memset_is_safe@PAVsegment_t@concurrent_vector_base_v3@internal@tbb@@V1234@@std@@YA?AU?$integral_constant@_N$0A@@0@ABQAVsegment_t@concurrent_vector_base_v3@internal@tbb@@ABV2345@@Z 10007450 f i concurrent_vector.obj
 0001:00006470       ??$_Fill_n_unchecked1@PAVsegment_t@concurrent_vector_base_v3@internal@tbb@@IV1234@@std@@YAPAVsegment_t@concurrent_vector_base_v3@internal@tbb@@PAV1234@IABV1234@U?$integral_constant@_N$0A@@0@@Z 10007470 f i concurrent_vector.obj
 0001:000064b0       ??$_Fill_n_unchecked@PAVsegment_t@concurrent_vector_base_v3@internal@tbb@@IV1234@@std@@YAPAVsegment_t@concurrent_vector_base_v3@internal@tbb@@PAV1234@IABV1234@@Z 100074b0 f i concurrent_vector.obj
 0001:00006500       ??$_Idl_distance1@PAVsegment_t@concurrent_vector_base_v3@internal@tbb@@PAV1234@@std@@YAHABQAVsegment_t@concurrent_vector_base_v3@internal@tbb@@0Urandom_access_iterator_tag@0@@Z 10007500 f i concurrent_vector.obj
 0001:00006520       ??$_Idl_distance@PAVsegment_t@concurrent_vector_base_v3@internal@tbb@@PAV1234@@std@@YAHABQAVsegment_t@concurrent_vector_base_v3@internal@tbb@@0@Z 10007520 f i concurrent_vector.obj
 0001:00006550       ??$_Is_checked@PAVsegment_t@concurrent_vector_base_v3@internal@tbb@@@std@@YA?AU?$integral_constant@_N$0A@@0@PAVsegment_t@concurrent_vector_base_v3@internal@tbb@@@Z 10007550 f i concurrent_vector.obj
 0001:00006570       ??$_Ptr_copy_cat@Vsegment_t@concurrent_vector_base_v3@internal@tbb@@V1234@@std@@YA?AU_General_ptr_iterator_tag@0@ABQAVsegment_t@concurrent_vector_base_v3@internal@tbb@@0@Z 10007570 f i concurrent_vector.obj
 0001:00006590       ??$_Rechecked@PAVsegment_t@concurrent_vector_base_v3@internal@tbb@@PAV1234@@std@@YAAAPAVsegment_t@concurrent_vector_base_v3@internal@tbb@@AAPAV1234@QAV1234@@Z 10007590 f i concurrent_vector.obj
 0001:000065a0       ??$_Rechecked@Vsegment_t@concurrent_vector_base_v3@internal@tbb@@$0CA@@std@@YAAAV?$_Array_iterator@Vsegment_t@concurrent_vector_base_v3@internal@tbb@@$0CA@@0@AAV10@QAVsegment_t@concurrent_vector_base_v3@internal@tbb@@@Z 100075a0 f i concurrent_vector.obj
 0001:000065c0       ??$_Unchecked@PAVsegment_t@concurrent_vector_base_v3@internal@tbb@@@std@@YAPAVsegment_t@concurrent_vector_base_v3@internal@tbb@@PAV1234@@Z 100075c0 f i concurrent_vector.obj
 0001:000065d0       ??$_Unchecked@Vsegment_t@concurrent_vector_base_v3@internal@tbb@@$0CA@@std@@YAPAVsegment_t@concurrent_vector_base_v3@internal@tbb@@ABV?$_Array_iterator@Vsegment_t@concurrent_vector_base_v3@internal@tbb@@$0CA@@0@@Z 100075d0 f i concurrent_vector.obj
 0001:000065f0       ??$_Unchecked_n1@PAVsegment_t@concurrent_vector_base_v3@internal@tbb@@H@std@@YAPAVsegment_t@concurrent_vector_base_v3@internal@tbb@@PAV1234@HU?$integral_constant@_N$00@0@@Z 100075f0 f i concurrent_vector.obj
 0001:00006660       ??$_Unchecked_n1@PAVsegment_t@concurrent_vector_base_v3@internal@tbb@@I@std@@YAPAVsegment_t@concurrent_vector_base_v3@internal@tbb@@PAV1234@IU?$integral_constant@_N$00@0@@Z 10007660 f i concurrent_vector.obj
 0001:000066d0       ??$_Unchecked_n1@V?$_Array_iterator@Vsegment_t@concurrent_vector_base_v3@internal@tbb@@$0CA@@std@@H@std@@YAPAVsegment_t@concurrent_vector_base_v3@internal@tbb@@V?$_Array_iterator@Vsegment_t@concurrent_vector_base_v3@internal@tbb@@$0CA@@0@HU?$integral_constant@_N$00@0@@Z 100076d0 f i concurrent_vector.obj
 0001:00006760       ??$_Unchecked_n@PAVsegment_t@concurrent_vector_base_v3@internal@tbb@@H@std@@YAPAVsegment_t@concurrent_vector_base_v3@internal@tbb@@PAV1234@H@Z 10007760 f i concurrent_vector.obj
 0001:000067a0       ??$_Unchecked_n@PAVsegment_t@concurrent_vector_base_v3@internal@tbb@@I@std@@YAPAVsegment_t@concurrent_vector_base_v3@internal@tbb@@PAV1234@I@Z 100077a0 f i concurrent_vector.obj
 0001:000067e0       ??$_Unchecked_n@V?$_Array_iterator@Vsegment_t@concurrent_vector_base_v3@internal@tbb@@$0CA@@std@@H@std@@YAPAVsegment_t@concurrent_vector_base_v3@internal@tbb@@V?$_Array_iterator@Vsegment_t@concurrent_vector_base_v3@internal@tbb@@$0CA@@0@H@Z 100077e0 f i concurrent_vector.obj
 0001:00006830       ??$_Uninitialized_fill_n_unchecked@PAVsegment_t@concurrent_vector_base_v3@internal@tbb@@IV1234@@std@@YAPAVsegment_t@concurrent_vector_base_v3@internal@tbb@@QAV1234@IABV1234@U?$integral_constant@_N$0A@@0@@Z 10007830 f i concurrent_vector.obj
 0001:00006910       ??$__TBB_load_relaxed@H@internal@tbb@@YAHADH@Z 10007910 f i concurrent_vector.obj
 0001:00006930       ??$__TBB_store_relaxed@HH@internal@tbb@@YAXACHH@Z 10007930 f i concurrent_vector.obj
 0001:00006950       ??$addressof@Vsegment_t@concurrent_vector_base_v3@internal@tbb@@@std@@YAPAVsegment_t@concurrent_vector_base_v3@internal@tbb@@AAV1234@@Z 10007950 f i concurrent_vector.obj
 0001:00006960       ??$apply@Udestroy_body@helper@concurrent_vector_base_v3@internal@tbb@@@helper@concurrent_vector_base_v3@internal@tbb@@QAEIABUdestroy_body@0123@@Z 10007960 f i concurrent_vector.obj
 0001:00006a60       ??$apply@Uinit_body@helper@concurrent_vector_base_v3@internal@tbb@@@helper@concurrent_vector_base_v3@internal@tbb@@QAEIABUinit_body@0123@@Z 10007a60 f i concurrent_vector.obj
 0001:00006b60       ??$apply@Usafe_init_body@helper@concurrent_vector_base_v3@internal@tbb@@@helper@concurrent_vector_base_v3@internal@tbb@@QAEIABUsafe_init_body@0123@@Z 10007b60 f i concurrent_vector.obj
 0001:00006c60       ??$compare_and_swap@$0A@@?$atomic_impl@PAVsegment_t@concurrent_vector_base_v3@internal@tbb@@@internal@tbb@@QAEPAVsegment_t@concurrent_vector_base_v3@12@PAV3412@0@Z 10007c60 f i concurrent_vector.obj
 0001:00006cb0       ??$copy@PAVsegment_t@concurrent_vector_base_v3@internal@tbb@@PAV1234@@std@@YAPAVsegment_t@concurrent_vector_base_v3@internal@tbb@@PAV1234@00@Z 10007cb0 f i concurrent_vector.obj
 0001:00006d00       ??$copy@PAVsegment_t@concurrent_vector_base_v3@internal@tbb@@V1234@$0CA@@std@@YAPAVsegment_t@concurrent_vector_base_v3@internal@tbb@@PAV1234@0AAY0CA@V1234@@Z 10007d00 f i concurrent_vector.obj
 0001:00006d80       ??$fetch_and_add@$00@?$atomic_impl_with_arithmetic@IID@internal@tbb@@QAEII@Z 10007d80 f i concurrent_vector.obj
 0001:00006db0       ??$fetch_and_increment@$00@?$atomic_impl_with_arithmetic@IID@internal@tbb@@QAEIXZ 10007db0 f i concurrent_vector.obj
 0001:00006de0       ??$fill_n@PAVsegment_t@concurrent_vector_base_v3@internal@tbb@@IV1234@@std@@YAPAVsegment_t@concurrent_vector_base_v3@internal@tbb@@PAV1234@IABV1234@@Z 10007de0 f i concurrent_vector.obj
 0001:00006e30       ??$forward@ABVsegment_t@concurrent_vector_base_v3@internal@tbb@@@std@@YAABVsegment_t@concurrent_vector_base_v3@internal@tbb@@ABV1234@@Z 10007e30 f i concurrent_vector.obj
 0001:00006e40       ??$load@$00@?$atomic_impl@I@internal@tbb@@QBEIXZ 10007e40 f i concurrent_vector.obj
 0001:00006e80       ??$load@$00@?$atomic_impl@PAVsegment_t@concurrent_vector_base_v3@internal@tbb@@@internal@tbb@@QBEPAVsegment_t@concurrent_vector_base_v3@12@XZ 10007e80 f i concurrent_vector.obj
 0001:00006ec0       ??$load@$00@?$atomic_impl@PAX@internal@tbb@@QBEPAXXZ 10007ec0 f i concurrent_vector.obj
 0001:00006f00       ??$load@$00@segment_t@concurrent_vector_base_v3@internal@tbb@@QBE?AVsegment_value_t@123@XZ 10007f00 f i concurrent_vector.obj
 0001:00006f40       ??$load@$02@?$atomic_impl@I@internal@tbb@@QBEIXZ 10007f40 f i concurrent_vector.obj
 0001:00006f80       ??$load@$02@?$atomic_impl@PAVsegment_t@concurrent_vector_base_v3@internal@tbb@@@internal@tbb@@QBEPAVsegment_t@concurrent_vector_base_v3@12@XZ 10007f80 f i concurrent_vector.obj
 0001:00006fc0       ??$load@$02@?$atomic_impl@PAX@internal@tbb@@QBEPAXXZ 10007fc0 f i concurrent_vector.obj
 0001:00007000       ??$load@$02@segment_t@concurrent_vector_base_v3@internal@tbb@@QBE?AVsegment_value_t@123@XZ 10008000 f i concurrent_vector.obj
 0001:00007040       ??$load@$02I@tbb@@YAIABU?$atomic@I@0@@Z 10008040 f i concurrent_vector.obj
 0001:00007060       ??$load@$02PAVsegment_t@concurrent_vector_base_v3@internal@tbb@@@tbb@@YAPAVsegment_t@concurrent_vector_base_v3@internal@0@ABU?$atomic@PAVsegment_t@concurrent_vector_base_v3@internal@tbb@@@0@@Z 10008060 f i concurrent_vector.obj
 0001:00007080       ??$load@$02PAX@tbb@@YAPAXABU?$atomic@PAX@0@@Z 10008080 f i concurrent_vector.obj
 0001:000070a0       ??$load@H@?$atomic_load_store_traits@$00@internal@tbb@@SAHADH@Z 100080a0 f i concurrent_vector.obj
 0001:000070c0       ??$load@H@?$atomic_load_store_traits@$02@internal@tbb@@SAHADH@Z 100080c0 f i concurrent_vector.obj
 0001:000070e0       ??$pointer@D@segment_value_t@concurrent_vector_base_v3@internal@tbb@@QBEPADXZ 100080e0 f i concurrent_vector.obj
 0001:00007100       ??$pointer@X@segment_value_t@concurrent_vector_base_v3@internal@tbb@@QBEPAXXZ 10008100 f i concurrent_vector.obj
 0001:00007120       ??$publish_segment@PAX@helper@concurrent_vector_base_v3@internal@tbb@@SAXAAVsegment_t@123@PAX@Z 10008120 f i concurrent_vector.obj
 0001:00007160       ??$publish_segment@Usegment_allocation_failed@concurrent_vector_base_v3@internal@tbb@@@helper@concurrent_vector_base_v3@internal@tbb@@SAXAAVsegment_t@123@Usegment_allocation_failed@123@@Z 10008160 f i concurrent_vector.obj
 0001:000071a0       ??$publish_segment@Usegment_not_used@concurrent_vector_base_v3@internal@tbb@@@helper@concurrent_vector_base_v3@internal@tbb@@SAXAAVsegment_t@123@Usegment_not_used@123@@Z 100081a0 f i concurrent_vector.obj
 0001:000071e0       ??$spin_wait_while@Usegment_not_used_predicate@helper@concurrent_vector_base_v3@internal@tbb@@@internal@tbb@@YAXUsegment_not_used_predicate@helper@concurrent_vector_base_v3@01@@Z 100081e0 f i concurrent_vector.obj
 0001:00007260       ??$spin_wait_while_eq@U?$atomic@PAVsegment_t@concurrent_vector_base_v3@internal@tbb@@@tbb@@PAVsegment_t@concurrent_vector_base_v3@internal@2@@internal@tbb@@YAXADU?$atomic@PAVsegment_t@concurrent_vector_base_v3@internal@tbb@@@1@PAVsegment_t@concurrent_vector_base_v3@01@@Z 10008260 f i concurrent_vector.obj
 0001:000072e0       ??$store@$01@?$atomic_impl@I@internal@tbb@@QAEXI@Z 100082e0 f i concurrent_vector.obj
 0001:00007320       ??$store@$01@?$atomic_impl@PAX@internal@tbb@@QAEXPAX@Z 10008320 f i concurrent_vector.obj
 0001:00007360       ??$store@$01@segment_t@concurrent_vector_base_v3@internal@tbb@@QAEXPAX@Z 10008360 f i concurrent_vector.obj
 0001:00007410       ??$store@$01@segment_t@concurrent_vector_base_v3@internal@tbb@@QAEXUsegment_allocation_failed@123@@Z 10008410 f i concurrent_vector.obj
 0001:00007490       ??$store@$01@segment_t@concurrent_vector_base_v3@internal@tbb@@QAEXUsegment_not_used@123@@Z 10008490 f i concurrent_vector.obj
 0001:000074c0       ??$store@$02@?$atomic_impl@I@internal@tbb@@QAEXI@Z 100084c0 f i concurrent_vector.obj
 0001:00007500       ??$store@$02@?$atomic_impl@PAVsegment_t@concurrent_vector_base_v3@internal@tbb@@@internal@tbb@@QAEXPAVsegment_t@concurrent_vector_base_v3@12@@Z 10008500 f i concurrent_vector.obj
 0001:00007540       ??$store@$02@?$atomic_impl@PAX@internal@tbb@@QAEXPAX@Z 10008540 f i concurrent_vector.obj
 0001:00007580       ??$store@$02@segment_t@concurrent_vector_base_v3@internal@tbb@@QAEXPAX@Z 10008580 f i concurrent_vector.obj
 0001:00007630       ??$store@$02@segment_t@concurrent_vector_base_v3@internal@tbb@@QAEXUsegment_not_used@123@@Z 10008630 f i concurrent_vector.obj
 0001:00007660       ??$store@$02I@tbb@@YAXAAU?$atomic@I@0@I@Z 10008660 f i concurrent_vector.obj
 0001:00007680       ??$store@$02PAVsegment_t@concurrent_vector_base_v3@internal@tbb@@@tbb@@YAXAAU?$atomic@PAVsegment_t@concurrent_vector_base_v3@internal@tbb@@@0@PAVsegment_t@concurrent_vector_base_v3@internal@0@@Z 10008680 f i concurrent_vector.obj
 0001:000076a0       ??$store@$02PAX@tbb@@YAXAAU?$atomic@PAX@0@PAX@Z 100086a0 f i concurrent_vector.obj
 0001:000076c0       ??$store@H@?$atomic_load_store_traits@$01@internal@tbb@@SAXACHH@Z 100086c0 f i concurrent_vector.obj
 0001:000076e0       ??$store@H@?$atomic_load_store_traits@$02@internal@tbb@@SAXACHH@Z 100086e0 f i concurrent_vector.obj
 0001:00007700       ??$swap@$02I@internal@tbb@@YAXAAU?$atomic@I@1@0@Z 10008700 f i concurrent_vector.obj
 0001:00007760       ??$swap@$02PAVsegment_t@concurrent_vector_base_v3@internal@tbb@@@internal@tbb@@YAXAAU?$atomic@PAVsegment_t@concurrent_vector_base_v3@internal@tbb@@@1@0@Z 10008760 f i concurrent_vector.obj
 0001:000077c0       ??$swap@$02PAX@internal@tbb@@YAXAAU?$atomic@PAX@1@0@Z 100087c0 f i concurrent_vector.obj
 0001:00007820       ??$to_bits@PAVsegment_t@concurrent_vector_base_v3@internal@tbb@@@?$atomic_impl@PAVsegment_t@concurrent_vector_base_v3@internal@tbb@@@internal@tbb@@CAHPAVsegment_t@concurrent_vector_base_v3@12@@Z 10008820 f i concurrent_vector.obj
 0001:00007850       ??$to_bits@PAX@?$atomic_impl@PAX@internal@tbb@@CAHPAX@Z 10008850 f i concurrent_vector.obj
 0001:00007880       ??$to_bits_ref@$$CBI@?$atomic_impl@I@internal@tbb@@CAAAHABI@Z 10008880 f i concurrent_vector.obj
 0001:000078b0       ??$to_bits_ref@PAVsegment_t@concurrent_vector_base_v3@internal@tbb@@@?$atomic_impl@PAVsegment_t@concurrent_vector_base_v3@internal@tbb@@@internal@tbb@@CAAAHAAPAVsegment_t@concurrent_vector_base_v3@12@@Z 100088b0 f i concurrent_vector.obj
 0001:000078e0       ??$to_bits_ref@PAX@?$atomic_impl@PAX@internal@tbb@@CAAAHAAPAX@Z 100088e0 f i concurrent_vector.obj
 0001:00007910       ??$to_bits_ref@QAVsegment_t@concurrent_vector_base_v3@internal@tbb@@@?$atomic_impl@PAVsegment_t@concurrent_vector_base_v3@internal@tbb@@@internal@tbb@@CAAAHABQAVsegment_t@concurrent_vector_base_v3@12@@Z 10008910 f i concurrent_vector.obj
 0001:00007940       ??$to_bits_ref@QAX@?$atomic_impl@PAX@internal@tbb@@CAAAHABQAX@Z 10008940 f i concurrent_vector.obj
 0001:00007970       ??$to_bits_ref@SAVsegment_t@concurrent_vector_base_v3@internal@tbb@@@?$atomic_impl@PAVsegment_t@concurrent_vector_base_v3@internal@tbb@@@internal@tbb@@CAAAHADSAVsegment_t@concurrent_vector_base_v3@12@@Z 10008970 f i concurrent_vector.obj
 0001:000079a0       ??$to_value@PAVsegment_t@concurrent_vector_base_v3@internal@tbb@@@?$atomic_impl@PAVsegment_t@concurrent_vector_base_v3@internal@tbb@@@internal@tbb@@CAPAVsegment_t@concurrent_vector_base_v3@12@H@Z 100089a0 f i concurrent_vector.obj
 0001:00007a10       ??$to_value@PAX@?$atomic_impl@PAX@internal@tbb@@CAPAXH@Z 10008a10 f i concurrent_vector.obj
 0001:00007a80       ??$uninitialized_fill_n@PAVsegment_t@concurrent_vector_base_v3@internal@tbb@@IV1234@@std@@YAPAVsegment_t@concurrent_vector_base_v3@internal@tbb@@PAV1234@IABV1234@@Z 10008a80 f i concurrent_vector.obj
 0001:00007b20       ??0?$_Array_const_iterator@Vsegment_t@concurrent_vector_base_v3@internal@tbb@@$0CA@@std@@QAE@PBVsegment_t@concurrent_vector_base_v3@internal@tbb@@I@Z 10008b20 f i concurrent_vector.obj
 0001:00007b60       ??0?$_Array_iterator@Vsegment_t@concurrent_vector_base_v3@internal@tbb@@$0CA@@std@@QAE@PAVsegment_t@concurrent_vector_base_v3@internal@tbb@@I@Z 10008b60 f i concurrent_vector.obj
 0001:00007ba0       ??0?$_Uninitialized_backout@PAVsegment_t@concurrent_vector_base_v3@internal@tbb@@@std@@QAE@PAVsegment_t@concurrent_vector_base_v3@internal@tbb@@@Z 10008ba0 f i concurrent_vector.obj
 0001:00007bd0       ??0?$converter@PAVsegment_t@concurrent_vector_base_v3@internal@tbb@@@?$atomic_impl@PAVsegment_t@concurrent_vector_base_v3@internal@tbb@@@internal@tbb@@QAE@PAVsegment_t@concurrent_vector_base_v3@23@@Z 10008bd0 f i concurrent_vector.obj
 0001:00007bf0       ??0?$converter@PAVsegment_t@concurrent_vector_base_v3@internal@tbb@@@?$atomic_impl@PAVsegment_t@concurrent_vector_base_v3@internal@tbb@@@internal@tbb@@QAE@XZ 10008bf0 f i concurrent_vector.obj
 0001:00007c10       ??0?$converter@PAX@?$atomic_impl@PAX@internal@tbb@@QAE@PAX@Z 10008c10 f i concurrent_vector.obj
 0001:00007c30       ??0?$converter@PAX@?$atomic_impl@PAX@internal@tbb@@QAE@XZ 10008c30 f i concurrent_vector.obj
 0001:00007c50       ??0?$ptr_converter@PAPAVsegment_t@concurrent_vector_base_v3@internal@tbb@@@?$atomic_impl@PAVsegment_t@concurrent_vector_base_v3@internal@tbb@@@internal@tbb@@QAE@PAPAVsegment_t@concurrent_vector_base_v3@23@@Z 10008c50 f i concurrent_vector.obj
 0001:00007c70       ??0?$ptr_converter@PAPAX@?$atomic_impl@PAX@internal@tbb@@QAE@PAPAX@Z 10008c70 f i concurrent_vector.obj
 0001:00007c90       ??0?$ptr_converter@PBI@?$atomic_impl@I@internal@tbb@@QAE@PBI@Z 10008c90 f i concurrent_vector.obj
 0001:00007cb0       ??0?$ptr_converter@PBQAVsegment_t@concurrent_vector_base_v3@internal@tbb@@@?$atomic_impl@PAVsegment_t@concurrent_vector_base_v3@internal@tbb@@@internal@tbb@@QAE@PBQAVsegment_t@concurrent_vector_base_v3@23@@Z 10008cb0 f i concurrent_vector.obj
 0001:00007cd0       ??0?$ptr_converter@PBQAX@?$atomic_impl@PAX@internal@tbb@@QAE@PBQAX@Z 10008cd0 f i concurrent_vector.obj
 0001:00007cf0       ??0?$ptr_converter@PDSAVsegment_t@concurrent_vector_base_v3@internal@tbb@@@?$atomic_impl@PAVsegment_t@concurrent_vector_base_v3@internal@tbb@@@internal@tbb@@QAE@PDSAVsegment_t@concurrent_vector_base_v3@23@@Z 10008cf0 f i concurrent_vector.obj
 0001:00007d10       ??0_Iterator_base12_compatible@std@@QAE@XZ 10008d10 f i concurrent_vector.obj
 0001:00007d40       ??0destroy_body@helper@concurrent_vector_base_v3@internal@tbb@@QAE@P6AXPAXI@Z@Z 10008d40 f i concurrent_vector.obj
 0001:00007d60       ??0helper@concurrent_vector_base_v3@internal@tbb@@QAE@PAVsegment_t@123@IIIII@Z 10008d60 f i concurrent_vector.obj
 0001:00007dc0       ??0init_body@helper@concurrent_vector_base_v3@internal@tbb@@QAE@P6AXPAXPBXI@Z1@Z 10008dc0 f i concurrent_vector.obj
 0001:00007df0       ??0safe_init_body@helper@concurrent_vector_base_v3@internal@tbb@@QAE@P6AXPAXPBXI@Z1@Z 10008df0 f i concurrent_vector.obj
 0001:00007e20       ??0segment_not_used_predicate@helper@concurrent_vector_base_v3@internal@tbb@@QAE@AAVsegment_t@234@@Z 10008e20 f i concurrent_vector.obj
 0001:00007e80       ??0segment_t@concurrent_vector_base_v3@internal@tbb@@QAE@ABV0123@@Z 10008e80 f i concurrent_vector.obj
 0001:00007ec0       ??0segment_t@concurrent_vector_base_v3@internal@tbb@@QAE@XZ 10008ec0 f i concurrent_vector.obj
 0001:00007f00       ??0segment_value_t@concurrent_vector_base_v3@internal@tbb@@AAE@PAX@Z 10008f00 f i concurrent_vector.obj
 0001:00007f20       ??1?$_Uninitialized_backout@PAVsegment_t@concurrent_vector_base_v3@internal@tbb@@@std@@QAE@XZ 10008f20 f i concurrent_vector.obj
 0001:00007f80       ??1helper@concurrent_vector_base_v3@internal@tbb@@QAE@XZ 10008f80 f i concurrent_vector.obj
 0001:00008070       ??1segment_t@concurrent_vector_base_v3@internal@tbb@@QAE@XZ 10009070 f i concurrent_vector.obj
 0001:00008110       ??4?$atomic@PAVsegment_t@concurrent_vector_base_v3@internal@tbb@@@tbb@@QAEPAVsegment_t@concurrent_vector_base_v3@internal@1@PAV2341@@Z 10009110 f i concurrent_vector.obj
 0001:00008140       ??4segment_t@concurrent_vector_base_v3@internal@tbb@@QAEAAV0123@ABV0123@@Z 10009140 f i concurrent_vector.obj
 0001:00008180       ??8internal@tbb@@YA_NABVsegment_value_t@concurrent_vector_base_v3@01@Usegment_allocated@301@@Z 10009180 f i concurrent_vector.obj
 0001:000081b0       ??8internal@tbb@@YA_NABVsegment_value_t@concurrent_vector_base_v3@01@Usegment_allocation_failed@301@@Z 100091b0 f i concurrent_vector.obj
 0001:000081e0       ??8internal@tbb@@YA_NABVsegment_value_t@concurrent_vector_base_v3@01@Usegment_not_used@301@@Z 100091e0 f i concurrent_vector.obj
 0001:00008210       ??B?$atomic_impl@PAVsegment_t@concurrent_vector_base_v3@internal@tbb@@@internal@tbb@@QDEPAVsegment_t@concurrent_vector_base_v3@12@XZ 10009210 f i concurrent_vector.obj
 0001:00008250       ??H?$_Array_iterator@Vsegment_t@concurrent_vector_base_v3@internal@tbb@@$0CA@@std@@QBE?AV01@H@Z 10009250 f i concurrent_vector.obj
 0001:00008300       ??Rdestroy_body@helper@concurrent_vector_base_v3@internal@tbb@@QBEXAAVsegment_t@234@PAXI@Z 10009300 f i concurrent_vector.obj
 0001:00008370       ??Rinit_body@helper@concurrent_vector_base_v3@internal@tbb@@QBEXAAVsegment_t@234@PAXI@Z 10009370 f i concurrent_vector.obj
 0001:000083c0       ??Rsafe_init_body@helper@concurrent_vector_base_v3@internal@tbb@@QBEXAAVsegment_t@234@PAXI@Z 100093c0 f i concurrent_vector.obj
 0001:00008430       ??Rsegment_not_used_predicate@helper@concurrent_vector_base_v3@internal@tbb@@QBE_NXZ 10009430 f i concurrent_vector.obj
 0001:00008480       ??Y?$_Array_const_iterator@Vsegment_t@concurrent_vector_base_v3@internal@tbb@@$0CA@@std@@QAEAAV01@H@Z 10009480 f i concurrent_vector.obj
 0001:00008500       ??Y?$_Array_iterator@Vsegment_t@concurrent_vector_base_v3@internal@tbb@@$0CA@@std@@QAEAAV01@H@Z 10009500 f i concurrent_vector.obj
 0001:00008530       ??_Gsegment_t@concurrent_vector_base_v3@internal@tbb@@QAEPAXI@Z 10009530 f i concurrent_vector.obj
 0001:00008580       ?_Release@?$_Uninitialized_backout@PAVsegment_t@concurrent_vector_base_v3@internal@tbb@@@std@@QAEPAVsegment_t@concurrent_vector_base_v3@internal@tbb@@XZ 10009580 f i concurrent_vector.obj
 0001:000085b0       ?acquire_segment@helper@concurrent_vector_base_v3@internal@tbb@@SAAAVsegment_t@234@AAV234@II_N@Z 100095b0 f i concurrent_vector.obj
 0001:000086d0       ?allocate_segment@helper@concurrent_vector_base_v3@internal@tbb@@SAPAXAAV234@I@Z 100096d0 f i concurrent_vector.obj
 0001:00008720       ?assign_first_segment_if_necessary@helper@concurrent_vector_base_v3@internal@tbb@@SAXAAV234@I@Z 10009720 f i concurrent_vector.obj
 0001:00008750       ?compare_and_swap@?$atomic_impl@PAVsegment_t@concurrent_vector_base_v3@internal@tbb@@@internal@tbb@@QAEPAVsegment_t@concurrent_vector_base_v3@23@PAV4523@0@Z 10009750 f i concurrent_vector.obj
 0001:000087a0       ?enforce_segment_allocated@internal@tbb@@YAXABVsegment_value_t@concurrent_vector_base_v3@12@W4exception_id@12@@Z 100097a0 f i concurrent_vector.obj
 0001:000087e0       ?extend_table_if_necessary@helper@concurrent_vector_base_v3@internal@tbb@@SAXAAV234@II@Z 100097e0 f i concurrent_vector.obj
 0001:00008820       ?fetch_and_add@?$atomic_traits@$03$00@internal@tbb@@SAHPCXH@Z 10009820 f i concurrent_vector.obj
 0001:00008840       ?find_segment_end@helper@concurrent_vector_base_v3@internal@tbb@@SAIABV234@@Z 10009840 f i concurrent_vector.obj
 0001:000088e0       ?first_segment@helper@concurrent_vector_base_v3@internal@tbb@@QAEXXZ 100098e0 f i concurrent_vector.obj
 0001:00008a00       ?get_segment_value@helper@concurrent_vector_base_v3@internal@tbb@@QAE?AVsegment_value_t@234@I_N@Z 10009a00 f i concurrent_vector.obj
 0001:00008ad0       ?incompact_predicate@helper@concurrent_vector_base_v3@internal@tbb@@SA_NI@Z 10009ad0 f i concurrent_vector.obj
 0001:00008b20       ?load@?$machine_load_store_relaxed@H$03@internal@tbb@@SAHADH@Z 10009b20 f i concurrent_vector.obj
 0001:00008b30       ?next_segment@helper@concurrent_vector_base_v3@internal@tbb@@QAEXXZ 10009b30 f i concurrent_vector.obj
 0001:00008bb0       ?segment_base@concurrent_vector_base_v3@internal@tbb@@KAII@Z 10009bb0 f i concurrent_vector.obj
 0001:00008bd0       ?segment_index_of@concurrent_vector_base_v3@internal@tbb@@KAII@Z 10009bd0 f i concurrent_vector.obj
 0001:00008bf0       ?segment_size@concurrent_vector_base_v3@internal@tbb@@KAII@Z 10009bf0 f i concurrent_vector.obj
 0001:00008c00       ?store@?$machine_load_store_relaxed@H$03@internal@tbb@@SAXACHH@Z 10009c00 f i concurrent_vector.obj
 0001:00008c10       ?store_with_release@?$atomic_impl@PAVsegment_t@concurrent_vector_base_v3@internal@tbb@@@internal@tbb@@IAEPAVsegment_t@concurrent_vector_base_v3@23@PAV4523@@Z 10009c10 f i concurrent_vector.obj
 0001:00008c60       ?swap@internal@tbb@@YAXAAVsegment_t@concurrent_vector_base_v3@12@0@Z 10009c60 f i concurrent_vector.obj
 0001:00008cb0       ?swap@segment_t@concurrent_vector_base_v3@internal@tbb@@QAEXAAV1234@@Z 10009cb0 f i concurrent_vector.obj
 0001:00008ce0       ?dynamic_link@internal@tbb@@YA_NPBDQBUdynamic_link_descriptor@12@IPAPAUHINSTANCE__@@H@Z 10009ce0 f   dynamic_link.obj
 0001:00008da0       ?dynamic_unlink@internal@tbb@@YAXPAUHINSTANCE__@@@Z 10009da0 f   dynamic_link.obj
 0001:00008dd0       ?dynamic_unlink_all@internal@tbb@@YAXXZ 10009dd0 f   dynamic_link.obj
 0001:00008f90       ?init_atomic_incrementer@internal@tbb@@YAXAAU?$atomic@I@2@@Z 10009f90 f   dynamic_link.obj
 0001:00009200       ?init_dynamic_link_data@internal@tbb@@YAXXZ 1000a200 f   dynamic_link.obj
 0001:00009340       ?dynamic_load@internal@tbb@@YAPAUHINSTANCE__@@PBDQBUdynamic_link_descriptor@12@I@Z 1000a340 f   dynamic_link.obj
 0001:000094e0       ??$atomic_do_once@P6AXXZ@internal@tbb@@YAXABQ6AXXZAAU?$atomic@W4do_once_state@internal@tbb@@@1@@Z 1000a4e0 f i dynamic_link.obj
 0001:00009540       ??$compare_and_swap@$0A@@?$atomic_impl@W4do_once_state@internal@tbb@@@internal@tbb@@QAE?AW4do_once_state@12@W4312@0@Z 1000a540 f i dynamic_link.obj
 0001:00009590       ??$spin_wait_while_eq@U?$atomic@W4do_once_state@internal@tbb@@@tbb@@W4do_once_state@internal@2@@internal@tbb@@YAXADU?$atomic@W4do_once_state@internal@tbb@@@1@W4do_once_state@01@@Z 1000a590 f i dynamic_link.obj
 0001:00009610       ??$suppress_unused_warning@PBD@internal@tbb@@YAXABQBD@Z 1000a610 f i dynamic_link.obj
 0001:00009620       ??$suppress_unused_warning@PBDQBUdynamic_link_descriptor@internal@tbb@@I@internal@tbb@@YAXABQBDABQBUdynamic_link_descriptor@01@ABI@Z 1000a620 f i dynamic_link.obj
 0001:00009630       ??$to_bits@W4do_once_state@internal@tbb@@@?$atomic_impl@W4do_once_state@internal@tbb@@@internal@tbb@@CAHW4do_once_state@12@@Z 1000a630 f i dynamic_link.obj
 0001:00009660       ??$to_bits_ref@$$CDW4do_once_state@internal@tbb@@@?$atomic_impl@W4do_once_state@internal@tbb@@@internal@tbb@@CAAAHADW4do_once_state@12@@Z 1000a660 f i dynamic_link.obj
 0001:00009690       ??$to_bits_ref@W4do_once_state@internal@tbb@@@?$atomic_impl@W4do_once_state@internal@tbb@@@internal@tbb@@CAAAHAAW4do_once_state@12@@Z 1000a690 f i dynamic_link.obj
 0001:000096c0       ??$to_value@W4do_once_state@internal@tbb@@@?$atomic_impl@W4do_once_state@internal@tbb@@@internal@tbb@@CA?AW4do_once_state@12@H@Z 1000a6c0 f i dynamic_link.obj
 0001:00009730       ??0?$converter@W4do_once_state@internal@tbb@@@?$atomic_impl@W4do_once_state@internal@tbb@@@internal@tbb@@QAE@W4do_once_state@23@@Z 1000a730 f i dynamic_link.obj
 0001:00009750       ??0?$converter@W4do_once_state@internal@tbb@@@?$atomic_impl@W4do_once_state@internal@tbb@@@internal@tbb@@QAE@XZ 1000a750 f i dynamic_link.obj
 0001:00009770       ??0?$ptr_converter@PAW4do_once_state@internal@tbb@@@?$atomic_impl@W4do_once_state@internal@tbb@@@internal@tbb@@QAE@PAW4do_once_state@23@@Z 1000a770 f i dynamic_link.obj
 0001:00009790       ??0?$ptr_converter@PDW4do_once_state@internal@tbb@@@?$atomic_impl@W4do_once_state@internal@tbb@@@internal@tbb@@QAE@PDW4do_once_state@23@@Z 1000a790 f i dynamic_link.obj
 0001:000097b0       ??0static_init_dl_data_t@internal@tbb@@QAE@XZ 1000a7b0 f i dynamic_link.obj
 0001:000097e0       ??4?$atomic@W4do_once_state@internal@tbb@@@tbb@@QAE?AW4do_once_state@internal@1@W4231@@Z 1000a7e0 f i dynamic_link.obj
 0001:00009810       ??B?$atomic_impl@W4do_once_state@internal@tbb@@@internal@tbb@@QDE?AW4do_once_state@12@XZ 1000a810 f i dynamic_link.obj
 0001:00009850       ?add@handles_t@internal@tbb@@QAEXABQAUHINSTANCE__@@@Z 1000a850 f i dynamic_link.obj
 0001:000098c0       ?compare_and_swap@?$atomic_impl@W4do_once_state@internal@tbb@@@internal@tbb@@QAE?AW4do_once_state@23@W4423@0@Z 1000a8c0 f i dynamic_link.obj
 0001:000098f0       ?free@handles_t@internal@tbb@@QAEXXZ 1000a8f0 f i dynamic_link.obj
 0001:00009960       ?init@handles_t@internal@tbb@@QAEXXZ 1000a960 f i dynamic_link.obj
 0001:00009990       ?run_initializer@internal@tbb@@YAXP6AXXZAAU?$atomic@W4do_once_state@internal@tbb@@@2@@Z 1000a990 f i dynamic_link.obj
 0001:000099c0       ?store_with_release@?$atomic_impl@W4do_once_state@internal@tbb@@@internal@tbb@@IAE?AW4do_once_state@23@W4423@@Z 1000a9c0 f i dynamic_link.obj
 0001:00009a10       ?strrchr@@YAPADQADH@Z      1000aa10 f i dynamic_link.obj
 0001:00009a30       ___itt_set_error_handler   1000aa30 f   itt_notify.obj
 0001:00009a60       ___itt_fini_ittlib         1000aa60 f   itt_notify.obj
 0001:0000daf0       ___itt_init_ittlib         1000eaf0 f   itt_notify.obj
 0001:0000deb0       ?__TBB_load_ittnotify@internal@tbb@@YAHXZ 1000eeb0 f   itt_notify.obj
 0001:0000ded0       ?__itt_interlocked_increment@@YAJPCJ@Z 1000eed0 f i itt_notify.obj
 0001:0000def0       ?NFS_GetLineSize@internal@tbb@@YAIXZ 1000eef0 f   cache_aligned_allocator.obj
 0001:0000df00       ?NFS_Allocate@internal@tbb@@YAPAXIIPAX@Z 1000ef00 f   cache_aligned_allocator.obj
 0001:0000e030       ?NFS_Free@internal@tbb@@YAXPAX@Z 1000f030 f   cache_aligned_allocator.obj
 0001:0000e060       ?deallocate_via_handler_v3@internal@tbb@@YAXPAX@Z 1000f060 f   cache_aligned_allocator.obj
 0001:0000e090       ?allocate_via_handler_v3@internal@tbb@@YAPAXI@Z 1000f090 f   cache_aligned_allocator.obj
 0001:0000e0e0       ?is_malloc_used_v3@internal@tbb@@YA_NXZ 1000f0e0 f   cache_aligned_allocator.obj
 0001:0000e490       ?initialize_handler_pointers@internal@tbb@@YAXXZ 1000f490 f   cache_aligned_allocator.obj
 0001:0000e550       ?initialize_cache_aligned_allocator@internal@tbb@@YAXXZ 1000f550 f   cache_aligned_allocator.obj
 0001:0000e590       ??$is_aligned@X@internal@tbb@@YA_NPAXI@Z 1000f590 f i cache_aligned_allocator.obj
 0001:0000e5d0       ?set_end_of_input@filter@tbb@@IAEXXZ 1000f5d0 f   pipeline.obj
 0001:0000e690       ??1filter@tbb@@UAE@XZ      1000f690 f   pipeline.obj
 0001:0000e770       ?has_more_work@filter@tbb@@AAE_NXZ 1000f770 f   pipeline.obj
 0001:0000e810       ?try_process_item@thread_bound_filter@tbb@@QAE?AW4result_type@12@XZ 1000f810 f   pipeline.obj
 0001:0000e840       ?process_item@thread_bound_filter@tbb@@QAE?AW4result_type@12@XZ 1000f840 f   pipeline.obj
 0001:0000e870       ?internal_process_item@thread_bound_filter@tbb@@AAE?AW4result_type@12@_N@Z 1000f870 f   pipeline.obj
 0001:0000eb70       ??0pipeline@tbb@@QAE@XZ    1000fb70 f   pipeline.obj
 0001:0000ebe0       ??1pipeline@tbb@@UAE@XZ    1000fbe0 f   pipeline.obj
 0001:0000ec40       ?add_filter@pipeline@tbb@@QAEXAAVfilter@2@@Z 1000fc40 f   pipeline.obj
 0001:0000ef80       ?run@pipeline@tbb@@QAEXI@Z 1000ff80 f   pipeline.obj
 0001:0000f090       ?run@pipeline@tbb@@QAEXIAAVtask_group_context@2@@Z 10010090 f   pipeline.obj
 0001:0000f290       ?clear@pipeline@tbb@@QAEXXZ 10010290 f   pipeline.obj
 0001:0000f390       ?remove_filter@pipeline@tbb@@AAEXAAVfilter@2@@Z 10010390 f   pipeline.obj
 0001:0000f560       ?inject_token@pipeline@tbb@@AAEXAAVtask@2@@Z 10010560 f   pipeline.obj
 0001:0000f5a0       ?clear_filters@pipeline@tbb@@AAEXXZ 100105a0 f   pipeline.obj
 0001:0000f620       ?grow@input_buffer@internal@tbb@@AAEXK@Z 10010620 f   pipeline.obj
 0001:0000f760       ?execute@stage_task@internal@tbb@@UAEPAVtask@3@XZ 10010760 f   pipeline.obj
 0001:0000fd30       ??$fetch_and_add@$0A@@?$atomic_impl_with_arithmetic@KKD@internal@tbb@@QAEKK@Z 10010d30 f i pipeline.obj
 0001:0000fd60       ??$note_done@Vstage_task@internal@tbb@@@input_buffer@internal@tbb@@QAEXKAAVstage_task@12@@Z 10010d60 f i pipeline.obj
 0001:0000fec0       ??$poison_pointer@Utask_info@internal@tbb@@@internal@tbb@@YAXAAPAUtask_info@01@@Z 10010ec0 f i pipeline.obj
 0001:0000fed0       ??$to_bits@K@?$atomic_impl@K@internal@tbb@@CAHK@Z 10010ed0 f i pipeline.obj
 0001:0000ff00       ??$to_bits_ref@$$CDK@?$atomic_impl@K@internal@tbb@@CAAAHADK@Z 10010f00 f i pipeline.obj
 0001:0000ff30       ??$to_bits_ref@K@?$atomic_impl@K@internal@tbb@@CAAAHAAK@Z 10010f30 f i pipeline.obj
 0001:0000ff60       ??$to_value@K@?$atomic_impl@K@internal@tbb@@CAKH@Z 10010f60 f i pipeline.obj
 0001:0000ffd0       ??0?$cache_aligned_allocator@Utask_info@internal@tbb@@@tbb@@QAE@XZ 10010fd0 f i pipeline.obj
 0001:0000fff0       ??0?$converter@K@?$atomic_impl@K@internal@tbb@@QAE@K@Z 10010ff0 f i pipeline.obj
 0001:00010010       ??0?$converter@K@?$atomic_impl@K@internal@tbb@@QAE@XZ 10011010 f i pipeline.obj
 0001:00010030       ??0?$ptr_converter@PAK@?$atomic_impl@K@internal@tbb@@QAE@PAK@Z 10011030 f i pipeline.obj
 0001:00010050       ??0?$ptr_converter@PDK@?$atomic_impl@K@internal@tbb@@QAE@PDK@Z 10011050 f i pipeline.obj
 0001:00010070       ??0allocate_additional_child_of_proxy@internal@tbb@@QAE@AAVtask@2@@Z 10011070 f i pipeline.obj
 0001:000100a0       ??0allocate_root_with_context_proxy@internal@tbb@@QAE@AAVtask_group_context@2@@Z 100110a0 f i pipeline.obj
 0001:000100c0       ??0input_buffer@internal@tbb@@QAE@_N0@Z 100110c0 f i pipeline.obj
 0001:00010180       ??0pipeline_cleaner@internal@tbb@@QAE@AAVpipeline@2@@Z 10011180 f i pipeline.obj
 0001:000101c0       ??0pipeline_root_task@internal@tbb@@QAE@AAVpipeline@2@@Z 100111c0 f i pipeline.obj
 0001:000102f0       ??0semaphore@internal@tbb@@QAE@I@Z 100112f0 f i pipeline.obj
 0001:00010330       ??0stage_task@internal@tbb@@QAE@AAVpipeline@2@@Z 10011330 f i pipeline.obj
 0001:000103d0       ??0stage_task@internal@tbb@@QAE@AAVpipeline@2@PAVfilter@2@ABUtask_info@12@@Z 100113d0 f i pipeline.obj
 0001:00010440       ??0task@tbb@@IAE@XZ        10011440 f i pipeline.obj
 0001:00010490       ??0task_base@internal@interface5@tbb@@QAE@XZ 10011490 f i pipeline.obj
 0001:000104c0       ??0task_group_context@tbb@@QAE@W4kind_type@01@I@Z 100114c0 f i pipeline.obj
 0001:00010520       ??1input_buffer@internal@tbb@@QAE@XZ 10011520 f i pipeline.obj
 0001:000105e0       ??1pipeline_cleaner@internal@tbb@@QAE@XZ 100115e0 f i pipeline.obj
 0001:00010650       ??1pipeline_root_task@internal@tbb@@UAE@XZ 10011650 f i pipeline.obj
 0001:00010680       ??1semaphore@internal@tbb@@QAE@XZ 10011680 f i pipeline.obj
 0001:000106c0       ??1stage_task@internal@tbb@@UAE@XZ 100116c0 f i pipeline.obj
 0001:000107a0       ??1task@tbb@@UAE@XZ        100117a0 f i pipeline.obj
 0001:000107c0       ??2@YAPAXIABVallocate_additional_child_of_proxy@internal@tbb@@@Z 100117c0 f i pipeline.obj
 0001:000107e0       ??2@YAPAXIABVallocate_child_proxy@internal@tbb@@@Z 100117e0 f i pipeline.obj
 0001:00010800       ??2@YAPAXIABVallocate_root_with_context_proxy@internal@tbb@@@Z 10011800 f i pipeline.obj
 0001:00010820       ??3@YAXPAXABVallocate_additional_child_of_proxy@internal@tbb@@@Z 10011820 f i pipeline.obj
 0001:00010870       ??3@YAXPAXABVallocate_child_proxy@internal@tbb@@@Z 10011870 f i pipeline.obj
 0001:000108c0       ??3@YAXPAXABVallocate_root_with_context_proxy@internal@tbb@@@Z 100118c0 f i pipeline.obj
 0001:00010910       ??4?$atomic@K@tbb@@QAEKK@Z 10011910 f i pipeline.obj
 0001:00010940       ??B?$atomic_impl@K@internal@tbb@@QDEKXZ 10011940 f i pipeline.obj
 0001:00010980       ??E?$atomic_impl_with_arithmetic@KKD@internal@tbb@@QAEKH@Z 10011980 f i pipeline.obj
 0001:000109b0       ??E?$atomic_impl_with_arithmetic@KKD@internal@tbb@@QAEKXZ 100119b0 f i pipeline.obj
 0001:000109e0       ??F?$atomic_impl_with_arithmetic@KKD@internal@tbb@@QAEKH@Z 100119e0 f i pipeline.obj
 0001:00010a10       ??F?$atomic_impl_with_arithmetic@KKD@internal@tbb@@QAEKXZ 10011a10 f i pipeline.obj
 0001:00010a40       ??_Gfilter@tbb@@UAEPAXI@Z  10011a40 f i pipeline.obj
 0001:00010a40       ??_Efilter@tbb@@UAEPAXI@Z  10011a40 f i pipeline.obj
 0001:00010a80       ??_Ginput_buffer@internal@tbb@@QAEPAXI@Z 10011a80 f i pipeline.obj
 0001:00010ac0       ??_Epipeline@tbb@@UAEPAXI@Z 10011ac0 f i pipeline.obj
 0001:00010ac0       ??_Gpipeline@tbb@@UAEPAXI@Z 10011ac0 f i pipeline.obj
 0001:00010b00       ??_Gpipeline_root_task@internal@tbb@@UAEPAXI@Z 10011b00 f i pipeline.obj
 0001:00010b00       ??_Epipeline_root_task@internal@tbb@@UAEPAXI@Z 10011b00 f i pipeline.obj
 0001:00010b40       ??_Gsemaphore@internal@tbb@@QAEPAXI@Z 10011b40 f i pipeline.obj
 0001:00010b80       ??_Gstage_task@internal@tbb@@UAEPAXI@Z 10011b80 f i pipeline.obj
 0001:00010b80       ??_Estage_task@internal@tbb@@UAEPAXI@Z 10011b80 f i pipeline.obj
 0001:00010bc0       ??_Etask@tbb@@UAEPAXI@Z    10011bc0 f i pipeline.obj
 0001:00010bc0       ??_Gtask@tbb@@UAEPAXI@Z    10011bc0 f i pipeline.obj
 0001:00010c00       ?P@semaphore@internal@tbb@@QAEXXZ 10011c00 f i pipeline.obj
 0001:00010c40       ?V@semaphore@internal@tbb@@QAEXXZ 10011c40 f i pipeline.obj
 0001:00010c80       ?allocate@?$cache_aligned_allocator@Utask_info@internal@tbb@@@tbb@@QAEPAUtask_info@internal@2@IPBX@Z 10011c80 f i pipeline.obj
 0001:00010cb0       ?allocate_additional_child_of@task_base@internal@interface5@tbb@@SA?AVallocate_additional_child_of_proxy@24@AAVtask@4@@Z 10011cb0 f i pipeline.obj
 0001:00010cd0       ?allocate_child@task@tbb@@QAEAAVallocate_child_proxy@internal@2@XZ 10011cd0 f i pipeline.obj
 0001:00010cf0       ?allocate_root@task@tbb@@SA?AVallocate_root_with_context_proxy@internal@2@AAVtask_group_context@2@@Z 10011cf0 f i pipeline.obj
 0001:00010d10       ?clear@input_buffer@internal@tbb@@QAEXPAVfilter@3@@Z 10011d10 f i pipeline.obj
 0001:00010dc0       ?create@?$basic_tls@H@internal@tbb@@QAEHXZ 10011dc0 f i pipeline.obj
 0001:00010e10       ?create_my_tls@input_buffer@internal@tbb@@QAEXXZ 10011e10 f i pipeline.obj
 0001:00010e70       ?create_sema@input_buffer@internal@tbb@@AAEXI@Z 10011e70 f i pipeline.obj
 0001:00010f30       ?deallocate@?$cache_aligned_allocator@Utask_info@internal@tbb@@@tbb@@QAEXPAUtask_info@internal@2@I@Z 10011f30 f i pipeline.obj
 0001:00010f60       ?destroy@?$basic_tls@H@internal@tbb@@QAEHXZ 10011f60 f i pipeline.obj
 0001:00010fa0       ?destroy_my_tls@input_buffer@internal@tbb@@QAEXXZ 10011fa0 f i pipeline.obj
 0001:00010ff0       ?execute@pipeline_root_task@internal@tbb@@EAEPAVtask@3@XZ 10011ff0 f i pipeline.obj
 0001:000112f0       ?fetch_and_add@?$atomic_impl_with_arithmetic@KKD@internal@tbb@@QAEKK@Z 100122f0 f i pipeline.obj
 0001:00011320       ?finalize@filter@tbb@@UAEXPAX@Z 10012320 f i pipeline.obj
 0001:00011340       ?free_sema@input_buffer@internal@tbb@@AAEXXZ 10012340 f i pipeline.obj
 0001:000113c0       ?get@?$basic_tls@H@internal@tbb@@QAEHXZ 100123c0 f i pipeline.obj
 0001:00011400       ?has_item@input_buffer@internal@tbb@@QAE_NXZ 10012400 f i pipeline.obj
 0001:000114a0       ?init_semaphore@semaphore@internal@tbb@@AAEXI@Z 100124a0 f i pipeline.obj
 0001:000114e0       ?inlineCreateSemaphoreEx@@YGPAXPAU_SECURITY_ATTRIBUTES@@JJPB_WKK@Z 100124e0 f i pipeline.obj
 0001:00011510       ?is_bound@filter@tbb@@QBE_NXZ 10012510 f i pipeline.obj
 0001:00011550       ?is_cancelled@task@tbb@@QBE_NXZ 10012550 f i pipeline.obj
 0001:00011580       ?is_ordered@filter@tbb@@QBE_NXZ 10012580 f i pipeline.obj
 0001:000115c0       ?is_serial@filter@tbb@@QBE_NXZ 100125c0 f i pipeline.obj
 0001:000115e0       ?my_tls_end_of_input@input_buffer@internal@tbb@@QAE_NXZ 100125e0 f i pipeline.obj
 0001:00011630       ?not_in_pipeline@filter@tbb@@CAPAV12@XZ 10012630 f i pipeline.obj
 0001:00011640       ?object_may_be_null@filter@tbb@@QAE_NXZ 10012640 f i pipeline.obj
 0001:00011680       ?parent@task@tbb@@QBEPAV12@XZ 10012680 f i pipeline.obj
 0001:000116b0       ?prefix@task@tbb@@ABEAAVtask_prefix@internal@2@PAUversion_tag_v3@42@@Z 100126b0 f i pipeline.obj
 0001:000116d0       ?put_token@input_buffer@internal@tbb@@QAE_NAAUtask_info@23@_N@Z 100126d0 f i pipeline.obj
 0001:00011910       ?recycle_as_continuation@task@tbb@@QAEXXZ 10012910 f i pipeline.obj
 0001:00011970       ?reset@stage_task@internal@tbb@@QAEXXZ 10012970 f i pipeline.obj
 0001:000119b0       ?reset@task_info@internal@tbb@@QAEXXZ 100129b0 f i pipeline.obj
 0001:000119f0       ?return_item@input_buffer@internal@tbb@@QAE_NAAUtask_info@23@_N@Z 100129f0 f i pipeline.obj
 0001:00011b40       ?sema_P@input_buffer@internal@tbb@@AAEXXZ 10012b40 f i pipeline.obj
 0001:00011b90       ?sema_V@input_buffer@internal@tbb@@AAEXXZ 10012b90 f i pipeline.obj
 0001:00011be0       ?set@?$basic_tls@H@internal@tbb@@QAEXH@Z 10012be0 f i pipeline.obj
 0001:00011c20       ?set_my_tls_end_of_input@input_buffer@internal@tbb@@QAEXXZ 10012c20 f i pipeline.obj
 0001:00011c50       ?set_ref_count@task@tbb@@QAEXH@Z 10012c50 f i pipeline.obj
 0001:00011c80       ?spawn@task_base@internal@interface5@tbb@@SAXAAVtask@4@@Z 10012c80 f i pipeline.obj
 0001:00011ce0       ?spawn_root_and_wait@task@tbb@@SAXAAV12@@Z 10012ce0 f i pipeline.obj
 0001:00011d40       ?spawn_stage_task@stage_task@internal@tbb@@QAEXABUtask_info@23@@Z 10012d40 f i pipeline.obj
 0001:00011e20       ?store_with_release@?$atomic_impl@K@internal@tbb@@IAEKK@Z 10012e20 f i pipeline.obj
 0001:00011ec0       ?acquire@scoped_lock@queuing_mutex@tbb@@QAEXAAV23@@Z 10012ec0 f   queuing_mutex.obj
 0001:00011fd0       ?try_acquire@scoped_lock@queuing_mutex@tbb@@QAE_NAAV23@@Z 10012fd0 f   queuing_mutex.obj
 0001:00012080       ?release@scoped_lock@queuing_mutex@tbb@@QAEXXZ 10013080 f   queuing_mutex.obj
 0001:00012160       ?internal_construct@queuing_mutex@tbb@@QAEXXZ 10013160 f   queuing_mutex.obj
 0001:000121b0       ??$__TBB_load_with_acquire@I@internal@tbb@@YAIADI@Z 100131b0 f i queuing_mutex.obj
 0001:000121d0       ??$__TBB_store_with_release@IH@internal@tbb@@YAXACIH@Z 100131d0 f i queuing_mutex.obj
 0001:000121f0       ??$compare_and_swap@$01@?$atomic_impl@PAVscoped_lock@queuing_mutex@tbb@@@internal@tbb@@QAEPAVscoped_lock@queuing_mutex@2@PAV342@0@Z 100131f0 f i queuing_mutex.obj
 0001:00012240       ??$fetch_and_store@$01@?$atomic_impl@PAVscoped_lock@queuing_mutex@tbb@@@internal@tbb@@QAEPAVscoped_lock@queuing_mutex@2@PAV342@@Z 10013240 f i queuing_mutex.obj
 0001:00012280       ??$poison_pointer@Vscoped_lock@queuing_mutex@tbb@@@internal@tbb@@YAXAAPAVscoped_lock@queuing_mutex@1@@Z 10013280 f i queuing_mutex.obj
 0001:00012290       ??$spin_wait_while_eq@IK@internal@tbb@@YAXADIK@Z 10013290 f i queuing_mutex.obj
 0001:00012310       ??$spin_wait_while_eq@PAVscoped_lock@queuing_mutex@tbb@@PAV123@@internal@tbb@@YAXADSAVscoped_lock@queuing_mutex@1@PAV231@@Z 10013310 f i queuing_mutex.obj
 0001:00012390       ??$to_bits@PAVscoped_lock@queuing_mutex@tbb@@@?$atomic_impl@PAVscoped_lock@queuing_mutex@tbb@@@internal@tbb@@CAHPAVscoped_lock@queuing_mutex@2@@Z 10013390 f i queuing_mutex.obj
 0001:000123c0       ??$to_value@PAVscoped_lock@queuing_mutex@tbb@@@?$atomic_impl@PAVscoped_lock@queuing_mutex@tbb@@@internal@tbb@@CAPAVscoped_lock@queuing_mutex@2@H@Z 100133c0 f i queuing_mutex.obj
 0001:00012430       ??0?$converter@PAVscoped_lock@queuing_mutex@tbb@@@?$atomic_impl@PAVscoped_lock@queuing_mutex@tbb@@@internal@tbb@@QAE@PAVscoped_lock@queuing_mutex@3@@Z 10013430 f i queuing_mutex.obj
 0001:00012450       ??0?$converter@PAVscoped_lock@queuing_mutex@tbb@@@?$atomic_impl@PAVscoped_lock@queuing_mutex@tbb@@@internal@tbb@@QAE@XZ 10013450 f i queuing_mutex.obj
 0001:00012470       ?compare_and_swap@?$atomic_traits@$03$01@internal@tbb@@SAHPCXHH@Z 10013470 f i queuing_mutex.obj
 0001:00012490       ?fetch_and_store@?$atomic_traits@$03$01@internal@tbb@@SAHPCXH@Z 10013490 f i queuing_mutex.obj
 0001:000124b0       ?initialize@scoped_lock@queuing_mutex@tbb@@AAEXXZ 100134b0 f i queuing_mutex.obj
 0001:000124f0       ?load_with_acquire@?$machine_load_store@I$03@internal@tbb@@SAIADI@Z 100134f0 f i queuing_mutex.obj
 0001:00012510       ?store_with_release@?$machine_load_store@I$03@internal@tbb@@SAXACII@Z 10013510 f i queuing_mutex.obj
 0001:000125a0       ?acquire@scoped_lock@queuing_rw_mutex@tbb@@QAEXAAV23@_N@Z 100135a0 f   queuing_rw_mutex.obj
 0001:00012990       ?try_acquire@scoped_lock@queuing_rw_mutex@tbb@@QAE_NAAV23@_N@Z 10013990 f   queuing_rw_mutex.obj
 0001:00012ab0       ?release@scoped_lock@queuing_rw_mutex@tbb@@QAEXXZ 10013ab0 f   queuing_rw_mutex.obj
 0001:00012f80       ?upgrade_to_writer@scoped_lock@queuing_rw_mutex@tbb@@QAE_NXZ 10013f80 f   queuing_rw_mutex.obj
 0001:00013580       ?downgrade_to_reader@scoped_lock@queuing_rw_mutex@tbb@@QAE_NXZ 10014580 f   queuing_rw_mutex.obj
 0001:00013700       ?internal_construct@queuing_rw_mutex@tbb@@QAEXXZ 10014700 f   queuing_rw_mutex.obj
 0001:00013750       ??$__TBB_load_full_fence@H@internal@tbb@@YAHADH@Z 10014750 f i queuing_rw_mutex.obj
 0001:00013770       ??$__TBB_load_relaxed@PAVscoped_lock@queuing_rw_mutex@tbb@@@internal@tbb@@YAPAVscoped_lock@queuing_rw_mutex@1@ADSAV231@@Z 10014770 f i queuing_rw_mutex.obj
 0001:00013790       ??$__TBB_load_with_acquire@E@internal@tbb@@YAEADE@Z 10014790 f i queuing_rw_mutex.obj
 0001:000137b0       ??$__TBB_load_with_acquire@PAVscoped_lock@queuing_rw_mutex@tbb@@@internal@tbb@@YAPAVscoped_lock@queuing_rw_mutex@1@ADSAV231@@Z 100147b0 f i queuing_rw_mutex.obj
 0001:000137d0       ??$__TBB_store_relaxed@EH@internal@tbb@@YAXACEH@Z 100147d0 f i queuing_rw_mutex.obj
 0001:000137f0       ??$__TBB_store_relaxed@PAVscoped_lock@queuing_rw_mutex@tbb@@PAV123@@internal@tbb@@YAXACRAVscoped_lock@queuing_rw_mutex@1@PAV231@@Z 100147f0 f i queuing_rw_mutex.obj
 0001:00013810       ??$__TBB_store_with_release@EE@internal@tbb@@YAXACEE@Z 10014810 f i queuing_rw_mutex.obj
 0001:00013830       ??$__TBB_store_with_release@EH@internal@tbb@@YAXACEH@Z 10014830 f i queuing_rw_mutex.obj
 0001:00013850       ??$__TBB_store_with_release@PAVscoped_lock@queuing_rw_mutex@tbb@@PAV123@@internal@tbb@@YAXACRAVscoped_lock@queuing_rw_mutex@1@PAV231@@Z 10014850 f i queuing_rw_mutex.obj
 0001:00013870       ??$as_atomic@E@internal@tbb@@YAAAU?$atomic@E@1@AAE@Z 10014870 f i queuing_rw_mutex.obj
 0001:00013880       ??$compare_and_swap@$00@?$atomic_impl@E@internal@tbb@@QAEEEE@Z 10014880 f i queuing_rw_mutex.obj
 0001:000138e0       ??$compare_and_swap@$01@?$atomic_impl@E@internal@tbb@@QAEEEE@Z 100148e0 f i queuing_rw_mutex.obj
 0001:00013940       ??$compare_and_swap@$01@?$atomic_impl@PAVscoped_lock@queuing_rw_mutex@tbb@@@internal@tbb@@QAEPAVscoped_lock@queuing_rw_mutex@2@PAV342@0@Z 10014940 f i queuing_rw_mutex.obj
 0001:00013990       ??$compare_and_swap@$01@?$tricky_atomic_pointer@Vscoped_lock@queuing_rw_mutex@tbb@@@tbb@@SAPAVscoped_lock@queuing_rw_mutex@1@PCRAV231@PAV231@1@Z 10014990 f i queuing_rw_mutex.obj
 0001:000139b0       ??$fetch_and_add@$00@?$tricky_atomic_pointer@Vscoped_lock@queuing_rw_mutex@tbb@@@tbb@@SAPAVscoped_lock@queuing_rw_mutex@1@PCRAV231@H@Z 100149b0 f i queuing_rw_mutex.obj
 0001:000139d0       ??$fetch_and_store@$01@?$atomic_impl@PAVscoped_lock@queuing_rw_mutex@tbb@@@internal@tbb@@QAEPAVscoped_lock@queuing_rw_mutex@2@PAV342@@Z 100149d0 f i queuing_rw_mutex.obj
 0001:00013a10       ??$fetch_and_store@$01@?$tricky_atomic_pointer@Vscoped_lock@queuing_rw_mutex@tbb@@@tbb@@SAPAVscoped_lock@queuing_rw_mutex@1@PCRAV231@PAV231@@Z 10014a10 f i queuing_rw_mutex.obj
 0001:00013a30       ??$load@$02@?$atomic_impl@PAVscoped_lock@queuing_rw_mutex@tbb@@@internal@tbb@@QBEPAVscoped_lock@queuing_rw_mutex@2@XZ 10014a30 f i queuing_rw_mutex.obj
 0001:00013a70       ??$load@$02PAVscoped_lock@queuing_rw_mutex@tbb@@@tbb@@YAPAVscoped_lock@queuing_rw_mutex@0@ABU?$atomic@PAVscoped_lock@queuing_rw_mutex@tbb@@@0@@Z 10014a70 f i queuing_rw_mutex.obj
 0001:00013a90       ??$load@$0A@@?$atomic_impl@PAVscoped_lock@queuing_rw_mutex@tbb@@@internal@tbb@@QBEPAVscoped_lock@queuing_rw_mutex@2@XZ 10014a90 f i queuing_rw_mutex.obj
 0001:00013ad0       ??$load@H@?$atomic_load_store_traits@$0A@@internal@tbb@@SAHADH@Z 10014ad0 f i queuing_rw_mutex.obj
 0001:00013af0       ??$poison_pointer@Vscoped_lock@queuing_rw_mutex@tbb@@@internal@tbb@@YAXAAPAVscoped_lock@queuing_rw_mutex@1@@Z 10014af0 f i queuing_rw_mutex.obj
 0001:00013b00       ??$spin_wait_until_eq@EE@internal@tbb@@YAXADEE@Z 10014b00 f i queuing_rw_mutex.obj
 0001:00013b80       ??$spin_wait_until_eq@EH@internal@tbb@@YAXADEH@Z 10014b80 f i queuing_rw_mutex.obj
 0001:00013c00       ??$spin_wait_while_eq@EH@internal@tbb@@YAXADEH@Z 10014c00 f i queuing_rw_mutex.obj
 0001:00013c80       ??$spin_wait_while_eq@PAVscoped_lock@queuing_rw_mutex@tbb@@PAV123@@internal@tbb@@YAXADSAVscoped_lock@queuing_rw_mutex@1@PAV231@@Z 10014c80 f i queuing_rw_mutex.obj
 0001:00013d00       ??$spin_wait_while_eq@PAVscoped_lock@queuing_rw_mutex@tbb@@PAX@internal@tbb@@YAXADSAVscoped_lock@queuing_rw_mutex@1@PAX@Z 10014d00 f i queuing_rw_mutex.obj
 0001:00013d80       ??$to_bits@E@?$atomic_impl@E@internal@tbb@@CACE@Z 10014d80 f i queuing_rw_mutex.obj
 0001:00013db0       ??$to_bits@PAVscoped_lock@queuing_rw_mutex@tbb@@@?$atomic_impl@PAVscoped_lock@queuing_rw_mutex@tbb@@@internal@tbb@@CAHPAVscoped_lock@queuing_rw_mutex@2@@Z 10014db0 f i queuing_rw_mutex.obj
 0001:00013de0       ??$to_bits_ref@$$CDE@?$atomic_impl@E@internal@tbb@@CAAACADE@Z 10014de0 f i queuing_rw_mutex.obj
 0001:00013e10       ??$to_bits_ref@E@?$atomic_impl@E@internal@tbb@@CAAACAAE@Z 10014e10 f i queuing_rw_mutex.obj
 0001:00013e40       ??$to_bits_ref@QAVscoped_lock@queuing_rw_mutex@tbb@@@?$atomic_impl@PAVscoped_lock@queuing_rw_mutex@tbb@@@internal@tbb@@CAAAHABQAVscoped_lock@queuing_rw_mutex@2@@Z 10014e40 f i queuing_rw_mutex.obj
 0001:00013e70       ??$to_value@E@?$atomic_impl@E@internal@tbb@@CAEC@Z 10014e70 f i queuing_rw_mutex.obj
 0001:00013ee0       ??$to_value@PAVscoped_lock@queuing_rw_mutex@tbb@@@?$atomic_impl@PAVscoped_lock@queuing_rw_mutex@tbb@@@internal@tbb@@CAPAVscoped_lock@queuing_rw_mutex@2@H@Z 10014ee0 f i queuing_rw_mutex.obj
 0001:00013f50       ??0?$converter@E@?$atomic_impl@E@internal@tbb@@QAE@E@Z 10014f50 f i queuing_rw_mutex.obj
 0001:00013f70       ??0?$converter@E@?$atomic_impl@E@internal@tbb@@QAE@XZ 10014f70 f i queuing_rw_mutex.obj
 0001:00013f90       ??0?$converter@PAVscoped_lock@queuing_rw_mutex@tbb@@@?$atomic_impl@PAVscoped_lock@queuing_rw_mutex@tbb@@@internal@tbb@@QAE@PAVscoped_lock@queuing_rw_mutex@3@@Z 10014f90 f i queuing_rw_mutex.obj
 0001:00013fb0       ??0?$converter@PAVscoped_lock@queuing_rw_mutex@tbb@@@?$atomic_impl@PAVscoped_lock@queuing_rw_mutex@tbb@@@internal@tbb@@QAE@XZ 10014fb0 f i queuing_rw_mutex.obj
 0001:00013fd0       ??0?$ptr_converter@PAE@?$atomic_impl@E@internal@tbb@@QAE@PAE@Z 10014fd0 f i queuing_rw_mutex.obj
 0001:00013ff0       ??0?$ptr_converter@PBQAVscoped_lock@queuing_rw_mutex@tbb@@@?$atomic_impl@PAVscoped_lock@queuing_rw_mutex@tbb@@@internal@tbb@@QAE@PBQAVscoped_lock@queuing_rw_mutex@3@@Z 10014ff0 f i queuing_rw_mutex.obj
 0001:00014010       ??0?$ptr_converter@PDE@?$atomic_impl@E@internal@tbb@@QAE@PDE@Z 10015010 f i queuing_rw_mutex.obj
 0001:00014030       ??0?$tricky_atomic_pointer@Vscoped_lock@queuing_rw_mutex@tbb@@@tbb@@QAE@AAPAVscoped_lock@queuing_rw_mutex@1@@Z 10015030 f i queuing_rw_mutex.obj
 0001:00014070       ??4?$atomic@E@tbb@@QAEEE@Z 10015070 f i queuing_rw_mutex.obj
 0001:000140a0       ??B?$atomic_impl@E@internal@tbb@@QDEEXZ 100150a0 f i queuing_rw_mutex.obj
 0001:000140e0       ??I?$tricky_atomic_pointer@Vscoped_lock@queuing_rw_mutex@tbb@@@tbb@@QBEPAVscoped_lock@queuing_rw_mutex@1@H@Z 100150e0 f i queuing_rw_mutex.obj
 0001:00014100       ??U?$tricky_atomic_pointer@Vscoped_lock@queuing_rw_mutex@tbb@@@tbb@@QBEPAVscoped_lock@queuing_rw_mutex@1@H@Z 10015100 f i queuing_rw_mutex.obj
 0001:00014120       ?acquire_internal_lock@scoped_lock@queuing_rw_mutex@tbb@@AAEXXZ 10015120 f i queuing_rw_mutex.obj
 0001:00014160       ?compare_and_swap@?$atomic_traits@$00$00@internal@tbb@@SACPCXCC@Z 10015160 f i queuing_rw_mutex.obj
 0001:00014190       ?compare_and_swap@?$atomic_traits@$00$01@internal@tbb@@SACPCXCC@Z 10015190 f i queuing_rw_mutex.obj
 0001:000141c0       ?get_flag@tbb@@YAIPAVscoped_lock@queuing_rw_mutex@1@@Z 100151c0 f i queuing_rw_mutex.obj
 0001:000141d0       ?initialize@scoped_lock@queuing_rw_mutex@tbb@@AAEXXZ 100151d0 f i queuing_rw_mutex.obj
 0001:00014230       ?load@?$machine_load_store_relaxed@PAVscoped_lock@queuing_rw_mutex@tbb@@$03@internal@tbb@@SAPAVscoped_lock@queuing_rw_mutex@3@ADSAV453@@Z 10015230 f i queuing_rw_mutex.obj
 0001:00014240       ?load@?$machine_load_store_seq_cst@H$03@internal@tbb@@SAHADH@Z 10015240 f i queuing_rw_mutex.obj
 0001:00014260       ?load_with_acquire@?$machine_load_store@E$00@internal@tbb@@SAEADE@Z 10015260 f i queuing_rw_mutex.obj
 0001:00014280       ?load_with_acquire@?$machine_load_store@PAVscoped_lock@queuing_rw_mutex@tbb@@$03@internal@tbb@@SAPAVscoped_lock@queuing_rw_mutex@3@ADSAV453@@Z 10015280 f i queuing_rw_mutex.obj
 0001:000142a0       ?release_internal_lock@scoped_lock@queuing_rw_mutex@tbb@@AAEXXZ 100152a0 f i queuing_rw_mutex.obj
 0001:000142d0       ?store@?$machine_load_store_relaxed@E$00@internal@tbb@@SAXACEE@Z 100152d0 f i queuing_rw_mutex.obj
 0001:000142e0       ?store@?$machine_load_store_relaxed@PAVscoped_lock@queuing_rw_mutex@tbb@@$03@internal@tbb@@SAXACRAVscoped_lock@queuing_rw_mutex@3@PAV453@@Z 100152e0 f i queuing_rw_mutex.obj
 0001:000142f0       ?store_with_release@?$atomic_impl@E@internal@tbb@@IAEEE@Z 100152f0 f i queuing_rw_mutex.obj
 0001:00014340       ?store_with_release@?$machine_load_store@E$00@internal@tbb@@SAXACEE@Z 10015340 f i queuing_rw_mutex.obj
 0001:00014350       ?store_with_release@?$machine_load_store@PAVscoped_lock@queuing_rw_mutex@tbb@@$03@internal@tbb@@SAXACRAVscoped_lock@queuing_rw_mutex@3@PAV453@@Z 10015350 f i queuing_rw_mutex.obj
 0001:00014360       ?try_acquire_internal_lock@scoped_lock@queuing_rw_mutex@tbb@@AAE_NXZ 10015360 f i queuing_rw_mutex.obj
 0001:000143c0       ?unblock_or_wait_on_internal_lock@scoped_lock@queuing_rw_mutex@tbb@@AAEXI@Z 100153c0 f i queuing_rw_mutex.obj
 0001:00014400       ?wait_for_release_of_internal_lock@scoped_lock@queuing_rw_mutex@tbb@@AAEXXZ 10015400 f i queuing_rw_mutex.obj
 0001:000144b0       ?internal_construct@scoped_lock@reader_writer_lock@interface5@tbb@@AAEXAAV234@@Z 100154b0 f   reader_writer_lock.obj
 0001:00014520       ?internal_destroy@scoped_lock@reader_writer_lock@interface5@tbb@@AAEXXZ 10015520 f   reader_writer_lock.obj
 0001:00014590       ?internal_construct@scoped_lock_read@reader_writer_lock@interface5@tbb@@AAEXAAV234@@Z 10015590 f   reader_writer_lock.obj
 0001:00014600       ?internal_destroy@scoped_lock_read@reader_writer_lock@interface5@tbb@@AAEXXZ 10015600 f   reader_writer_lock.obj
 0001:00014640       ?lock@reader_writer_lock@interface5@tbb@@QAEXXZ 10015640 f   reader_writer_lock.obj
 0001:00014700       ?try_lock@reader_writer_lock@interface5@tbb@@QAE_NXZ 10015700 f   reader_writer_lock.obj
 0001:000147d0       ?lock_read@reader_writer_lock@interface5@tbb@@QAEXXZ 100157d0 f   reader_writer_lock.obj
 0001:000148b0       ?try_lock_read@reader_writer_lock@interface5@tbb@@QAE_NXZ 100158b0 f   reader_writer_lock.obj
 0001:00014930       ?unlock@reader_writer_lock@interface5@tbb@@QAEXXZ 10015930 f   reader_writer_lock.obj
 0001:00014a90       ?internal_construct@reader_writer_lock@interface5@tbb@@AAEXXZ 10015a90 f   reader_writer_lock.obj
 0001:00014b30       ?internal_destroy@reader_writer_lock@interface5@tbb@@AAEXXZ 10015b30 f   reader_writer_lock.obj
 0001:00014c00       ?start_write@reader_writer_lock@interface5@tbb@@AAE_NPAVscoped_lock@123@@Z 10015c00 f   reader_writer_lock.obj
 0001:00014e20       ?set_next_writer@reader_writer_lock@interface5@tbb@@AAEXPAVscoped_lock@123@@Z 10015e20 f   reader_writer_lock.obj
 0001:00014ee0       ?end_write@reader_writer_lock@interface5@tbb@@AAEXPAVscoped_lock@123@@Z 10015ee0 f   reader_writer_lock.obj
 0001:00015060       ?start_read@reader_writer_lock@interface5@tbb@@AAEXPAVscoped_lock_read@123@@Z 10016060 f   reader_writer_lock.obj
 0001:000151a0       ?unblock_readers@reader_writer_lock@interface5@tbb@@AAEXXZ 100161a0 f   reader_writer_lock.obj
 0001:000152c0       ?end_read@reader_writer_lock@interface5@tbb@@AAEXXZ 100162c0 f   reader_writer_lock.obj
 0001:00015340       ??$compare_and_swap@$0A@@?$atomic_impl@PAVscoped_lock@reader_writer_lock@interface5@tbb@@@internal@tbb@@QAEPAVscoped_lock@reader_writer_lock@interface5@2@PAV3452@0@Z 10016340 f i reader_writer_lock.obj
 0001:00015390       ??$fetch_and_store@$0A@@?$atomic_impl@PAVscoped_lock@reader_writer_lock@interface5@tbb@@@internal@tbb@@QAEPAVscoped_lock@reader_writer_lock@interface5@2@PAV3452@@Z 10016390 f i reader_writer_lock.obj
 0001:000153d0       ??$fetch_and_store@$0A@@?$atomic_impl@PAVscoped_lock_read@reader_writer_lock@interface5@tbb@@@internal@tbb@@QAEPAVscoped_lock_read@reader_writer_lock@interface5@2@PAV3452@@Z 100163d0 f i reader_writer_lock.obj
 0001:00015410       ??$spin_wait_until_and@U?$atomic@I@tbb@@I@interface5@tbb@@YAXADU?$atomic@I@1@I@Z 10016410 f i reader_writer_lock.obj
 0001:00015490       ??$spin_wait_while_eq@PAVscoped_lock@reader_writer_lock@interface5@tbb@@PAV1234@@internal@tbb@@YAXADSAVscoped_lock@reader_writer_lock@interface5@1@PAV2341@@Z 10016490 f i reader_writer_lock.obj
 0001:00015510       ??$spin_wait_while_eq@U?$atomic@W4status_t@reader_writer_lock@interface5@tbb@@@tbb@@W4status_t@reader_writer_lock@interface5@2@@internal@tbb@@YAXADU?$atomic@W4status_t@reader_writer_lock@interface5@tbb@@@1@W4status_t@reader_writer_lock@interface5@1@@Z 10016510 f i reader_writer_lock.obj
 0001:00015590       ??$spin_wait_while_geq@U?$atomic@I@tbb@@I@interface5@tbb@@YAXADU?$atomic@I@1@I@Z 10016590 f i reader_writer_lock.obj
 0001:00015610       ??$to_bits@PAVscoped_lock@reader_writer_lock@interface5@tbb@@@?$atomic_impl@PAVscoped_lock@reader_writer_lock@interface5@tbb@@@internal@tbb@@CAHPAVscoped_lock@reader_writer_lock@interface5@2@@Z 10016610 f i reader_writer_lock.obj
 0001:00015640       ??$to_bits@PAVscoped_lock_read@reader_writer_lock@interface5@tbb@@@?$atomic_impl@PAVscoped_lock_read@reader_writer_lock@interface5@tbb@@@internal@tbb@@CAHPAVscoped_lock_read@reader_writer_lock@interface5@2@@Z 10016640 f i reader_writer_lock.obj
 0001:00015670       ??$to_bits@W4status_t@reader_writer_lock@interface5@tbb@@@?$atomic_impl@W4status_t@reader_writer_lock@interface5@tbb@@@internal@tbb@@CAHW4status_t@reader_writer_lock@interface5@2@@Z 10016670 f i reader_writer_lock.obj
 0001:000156a0       ??$to_bits_ref@$$CDW4status_t@reader_writer_lock@interface5@tbb@@@?$atomic_impl@W4status_t@reader_writer_lock@interface5@tbb@@@internal@tbb@@CAAAHADW4status_t@reader_writer_lock@interface5@2@@Z 100166a0 f i reader_writer_lock.obj
 0001:000156d0       ??$to_bits_ref@PAVscoped_lock@reader_writer_lock@interface5@tbb@@@?$atomic_impl@PAVscoped_lock@reader_writer_lock@interface5@tbb@@@internal@tbb@@CAAAHAAPAVscoped_lock@reader_writer_lock@interface5@2@@Z 100166d0 f i reader_writer_lock.obj
 0001:00015700       ??$to_bits_ref@PAVscoped_lock_read@reader_writer_lock@interface5@tbb@@@?$atomic_impl@PAVscoped_lock_read@reader_writer_lock@interface5@tbb@@@internal@tbb@@CAAAHAAPAVscoped_lock_read@reader_writer_lock@interface5@2@@Z 10016700 f i reader_writer_lock.obj
 0001:00015730       ??$to_bits_ref@SAVscoped_lock@reader_writer_lock@interface5@tbb@@@?$atomic_impl@PAVscoped_lock@reader_writer_lock@interface5@tbb@@@internal@tbb@@CAAAHADSAVscoped_lock@reader_writer_lock@interface5@2@@Z 10016730 f i reader_writer_lock.obj
 0001:00015760       ??$to_bits_ref@SAVscoped_lock_read@reader_writer_lock@interface5@tbb@@@?$atomic_impl@PAVscoped_lock_read@reader_writer_lock@interface5@tbb@@@internal@tbb@@CAAAHADSAVscoped_lock_read@reader_writer_lock@interface5@2@@Z 10016760 f i reader_writer_lock.obj
 0001:00015790       ??$to_bits_ref@W4status_t@reader_writer_lock@interface5@tbb@@@?$atomic_impl@W4status_t@reader_writer_lock@interface5@tbb@@@internal@tbb@@CAAAHAAW4status_t@reader_writer_lock@interface5@2@@Z 10016790 f i reader_writer_lock.obj
 0001:000157c0       ??$to_value@PAVscoped_lock@reader_writer_lock@interface5@tbb@@@?$atomic_impl@PAVscoped_lock@reader_writer_lock@interface5@tbb@@@internal@tbb@@CAPAVscoped_lock@reader_writer_lock@interface5@2@H@Z 100167c0 f i reader_writer_lock.obj
 0001:00015830       ??$to_value@PAVscoped_lock_read@reader_writer_lock@interface5@tbb@@@?$atomic_impl@PAVscoped_lock_read@reader_writer_lock@interface5@tbb@@@internal@tbb@@CAPAVscoped_lock_read@reader_writer_lock@interface5@2@H@Z 10016830 f i reader_writer_lock.obj
 0001:000158a0       ??$to_value@W4status_t@reader_writer_lock@interface5@tbb@@@?$atomic_impl@W4status_t@reader_writer_lock@interface5@tbb@@@internal@tbb@@CA?AW4status_t@reader_writer_lock@interface5@2@H@Z 100168a0 f i reader_writer_lock.obj
 0001:00015910       ??0?$converter@PAVscoped_lock@reader_writer_lock@interface5@tbb@@@?$atomic_impl@PAVscoped_lock@reader_writer_lock@interface5@tbb@@@internal@tbb@@QAE@PAVscoped_lock@reader_writer_lock@interface5@3@@Z 10016910 f i reader_writer_lock.obj
 0001:00015930       ??0?$converter@PAVscoped_lock@reader_writer_lock@interface5@tbb@@@?$atomic_impl@PAVscoped_lock@reader_writer_lock@interface5@tbb@@@internal@tbb@@QAE@XZ 10016930 f i reader_writer_lock.obj
 0001:00015950       ??0?$converter@PAVscoped_lock_read@reader_writer_lock@interface5@tbb@@@?$atomic_impl@PAVscoped_lock_read@reader_writer_lock@interface5@tbb@@@internal@tbb@@QAE@PAVscoped_lock_read@reader_writer_lock@interface5@3@@Z 10016950 f i reader_writer_lock.obj
 0001:00015970       ??0?$converter@PAVscoped_lock_read@reader_writer_lock@interface5@tbb@@@?$atomic_impl@PAVscoped_lock_read@reader_writer_lock@interface5@tbb@@@internal@tbb@@QAE@XZ 10016970 f i reader_writer_lock.obj
 0001:00015990       ??0?$converter@W4status_t@reader_writer_lock@interface5@tbb@@@?$atomic_impl@W4status_t@reader_writer_lock@interface5@tbb@@@internal@tbb@@QAE@W4status_t@reader_writer_lock@interface5@3@@Z 10016990 f i reader_writer_lock.obj
 0001:000159b0       ??0?$converter@W4status_t@reader_writer_lock@interface5@tbb@@@?$atomic_impl@W4status_t@reader_writer_lock@interface5@tbb@@@internal@tbb@@QAE@XZ 100169b0 f i reader_writer_lock.obj
 0001:000159d0       ??0?$ptr_converter@PAPAVscoped_lock@reader_writer_lock@interface5@tbb@@@?$atomic_impl@PAVscoped_lock@reader_writer_lock@interface5@tbb@@@internal@tbb@@QAE@PAPAVscoped_lock@reader_writer_lock@interface5@3@@Z 100169d0 f i reader_writer_lock.obj
 0001:000159f0       ??0?$ptr_converter@PAPAVscoped_lock_read@reader_writer_lock@interface5@tbb@@@?$atomic_impl@PAVscoped_lock_read@reader_writer_lock@interface5@tbb@@@internal@tbb@@QAE@PAPAVscoped_lock_read@reader_writer_lock@interface5@3@@Z 100169f0 f i reader_writer_lock.obj
 0001:00015a10       ??0?$ptr_converter@PAW4status_t@reader_writer_lock@interface5@tbb@@@?$atomic_impl@W4status_t@reader_writer_lock@interface5@tbb@@@internal@tbb@@QAE@PAW4status_t@reader_writer_lock@interface5@3@@Z 10016a10 f i reader_writer_lock.obj
 0001:00015a30       ??0?$ptr_converter@PDSAVscoped_lock@reader_writer_lock@interface5@tbb@@@?$atomic_impl@PAVscoped_lock@reader_writer_lock@interface5@tbb@@@internal@tbb@@QAE@PDSAVscoped_lock@reader_writer_lock@interface5@3@@Z 10016a30 f i reader_writer_lock.obj
 0001:00015a50       ??0?$ptr_converter@PDSAVscoped_lock_read@reader_writer_lock@interface5@tbb@@@?$atomic_impl@PAVscoped_lock_read@reader_writer_lock@interface5@tbb@@@internal@tbb@@QAE@PDSAVscoped_lock_read@reader_writer_lock@interface5@3@@Z 10016a50 f i reader_writer_lock.obj
 0001:00015a70       ??0?$ptr_converter@PDW4status_t@reader_writer_lock@interface5@tbb@@@?$atomic_impl@W4status_t@reader_writer_lock@interface5@tbb@@@internal@tbb@@QAE@PDW4status_t@reader_writer_lock@interface5@3@@Z 10016a70 f i reader_writer_lock.obj
 0001:00015a90       ??0id@tbb_thread_v3@internal@tbb@@QAE@XZ 10016a90 f i reader_writer_lock.obj
 0001:00015ab0       ??0scoped_lock@reader_writer_lock@interface5@tbb@@AAE@XZ 10016ab0 f i reader_writer_lock.obj
 0001:00015b00       ??0scoped_lock_read@reader_writer_lock@interface5@tbb@@AAE@XZ 10016b00 f i reader_writer_lock.obj
 0001:00015b50       ??1scoped_lock@reader_writer_lock@interface5@tbb@@QAE@XZ 10016b50 f i reader_writer_lock.obj
 0001:00015ba0       ??1scoped_lock_read@reader_writer_lock@interface5@tbb@@QAE@XZ 10016ba0 f i reader_writer_lock.obj
 0001:00015bf0       ??2scoped_lock@reader_writer_lock@interface5@tbb@@SAPAXI@Z 10016bf0 f i reader_writer_lock.obj
 0001:00015c10       ??3scoped_lock@reader_writer_lock@interface5@tbb@@SAXPAX@Z 10016c10 f i reader_writer_lock.obj
 0001:00015c60       ??4?$atomic@PAVscoped_lock@reader_writer_lock@interface5@tbb@@@tbb@@QAEPAVscoped_lock@reader_writer_lock@interface5@1@PAV2341@@Z 10016c60 f i reader_writer_lock.obj
 0001:00015c90       ??4?$atomic@PAVscoped_lock_read@reader_writer_lock@interface5@tbb@@@tbb@@QAEPAVscoped_lock_read@reader_writer_lock@interface5@1@PAV2341@@Z 10016c90 f i reader_writer_lock.obj
 0001:00015cc0       ??4?$atomic@W4status_t@reader_writer_lock@interface5@tbb@@@tbb@@QAE?AW4status_t@reader_writer_lock@interface5@1@W42341@@Z 10016cc0 f i reader_writer_lock.obj
 0001:00015cf0       ??8internal@tbb@@YA_NVid@tbb_thread_v3@01@0@Z 10016cf0 f i reader_writer_lock.obj
 0001:00015d20       ??9internal@tbb@@YA_NVid@tbb_thread_v3@01@0@Z 10016d20 f i reader_writer_lock.obj
 0001:00015d50       ??B?$atomic_impl@PAVscoped_lock@reader_writer_lock@interface5@tbb@@@internal@tbb@@QDEPAVscoped_lock@reader_writer_lock@interface5@2@XZ 10016d50 f i reader_writer_lock.obj
 0001:00015d90       ??B?$atomic_impl@PAVscoped_lock_read@reader_writer_lock@interface5@tbb@@@internal@tbb@@QDEPAVscoped_lock_read@reader_writer_lock@interface5@2@XZ 10016d90 f i reader_writer_lock.obj
 0001:00015dd0       ??B?$atomic_impl@W4status_t@reader_writer_lock@interface5@tbb@@@internal@tbb@@QDE?AW4status_t@reader_writer_lock@interface5@2@XZ 10016dd0 f i reader_writer_lock.obj
 0001:00015e10       ??C?$atomic@PAVscoped_lock@reader_writer_lock@interface5@tbb@@@tbb@@QBEPAVscoped_lock@reader_writer_lock@interface5@1@XZ 10016e10 f i reader_writer_lock.obj
 0001:00015e40       ??Z?$atomic_impl_with_arithmetic@IID@internal@tbb@@QAEII@Z 10016e40 f i reader_writer_lock.obj
 0001:00015e70       ??_Gscoped_lock@reader_writer_lock@interface5@tbb@@QAEPAXI@Z 10016e70 f i reader_writer_lock.obj
 0001:00015ed0       ?compare_and_swap@?$atomic_impl@PAVscoped_lock@reader_writer_lock@interface5@tbb@@@internal@tbb@@QAEPAVscoped_lock@reader_writer_lock@interface5@3@PAV4563@0@Z 10016ed0 f i reader_writer_lock.obj
 0001:00015f00       ?fetch_and_and@interface5@tbb@@YAIAAU?$atomic@I@2@I@Z 10016f00 f i reader_writer_lock.obj
 0001:00015fa0       ?fetch_and_or@interface5@tbb@@YAIAAU?$atomic@I@2@I@Z 10016fa0 f i reader_writer_lock.obj
 0001:00016040       ?fetch_and_store@?$atomic_impl@PAVscoped_lock@reader_writer_lock@interface5@tbb@@@internal@tbb@@QAEPAVscoped_lock@reader_writer_lock@interface5@3@PAV4563@@Z 10017040 f i reader_writer_lock.obj
 0001:00016070       ?fetch_and_store@?$atomic_impl@PAVscoped_lock_read@reader_writer_lock@interface5@tbb@@@internal@tbb@@QAEPAVscoped_lock_read@reader_writer_lock@interface5@3@PAV4563@@Z 10017070 f i reader_writer_lock.obj
 0001:000160a0       ?fetch_and_store@?$atomic_traits@$03$0A@@internal@tbb@@SAHPCXH@Z 100170a0 f i reader_writer_lock.obj
 0001:000160c0       ?get_id@this_tbb_thread@tbb@@YA?AVid@tbb_thread_v3@internal@2@XZ 100170c0 f i reader_writer_lock.obj
 0001:000160e0       ?is_current_writer@reader_writer_lock@interface5@tbb@@AAE_NXZ 100170e0 f i reader_writer_lock.obj
 0001:00016130       ?store_with_release@?$atomic_impl@PAVscoped_lock@reader_writer_lock@interface5@tbb@@@internal@tbb@@IAEPAVscoped_lock@reader_writer_lock@interface5@3@PAV4563@@Z 10017130 f i reader_writer_lock.obj
 0001:00016180       ?store_with_release@?$atomic_impl@PAVscoped_lock_read@reader_writer_lock@interface5@tbb@@@internal@tbb@@IAEPAVscoped_lock_read@reader_writer_lock@interface5@3@PAV4563@@Z 10017180 f i reader_writer_lock.obj
 0001:000161d0       ?store_with_release@?$atomic_impl@W4status_t@reader_writer_lock@interface5@tbb@@@internal@tbb@@IAE?AW4status_t@reader_writer_lock@interface5@3@W44563@@Z 100171d0 f i reader_writer_lock.obj
 0001:000162b0       ?internal_acquire_writer@spin_rw_mutex_v3@tbb@@AAE_NXZ 100172b0 f   spin_rw_mutex.obj
 0001:000163b0       ?internal_release_writer@spin_rw_mutex_v3@tbb@@AAEXXZ 100173b0 f   spin_rw_mutex.obj
 0001:00016400       ?internal_acquire_reader@spin_rw_mutex_v3@tbb@@AAEXXZ 10017400 f   spin_rw_mutex.obj
 0001:00016510       ?internal_upgrade@spin_rw_mutex_v3@tbb@@AAE_NXZ 10017510 f   spin_rw_mutex.obj
 0001:00016690       ?internal_downgrade@spin_rw_mutex_v3@tbb@@AAEXXZ 10017690 f   spin_rw_mutex.obj
 0001:00016710       ?internal_release_reader@spin_rw_mutex_v3@tbb@@AAEXXZ 10017710 f   spin_rw_mutex.obj
 0001:00016790       ?internal_try_acquire_writer@spin_rw_mutex_v3@tbb@@AAE_NXZ 10017790 f   spin_rw_mutex.obj
 0001:00016810       ?internal_try_acquire_reader@spin_rw_mutex_v3@tbb@@AAE_NXZ 10017810 f   spin_rw_mutex.obj
 0001:000168a0       ?internal_construct@spin_rw_mutex_v3@tbb@@AAEXXZ 100178a0 f   spin_rw_mutex.obj
 0001:00016920       ??$as_atomic@$$CCH@internal@tbb@@YAAAU?$atomic@$$CCH@1@ACH@Z 10017920 f i spin_rw_mutex.obj
 0001:00016930       ??$compare_and_swap@$0A@@?$atomic_impl@$$CCH@internal@tbb@@QAE?CHHH@Z 10017930 f i spin_rw_mutex.obj
 0001:00016980       ??$to_bits@H@?$atomic_impl@$$CCH@internal@tbb@@CAHH@Z 10017980 f i spin_rw_mutex.obj
 0001:000169b0       ??$to_value@$$CCH@?$atomic_impl@$$CCH@internal@tbb@@CA?CHH@Z 100179b0 f i spin_rw_mutex.obj
 0001:00016a20       ??0?$converter@$$CCH@?$atomic_impl@$$CCH@internal@tbb@@QAE@XZ 10017a20 f i spin_rw_mutex.obj
 0001:00016a40       ??0?$converter@H@?$atomic_impl@$$CCH@internal@tbb@@QAE@H@Z 10017a40 f i spin_rw_mutex.obj
 0001:00016a60       ?compare_and_swap@?$atomic_impl@$$CCH@internal@tbb@@QAE?CHHH@Z 10017a60 f i spin_rw_mutex.obj
 0001:00016a90       ?reset@atomic_backoff@internal@tbb@@QAEXXZ 10017a90 f i spin_rw_mutex.obj
 0001:00016ad0       ?internal_construct@x86_rtm_rw_mutex@internal@interface8@tbb@@AAEXXZ 10017ad0 f   x86_rtm_rw_mutex.obj
 0001:00016b20       ?internal_acquire_writer@x86_rtm_rw_mutex@internal@interface8@tbb@@AAEXAAVscoped_lock@1234@_N@Z 10017b20 f   x86_rtm_rw_mutex.obj
 0001:00016c90       ?internal_acquire_reader@x86_rtm_rw_mutex@internal@interface8@tbb@@AAEXAAVscoped_lock@1234@_N@Z 10017c90 f   x86_rtm_rw_mutex.obj
 0001:00016df0       ?internal_upgrade@x86_rtm_rw_mutex@internal@interface8@tbb@@AAE_NAAVscoped_lock@1234@@Z 10017df0 f   x86_rtm_rw_mutex.obj
 0001:00016ef0       ?internal_downgrade@x86_rtm_rw_mutex@internal@interface8@tbb@@AAE_NAAVscoped_lock@1234@@Z 10017ef0 f   x86_rtm_rw_mutex.obj
 0001:00016fc0       ?internal_try_acquire_writer@x86_rtm_rw_mutex@internal@interface8@tbb@@AAE_NAAVscoped_lock@1234@@Z 10017fc0 f   x86_rtm_rw_mutex.obj
 0001:00017090       ?internal_release@x86_rtm_rw_mutex@internal@interface8@tbb@@AAEXAAVscoped_lock@1234@@Z 10018090 f   x86_rtm_rw_mutex.obj
 0001:000171f0       ?acquire@scoped_lock@spin_rw_mutex_v3@tbb@@QAEXAAV23@_N@Z 100181f0 f i x86_rtm_rw_mutex.obj
 0001:00017260       ?downgrade_to_reader@scoped_lock@spin_rw_mutex_v3@tbb@@QAE_NXZ 10018260 f i x86_rtm_rw_mutex.obj
 0001:000172e0       ?internal_set_mutex@scoped_lock@spin_rw_mutex_v3@tbb@@AAEXPAV23@@Z 100182e0 f i x86_rtm_rw_mutex.obj
 0001:00017300       ?release@scoped_lock@spin_rw_mutex_v3@tbb@@QAEXXZ 10018300 f i x86_rtm_rw_mutex.obj
 0001:00017380       ?speculation_enabled@governor@internal@tbb@@SA_NXZ 10018380 f i x86_rtm_rw_mutex.obj
 0001:00017390       ?try_acquire@scoped_lock@spin_rw_mutex_v3@tbb@@QAE_NAAV23@_N@Z 10018390 f i x86_rtm_rw_mutex.obj
 0001:00017420       ?upgrade_to_writer@scoped_lock@spin_rw_mutex_v3@tbb@@QAE_NXZ 10018420 f i x86_rtm_rw_mutex.obj
 0001:000174e0       ?internal_acquire@scoped_lock@spin_mutex@tbb@@AAEXAAV23@@Z 100184e0 f   spin_mutex.obj
 0001:00017580       ?internal_try_acquire@scoped_lock@spin_mutex@tbb@@AAE_NAAV23@@Z 10018580 f   spin_mutex.obj
 0001:00017610       ?internal_release@scoped_lock@spin_mutex@tbb@@AAEXXZ 10018610 f   spin_mutex.obj
 0001:00017690       ?internal_construct@spin_mutex@tbb@@QAEXXZ 10018690 f   spin_mutex.obj
 0001:000176e0       ?__TBB_LockByte@@YAEAAE@Z  100186e0 f i spin_mutex.obj
 0001:00017760       ?__TBB_TryLockByte@@YA_NAAE@Z 10018760 f i spin_mutex.obj
 0001:000177b0       ?internal_construct@critical_section_v4@internal@tbb@@QAEXXZ 100187b0 f   critical_section.obj
 0001:00017800       ?internal_acquire@scoped_lock@mutex@tbb@@AAEXAAV23@@Z 10018800 f   mutex.obj
 0001:000178e0       ?internal_try_acquire@scoped_lock@mutex@tbb@@AAE_NAAV23@@Z 100188e0 f   mutex.obj
 0001:000179f0       ?internal_release@scoped_lock@mutex@tbb@@AAEXXZ 100189f0 f   mutex.obj
 0001:00017af0       ?internal_construct@mutex@tbb@@AAEXXZ 10018af0 f   mutex.obj
 0001:00017b60       ?internal_destroy@mutex@tbb@@AAEXXZ 10018b60 f   mutex.obj
 0001:00017c10       ?inlineInitializeCriticalSectionEx@@YGHPAU_RTL_CRITICAL_SECTION@@KK@Z 10018c10 f i mutex.obj
 0001:00017c40       ?internal_acquire@scoped_lock@recursive_mutex@tbb@@AAEXAAV23@@Z 10018c40 f   recursive_mutex.obj
 0001:00017cf0       ?internal_try_acquire@scoped_lock@recursive_mutex@tbb@@AAE_NAAV23@@Z 10018cf0 f   recursive_mutex.obj
 0001:00017dc0       ?internal_release@scoped_lock@recursive_mutex@tbb@@AAEXXZ 10018dc0 f   recursive_mutex.obj
 0001:00017e90       ?internal_construct@recursive_mutex@tbb@@AAEXXZ 10018e90 f   recursive_mutex.obj
 0001:00017f00       ?internal_destroy@recursive_mutex@tbb@@AAEXXZ 10018f00 f   recursive_mutex.obj
 0001:00017ff0       ?internal_initialize_condition_variable@internal@interface5@tbb@@YAXAATcondvar_impl_t@123@@Z 10018ff0 f   condition_variable.obj
 0001:00018040       ?internal_destroy_condition_variable@internal@interface5@tbb@@YAXAATcondvar_impl_t@123@@Z 10019040 f   condition_variable.obj
 0001:00018070       ?internal_condition_variable_notify_one@internal@interface5@tbb@@YAXAATcondvar_impl_t@123@@Z 10019070 f   condition_variable.obj
 0001:000180a0       ?internal_condition_variable_notify_all@internal@interface5@tbb@@YAXAATcondvar_impl_t@123@@Z 100190a0 f   condition_variable.obj
 0001:000180d0       ?internal_condition_variable_wait@internal@interface5@tbb@@YA_NAATcondvar_impl_t@123@PAVmutex@3@PBVinterval_t@tick_count@3@@Z 100190d0 f   condition_variable.obj
 0001:00018190       ?init_condvar_using_event@internal@tbb@@YGXPAUcondition_variable_using_event@1interface5@2@@Z 10019190 f   condition_variable.obj
 0001:000181f0       ?sleep_condition_variable_cs_using_event@internal@tbb@@YGHPAUcondition_variable_using_event@1interface5@2@PAU_RTL_CRITICAL_SECTION@@K@Z 100191f0 f   condition_variable.obj
 0001:000183f0       ?wake_condition_variable_using_event@internal@tbb@@YGXPAUcondition_variable_using_event@1interface5@2@@Z 100193f0 f   condition_variable.obj
 0001:00018470       ?wake_all_condition_variable_using_event@internal@tbb@@YGXPAUcondition_variable_using_event@1interface5@2@@Z 10019470 f   condition_variable.obj
 0001:000184f0       ?destroy_condvar_using_event@internal@tbb@@YGXPAUcondition_variable_using_event@1interface5@2@@Z 100194f0 f   condition_variable.obj
 0001:000185b0       ?destroy_condvar_noop@internal@tbb@@YGXPAU_RTL_CONDITION_VARIABLE@@@Z 100195b0 f   condition_variable.obj
 0001:000185c0       ?init_condvar_module@internal@tbb@@YAXXZ 100195c0 f   condition_variable.obj
 0001:00018620       ??$spin_wait_until_eq@HH@internal@tbb@@YAXADHH@Z 10019620 f i condition_variable.obj
 0001:000186a0       ?inlineCreateEventEx@@YGPAXPAU_SECURITY_ATTRIBUTES@@PBDKK@Z 100196a0 f i condition_variable.obj
 0001:00018730       ?native_handle@mutex@tbb@@QAEPAU_RTL_CRITICAL_SECTION@@XZ 10019730 f i condition_variable.obj
 0001:00018750       ?resolution@tick_count@tbb@@SANXZ 10019750 f i condition_variable.obj
 0001:000187a0       ?seconds@interval_t@tick_count@tbb@@QBENXZ 100197a0 f i condition_variable.obj
 0001:00018800       ?set_state@mutex@tbb@@QAEXW4state_t@12@@Z 10019800 f i condition_variable.obj
 0001:00018820       ?ticks_per_second@interval_t@tick_count@tbb@@CA_JXZ 10019820 f i condition_variable.obj
 0001:000188c0       ?allocate_closure_v3@internal@tbb@@YAPAXI@Z 100198c0 f   tbb_thread.obj
 0001:000188e0       ?free_closure_v3@internal@tbb@@YAXPAX@Z 100198e0 f   tbb_thread.obj
 0001:00018900       ?join@tbb_thread_v3@internal@tbb@@QAEXXZ 10019900 f   tbb_thread.obj
 0001:00018a10       ?detach@tbb_thread_v3@internal@tbb@@QAEXXZ 10019a10 f   tbb_thread.obj
 0001:00018aa0       ?hardware_concurrency@tbb_thread_v3@internal@tbb@@SAIXZ 10019aa0 f   tbb_thread.obj
 0001:00018ae0       ?internal_start@tbb_thread_v3@internal@tbb@@AAEXP6GIPAX@Z0@Z 10019ae0 f   tbb_thread.obj
 0001:00018ba0       ?move_v3@internal@tbb@@YAXAAVtbb_thread_v3@12@0@Z 10019ba0 f   tbb_thread.obj
 0001:00018bf0       ?thread_get_id_v3@internal@tbb@@YA?AVid@tbb_thread_v3@12@XZ 10019bf0 f   tbb_thread.obj
 0001:00018c20       ?thread_yield_v3@internal@tbb@@YAXXZ 10019c20 f   tbb_thread.obj
 0001:00018c40       ?thread_sleep_v3@internal@tbb@@YAXABVinterval_t@tick_count@2@@Z 10019c40 f   tbb_thread.obj
 0001:00018d60       ??0id@tbb_thread_v3@internal@tbb@@AAE@K@Z 10019d60 f i tbb_thread.obj
 0001:00018d80       ??0interval_t@tick_count@tbb@@AAE@_J@Z 10019d80 f i tbb_thread.obj
 0001:00018db0       ??0tick_count@tbb@@QAE@XZ  10019db0 f i tbb_thread.obj
 0001:00018de0       ??Gtbb@@YA?AVinterval_t@tick_count@0@ABV120@0@Z 10019de0 f i tbb_thread.obj
 0001:00018e10       ??Gtbb@@YA?AVinterval_t@tick_count@0@ABV20@0@Z 10019e10 f i tbb_thread.obj
 0001:00018e40       ?active_value@global_control@interface9@tbb@@SAIW4parameter@123@@Z 10019e40 f i tbb_thread.obj
 0001:00018e80       ?default_num_threads@governor@internal@tbb@@SAIXZ 10019e80 f i tbb_thread.obj
 0001:00018ed0       ?get_id@tbb_thread_v3@internal@tbb@@QBE?AVid@123@XZ 10019ed0 f i tbb_thread.obj
 0001:00018f30       ?joinable@tbb_thread_v3@internal@tbb@@QBE_NXZ 10019f30 f i tbb_thread.obj
 0001:00018f70       ?now@tick_count@tbb@@SA?AV12@XZ 10019f70 f i tbb_thread.obj
 0001:00019050       ?init@thread_context@concurrent_monitor@internal@tbb@@AAEXXZ 1001a050 f   concurrent_monitor.obj
 0001:000190a0       ??1concurrent_monitor@internal@tbb@@QAE@XZ 1001a0a0 f   concurrent_monitor.obj
 0001:00019130       ?prepare_wait@concurrent_monitor@internal@tbb@@QAEXAAVthread_context@123@I@Z 1001a130 f   concurrent_monitor.obj
 0001:00019260       ?cancel_wait@concurrent_monitor@internal@tbb@@QAEXAAVthread_context@123@@Z 1001a260 f   concurrent_monitor.obj
 0001:00019360       ?notify_one_relaxed@concurrent_monitor@internal@tbb@@QAEXXZ 1001a360 f   concurrent_monitor.obj
 0001:000194b0       ?notify_all_relaxed@concurrent_monitor@internal@tbb@@QAEXXZ 1001a4b0 f   concurrent_monitor.obj
 0001:00019650       ?abort_all_relaxed@concurrent_monitor@internal@tbb@@QAEXXZ 1001a650 f   concurrent_monitor.obj
 0001:00019800       ??0binary_semaphore@internal@tbb@@QAE@XZ 1001a800 f i concurrent_monitor.obj
 0001:00019840       ?flush_to@circular_doubly_linked_list_with_sentinel@internal@tbb@@QAEXAAV123@@Z 1001a840 f i concurrent_monitor.obj
 0001:00019910       ?join@thread_monitor@internal@rml@@SAXPAX@Z 1001a910 f   private_server.obj
 0001:000199b0       ?detach_thread@thread_monitor@internal@rml@@SAXPAX@Z 1001a9b0 f   private_server.obj
 0001:00019a10       ?run@private_worker@rml@internal@tbb@@AAEXXZ 1001aa10 f   private_server.obj
 0001:00019b70       ?start_shutdown@private_worker@rml@internal@tbb@@AAEXXZ 1001ab70 f   private_server.obj
 0001:00019c30       ?thread_routine@private_worker@rml@internal@tbb@@CGIPAX@Z 1001ac30 f   private_server.obj
 0001:00019d30       ?release_handle@private_worker@rml@internal@tbb@@CAXPAX_N@Z 1001ad30 f   private_server.obj
 0001:00019d60       ?wake_some@private_server@rml@internal@tbb@@AAEXH@Z 1001ad60 f   private_server.obj
 0001:00019f30       ??1private_server@rml@internal@tbb@@EAE@XZ 1001af30 f   private_server.obj
 0001:0001a020       ??0private_server@rml@internal@tbb@@QAE@AAVtbb_client@123@@Z 1001b020 f   private_server.obj
 0001:0001a1a0       ?adjust_job_count_estimate@private_server@rml@internal@tbb@@UAEXH@Z 1001b1a0 f   private_server.obj
 0001:0001a200       ?make_private_server@rml@internal@tbb@@YAPAVtbb_server@123@AAVtbb_client@123@@Z 1001b200 f   private_server.obj
 0001:0001a250       ??$compare_and_swap@$0A@@?$atomic_impl@H@internal@tbb@@QAEHHH@Z 1001b250 f i private_server.obj
 0001:0001a2a0       ??$compare_and_swap@$0A@@?$atomic_impl@W4state_t@private_worker@rml@internal@tbb@@@internal@tbb@@QAE?AW4state_t@private_worker@rml@12@W434512@0@Z 1001b2a0 f i private_server.obj
 0001:0001a2f0       ??$fetch_and_add@$0A@@?$atomic_impl_with_arithmetic@HHD@internal@tbb@@QAEHH@Z 1001b2f0 f i private_server.obj
 0001:0001a320       ??$fetch_and_store@$0A@@?$atomic_impl@_N@internal@tbb@@QAE_N_N@Z 1001b320 f i private_server.obj
 0001:0001a370       ??$poison_pointer@Vpadded_private_worker@rml@internal@tbb@@@internal@tbb@@YAXAAPAVpadded_private_worker@rml@01@@Z 1001b370 f i private_server.obj
 0001:0001a380       ??$suppress_unused_warning@$$BY0FM@D@internal@tbb@@YAXAAY0FM@$$CBD@Z 1001b380 f i private_server.obj
 0001:0001a390       ??$to_bits@H@?$atomic_impl@H@internal@tbb@@CAHH@Z 1001b390 f i private_server.obj
 0001:0001a3c0       ??$to_bits@PAVprivate_worker@rml@internal@tbb@@@?$atomic_impl@PAVprivate_worker@rml@internal@tbb@@@internal@tbb@@CAHPAVprivate_worker@rml@12@@Z 1001b3c0 f i private_server.obj
 0001:0001a3f0       ??$to_bits@W4state_t@private_worker@rml@internal@tbb@@@?$atomic_impl@W4state_t@private_worker@rml@internal@tbb@@@internal@tbb@@CAHW4state_t@private_worker@rml@12@@Z 1001b3f0 f i private_server.obj
 0001:0001a420       ??$to_bits_ref@$$CDH@?$atomic_impl@H@internal@tbb@@CAAAHADH@Z 1001b420 f i private_server.obj
 0001:0001a450       ??$to_bits_ref@$$CDW4state_t@private_worker@rml@internal@tbb@@@?$atomic_impl@W4state_t@private_worker@rml@internal@tbb@@@internal@tbb@@CAAAHADW4state_t@private_worker@rml@12@@Z 1001b450 f i private_server.obj
 0001:0001a480       ??$to_bits_ref@H@?$atomic_impl@H@internal@tbb@@CAAAHAAH@Z 1001b480 f i private_server.obj
 0001:0001a4b0       ??$to_bits_ref@PAVprivate_worker@rml@internal@tbb@@@?$atomic_impl@PAVprivate_worker@rml@internal@tbb@@@internal@tbb@@CAAAHAAPAVprivate_worker@rml@12@@Z 1001b4b0 f i private_server.obj
 0001:0001a4e0       ??$to_bits_ref@SAVprivate_worker@rml@internal@tbb@@@?$atomic_impl@PAVprivate_worker@rml@internal@tbb@@@internal@tbb@@CAAAHADSAVprivate_worker@rml@12@@Z 1001b4e0 f i private_server.obj
 0001:0001a510       ??$to_bits_ref@W4state_t@private_worker@rml@internal@tbb@@@?$atomic_impl@W4state_t@private_worker@rml@internal@tbb@@@internal@tbb@@CAAAHAAW4state_t@private_worker@rml@12@@Z 1001b510 f i private_server.obj
 0001:0001a540       ??$to_value@H@?$atomic_impl@H@internal@tbb@@CAHH@Z 1001b540 f i private_server.obj
 0001:0001a5b0       ??$to_value@PAVprivate_worker@rml@internal@tbb@@@?$atomic_impl@PAVprivate_worker@rml@internal@tbb@@@internal@tbb@@CAPAVprivate_worker@rml@12@H@Z 1001b5b0 f i private_server.obj
 0001:0001a620       ??$to_value@W4state_t@private_worker@rml@internal@tbb@@@?$atomic_impl@W4state_t@private_worker@rml@internal@tbb@@@internal@tbb@@CA?AW4state_t@private_worker@rml@12@H@Z 1001b620 f i private_server.obj
 0001:0001a690       ??0?$cache_aligned_allocator@Vpadded_private_worker@rml@internal@tbb@@@tbb@@QAE@XZ 1001b690 f i private_server.obj
 0001:0001a6b0       ??0?$cache_aligned_allocator@Vprivate_server@rml@internal@tbb@@@tbb@@QAE@XZ 1001b6b0 f i private_server.obj
 0001:0001a6d0       ??0?$converter@H@?$atomic_impl@H@internal@tbb@@QAE@H@Z 1001b6d0 f i private_server.obj
 0001:0001a6f0       ??0?$converter@H@?$atomic_impl@H@internal@tbb@@QAE@XZ 1001b6f0 f i private_server.obj
 0001:0001a710       ??0?$converter@PAVprivate_worker@rml@internal@tbb@@@?$atomic_impl@PAVprivate_worker@rml@internal@tbb@@@internal@tbb@@QAE@PAVprivate_worker@rml@23@@Z 1001b710 f i private_server.obj
 0001:0001a730       ??0?$converter@PAVprivate_worker@rml@internal@tbb@@@?$atomic_impl@PAVprivate_worker@rml@internal@tbb@@@internal@tbb@@QAE@XZ 1001b730 f i private_server.obj
 0001:0001a750       ??0?$converter@W4state_t@private_worker@rml@internal@tbb@@@?$atomic_impl@W4state_t@private_worker@rml@internal@tbb@@@internal@tbb@@QAE@W4state_t@private_worker@rml@23@@Z 1001b750 f i private_server.obj
 0001:0001a770       ??0?$converter@W4state_t@private_worker@rml@internal@tbb@@@?$atomic_impl@W4state_t@private_worker@rml@internal@tbb@@@internal@tbb@@QAE@XZ 1001b770 f i private_server.obj
 0001:0001a790       ??0?$ptr_converter@PAH@?$atomic_impl@H@internal@tbb@@QAE@PAH@Z 1001b790 f i private_server.obj
 0001:0001a7b0       ??0?$ptr_converter@PAPAVprivate_worker@rml@internal@tbb@@@?$atomic_impl@PAVprivate_worker@rml@internal@tbb@@@internal@tbb@@QAE@PAPAVprivate_worker@rml@23@@Z 1001b7b0 f i private_server.obj
 0001:0001a7d0       ??0?$ptr_converter@PAW4state_t@private_worker@rml@internal@tbb@@@?$atomic_impl@W4state_t@private_worker@rml@internal@tbb@@@internal@tbb@@QAE@PAW4state_t@private_worker@rml@23@@Z 1001b7d0 f i private_server.obj
 0001:0001a7f0       ??0?$ptr_converter@PDH@?$atomic_impl@H@internal@tbb@@QAE@PDH@Z 1001b7f0 f i private_server.obj
 0001:0001a810       ??0?$ptr_converter@PDSAVprivate_worker@rml@internal@tbb@@@?$atomic_impl@PAVprivate_worker@rml@internal@tbb@@@internal@tbb@@QAE@PDSAVprivate_worker@rml@23@@Z 1001b810 f i private_server.obj
 0001:0001a830       ??0?$ptr_converter@PDW4state_t@private_worker@rml@internal@tbb@@@?$atomic_impl@W4state_t@private_worker@rml@internal@tbb@@@internal@tbb@@QAE@PDW4state_t@private_worker@rml@23@@Z 1001b830 f i private_server.obj
 0001:0001a850       ??0padded_private_worker@rml@internal@tbb@@QAE@AAVprivate_server@123@AAVtbb_client@123@I@Z 1001b850 f i private_server.obj
 0001:0001a8d0       ??0private_worker@rml@internal@tbb@@IAE@AAVprivate_server@123@AAVtbb_client@123@I@Z 1001b8d0 f i private_server.obj
 0001:0001a980       ??0scoped_lock@spin_mutex@tbb@@QAE@XZ 1001b980 f i private_server.obj
 0001:0001a9c0       ??0server@rml@@QAE@XZ      1001b9c0 f i private_server.obj
 0001:0001a9f0       ??0tbb_server@rml@internal@tbb@@QAE@XZ 1001b9f0 f i private_server.obj
 0001:0001aa20       ??0thread_monitor@internal@rml@@QAE@XZ 1001ba20 f i private_server.obj
 0001:0001aae0       ??0versioned_object@rml@@QAE@XZ 1001bae0 f i private_server.obj
 0001:0001ab00       ??1padded_private_worker@rml@internal@tbb@@QAE@XZ 1001bb00 f i private_server.obj
 0001:0001ab30       ??1private_worker@rml@internal@tbb@@QAE@XZ 1001bb30 f i private_server.obj
 0001:0001ab60       ??1thread_monitor@internal@rml@@QAE@XZ 1001bb60 f i private_server.obj
 0001:0001ab90       ??4?$atomic@H@tbb@@QAEHH@Z 1001bb90 f i private_server.obj
 0001:0001abc0       ??4?$atomic@PAVprivate_worker@rml@internal@tbb@@@tbb@@QAEPAVprivate_worker@rml@internal@1@PAV2341@@Z 1001bbc0 f i private_server.obj
 0001:0001abf0       ??4?$atomic@W4state_t@private_worker@rml@internal@tbb@@@tbb@@QAE?AW4state_t@private_worker@rml@internal@1@W423451@@Z 1001bbf0 f i private_server.obj
 0001:0001ac20       ??4cookie@thread_monitor@internal@rml@@QAEAAV0123@ABV0123@@Z 1001bc20 f i private_server.obj
 0001:0001ac50       ??B?$atomic_impl@H@internal@tbb@@QDEHXZ 1001bc50 f i private_server.obj
 0001:0001ac90       ??B?$atomic_impl@PAVprivate_worker@rml@internal@tbb@@@internal@tbb@@QDEPAVprivate_worker@rml@12@XZ 1001bc90 f i private_server.obj
 0001:0001acd0       ??B?$atomic_impl@W4state_t@private_worker@rml@internal@tbb@@@internal@tbb@@QDE?AW4state_t@private_worker@rml@12@XZ 1001bcd0 f i private_server.obj
 0001:0001ad10       ??E?$atomic_impl_with_arithmetic@HHD@internal@tbb@@QAEHXZ 1001bd10 f i private_server.obj
 0001:0001ad40       ??F?$atomic_impl_with_arithmetic@HHD@internal@tbb@@QAEHXZ 1001bd40 f i private_server.obj
 0001:0001ad70       ??Y?$atomic_impl_with_arithmetic@HHD@internal@tbb@@QAEHH@Z 1001bd70 f i private_server.obj
 0001:0001ada0       ??_Gpadded_private_worker@rml@internal@tbb@@QAEPAXI@Z 1001bda0 f i private_server.obj
 0001:0001adf0       ??_Gprivate_server@rml@internal@tbb@@EAEPAXI@Z 1001bdf0 f i private_server.obj
 0001:0001adf0       ??_Eprivate_server@rml@internal@tbb@@EAEPAXI@Z 1001bdf0 f i private_server.obj
 0001:0001ae30       ?allocate@?$cache_aligned_allocator@Vpadded_private_worker@rml@internal@tbb@@@tbb@@QAEPAVpadded_private_worker@rml@internal@2@IPBX@Z 1001be30 f i private_server.obj
 0001:0001ae70       ?allocate@?$cache_aligned_allocator@Vprivate_server@rml@internal@tbb@@@tbb@@QAEPAVprivate_server@rml@internal@2@IPBX@Z 1001be70 f i private_server.obj
 0001:0001aea0       ?cancel_wait@thread_monitor@internal@rml@@QAEXXZ 1001bea0 f i private_server.obj
 0001:0001af00       ?commit_wait@thread_monitor@internal@rml@@QAEXAAVcookie@123@@Z 1001bf00 f i private_server.obj
 0001:0001af80       ?compare_and_swap@?$atomic_impl@H@internal@tbb@@QAEHHH@Z 1001bf80 f i private_server.obj
 0001:0001afb0       ?compare_and_swap@?$atomic_impl@W4state_t@private_worker@rml@internal@tbb@@@internal@tbb@@QAE?AW4state_t@private_worker@rml@23@W445623@0@Z 1001bfb0 f i private_server.obj
 0001:0001afe0       ?deallocate@?$cache_aligned_allocator@Vpadded_private_worker@rml@internal@tbb@@@tbb@@QAEXPAVpadded_private_worker@rml@internal@2@I@Z 1001bfe0 f i private_server.obj
 0001:0001b010       ?deallocate@?$cache_aligned_allocator@Vprivate_server@rml@internal@tbb@@@tbb@@QAEXPAVprivate_server@rml@internal@2@I@Z 1001c010 f i private_server.obj
 0001:0001b040       ?default_concurrency@private_server@rml@internal@tbb@@UBEIXZ 1001c040 f i private_server.obj
 0001:0001b070       ?fetch_and_add@?$atomic_impl_with_arithmetic@HHD@internal@tbb@@QAEHH@Z 1001c070 f i private_server.obj
 0001:0001b0a0       ?fetch_and_store@?$atomic_impl@_N@internal@tbb@@QAE_N_N@Z 1001c0a0 f i private_server.obj
 0001:0001b0d0       ?fetch_and_store@?$atomic_traits@$00$0A@@internal@tbb@@SACPCXC@Z 1001c0d0 f i private_server.obj
 0001:0001b0f0       ?independent_thread_number_changed@private_server@rml@internal@tbb@@UAEXH@Z 1001c0f0 f i private_server.obj
 0001:0001b130       ?launch@thread_monitor@internal@rml@@SAPAXP6GIPAX@Z0IPBI@Z 1001c130 f i private_server.obj
 0001:0001b250       ?notify@thread_monitor@internal@rml@@QAEXXZ 1001c250 f i private_server.obj
 0001:0001b2b0       ?prepare_wait@thread_monitor@internal@rml@@QAEXAAVcookie@123@@Z 1001c2b0 f i private_server.obj
 0001:0001b310       ?propagate_chain_reaction@private_server@rml@internal@tbb@@AAEXXZ 1001c310 f i private_server.obj
 0001:0001b350       ?register_master@private_server@rml@internal@tbb@@UAEXAAPAX@Z 1001c350 f i private_server.obj
 0001:0001b370       ?remove_server_ref@private_server@rml@internal@tbb@@AAEXXZ 1001c370 f i private_server.obj
 0001:0001b3f0       ?request_close_connection@private_server@rml@internal@tbb@@UAEX_N@Z 1001c3f0 f i private_server.obj
 0001:0001b450       ?store_with_release@?$atomic_impl@H@internal@tbb@@IAEHH@Z 1001c450 f i private_server.obj
 0001:0001b4a0       ?store_with_release@?$atomic_impl@PAVprivate_worker@rml@internal@tbb@@@internal@tbb@@IAEPAVprivate_worker@rml@23@PAV4523@@Z 1001c4a0 f i private_server.obj
 0001:0001b4f0       ?store_with_release@?$atomic_impl@W4state_t@private_worker@rml@internal@tbb@@@internal@tbb@@IAE?AW4state_t@private_worker@rml@23@W445623@@Z 1001c4f0 f i private_server.obj
 0001:0001b540       ?try_acquire@scoped_lock@spin_mutex@tbb@@QAE_NAAV23@@Z 1001c540 f i private_server.obj
 0001:0001b570       ?try_insert_in_asleep_list@private_server@rml@internal@tbb@@AAE_NAAVprivate_worker@234@@Z 1001c570 f i private_server.obj
 0001:0001b6c0       ?unregister_master@private_server@rml@internal@tbb@@UAEXPAX@Z 1001c6c0 f i private_server.obj
 0001:0001b6e0       ?version@private_server@rml@internal@tbb@@UBEIXZ 1001c6e0 f i private_server.obj
 0001:0001b700       ?wake_or_launch@private_worker@rml@internal@tbb@@AAEXXZ 1001c700 f i private_server.obj
 0001:0001b7e0       ?yield@private_server@rml@internal@tbb@@UAEXXZ 1001c7e0 f i private_server.obj
 0001:0001b810       ___local_stdio_printf_options 1001c810 f i private_server.obj
 0001:0001b820       __vfprintf_l               1001c820 f i private_server.obj
 0001:0001b850       _fprintf                   1001c850 f i private_server.obj
 0001:0001b8b0       ?open@tbb_factory@rml@internal@tbb@@QAE?AW4status_type@factory@2@XZ 1001c8b0 f   rml_tbb.obj
 0001:0001ba20       ?make_server@tbb_factory@rml@internal@tbb@@QAE?AW4status_type@factory@2@AAPAVtbb_server@234@AAVtbb_client@234@@Z 1001ca20 f   rml_tbb.obj
 0001:0001ba90       ?close@tbb_factory@rml@internal@tbb@@QAEXXZ 1001ca90 f   rml_tbb.obj
 0001:0001bb00       ?call_with_server_info@tbb_factory@rml@internal@tbb@@QBEXP6AXPAXPBD@Z0@Z 1001cb00 f   rml_tbb.obj
 0001:0001bb60       ?set_assertion_handler@tbb@@YAP6AXPBDH00@ZP6AX0H00@Z@Z 1001cb60 f   tbb_misc.obj
 0001:0001bb90       ?assertion_failure@tbb@@YAXPBDH00@Z 1001cb90 f   tbb_misc.obj
 0001:0001bc90       _TBB_runtime_interface_version 1001cc90 f   tbb_misc.obj
 0001:0001bca0       ?handle_perror@internal@tbb@@YAXHPBD@Z 1001cca0 f   tbb_misc.obj
 0001:0001bdc0       ?runtime_warning@internal@tbb@@YAXPBDZZ 1001cdc0 f   tbb_misc.obj
 0001:0001bea0       ?what@bad_last_alloc@tbb@@UBEPBDXZ 1001cea0 f   tbb_misc.obj
 0001:0001bec0       ?what@improper_lock@tbb@@UBEPBDXZ 1001cec0 f   tbb_misc.obj
 0001:0001bee0       ?what@user_abort@tbb@@UBEPBDXZ 1001cee0 f   tbb_misc.obj
 0001:0001bf00       ?what@missing_wait@tbb@@UBEPBDXZ 1001cf00 f   tbb_misc.obj
 0001:0001bf20       ?what@invalid_multiple_scheduling@tbb@@UBEPBDXZ 1001cf20 f   tbb_misc.obj
 0001:0001bf40       ?throw_bad_last_alloc_exception_v4@internal@tbb@@YAXXZ 1001cf40 f   tbb_misc.obj
 0001:0001bf60       ?throw_exception_v4@internal@tbb@@YAXW4exception_id@12@@Z 1001cf60 f   tbb_misc.obj
 0001:0001c2f0       ?handle_win_error@internal@tbb@@YAXH@Z 1001d2f0 f   tbb_misc.obj
 0001:0001c3b0       ?GetBoolEnvironmentVariable@internal@tbb@@YA_NPBD@Z 1001d3b0 f   tbb_misc.obj
 0001:0001c420       ?PrintVersion@internal@tbb@@YAXXZ 1001d420 f   tbb_misc.obj
 0001:0001c450       ?PrintExtraVersionInfo@internal@tbb@@YAXPBD0ZZ 1001d450 f   tbb_misc.obj
 0001:0001c540       ?PrintRMLVersionInfo@internal@tbb@@YAXPAXPBD@Z 1001d540 f   tbb_misc.obj
 0001:0001c560       ?cpu_has_speculation@internal@tbb@@YA_NXZ 1001d560 f   tbb_misc.obj
 0001:0001c640       ?gcc_rethrow_exception_broken@internal@tbb@@YA_NXZ 1001d640 f   tbb_misc.obj
 0001:0001c650       ?fix_broken_rethrow@internal@tbb@@YAXXZ 1001d650 f   tbb_misc.obj
 0001:0001c660       ___TBB_machine_store8_slow_perf_warning 1001d660 f   tbb_misc.obj
 0001:0001c700       ___TBB_machine_store8_slow 1001d700 f   tbb_misc.obj
 0001:0001c7b0       ??$to_bits_ref@SAX@?$atomic_impl@PAX@internal@tbb@@CAAAHADSAX@Z 1001d7b0 f i tbb_misc.obj
 0001:0001c7e0       ??0?$ptr_converter@PDSAX@?$atomic_impl@PAX@internal@tbb@@QAE@PDSAX@Z 1001d7e0 f i tbb_misc.obj
 0001:0001c800       ??0bad_alloc@std@@QAE@ABV01@@Z 1001d800 f i tbb_misc.obj
 0001:0001c840       ??0bad_alloc@std@@QAE@XZ   1001d840 f i tbb_misc.obj
 0001:0001c880       ??0bad_last_alloc@tbb@@QAE@ABV01@@Z 1001d880 f i tbb_misc.obj
 0001:0001c8c0       ??0bad_last_alloc@tbb@@QAE@XZ 1001d8c0 f i tbb_misc.obj
 0001:0001c8f0       ??0exception@std@@QAE@ABV01@@Z 1001d8f0 f i tbb_misc.obj
 0001:0001c940       ??0exception@std@@QAE@QBD@Z 1001d940 f i tbb_misc.obj
 0001:0001c9e0       ??0exception@std@@QAE@QBDH@Z 1001d9e0 f i tbb_misc.obj
 0001:0001ca20       ??0exception@std@@QAE@XZ   1001da20 f i tbb_misc.obj
 0001:0001ca50       ??0improper_lock@tbb@@QAE@ABV01@@Z 1001da50 f i tbb_misc.obj
 0001:0001ca90       ??0improper_lock@tbb@@QAE@XZ 1001da90 f i tbb_misc.obj
 0001:0001cac0       ??0invalid_argument@std@@QAE@ABV01@@Z 1001dac0 f i tbb_misc.obj
 0001:0001cb00       ??0invalid_argument@std@@QAE@PBD@Z 1001db00 f i tbb_misc.obj
 0001:0001cb40       ??0invalid_multiple_scheduling@tbb@@QAE@ABV01@@Z 1001db40 f i tbb_misc.obj
 0001:0001cb80       ??0invalid_multiple_scheduling@tbb@@QAE@XZ 1001db80 f i tbb_misc.obj
 0001:0001cbb0       ??0length_error@std@@QAE@ABV01@@Z 1001dbb0 f i tbb_misc.obj
 0001:0001cbf0       ??0length_error@std@@QAE@PBD@Z 1001dbf0 f i tbb_misc.obj
 0001:0001cc30       ??0logic_error@std@@QAE@ABV01@@Z 1001dc30 f i tbb_misc.obj
 0001:0001cc70       ??0logic_error@std@@QAE@PBD@Z 1001dc70 f i tbb_misc.obj
 0001:0001ccb0       ??0missing_wait@tbb@@QAE@ABV01@@Z 1001dcb0 f i tbb_misc.obj
 0001:0001ccf0       ??0missing_wait@tbb@@QAE@XZ 1001dcf0 f i tbb_misc.obj
 0001:0001cd20       ??0out_of_range@std@@QAE@ABV01@@Z 1001dd20 f i tbb_misc.obj
 0001:0001cd60       ??0out_of_range@std@@QAE@PBD@Z 1001dd60 f i tbb_misc.obj
 0001:0001cda0       ??0range_error@std@@QAE@ABV01@@Z 1001dda0 f i tbb_misc.obj
 0001:0001cde0       ??0range_error@std@@QAE@PBD@Z 1001dde0 f i tbb_misc.obj
 0001:0001ce20       ??0runtime_error@std@@QAE@ABV01@@Z 1001de20 f i tbb_misc.obj
 0001:0001ce60       ??0runtime_error@std@@QAE@PBD@Z 1001de60 f i tbb_misc.obj
 0001:0001cea0       ??0user_abort@tbb@@QAE@ABV01@@Z 1001dea0 f i tbb_misc.obj
 0001:0001cee0       ??0user_abort@tbb@@QAE@XZ  1001dee0 f i tbb_misc.obj
 0001:0001cf10       ??1bad_alloc@std@@UAE@XZ   1001df10 f i tbb_misc.obj
 0001:0001cf40       ??1bad_last_alloc@tbb@@UAE@XZ 1001df40 f i tbb_misc.obj
 0001:0001cf70       ??1exception@std@@UAE@XZ   1001df70 f i tbb_misc.obj
 0001:0001cfb0       ??1improper_lock@tbb@@UAE@XZ 1001dfb0 f i tbb_misc.obj
 0001:0001cfe0       ??1invalid_argument@std@@UAE@XZ 1001dfe0 f i tbb_misc.obj
 0001:0001d010       ??1invalid_multiple_scheduling@tbb@@UAE@XZ 1001e010 f i tbb_misc.obj
 0001:0001d040       ??1length_error@std@@UAE@XZ 1001e040 f i tbb_misc.obj
 0001:0001d070       ??1logic_error@std@@UAE@XZ 1001e070 f i tbb_misc.obj
 0001:0001d0a0       ??1missing_wait@tbb@@UAE@XZ 1001e0a0 f i tbb_misc.obj
 0001:0001d0d0       ??1out_of_range@std@@UAE@XZ 1001e0d0 f i tbb_misc.obj
 0001:0001d100       ??1range_error@std@@UAE@XZ 1001e100 f i tbb_misc.obj
 0001:0001d130       ??1runtime_error@std@@UAE@XZ 1001e130 f i tbb_misc.obj
 0001:0001d160       ??1user_abort@tbb@@UAE@XZ  1001e160 f i tbb_misc.obj
 0001:0001d190       ??4?$atomic@PAX@tbb@@QAEPAXPAX@Z 1001e190 f i tbb_misc.obj
 0001:0001d1c0       ??B?$atomic_impl@PAX@internal@tbb@@QDEPAXXZ 1001e1c0 f i tbb_misc.obj
 0001:0001d200       ??_Gbad_alloc@std@@UAEPAXI@Z 1001e200 f i tbb_misc.obj
 0001:0001d200       ??_Ebad_alloc@std@@UAEPAXI@Z 1001e200 f i tbb_misc.obj
 0001:0001d240       ??_Gbad_last_alloc@tbb@@UAEPAXI@Z 1001e240 f i tbb_misc.obj
 0001:0001d240       ??_Ebad_last_alloc@tbb@@UAEPAXI@Z 1001e240 f i tbb_misc.obj
 0001:0001d280       ??_Gexception@std@@UAEPAXI@Z 1001e280 f i tbb_misc.obj
 0001:0001d280       ??_Eexception@std@@UAEPAXI@Z 1001e280 f i tbb_misc.obj
 0001:0001d2c0       ??_Eimproper_lock@tbb@@UAEPAXI@Z 1001e2c0 f i tbb_misc.obj
 0001:0001d2c0       ??_Gimproper_lock@tbb@@UAEPAXI@Z 1001e2c0 f i tbb_misc.obj
 0001:0001d300       ??_Ginvalid_argument@std@@UAEPAXI@Z 1001e300 f i tbb_misc.obj
 0001:0001d300       ??_Einvalid_argument@std@@UAEPAXI@Z 1001e300 f i tbb_misc.obj
 0001:0001d340       ??_Einvalid_multiple_scheduling@tbb@@UAEPAXI@Z 1001e340 f i tbb_misc.obj
 0001:0001d340       ??_Ginvalid_multiple_scheduling@tbb@@UAEPAXI@Z 1001e340 f i tbb_misc.obj
 0001:0001d380       ??_Elength_error@std@@UAEPAXI@Z 1001e380 f i tbb_misc.obj
 0001:0001d380       ??_Glength_error@std@@UAEPAXI@Z 1001e380 f i tbb_misc.obj
 0001:0001d3c0       ??_Elogic_error@std@@UAEPAXI@Z 1001e3c0 f i tbb_misc.obj
 0001:0001d3c0       ??_Glogic_error@std@@UAEPAXI@Z 1001e3c0 f i tbb_misc.obj
 0001:0001d400       ??_Emissing_wait@tbb@@UAEPAXI@Z 1001e400 f i tbb_misc.obj
 0001:0001d400       ??_Gmissing_wait@tbb@@UAEPAXI@Z 1001e400 f i tbb_misc.obj
 0001:0001d440       ??_Gout_of_range@std@@UAEPAXI@Z 1001e440 f i tbb_misc.obj
 0001:0001d440       ??_Eout_of_range@std@@UAEPAXI@Z 1001e440 f i tbb_misc.obj
 0001:0001d480       ??_Erange_error@std@@UAEPAXI@Z 1001e480 f i tbb_misc.obj
 0001:0001d480       ??_Grange_error@std@@UAEPAXI@Z 1001e480 f i tbb_misc.obj
 0001:0001d4c0       ??_Eruntime_error@std@@UAEPAXI@Z 1001e4c0 f i tbb_misc.obj
 0001:0001d4c0       ??_Gruntime_error@std@@UAEPAXI@Z 1001e4c0 f i tbb_misc.obj
 0001:0001d500       ??_Euser_abort@tbb@@UAEPAXI@Z 1001e500 f i tbb_misc.obj
 0001:0001d500       ??_Guser_abort@tbb@@UAEPAXI@Z 1001e500 f i tbb_misc.obj
 0001:0001d540       ?store_with_release@?$atomic_impl@PAX@internal@tbb@@IAEPAXPAX@Z 1001e540 f i tbb_misc.obj
 0001:0001d590       ?what@exception@std@@UBEPBDXZ 1001e590 f i tbb_misc.obj
 0001:0001d5d0       __snprintf                 1001e5d0 f i tbb_misc.obj
 0001:0001d630       __vsnprintf                1001e630 f i tbb_misc.obj
 0001:0001d660       __vsnprintf_l              1001e660 f i tbb_misc.obj
 0001:0001d6d0       _vsnprintf                 1001e6d0 f i tbb_misc.obj
 0001:0001d780       ?AvailableHwConcurrency@internal@tbb@@YAHXZ 1001e780 f   tbb_misc_ex.obj
 0001:0001d7d0       ?NumberOfProcessorGroups@internal@tbb@@YAHXZ 1001e7d0 f   tbb_misc_ex.obj
 0001:0001d810       ?FindProcessorGroupIndex@internal@tbb@@YAHH@Z 1001e810 f   tbb_misc_ex.obj
 0001:0001d9c0       ?MoveThreadIntoProcessorGroup@internal@tbb@@YAXPAXH@Z 1001e9c0 f   tbb_misc_ex.obj
 0001:0001de30       ?allocate@allocate_additional_child_of_proxy@internal@tbb@@QBEAAVtask@3@I@Z 1001ee30 f   task.obj
 0001:0001de90       ?free@allocate_additional_child_of_proxy@internal@tbb@@QBEXAAVtask@3@@Z 1001ee90 f   task.obj
 0001:0001ded0       ?destroy@task_base@internal@interface5@tbb@@SAXAAVtask@4@@Z 1001eed0 f   task.obj
 0001:0001dfc0       ?allocate@allocate_root_with_context_proxy@internal@tbb@@QBEAAVtask@3@I@Z 1001efc0 f   task.obj
 0001:0001e100       ?free@allocate_root_with_context_proxy@internal@tbb@@QBEXAAVtask@3@@Z 1001f100 f   task.obj
 0001:0001e160       ?allocate@allocate_root_proxy@internal@tbb@@SAAAVtask@3@I@Z 1001f160 f   task.obj
 0001:0001e210       ?free@allocate_root_proxy@internal@tbb@@SAXAAVtask@3@@Z 1001f210 f   task.obj
 0001:0001e260       ?allocate@allocate_continuation_proxy@internal@tbb@@QBEAAVtask@3@I@Z 1001f260 f   task.obj
 0001:0001e2e0       ?free@allocate_continuation_proxy@internal@tbb@@QBEXAAVtask@3@@Z 1001f2e0 f   task.obj
 0001:0001e330       ?allocate@allocate_child_proxy@internal@tbb@@QBEAAVtask@3@I@Z 1001f330 f   task.obj
 0001:0001e3a0       ?free@allocate_child_proxy@internal@tbb@@QBEXAAVtask@3@@Z 1001f3a0 f   task.obj
 0001:0001e3d0       ?internal_set_ref_count@task@tbb@@AAEXH@Z 1001f3d0 f   task.obj
 0001:0001e4b0       ?internal_decrement_ref_count@task@tbb@@AAEHXZ 1001f4b0 f   task.obj
 0001:0001e580       ?spawn_and_wait_for_all@task@tbb@@QAEXAAVtask_list@2@@Z 1001f580 f   task.obj
 0001:0001e620       ?self@task@tbb@@SAAAV12@XZ 1001f620 f   task.obj
 0001:0001e680       ?is_owned_by_current_thread@task@tbb@@QBE_NXZ 1001f680 f   task.obj
 0001:0001e6a0       ?note_affinity@task@tbb@@UAEXG@Z 1001f6a0 f   task.obj
 0001:0001e6c0       ?change_group@task@tbb@@QAEXAAVtask_group_context@2@@Z 1001f6c0 f   task.obj
 0001:0001e7b0       ?get_initial_auto_partitioner_divisor@internal@tbb@@YAIXZ 1001f7b0 f   task.obj
 0001:0001e7e0       ?resize@affinity_partitioner_base_v3@internal@tbb@@AAEXI@Z 1001f7e0 f   task.obj
 0001:0001e8b0       ??$__TBB_load_relaxed@W4kind_type@task_group_context@tbb@@@internal@tbb@@YA?AW4kind_type@task_group_context@1@ADW4231@@Z 1001f8b0 f i task.obj
 0001:0001e8d0       ??$__TBB_store_relaxed@W4kind_type@task_group_context@tbb@@W4123@@internal@tbb@@YAXACW4kind_type@task_group_context@1@W4231@@Z 1001f8d0 f i task.obj
 0001:0001e8f0       ??$free_task@$00@generic_scheduler@internal@tbb@@QAEXAAVtask@2@@Z 1001f8f0 f i task.obj
 0001:0001ea50       ??$free_task@$03@generic_scheduler@internal@tbb@@QAEXAAVtask@2@@Z 1001fa50 f i task.obj
 0001:0001ebd0       ??$is_poisoned@PBVtask@tbb@@@internal@tbb@@YA_NPAPBVtask@1@@Z 1001fbd0 f i task.obj
 0001:0001ec00       ??$poison_pointer@Vscheduler@internal@tbb@@@internal@tbb@@YAXAAPAVscheduler@01@@Z 1001fc00 f i task.obj
 0001:0001ec10       ??$poison_pointer@Vtask@tbb@@@internal@tbb@@YAXAAPAVtask@1@@Z 1001fc10 f i task.obj
 0001:0001ec20       ??$poison_value@H@internal@tbb@@YAXAAH@Z 1001fc20 f i task.obj
 0001:0001ec40       ??$punned_cast@PAH$$CBI@internal@tbb@@YAPAHPBI@Z 1001fc40 f i task.obj
 0001:0001ec60       ?assert_task_pool_valid@generic_scheduler@internal@tbb@@QBEXXZ 1001fc60 f i task.obj
 0001:0001ec80       ?assert_task_valid@internal@tbb@@YAXPBVtask@2@@Z 1001fc80 f i task.obj
 0001:0001ed40       ?clear@task_list@tbb@@QAEXXZ 1001fd40 f i task.obj
 0001:0001ed70       ?deallocate_task@generic_scheduler@internal@tbb@@QAEXAAVtask@3@@Z 1001fd70 f i task.obj
 0001:0001ede0       ?default_context@generic_scheduler@internal@tbb@@QAEPAVtask_group_context@3@XZ 1001fde0 f i task.obj
 0001:0001ee10       ?get@?$basic_tls@I@internal@tbb@@QAEIXZ 1001fe10 f i task.obj
 0001:0001ee50       ?increment_ref_count@task@tbb@@QAEXXZ 1001fe50 f i task.obj
 0001:0001ee90       ?is_worker@generic_scheduler@internal@tbb@@QBE_NXZ 1001fe90 f i task.obj
 0001:0001eed0       ?load@?$machine_load_store_relaxed@W4kind_type@task_group_context@tbb@@$03@internal@tbb@@SA?AW4kind_type@task_group_context@3@ADW4453@@Z 1001fed0 f i task.obj
 0001:0001eee0       ?local_scheduler@governor@internal@tbb@@SAPAVgeneric_scheduler@23@XZ 1001fee0 f i task.obj
 0001:0001ef40       ?local_scheduler_weak@governor@internal@tbb@@SAPAVgeneric_scheduler@23@XZ 1001ff40 f i task.obj
 0001:0001efa0       ?master_outermost_level@generic_scheduler@internal@tbb@@QBE_NXZ 1001ffa0 f i task.obj
 0001:0001f000       ?max_threads_in_arena@generic_scheduler@internal@tbb@@QAEIXZ 10020000 f i task.obj
 0001:0001f050       ?outermost_level@generic_scheduler@internal@tbb@@QBE_NXZ 10020050 f i task.obj
 0001:0001f070       ?prefix@task@tbb@@QBEAAVtask_prefix@internal@2@PAUversion_tag_v3@42@@Z 10020070 f i task.obj
 0001:0001f090       ?state@task@tbb@@QBE?AW4state_type@12@XZ 10020090 f i task.obj
 0001:0001f0c0       ?store@?$machine_load_store_relaxed@W4kind_type@task_group_context@tbb@@$03@internal@tbb@@SAXACW4kind_type@task_group_context@3@W4453@@Z 100200c0 f i task.obj
 0001:0001f0d0       ?tls_scheduler_of@governor@internal@tbb@@SAPAVgeneric_scheduler@23@I@Z 100200d0 f i task.obj
 0001:0001f140       ??1task_group_context@tbb@@QAE@XZ 10020140 f   task_group_context.obj
 0001:0001f430       ?reset@task_group_context@tbb@@QAEXXZ 10020430 f   task_group_context.obj
 0001:0001f480       ?cancel_group_execution@task_group_context@tbb@@QAE_NXZ 10020480 f   task_group_context.obj
 0001:0001f510       ?is_group_execution_cancelled@task_group_context@tbb@@QBE_NXZ 10020510 f   task_group_context.obj
 0001:0001f550       ?register_pending_exception@task_group_context@tbb@@QAEXXZ 10020550 f   task_group_context.obj
 0001:0001f750       ?capture_fp_settings@task_group_context@tbb@@QAEXXZ 10020750 f   task_group_context.obj
 0001:0001f7d0       ?set_priority@task_group_context@tbb@@QAEXW4priority_t@2@@Z 100207d0 f   task_group_context.obj
 0001:0001f8d0       ?priority@task_group_context@tbb@@QBE?AW4priority_t@2@XZ 100208d0 f   task_group_context.obj
 0001:0001f900       ?init@task_group_context@tbb@@IAEXXZ 10020900 f   task_group_context.obj
 0001:0001fa30       ?bind_to@task_group_context@tbb@@QAEXPAVgeneric_scheduler@internal@2@@Z 10020a30 f   task_group_context.obj
 0001:0001fc30       ?register_with@task_group_context@tbb@@QAEXPAVgeneric_scheduler@internal@2@@Z 10020c30 f   task_group_context.obj
 0001:0001fde0       ?copy_fp_settings@task_group_context@tbb@@QAEXABV12@@Z 10020de0 f   task_group_context.obj
 0001:0001fed0       ??1captured_exception@tbb@@UAE@XZ 10020ed0 f   task_group_context.obj
 0001:0001ff10       ?move@captured_exception@tbb@@UAEPAV12@XZ 10020f10 f   task_group_context.obj
 0001:0001ffa0       ?destroy@captured_exception@tbb@@UAEXXZ 10020fa0 f   task_group_context.obj
 0001:00020010       ?name@captured_exception@tbb@@UBEPBDXZ 10021010 f   task_group_context.obj
 0001:00020030       ?what@captured_exception@tbb@@UBEPBDXZ 10021030 f   task_group_context.obj
 0001:00020050       ?set@captured_exception@tbb@@QAEXPBD0@Z 10021050 f   task_group_context.obj
 0001:000200a0       ?clear@captured_exception@tbb@@QAEXXZ 100210a0 f   task_group_context.obj
 0001:000200e0       ?allocate@captured_exception@tbb@@SAPAV12@PBD0@Z 100210e0 f   task_group_context.obj
 0001:00020140       ?allocate@tbb_exception_ptr@internal@tbb@@SAPAV123@XZ 10021140 f   task_group_context.obj
 0001:000201d0       ?allocate@tbb_exception_ptr@internal@tbb@@SAPAV123@ABVtbb_exception@3@@Z 100211d0 f   task_group_context.obj
 0001:00020260       ?allocate@tbb_exception_ptr@internal@tbb@@SAPAV123@AAVcaptured_exception@3@@Z 10021260 f   task_group_context.obj
 0001:000202b0       ?destroy@tbb_exception_ptr@internal@tbb@@QAEXXZ 100212b0 f   task_group_context.obj
 0001:000202e0       ??$AllocateExceptionContainer@Vcaptured_exception@tbb@@@internal@tbb@@YAPAVtbb_exception_ptr@01@ABVcaptured_exception@1@@Z 100212e0 f i task_group_context.obj
 0001:00020340       ??$AllocateExceptionContainer@Vexception_ptr@std@@@internal@tbb@@YAPAVtbb_exception_ptr@01@ABVexception_ptr@std@@@Z 10021340 f i task_group_context.obj
 0001:000203a0       ??$__TBB_load_with_acquire@PAUcontext_list_node_t@internal@tbb@@@internal@tbb@@YAPAUcontext_list_node_t@01@ADSAU201@@Z 100213a0 f i task_group_context.obj
 0001:000203c0       ??$__TBB_store_with_release@PAUcontext_list_node_t@internal@tbb@@PAU123@@internal@tbb@@YAXACRAUcontext_list_node_t@01@PAU201@@Z 100213c0 f i task_group_context.obj
 0001:000203e0       ??$addressof@Vcaptured_exception@tbb@@@std@@YAPAVcaptured_exception@tbb@@AAV12@@Z 100213e0 f i task_group_context.obj
 0001:000203f0       ??$as_atomic@I@internal@tbb@@YAAAU?$atomic@I@1@AAI@Z 100213f0 f i task_group_context.obj
 0001:00020400       ??$as_atomic@W4kind_type@task_group_context@tbb@@@internal@tbb@@YAAAU?$atomic@W4kind_type@task_group_context@tbb@@@1@AAW4kind_type@task_group_context@1@@Z 10021400 f i task_group_context.obj
 0001:00020410       ??$fetch_and_decrement@$0A@@?$atomic_impl_with_arithmetic@IID@internal@tbb@@QAEIXZ 10021410 f i task_group_context.obj
 0001:00020440       ??$fetch_and_increment@$0A@@?$atomic_impl_with_arithmetic@IID@internal@tbb@@QAEIXZ 10021440 f i task_group_context.obj
 0001:00020470       ??$fetch_and_store@$0A@@?$atomic_impl@W4kind_type@task_group_context@tbb@@@internal@tbb@@QAE?AW4kind_type@task_group_context@2@W4342@@Z 10021470 f i task_group_context.obj
 0001:000204b0       ??$make_exception_ptr@Vcaptured_exception@tbb@@@std@@YA?AVexception_ptr@0@Vcaptured_exception@tbb@@@Z 100214b0 f i task_group_context.obj
 0001:00020520       ??$poison_value@I@internal@tbb@@YAXAAI@Z 10021520 f i task_group_context.obj
 0001:00020540       ??$propagate_task_group_state@H@generic_scheduler@internal@tbb@@QAEXPQtask_group_context@2@HAAV32@H@Z 10021540 f i task_group_context.obj
 0001:000206a0       ??$propagate_task_group_state@H@market@internal@tbb@@QAE_NPQtask_group_context@2@HAAV32@H@Z 100216a0 f i task_group_context.obj
 0001:00020860       ??$propagate_task_group_state@H@task_group_context@tbb@@QAEXPQ01@HAAV01@H@Z 10021860 f i task_group_context.obj
 0001:00020930       ??$propagate_task_group_state@I@generic_scheduler@internal@tbb@@QAEXPQtask_group_context@2@IAAV32@I@Z 10021930 f i task_group_context.obj
 0001:00020a90       ??$propagate_task_group_state@I@market@internal@tbb@@QAE_NPQtask_group_context@2@IAAV32@I@Z 10021a90 f i task_group_context.obj
 0001:00020c50       ??$propagate_task_group_state@I@task_group_context@tbb@@QAEXPQ01@IAAV01@I@Z 10021c50 f i task_group_context.obj
 0001:00020d20       ??$punned_cast@PAI$$CBI@internal@tbb@@YAPAIPBI@Z 10021d20 f i task_group_context.obj
 0001:00020d40       ??$punned_cast@PAVcpu_ctl_env@internal@tbb@@$$CBUcpu_ctl_env_space@23@@internal@tbb@@YAPAVcpu_ctl_env@01@PBUcpu_ctl_env_space@01@@Z 10021d40 f i task_group_context.obj
 0001:00020d60       ??$punned_cast@PAVcpu_ctl_env@internal@tbb@@Ucpu_ctl_env_space@23@@internal@tbb@@YAPAVcpu_ctl_env@01@PAUcpu_ctl_env_space@01@@Z 10021d60 f i task_group_context.obj
 0001:00020d80       ??$punned_cast@PAVscoped_lock@spin_mutex@tbb@@$$CBV?$aligned_space@Vscoped_lock@spin_mutex@tbb@@$00@3@@internal@tbb@@YAPAVscoped_lock@spin_mutex@1@PBV?$aligned_space@Vscoped_lock@spin_mutex@tbb@@$00@1@@Z 10021d80 f i task_group_context.obj
 0001:00020da0       ??$suppress_unused_warning@$$BY01H@internal@tbb@@YAXAAY01$$CBH@Z 10021da0 f i task_group_context.obj
 0001:00020db0       ??$to_bits@I@?$atomic_impl@I@internal@tbb@@SAHI@Z 10021db0 f i task_group_context.obj
 0001:00020de0       ??$to_bits@W4kind_type@task_group_context@tbb@@@?$atomic_impl@W4kind_type@task_group_context@tbb@@@internal@tbb@@SAHW4kind_type@task_group_context@2@@Z 10021de0 f i task_group_context.obj
 0001:00020e10       ??$to_bits_ref@$$CBI@?$atomic_impl@I@internal@tbb@@SAAAHABI@Z 10021e10 f i task_group_context.obj
 0001:00020e40       ??$to_bits_ref@$$CDI@?$atomic_impl@I@internal@tbb@@SAAAHADI@Z 10021e40 f i task_group_context.obj
 0001:00020e70       ??$to_bits_ref@I@?$atomic_impl@I@internal@tbb@@SAAAHAAI@Z 10021e70 f i task_group_context.obj
 0001:00020ea0       ??$to_value@I@?$atomic_impl@I@internal@tbb@@SAIH@Z 10021ea0 f i task_group_context.obj
 0001:00020f10       ??$to_value@W4kind_type@task_group_context@tbb@@@?$atomic_impl@W4kind_type@task_group_context@tbb@@@internal@tbb@@SA?AW4kind_type@task_group_context@2@H@Z 10021f10 f i task_group_context.obj
 0001:00020f80       ??0?$converter@W4kind_type@task_group_context@tbb@@@?$atomic_impl@W4kind_type@task_group_context@tbb@@@internal@tbb@@QAE@W4kind_type@task_group_context@3@@Z 10021f80 f i task_group_context.obj
 0001:00020fa0       ??0?$converter@W4kind_type@task_group_context@tbb@@@?$atomic_impl@W4kind_type@task_group_context@tbb@@@internal@tbb@@QAE@XZ 10021fa0 f i task_group_context.obj
 0001:00020fc0       ??0?$iterator_impl@Viterator@?$intrusive_list_base@V?$intrusive_list@Vgeneric_scheduler@internal@tbb@@@internal@tbb@@Vgeneric_scheduler@23@@internal@tbb@@@?$intrusive_list_base@V?$intrusive_list@Vgeneric_scheduler@internal@tbb@@@internal@tbb@@Vgeneric_scheduler@23@@internal@tbb@@IAE@PAUintrusive_list_node@23@@Z 10021fc0 f i task_group_context.obj
 0001:00020fe0       ??0captured_exception@tbb@@QAE@ABV01@@Z 10021fe0 f i task_group_context.obj
 0001:00021040       ??0captured_exception@tbb@@QAE@PBD0@Z 10022040 f i task_group_context.obj
 0001:00021090       ??0captured_exception@tbb@@QAE@XZ 10022090 f i task_group_context.obj
 0001:000210c0       ??0exception_ptr@std@@QAE@ABV01@@Z 100220c0 f i task_group_context.obj
 0001:00021120       ??0exception_ptr@std@@QAE@XZ 10022120 f i task_group_context.obj
 0001:00021180       ??0iterator@?$intrusive_list_base@V?$intrusive_list@Vgeneric_scheduler@internal@tbb@@@internal@tbb@@Vgeneric_scheduler@23@@internal@tbb@@QAE@PAUintrusive_list_node@23@@Z 10022180 f i task_group_context.obj
 0001:000211b0       ??0tbb_exception@tbb@@QAE@ABV01@@Z 100221b0 f i task_group_context.obj
 0001:000211f0       ??0tbb_exception@tbb@@QAE@XZ 100221f0 f i task_group_context.obj
 0001:00021220       ??0tbb_exception_ptr@internal@tbb@@QAE@ABVcaptured_exception@2@@Z 10022220 f i task_group_context.obj
 0001:00021280       ??0tbb_exception_ptr@internal@tbb@@QAE@ABVexception_ptr@std@@@Z 10022280 f i task_group_context.obj
 0001:000212b0       ??1exception_ptr@std@@QAE@XZ 100222b0 f i task_group_context.obj
 0001:00021310       ??1tbb_exception@tbb@@UAE@XZ 10022310 f i task_group_context.obj
 0001:00021340       ??1tbb_exception_ptr@internal@tbb@@QAE@XZ 10022340 f i task_group_context.obj
 0001:00021370       ??3tbb_exception@tbb@@SAXPAX@Z 10022370 f i task_group_context.obj
 0001:000213c0       ??9?$iterator_impl@Viterator@?$intrusive_list_base@V?$intrusive_list@Vgeneric_scheduler@internal@tbb@@@internal@tbb@@Vgeneric_scheduler@23@@internal@tbb@@@?$intrusive_list_base@V?$intrusive_list@Vgeneric_scheduler@internal@tbb@@@internal@tbb@@Vgeneric_scheduler@23@@internal@tbb@@QBE_NABViterator@123@@Z 100223c0 f i task_group_context.obj
 0001:00021400       ??Citerator@?$intrusive_list_base@V?$intrusive_list@Vgeneric_scheduler@internal@tbb@@@internal@tbb@@Vgeneric_scheduler@23@@internal@tbb@@QBEPAVgeneric_scheduler@23@XZ 10022400 f i task_group_context.obj
 0001:00021430       ??E?$iterator_impl@Viterator@?$intrusive_list_base@V?$intrusive_list@Vgeneric_scheduler@internal@tbb@@@internal@tbb@@Vgeneric_scheduler@23@@internal@tbb@@@?$intrusive_list_base@V?$intrusive_list@Vgeneric_scheduler@internal@tbb@@@internal@tbb@@Vgeneric_scheduler@23@@internal@tbb@@QAE?AViterator@123@H@Z 10022430 f i task_group_context.obj
 0001:000214b0       ??E?$iterator_impl@Viterator@?$intrusive_list_base@V?$intrusive_list@Vgeneric_scheduler@internal@tbb@@@internal@tbb@@Vgeneric_scheduler@23@@internal@tbb@@@?$intrusive_list_base@V?$intrusive_list@Vgeneric_scheduler@internal@tbb@@@internal@tbb@@Vgeneric_scheduler@23@@internal@tbb@@QAEAAViterator@123@XZ 100224b0 f i task_group_context.obj
 0001:000214f0       ??_Gcaptured_exception@tbb@@UAEPAXI@Z 100224f0 f i task_group_context.obj
 0001:000214f0       ??_Ecaptured_exception@tbb@@UAEPAXI@Z 100224f0 f i task_group_context.obj
 0001:00021550       ??_Etbb_exception@tbb@@UAEPAXI@Z 10022550 f i task_group_context.obj
 0001:00021550       ??_Gtbb_exception@tbb@@UAEPAXI@Z 10022550 f i task_group_context.obj
 0001:000215b0       ?_Copy_exception@exception_ptr@std@@SA?AV12@PAXPBX@Z 100225b0 f i task_group_context.obj
 0001:000216b0       ?_Current_exception@exception_ptr@std@@SA?AV12@XZ 100226b0 f i task_group_context.obj
 0001:00021760       ?__TBB_get_cpu_ctl_env@@YAXPAVcpu_ctl_env@internal@tbb@@@Z 10022760 f i task_group_context.obj
 0001:00021780       ?__TBB_store_with_release@internal@tbb@@YAXACII@Z 10022780 f i task_group_context.obj
 0001:000217a0       ?begin@?$aligned_space@Vscoped_lock@spin_mutex@tbb@@$00@tbb@@QBEPAVscoped_lock@spin_mutex@2@XZ 100227a0 f i task_group_context.obj
 0001:000217d0       ?begin@?$intrusive_list_base@V?$intrusive_list@Vgeneric_scheduler@internal@tbb@@@internal@tbb@@Vgeneric_scheduler@23@@internal@tbb@@QAE?AViterator@123@XZ 100227d0 f i task_group_context.obj
 0001:00021800       ?current_exception@std@@YA?AVexception_ptr@1@XZ 10022800 f i task_group_context.obj
 0001:00021820       ?duplicate_string@tbb@@YAPADPBD@Z 10022820 f i task_group_context.obj
 0001:00021890       ?end@?$intrusive_list_base@V?$intrusive_list@Vgeneric_scheduler@internal@tbb@@@internal@tbb@@Vgeneric_scheduler@23@@internal@tbb@@QAE?AViterator@123@XZ 10022890 f i task_group_context.obj
 0001:000218c0       ?fetch_and_store@?$atomic_impl@W4kind_type@task_group_context@tbb@@@internal@tbb@@QAE?AW4kind_type@task_group_context@3@W4453@@Z 100228c0 f i task_group_context.obj
 0001:000218f0       ?get_env@cpu_ctl_env@internal@tbb@@QAEXXZ 100228f0 f i task_group_context.obj
 0001:00021930       ?is_alive@internal@tbb@@YA_NI@Z 10022930 f i task_group_context.obj
 0001:00021960       ?item@?$intrusive_list@Vgeneric_scheduler@internal@tbb@@@internal@tbb@@CAAAVgeneric_scheduler@23@PAUintrusive_list_node@23@@Z 10022960 f i task_group_context.obj
 0001:00021990       ?item@?$intrusive_list_base@V?$intrusive_list@Vgeneric_scheduler@internal@tbb@@@internal@tbb@@Vgeneric_scheduler@23@@internal@tbb@@CAAAVgeneric_scheduler@23@PAUintrusive_list_node@23@@Z 10022990 f i task_group_context.obj
 0001:000219b0       ?item@?$iterator_impl@Viterator@?$intrusive_list_base@V?$intrusive_list@Vgeneric_scheduler@internal@tbb@@@internal@tbb@@Vgeneric_scheduler@23@@internal@tbb@@@?$intrusive_list_base@V?$intrusive_list@Vgeneric_scheduler@internal@tbb@@@internal@tbb@@Vgeneric_scheduler@23@@internal@tbb@@IBEAAVgeneric_scheduler@34@XZ 100229b0 f i task_group_context.obj
 0001:000219e0       ?load_with_acquire@?$machine_load_store@PAUcontext_list_node_t@internal@tbb@@$03@internal@tbb@@SAPAUcontext_list_node_t@23@ADSAU423@@Z 100229e0 f i task_group_context.obj
 0001:00021a00       ?local_scheduler_if_initialized@governor@internal@tbb@@SAPAVgeneric_scheduler@23@XZ 10022a00 f i task_group_context.obj
 0001:00021a20       ?lock@spin_mutex@tbb@@QAEXXZ 10022a20 f i task_group_context.obj
 0001:00021ab0       ?name@type_info@@QBEPBDXZ  10022ab0 f i task_group_context.obj
 0001:00021ae0       ?normalize_priority@internal@tbb@@YAHW4priority_t@2@@Z 10022ae0 f i task_group_context.obj
 0001:00021b00       ?self@?$iterator_impl@Viterator@?$intrusive_list_base@V?$intrusive_list@Vgeneric_scheduler@internal@tbb@@@internal@tbb@@Vgeneric_scheduler@23@@internal@tbb@@@?$intrusive_list_base@V?$intrusive_list@Vgeneric_scheduler@internal@tbb@@@internal@tbb@@Vgeneric_scheduler@23@@internal@tbb@@AAEAAViterator@234@XZ 10022b00 f i task_group_context.obj
 0001:00021b20       ?store_with_release@?$machine_load_store@PAUcontext_list_node_t@internal@tbb@@$03@internal@tbb@@SAXACRAUcontext_list_node_t@23@PAU423@@Z 10022b20 f i task_group_context.obj
 0001:00021b30       ?throw_self@captured_exception@tbb@@UAEXXZ 10022b30 f i task_group_context.obj
 0001:00021b80       ?unlock@spin_mutex@tbb@@QAEXXZ 10022b80 f i task_group_context.obj
 0001:00021c10       ?internal_terminate@task_scheduler_init@tbb@@AAE_N_N@Z 10022c10 f   governor.obj
 0001:00021cf0       ?internal_blocking_terminate@task_scheduler_init@tbb@@AAE_N_N@Z 10022cf0 f   governor.obj
 0001:00021d50       ?initialize@task_scheduler_init@tbb@@QAEXH@Z 10022d50 f   governor.obj
 0001:00021d80       ?initialize@task_scheduler_init@tbb@@QAEXHI@Z 10022d80 f   governor.obj
 0001:00021f00       ?terminate@task_scheduler_init@tbb@@QAEXXZ 10022f00 f   governor.obj
 0001:00021f30       ?default_num_threads@task_scheduler_init@tbb@@SAHXZ 10022f30 f   governor.obj
 0001:00021f90       ?acquire_resources@governor@internal@tbb@@CAXXZ 10022f90 f   governor.obj
 0001:00021ff0       ?release_resources@governor@internal@tbb@@CAXXZ 10022ff0 f   governor.obj
 0001:00022080       ?create_rml_server@governor@internal@tbb@@CAPAVtbb_server@rml@23@AAVtbb_client@523@@Z 10023080 f   governor.obj
 0001:00022180       ?auto_terminate@governor@internal@tbb@@CAXPAX@Z 10023180 f   governor.obj
 0001:00022240       ?one_time_init@governor@internal@tbb@@SAXXZ 10023240 f   governor.obj
 0001:00022290       ?init_scheduler@governor@internal@tbb@@SAPAVgeneric_scheduler@23@HI_N@Z 10023290 f   governor.obj
 0001:000224b0       ?init_scheduler_weak@governor@internal@tbb@@SAPAVgeneric_scheduler@23@XZ 100234b0 f   governor.obj
 0001:00022520       ?terminate_scheduler@governor@internal@tbb@@SA_NPAVgeneric_scheduler@23@PBVtask_scheduler_init@3@_N@Z 10023520 f   governor.obj
 0001:000225e0       ?sign_on@governor@internal@tbb@@SAXPAVgeneric_scheduler@23@@Z 100235e0 f   governor.obj
 0001:00022700       ?sign_off@governor@internal@tbb@@SAXPAVgeneric_scheduler@23@@Z 10023700 f   governor.obj
 0001:00022790       ?is_set@governor@internal@tbb@@SA_NPAVgeneric_scheduler@23@@Z 10023790 f   governor.obj
 0001:000227e0       ?assume_scheduler@governor@internal@tbb@@SAXPAVgeneric_scheduler@23@@Z 100237e0 f   governor.obj
 0001:00022810       ?tls_value_of@governor@internal@tbb@@SAIPAVgeneric_scheduler@23@@Z 10023810 f   governor.obj
 0001:00022880       ?print_version_info@governor@internal@tbb@@SAXXZ 10023880 f   governor.obj
 0001:000228f0       ?initialize_rml_factory@governor@internal@tbb@@SAXXZ 100238f0 f   governor.obj
 0001:00022940       ?stack_op_handler@governor@internal@tbb@@SAHW4__cilk_tbb_stack_op@@PAX@Z 10023940 f   governor.obj
 0001:00022b30       ?initialize_cilk_interop@internal@tbb@@YA_NXZ 10023b30 f   governor.obj
 0001:00022b60       ??$__TBB_load_with_acquire@_N@internal@tbb@@YA_NAD_N@Z 10023b60 f i governor.obj
 0001:00022b80       ??$atomic_do_once@P6A_NXZ@internal@tbb@@YAXABQ6A_NXZAAU?$atomic@W4do_once_state@internal@tbb@@@1@@Z 10023b80 f i governor.obj
 0001:00022be0       ??$suppress_unused_warning@PAVgeneric_scheduler@internal@tbb@@@internal@tbb@@YAXABQAVgeneric_scheduler@01@@Z 10023be0 f i governor.obj
 0001:00022bf0       ?create@?$basic_tls@I@internal@tbb@@QAEHXZ 10023bf0 f i governor.obj
 0001:00022c40       ?destroy@?$basic_tls@I@internal@tbb@@QAEHXZ 10023c40 f i governor.obj
 0001:00022c80       ?destroy_process_mask@internal@tbb@@YAXXZ 10023c80 f i governor.obj
 0001:00022c90       ?initialization_done@__TBB_InitOnce@internal@tbb@@SA_NXZ 10023c90 f i governor.obj
 0001:00022cb0       ?load_with_acquire@?$machine_load_store@_N$00@internal@tbb@@SA_NAD_N@Z 10023cb0 f i governor.obj
 0001:00022cd0       ?run_initializer@internal@tbb@@YAXP6A_NXZAAU?$atomic@W4do_once_state@internal@tbb@@@2@@Z 10023cd0 f i governor.obj
 0001:00022d20       ?set@?$basic_tls@I@internal@tbb@@QAEXI@Z 10023d20 f i governor.obj
 0001:00022d90       ??0market@internal@tbb@@AAE@III@Z 10023d90 f   market.obj
 0001:00022ef0       ?global_market@market@internal@tbb@@CAAAV123@_NII@Z 10023ef0 f   market.obj
 0001:00023260       ?destroy@market@internal@tbb@@AAEXXZ 10024260 f   market.obj
 0001:000232d0       ?arena_in_need@market@internal@tbb@@AAEPAVarena@23@PAV423@@Z 100242d0 f   market.obj
 0001:00023420       ?update_allotment@market@internal@tbb@@AAEXH@Z 10024420 f   market.obj
 0001:00023600       ?update_arena_top_priority@market@internal@tbb@@AAEXAAVarena@23@H@Z 10024600 f   market.obj
 0001:00023710       ?insert_arena_into_list@market@internal@tbb@@AAEXAAVarena@23@@Z 10024710 f   market.obj
 0001:000237a0       ?remove_arena_from_list@market@internal@tbb@@AAEXAAVarena@23@@Z 100247a0 f   market.obj
 0001:000238d0       ?arena_in_need@market@internal@tbb@@AAEPAVarena@23@AAV?$intrusive_list@Varena@internal@tbb@@@23@AAPAV423@@Z 100248d0 f   market.obj
 0001:00023a50       ?update_allotment@market@internal@tbb@@CAHAAV?$intrusive_list@Varena@internal@tbb@@@23@HH@Z 10024a50 f   market.obj
 0001:00023c10       ?create_one_job@market@internal@tbb@@EAEPAVjob@rml@@XZ 10024c10 f   market.obj
 0001:00023d20       ?cleanup@market@internal@tbb@@EAEXAAVjob@rml@@@Z 10024d20 f   market.obj
 0001:00023e20       ?acknowledge_close_connection@market@internal@tbb@@EAEXXZ 10024e20 f   market.obj
 0001:00023e50       ?process@market@internal@tbb@@EAEXAAVjob@rml@@@Z 10024e50 f   market.obj
 0001:00023f30       ?create_arena@market@internal@tbb@@SAPAVarena@23@HHI@Z 10024f30 f   market.obj
 0001:00024070       ?try_destroy_arena@market@internal@tbb@@QAEXPAVarena@23@I@Z 10025070 f   market.obj
 0001:000242a0       ?detach_arena@market@internal@tbb@@QAEXAAVarena@23@@Z 100252a0 f   market.obj
 0001:00024350       ?release@market@internal@tbb@@QAE_N_N0@Z 10025350 f   market.obj
 0001:000245f0       ?mandatory_concurrency_enable_impl@market@internal@tbb@@QAE_NPAVarena@23@PA_N@Z 100255f0 f   market.obj
 0001:00024710       ?mandatory_concurrency_enable@market@internal@tbb@@QAE_NPAVarena@23@@Z 10025710 f   market.obj
 0001:00024820       ?mandatory_concurrency_disable@market@internal@tbb@@QAEXPAVarena@23@@Z 10025820 f   market.obj
 0001:00024ab0       ?adjust_demand@market@internal@tbb@@QAEXAAVarena@23@H@Z 10025ab0 f   market.obj
 0001:00024f90       ?set_active_num_workers@market@internal@tbb@@SAXI@Z 10025f90 f   market.obj
 0001:00025280       ?lower_arena_priority@market@internal@tbb@@QAE_NAAVarena@23@HI@Z 10026280 f   market.obj
 0001:00025490       ?update_arena_priority@market@internal@tbb@@QAE_NAAVarena@23@H@Z 10026490 f   market.obj
 0001:00025900       ?does_client_join_workers@governor@internal@tbb@@SA_NABVtbb_client@rml@23@@Z 10026900 f   market.obj
 0001:00025990       ??$as_atomic@H@internal@tbb@@YAAAU?$atomic@H@1@AAH@Z 10026990 f i market.obj
 0001:000259a0       ??$as_atomic@PAVarena@internal@tbb@@@internal@tbb@@YAAAU?$atomic@PAVarena@internal@tbb@@@1@AAPAVarena@01@@Z 100269a0 f i market.obj
 0001:000259b0       ??$fetch_and_add@$01@?$atomic_impl_with_arithmetic@IID@internal@tbb@@QAEII@Z 100269b0 f i market.obj
 0001:000259e0       ??$fetch_and_increment@$01@?$atomic_impl_with_arithmetic@IID@internal@tbb@@QAEIXZ 100269e0 f i market.obj
 0001:00025a10       ??$max@H@internal@tbb@@YAHABH0@Z 10026a10 f i market.obj
 0001:00025a40       ??$max@I@internal@tbb@@YAIABI0@Z 10026a40 f i market.obj
 0001:00025a70       ??$min@H@internal@tbb@@YAHABH0@Z 10026a70 f i market.obj
 0001:00025aa0       ??$suppress_unused_warning@PAVarena@internal@tbb@@@internal@tbb@@YAXABQAVarena@01@@Z 10026aa0 f i market.obj
 0001:00025ab0       ??$to_bits@PAVarena@internal@tbb@@@?$atomic_impl@PAVarena@internal@tbb@@@internal@tbb@@SAHPAVarena@12@@Z 10026ab0 f i market.obj
 0001:00025ae0       ??$to_bits_ref@$$CDH@?$atomic_impl@H@internal@tbb@@SAAAHADH@Z 10026ae0 f i market.obj
 0001:00025b10       ??$to_bits_ref@PAVarena@internal@tbb@@@?$atomic_impl@PAVarena@internal@tbb@@@internal@tbb@@SAAAHAAPAVarena@12@@Z 10026b10 f i market.obj
 0001:00025b40       ??$to_value@H@?$atomic_impl@H@internal@tbb@@SAHH@Z 10026b40 f i market.obj
 0001:00025bb0       ??0?$converter@PAVarena@internal@tbb@@@?$atomic_impl@PAVarena@internal@tbb@@@internal@tbb@@QAE@PAVarena@23@@Z 10026bb0 f i market.obj
 0001:00025bd0       ??0?$intrusive_list@Varena@internal@tbb@@@internal@tbb@@QAE@XZ 10026bd0 f i market.obj
 0001:00025c00       ??0?$intrusive_list@Vgeneric_scheduler@internal@tbb@@@internal@tbb@@QAE@XZ 10026c00 f i market.obj
 0001:00025c30       ??0?$intrusive_list_base@V?$intrusive_list@Varena@internal@tbb@@@internal@tbb@@Varena@23@@internal@tbb@@QAE@XZ 10026c30 f i market.obj
 0001:00025c80       ??0?$intrusive_list_base@V?$intrusive_list@Vgeneric_scheduler@internal@tbb@@@internal@tbb@@Vgeneric_scheduler@23@@internal@tbb@@QAE@XZ 10026c80 f i market.obj
 0001:00025cd0       ??0?$iterator_impl@Viterator@?$intrusive_list_base@V?$intrusive_list@Varena@internal@tbb@@@internal@tbb@@Varena@23@@internal@tbb@@@?$intrusive_list_base@V?$intrusive_list@Varena@internal@tbb@@@internal@tbb@@Varena@23@@internal@tbb@@IAE@PAUintrusive_list_node@23@@Z 10026cd0 f i market.obj
 0001:00025cf0       ??0?$ptr_converter@PAPAVarena@internal@tbb@@@?$atomic_impl@PAVarena@internal@tbb@@@internal@tbb@@QAE@PAPAVarena@23@@Z 10026cf0 f i market.obj
 0001:00025d10       ??0client@rml@@QAE@XZ      10026d10 f i market.obj
 0001:00025d40       ??0intrusive_list_node@internal@tbb@@QAE@XZ 10026d40 f i market.obj
 0001:00025d70       ??0iterator@?$intrusive_list_base@V?$intrusive_list@Varena@internal@tbb@@@internal@tbb@@Varena@23@@internal@tbb@@QAE@PAUintrusive_list_node@23@@Z 10026d70 f i market.obj
 0001:00025da0       ??0priority_level_info@market@internal@tbb@@QAE@XZ 10026da0 f i market.obj
 0001:00025dd0       ??0scoped_lock@spin_rw_mutex_v3@tbb@@QAE@AAV12@_N@Z 10026dd0 f i market.obj
 0001:00025e20       ??0spin_rw_mutex_v3@tbb@@QAE@XZ 10026e20 f i market.obj
 0001:00025e60       ??0tbb_client@rml@internal@tbb@@QAE@XZ 10026e60 f i market.obj
 0001:00025e90       ??1market@internal@tbb@@QAE@XZ 10026e90 f i market.obj
 0001:00025ec0       ??1scoped_lock@spin_rw_mutex_v3@tbb@@QAE@XZ 10026ec0 f i market.obj
 0001:00025f20       ??1spin_rw_mutex_v3@tbb@@QAE@XZ 10026f20 f i market.obj
 0001:00025f90       ??4?$atomic@PAVarena@internal@tbb@@@tbb@@QAEPAVarena@internal@1@PAV231@@Z 10026f90 f i market.obj
 0001:00025fc0       ??8?$iterator_impl@Viterator@?$intrusive_list_base@V?$intrusive_list@Varena@internal@tbb@@@internal@tbb@@Varena@23@@internal@tbb@@@?$intrusive_list_base@V?$intrusive_list@Varena@internal@tbb@@@internal@tbb@@Varena@23@@internal@tbb@@QBE_NABViterator@123@@Z 10026fc0 f i market.obj
 0001:00026000       ??9?$iterator_impl@Viterator@?$intrusive_list_base@V?$intrusive_list@Varena@internal@tbb@@@internal@tbb@@Varena@23@@internal@tbb@@@?$intrusive_list_base@V?$intrusive_list@Varena@internal@tbb@@@internal@tbb@@Varena@23@@internal@tbb@@QBE_NABViterator@123@@Z 10027000 f i market.obj
 0001:00026040       ??Citerator@?$intrusive_list_base@V?$intrusive_list@Varena@internal@tbb@@@internal@tbb@@Varena@23@@internal@tbb@@QBEPAVarena@23@XZ 10027040 f i market.obj
 0001:00026070       ??Diterator@?$intrusive_list_base@V?$intrusive_list@Varena@internal@tbb@@@internal@tbb@@Varena@23@@internal@tbb@@QBEAAVarena@23@XZ 10027070 f i market.obj
 0001:000260a0       ??E?$iterator_impl@Viterator@?$intrusive_list_base@V?$intrusive_list@Varena@internal@tbb@@@internal@tbb@@Varena@23@@internal@tbb@@@?$intrusive_list_base@V?$intrusive_list@Varena@internal@tbb@@@internal@tbb@@Varena@23@@internal@tbb@@QAEAAViterator@123@XZ 100270a0 f i market.obj
 0001:000260e0       ??_H@YGXPAXIIP6EPAX0@Z@Z   100270e0 f i market.obj
 0001:00026150       ?acquire@scoped_lock@spin_mutex@tbb@@QAEXAAV23@@Z 10027150 f i market.obj
 0001:00026180       ?advance_global_reload_epoch@market@internal@tbb@@AAEXXZ 10027180 f i market.obj
 0001:000261c0       ?assert_market_valid@market@internal@tbb@@ABEXXZ 100271c0 f i market.obj
 0001:00026240       ?assert_ok@?$intrusive_list_base@V?$intrusive_list@Varena@internal@tbb@@@internal@tbb@@Varena@23@@internal@tbb@@ABEXXZ 10027240 f i market.obj
 0001:000262a0       ?assert_priority_valid@internal@tbb@@YAXH@Z 100272a0 f i market.obj
 0001:000262d0       ?begin@?$intrusive_list_base@V?$intrusive_list@Varena@internal@tbb@@@internal@tbb@@Varena@23@@internal@tbb@@QAE?AViterator@123@XZ 100272d0 f i market.obj
 0001:00026300       ?empty@?$intrusive_list_base@V?$intrusive_list@Varena@internal@tbb@@@internal@tbb@@Varena@23@@internal@tbb@@QBE_NXZ 10027300 f i market.obj
 0001:00026340       ?empty@?$task_stream@$02@internal@tbb@@QAE_NH@Z 10027340 f i market.obj
 0001:00026380       ?end@?$intrusive_list_base@V?$intrusive_list@Varena@internal@tbb@@@internal@tbb@@Varena@23@@internal@tbb@@QAE?AViterator@123@XZ 10027380 f i market.obj
 0001:000263b0       ?fetch_and_add@?$atomic_traits@$03$01@internal@tbb@@SAHPCXH@Z 100273b0 f i market.obj
 0001:000263d0       ?item@?$intrusive_list@Varena@internal@tbb@@@internal@tbb@@CAAAVarena@23@PAUintrusive_list_node@23@@Z 100273d0 f i market.obj
 0001:000263e0       ?item@?$intrusive_list_base@V?$intrusive_list@Varena@internal@tbb@@@internal@tbb@@Varena@23@@internal@tbb@@CAAAVarena@23@PAUintrusive_list_node@23@@Z 100273e0 f i market.obj
 0001:00026400       ?item@?$iterator_impl@Viterator@?$intrusive_list_base@V?$intrusive_list@Varena@internal@tbb@@@internal@tbb@@Varena@23@@internal@tbb@@@?$intrusive_list_base@V?$intrusive_list@Varena@internal@tbb@@@internal@tbb@@Varena@23@@internal@tbb@@IBEAAVarena@34@XZ 10027400 f i market.obj
 0001:00026430       ?lock@spin_rw_mutex_v3@tbb@@QAEXXZ 10027430 f i market.obj
 0001:00026460       ?max_job_count@market@internal@tbb@@EBEIXZ 10027460 f i market.obj
 0001:00026480       ?min_stack_size@market@internal@tbb@@EBEIXZ 10027480 f i market.obj
 0001:000264b0       ?must_have_concurrency@arena@internal@tbb@@QBE_NXZ 100274b0 f i market.obj
 0001:00026510       ?must_join_workers@market@internal@tbb@@QBE_NXZ 10027510 f i market.obj
 0001:00026530       ?node@?$intrusive_list@Varena@internal@tbb@@@internal@tbb@@CAAAUintrusive_list_node@23@AAVarena@23@@Z 10027530 f i market.obj
 0001:00026540       ?node@?$intrusive_list_base@V?$intrusive_list@Varena@internal@tbb@@@internal@tbb@@Varena@23@@internal@tbb@@CAAAUintrusive_list_node@23@AAVarena@23@@Z 10027540 f i market.obj
 0001:00026560       ?num_workers_active@arena@internal@tbb@@QAEIXZ 10027560 f i market.obj
 0001:00026590       ?policy@market@internal@tbb@@EBE?AW4policy_type@client@rml@@XZ 10027590 f i market.obj
 0001:000265b0       ?push_front@?$intrusive_list_base@V?$intrusive_list@Varena@internal@tbb@@@internal@tbb@@Varena@23@@internal@tbb@@QAEXAAVarena@23@@Z 100275b0 f i market.obj
 0001:00026690       ?recall_by_mandatory_request@arena@internal@tbb@@QBE_NXZ 10027690 f i market.obj
 0001:000266e0       ?release@scoped_lock@spin_mutex@tbb@@QAEXXZ 100276e0 f i market.obj
 0001:00026710       ?remove@?$intrusive_list_base@V?$intrusive_list@Varena@internal@tbb@@@internal@tbb@@Varena@23@@internal@tbb@@QAEXAAVarena@23@@Z 10027710 f i market.obj
 0001:00026880       ?reset_global_priority@market@internal@tbb@@AAEXXZ 10027880 f i market.obj
 0001:000268b0       ?self@?$iterator_impl@Viterator@?$intrusive_list_base@V?$intrusive_list@Varena@internal@tbb@@@internal@tbb@@Varena@23@@internal@tbb@@@?$intrusive_list_base@V?$intrusive_list@Varena@internal@tbb@@@internal@tbb@@Varena@23@@internal@tbb@@AAEAAViterator@234@XZ 100278b0 f i market.obj
 0001:000268d0       ?size@?$intrusive_list_base@V?$intrusive_list@Varena@internal@tbb@@@internal@tbb@@Varena@23@@internal@tbb@@QBEIXZ 100278d0 f i market.obj
 0001:000268f0       ?store_with_release@?$atomic_impl@PAVarena@internal@tbb@@@internal@tbb@@IAEPAVarena@23@PAV423@@Z 100278f0 f i market.obj
 0001:00026940       ?unlock@spin_rw_mutex_v3@tbb@@QAEXXZ 10027940 f i market.obj
 0001:00026980       ?update_global_top_priority@market@internal@tbb@@AAEXH@Z 10027980 f i market.obj
 0001:000269f0       ?version@market@internal@tbb@@EBEIXZ 100279f0 f i market.obj
 0001:00026a10       ?worker_stack_size@market@internal@tbb@@QBEIXZ 10027a10 f i market.obj
 0001:00026b20       ?attach_arena@generic_scheduler@internal@tbb@@QAEXPAVarena@23@I_N@Z 10027b20 f   arena.obj
 0001:00026c50       ?nested_arena_entry@generic_scheduler@internal@tbb@@QAEXPAVarena@23@I@Z 10027c50 f   arena.obj
 0001:00026da0       ?nested_arena_exit@generic_scheduler@internal@tbb@@QAEXXZ 10027da0 f   arena.obj
 0001:00026ea0       ?wait_until_empty@generic_scheduler@internal@tbb@@QAEXXZ 10027ea0 f   arena.obj
 0001:00026f50       ?internal_initialize@task_arena_base@internal@interface7@tbb@@IAEXXZ 10027f50 f   arena.obj
 0001:000270f0       ?internal_terminate@task_arena_base@internal@interface7@tbb@@IAEXXZ 100280f0 f   arena.obj
 0001:00027150       ?internal_attach@task_arena_base@internal@interface7@tbb@@IAEXXZ 10028150 f   arena.obj
 0001:000272a0       ?internal_enqueue@task_arena_base@internal@interface7@tbb@@IBEXAAVtask@4@H@Z 100282a0 f   arena.obj
 0001:000273a0       ?internal_execute@task_arena_base@internal@interface7@tbb@@IBEXAAVdelegate_base@234@@Z 100283a0 f   arena.obj
 0001:00027a80       ?internal_wait@task_arena_base@internal@interface7@tbb@@IBEXXZ 10028a80 f   arena.obj
 0001:00027d60       ?internal_current_slot@task_arena_base@internal@interface7@tbb@@KAHXZ 10028d60 f   arena.obj
 0001:00027db0       ?internal_max_concurrency@task_arena_base@internal@interface7@tbb@@KAHPBVtask_arena@34@@Z 10028db0 f   arena.obj
 0001:00027e80       ?isolate_within_arena@internal@interface7@tbb@@YAXAAVdelegate_base@123@H@Z 10028e80 f   arena.obj
 0001:00027fa0       ?restore_priority_if_need@arena@internal@tbb@@AAEXXZ 10028fa0 f   arena.obj
 0001:00028050       ??0arena@internal@tbb@@QAE@AAVmarket@12@II@Z 10029050 f   arena.obj
 0001:00028420       ?allocate_arena@arena@internal@tbb@@SAAAV123@AAVmarket@23@II@Z 10029420 f   arena.obj
 0001:00028540       ?free_arena@arena@internal@tbb@@QAEXXZ 10029540 f   arena.obj
 0001:000288a0       ?is_out_of_work@arena@internal@tbb@@QAE_NXZ 100298a0 f   arena.obj
 0001:00028d80       ?enqueue_task@arena@internal@tbb@@QAEXAAVtask@3@HAAVFastRandom@23@@Z 10029d80 f   arena.obj
 0001:00028f90       ?process@arena@internal@tbb@@QAEXAAVgeneric_scheduler@23@@Z 10029f90 f   arena.obj
 0001:00029440       ?orphan_offloaded_tasks@arena@internal@tbb@@QAEXAAVgeneric_scheduler@23@@Z 1002a440 f   arena.obj
 0001:00029530       ?workers_task_node_count@arena@internal@tbb@@QAEHXZ 1002a530 f   arena.obj
 0001:000295a0       ?has_enqueued_tasks@arena@internal@tbb@@QAE_NXZ 1002a5a0 f   arena.obj
 0001:00029600       ?occupy_free_slot_in_range@arena@internal@tbb@@QAEIAAVgeneric_scheduler@23@II@Z 1002a600 f   arena.obj
 0001:00029790       ??$?0$$V@?$_Compressed_pair@V?$tbb_allocator@PAVtask@tbb@@@tbb@@V?$_Deque_val@U?$_Deque_simple_types@PAVtask@tbb@@@std@@@std@@$00@std@@QAE@U_Zero_then_variadic_args_t@1@@Z 1002a790 f i arena.obj
 0001:000297d0       ??$?0PAVtask@tbb@@@?$tbb_allocator@PAPAVtask@tbb@@@tbb@@QAE@ABV?$tbb_allocator@PAVtask@tbb@@@1@@Z 1002a7d0 f i arena.obj
 0001:000297f0       ??$?0PAVtask@tbb@@@?$tbb_allocator@U_Container_proxy@std@@@tbb@@QAE@ABV?$tbb_allocator@PAVtask@tbb@@@1@@Z 1002a7f0 f i arena.obj
 0001:00029810       ??$?0U?$integral_constant@_N$0A@@std@@@_Unused_parameter@std@@QAE@$$QAU?$integral_constant@_N$0A@@1@@Z 1002a810 f i arena.obj
 0001:00029830       ??$_Construct1@PAPAVtask@tbb@@$$V@?$_Normal_allocator_traits@V?$tbb_allocator@PAPAVtask@tbb@@@tbb@@@std@@SAXU?$integral_constant@_N$0A@@1@AAV?$tbb_allocator@PAPAVtask@tbb@@@tbb@@PAPAPAVtask@4@@Z 1002a830 f i arena.obj
 0001:00029850       ??$_Construct1@PAPAVtask@tbb@@AAPAPAV12@@?$_Normal_allocator_traits@V?$tbb_allocator@PAPAVtask@tbb@@@tbb@@@std@@SAXU?$integral_constant@_N$0A@@1@AAV?$tbb_allocator@PAPAVtask@tbb@@@tbb@@PAPAPAVtask@4@AAPAPAV54@@Z 1002a850 f i arena.obj
 0001:00029880       ??$_Construct1@PAVtask@tbb@@ABQAV12@@?$_Normal_allocator_traits@V?$tbb_allocator@PAVtask@tbb@@@tbb@@@std@@SAXU?$integral_constant@_N$0A@@1@AAV?$tbb_allocator@PAVtask@tbb@@@tbb@@PAPAVtask@4@ABQAV54@@Z 1002a880 f i arena.obj
 0001:000298b0       ??$_Construct1@U_Container_proxy@std@@U12@@?$_Normal_allocator_traits@V?$tbb_allocator@U_Container_proxy@std@@@tbb@@@std@@SAXU?$integral_constant@_N$0A@@1@AAV?$tbb_allocator@U_Container_proxy@std@@@tbb@@PAU_Container_proxy@1@$$QAU51@@Z 1002a8b0 f i arena.obj
 0001:000298e0       ??$_Deallocate_plain@V?$tbb_allocator@U_Container_proxy@std@@@tbb@@$0A@@std@@YAXAAV?$tbb_allocator@U_Container_proxy@std@@@tbb@@QAU_Container_proxy@0@@Z 1002a8e0 f i arena.obj
 0001:00029900       ??$_Destroy1@PAPAVtask@tbb@@@?$_Normal_allocator_traits@V?$tbb_allocator@PAPAVtask@tbb@@@tbb@@@std@@SAXAAV?$tbb_allocator@PAPAVtask@tbb@@@tbb@@PAPAPAVtask@3@U?$integral_constant@_N$0A@@1@@Z 1002a900 f i arena.obj
 0001:00029920       ??$_Destroy1@PAVtask@tbb@@@?$_Normal_allocator_traits@V?$tbb_allocator@PAVtask@tbb@@@tbb@@@std@@SAXAAV?$tbb_allocator@PAVtask@tbb@@@tbb@@PAPAVtask@3@U?$integral_constant@_N$0A@@1@@Z 1002a920 f i arena.obj
 0001:00029940       ??$_Destroy1@U_Container_proxy@std@@@?$_Normal_allocator_traits@V?$tbb_allocator@U_Container_proxy@std@@@tbb@@@std@@SAXAAV?$tbb_allocator@U_Container_proxy@std@@@tbb@@PAU_Container_proxy@1@U?$integral_constant@_N$0A@@1@@Z 1002a940 f i arena.obj
 0001:00029960       ??$_Destroy_range1@V?$tbb_allocator@PAPAVtask@tbb@@@tbb@@@std@@YAXPAPAPAVtask@tbb@@0AAV?$tbb_allocator@PAPAVtask@tbb@@@2@U?$integral_constant@_N$0A@@0@@Z 1002a960 f i arena.obj
 0001:000299a0       ??$_Destroy_range@V?$tbb_allocator@PAPAVtask@tbb@@@tbb@@@std@@YAXPAPAPAVtask@tbb@@0AAV?$tbb_allocator@PAPAVtask@tbb@@@2@@Z 1002a9a0 f i arena.obj
 0001:000299e0       ??$_Emplace_back@$$V@?$_Uninitialized_backout_al@PAPAPAVtask@tbb@@V?$tbb_allocator@PAPAVtask@tbb@@@2@@std@@QAEXXZ 1002a9e0 f i arena.obj
 0001:00029a30       ??$_Emplace_back@AAPAPAVtask@tbb@@@?$_Uninitialized_backout_al@PAPAPAVtask@tbb@@V?$tbb_allocator@PAPAVtask@tbb@@@2@@std@@QAEXAAPAPAVtask@tbb@@@Z 1002aa30 f i arena.obj
 0001:00029a90       ??$_Ptr_copy_cat@PAPAVtask@tbb@@PAPAV12@@std@@YA?AU_Really_trivial_ptr_iterator_tag@0@ABQAPAPAVtask@tbb@@0@Z 1002aa90 f i arena.obj
 0001:00029aa0       ??$_Rechecked@PAPAPAVtask@tbb@@PAPAPAV12@@std@@YAAAPAPAPAVtask@tbb@@AAPAPAPAV12@QAPAPAV12@@Z 1002aaa0 f i arena.obj
 0001:00029ab0       ??$_Unchecked@PAPAPAVtask@tbb@@@std@@YAPAPAPAVtask@tbb@@PAPAPAV12@@Z 1002aab0 f i arena.obj
 0001:00029ac0       ??$_Unfancy@PAPAVtask@tbb@@@std@@YAPAPAPAVtask@tbb@@PAPAPAV12@@Z 1002aac0 f i arena.obj
 0001:00029ad0       ??$_Unfancy@PAVtask@tbb@@@std@@YAPAPAVtask@tbb@@PAPAV12@@Z 1002aad0 f i arena.obj
 0001:00029ae0       ??$_Unfancy@U_Container_proxy@std@@@std@@YAPAU_Container_proxy@0@PAU10@@Z 1002aae0 f i arena.obj
 0001:00029af0       ??$_Uninitialized_copy@PAPAPAVtask@tbb@@PAPAPAV12@V?$tbb_allocator@PAPAVtask@tbb@@@2@@std@@YAPAPAPAVtask@tbb@@QAPAPAV12@0PAPAPAV12@AAV?$tbb_allocator@PAPAVtask@tbb@@@2@@Z 1002aaf0 f i arena.obj
 0001:00029be0       ??$_Uninitialized_copy_al_unchecked@PAPAPAVtask@tbb@@PAPAPAV12@V?$tbb_allocator@PAPAVtask@tbb@@@2@@std@@YAPAPAPAVtask@tbb@@PAPAPAV12@QAPAPAV12@1AAV?$tbb_allocator@PAPAVtask@tbb@@@2@U_General_ptr_iterator_tag@0@U_Unused_parameter@0@@Z 1002abe0 f i arena.obj
 0001:00029cc0       ??$_Uninitialized_value_construct_n1@PAPAPAVtask@tbb@@IV?$tbb_allocator@PAPAVtask@tbb@@@2@@std@@YAPAPAPAVtask@tbb@@QAPAPAV12@IAAV?$tbb_allocator@PAPAVtask@tbb@@@2@U?$integral_constant@_N$0A@@0@@Z 1002acc0 f i arena.obj
 0001:00029da0       ??$_Uninitialized_value_construct_n@PAPAPAVtask@tbb@@IV?$tbb_allocator@PAPAVtask@tbb@@@2@@std@@YAPAPAPAVtask@tbb@@PAPAPAV12@IAAV?$tbb_allocator@PAPAVtask@tbb@@@2@@Z 1002ada0 f i arena.obj
 0001:00029de0       ??$__TBB_load_with_acquire@PAVgeneric_scheduler@internal@tbb@@@internal@tbb@@YAPAVgeneric_scheduler@01@ADSAV201@@Z 1002ade0 f i arena.obj
 0001:00029e00       ??$__TBB_load_with_acquire@PAVtask@tbb@@@internal@tbb@@YAPAVtask@1@ADSAV21@@Z 1002ae00 f i arena.obj
 0001:00029e20       ??$__TBB_store_with_release@PAVgeneric_scheduler@internal@tbb@@PAV123@@internal@tbb@@YAXACRAVgeneric_scheduler@01@PAV201@@Z 1002ae20 f i arena.obj
 0001:00029e40       ??$addressof@PAPAVtask@tbb@@@std@@YAPAPAPAVtask@tbb@@AAPAPAV12@@Z 1002ae40 f i arena.obj
 0001:00029e50       ??$addressof@V?$_Deque_val@U?$_Deque_simple_types@PAVtask@tbb@@@std@@@std@@@std@@YAPAV?$_Deque_val@U?$_Deque_simple_types@PAVtask@tbb@@@std@@@0@AAV10@@Z 1002ae50 f i arena.obj
 0001:00029e60       ??$advertise_new_work@$01@arena@internal@tbb@@QAEXXZ 1002ae60 f i arena.obj
 0001:0002a0f0       ??$as_atomic@PAVgeneric_scheduler@internal@tbb@@@internal@tbb@@YAAAU?$atomic@PAVgeneric_scheduler@internal@tbb@@@1@AAPAVgeneric_scheduler@01@@Z 1002b0f0 f i arena.obj
 0001:0002a100       ??$as_atomic@PAVtask@tbb@@@internal@tbb@@YAAAU?$atomic@PAVtask@tbb@@@1@AAPAVtask@1@@Z 1002b100 f i arena.obj
 0001:0002a110       ??$as_atomic@PAVtask_group_context@tbb@@@internal@tbb@@YAAAU?$atomic@PAVtask_group_context@tbb@@@1@AAPAVtask_group_context@1@@Z 1002b110 f i arena.obj
 0001:0002a120       ??$atomic_update@HHU?$less@H@std@@@internal@tbb@@YAHAAU?$atomic@H@1@HU?$less@H@std@@@Z 1002b120 f i arena.obj
 0001:0002a1d0       ??$atomic_update@IIU?$less@I@std@@@internal@tbb@@YAIAAU?$atomic@I@1@IU?$less@I@std@@@Z 1002b1d0 f i arena.obj
 0001:0002a280       ??$compare_and_swap@$0A@@?$atomic_impl@PAVarena@internal@tbb@@@internal@tbb@@QAEPAVarena@12@PAV312@0@Z 1002b280 f i arena.obj
 0001:0002a2d0       ??$compare_and_swap@$0A@@?$atomic_impl@PAVgeneric_scheduler@internal@tbb@@@internal@tbb@@QAEPAVgeneric_scheduler@12@PAV312@0@Z 1002b2d0 f i arena.obj
 0001:0002a320       ??$compare_and_swap@$0A@@?$atomic_impl@PAVtask@tbb@@@internal@tbb@@QAEPAVtask@2@PAV32@0@Z 1002b320 f i arena.obj
 0001:0002a370       ??$construct@PAPAVtask@tbb@@$$V@?$_Normal_allocator_traits@V?$tbb_allocator@PAPAVtask@tbb@@@tbb@@@std@@SAXAAV?$tbb_allocator@PAPAVtask@tbb@@@tbb@@PAPAPAVtask@3@@Z 1002b370 f i arena.obj
 0001:0002a3a0       ??$construct@PAPAVtask@tbb@@$$V@?$tbb_allocator@PAPAVtask@tbb@@@tbb@@QAEXPAPAPAVtask@1@@Z 1002b3a0 f i arena.obj
 0001:0002a410       ??$construct@PAPAVtask@tbb@@AAPAPAV12@@?$_Normal_allocator_traits@V?$tbb_allocator@PAPAVtask@tbb@@@tbb@@@std@@SAXAAV?$tbb_allocator@PAPAVtask@tbb@@@tbb@@PAPAPAVtask@3@AAPAPAV43@@Z 1002b410 f i arena.obj
 0001:0002a450       ??$construct@PAPAVtask@tbb@@AAPAPAV12@@?$tbb_allocator@PAPAVtask@tbb@@@tbb@@QAEXPAPAPAVtask@1@AAPAPAV21@@Z 1002b450 f i arena.obj
 0001:0002a4a0       ??$construct@PAVtask@tbb@@ABQAV12@@?$_Normal_allocator_traits@V?$tbb_allocator@PAVtask@tbb@@@tbb@@@std@@SAXAAV?$tbb_allocator@PAVtask@tbb@@@tbb@@PAPAVtask@3@ABQAV43@@Z 1002b4a0 f i arena.obj
 0001:0002a4e0       ??$construct@PAVtask@tbb@@ABQAV12@@?$tbb_allocator@PAVtask@tbb@@@tbb@@QAEXPAPAVtask@1@ABQAV21@@Z 1002b4e0 f i arena.obj
 0001:0002a530       ??$construct@U_Container_proxy@std@@U12@@?$_Normal_allocator_traits@V?$tbb_allocator@U_Container_proxy@std@@@tbb@@@std@@SAXAAV?$tbb_allocator@U_Container_proxy@std@@@tbb@@PAU_Container_proxy@1@$$QAU41@@Z 1002b530 f i arena.obj
 0001:0002a570       ??$construct@U_Container_proxy@std@@U12@@?$tbb_allocator@U_Container_proxy@std@@@tbb@@QAEXPAU_Container_proxy@std@@$$QAU23@@Z 1002b570 f i arena.obj
 0001:0002a5d0       ??$destroy@PAPAVtask@tbb@@@?$_Normal_allocator_traits@V?$tbb_allocator@PAPAVtask@tbb@@@tbb@@@std@@SAXAAV?$tbb_allocator@PAPAVtask@tbb@@@tbb@@PAPAPAVtask@3@@Z 1002b5d0 f i arena.obj
 0001:0002a600       ??$destroy@PAVtask@tbb@@@?$_Normal_allocator_traits@V?$tbb_allocator@PAVtask@tbb@@@tbb@@@std@@SAXAAV?$tbb_allocator@PAVtask@tbb@@@tbb@@PAPAVtask@3@@Z 1002b600 f i arena.obj
 0001:0002a630       ??$destroy@U_Container_proxy@std@@@?$_Normal_allocator_traits@V?$tbb_allocator@U_Container_proxy@std@@@tbb@@@std@@SAXAAV?$tbb_allocator@U_Container_proxy@std@@@tbb@@PAU_Container_proxy@1@@Z 1002b630 f i arena.obj
 0001:0002a660       ??$forward@AAPAPAVtask@tbb@@@std@@YAAAPAPAVtask@tbb@@AAPAPAV12@@Z 1002b660 f i arena.obj
 0001:0002a670       ??$forward@ABQAVtask@tbb@@@std@@YAABQAVtask@tbb@@ABQAV12@@Z 1002b670 f i arena.obj
 0001:0002a680       ??$forward@U_Container_proxy@std@@@std@@YA$$QAU_Container_proxy@0@AAU10@@Z 1002b680 f i arena.obj
 0001:0002a690       ??$forward@Vspawn_functor@graph@interface10@flow@tbb@@@std@@YA$$QAVspawn_functor@graph@interface10@flow@tbb@@AAV12345@@Z 1002b690 f i arena.obj
 0001:0002a6a0       ??$free_task@$02@generic_scheduler@internal@tbb@@QAEXAAVtask@2@@Z 1002b6a0 f i arena.obj
 0001:0002a800       ??$move@AAVspawn_functor@graph@interface10@flow@tbb@@@std@@YA$$QAVspawn_functor@graph@interface10@flow@tbb@@AAV12345@@Z 1002b800 f i arena.obj
 0001:0002a810       ??$notify@Vdelegated_task@internal@interface7@tbb@@@concurrent_monitor@internal@tbb@@QAEXABVdelegated_task@1interface7@2@@Z 1002b810 f i arena.obj
 0001:0002a840       ??$notify_relaxed@Vdelegated_task@internal@interface7@tbb@@@concurrent_monitor@internal@tbb@@QAEXABVdelegated_task@1interface7@2@@Z 1002b840 f i arena.obj
 0001:0002aa20       ??$occupy_free_slot@$00@arena@internal@tbb@@QAEIAAVgeneric_scheduler@12@@Z 1002ba20 f i arena.obj
 0001:0002ab10       ??$occupy_free_slot@$0A@@arena@internal@tbb@@QAEIAAVgeneric_scheduler@12@@Z 1002bb10 f i arena.obj
 0001:0002abf0       ??$on_thread_leaving@$00@arena@internal@tbb@@QAEXXZ 1002bbf0 f i arena.obj
 0001:0002acf0       ??$on_thread_leaving@$0BAAA@@arena@internal@tbb@@QAEXXZ 1002bcf0 f i arena.obj
 0001:0002add0       ??$poison_value@PAVobserver_proxy@internal@tbb@@@internal@tbb@@YAXAAPAVobserver_proxy@01@@Z 1002bdd0 f i arena.obj
 0001:0002adf0       ??$punned_cast@PAPAVobserver_proxy@internal@tbb@@$$CBI@internal@tbb@@YAPAPAVobserver_proxy@01@PBI@Z 1002bdf0 f i arena.obj
 0001:0002ae10       ??$spin_wait_while_eq@PAVtask_group_context@tbb@@PAV12@@internal@tbb@@YAXADSAVtask_group_context@1@PAV21@@Z 1002be10 f i arena.obj
 0001:0002ae90       ??$suppress_unused_warning@$$BY0HE@D@internal@tbb@@YAXAAY0HE@$$CBD@Z 1002be90 f i arena.obj
 0001:0002aea0       ??$suppress_unused_warning@PBVtask_group_context@tbb@@@internal@tbb@@YAXABQBVtask_group_context@1@@Z 1002bea0 f i arena.obj
 0001:0002aeb0       ??$to_bits@H@?$atomic_impl@H@internal@tbb@@SAHH@Z 1002beb0 f i arena.obj
 0001:0002aee0       ??$to_bits@PAVgeneric_scheduler@internal@tbb@@@?$atomic_impl@PAVgeneric_scheduler@internal@tbb@@@internal@tbb@@SAHPAVgeneric_scheduler@12@@Z 1002bee0 f i arena.obj
 0001:0002af10       ??$to_bits@PAVtask@tbb@@@?$atomic_impl@PAVtask@tbb@@@internal@tbb@@SAHPAVtask@2@@Z 1002bf10 f i arena.obj
 0001:0002af40       ??$to_bits@PAVtask_group_context@tbb@@@?$atomic_impl@PAVtask_group_context@tbb@@@internal@tbb@@SAHPAVtask_group_context@2@@Z 1002bf40 f i arena.obj
 0001:0002af70       ??$to_bits@_N@?$atomic_impl@_N@internal@tbb@@SAC_N@Z 1002bf70 f i arena.obj
 0001:0002afa0       ??$to_bits_ref@$$CD_N@?$atomic_impl@_N@internal@tbb@@SAAACAD_N@Z 1002bfa0 f i arena.obj
 0001:0002afd0       ??$to_bits_ref@PAVtask_group_context@tbb@@@?$atomic_impl@PAVtask_group_context@tbb@@@internal@tbb@@SAAAHAAPAVtask_group_context@2@@Z 1002bfd0 f i arena.obj
 0001:0002b000       ??$to_bits_ref@_N@?$atomic_impl@_N@internal@tbb@@SAAACAA_N@Z 1002c000 f i arena.obj
 0001:0002b030       ??$to_value@PAVarena@internal@tbb@@@?$atomic_impl@PAVarena@internal@tbb@@@internal@tbb@@SAPAVarena@12@H@Z 1002c030 f i arena.obj
 0001:0002b0a0       ??$to_value@PAVgeneric_scheduler@internal@tbb@@@?$atomic_impl@PAVgeneric_scheduler@internal@tbb@@@internal@tbb@@SAPAVgeneric_scheduler@12@H@Z 1002c0a0 f i arena.obj
 0001:0002b110       ??$to_value@PAVtask@tbb@@@?$atomic_impl@PAVtask@tbb@@@internal@tbb@@SAPAVtask@2@H@Z 1002c110 f i arena.obj
 0001:0002b180       ??$to_value@_N@?$atomic_impl@_N@internal@tbb@@SA_NC@Z 1002c180 f i arena.obj
 0001:0002b1f0       ??0?$_Deque_alloc@U?$_Deque_base_types@PAVtask@tbb@@V?$tbb_allocator@PAVtask@tbb@@@2@@std@@@std@@QAE@XZ 1002c1f0 f i arena.obj
 0001:0002b230       ??0?$_Deque_const_iterator@V?$_Deque_val@U?$_Deque_simple_types@PAVtask@tbb@@@std@@@std@@@std@@QAE@IPBU_Container_base12@1@@Z 1002c230 f i arena.obj
 0001:0002b2b0       ??0?$_Deque_iterator@V?$_Deque_val@U?$_Deque_simple_types@PAVtask@tbb@@@std@@@std@@@std@@QAE@IPBU_Container_base12@1@@Z 1002c2b0 f i arena.obj
 0001:0002b2f0       ??0?$_Deque_val@U?$_Deque_simple_types@PAVtask@tbb@@@std@@@std@@QAE@XZ 1002c2f0 f i arena.obj
 0001:0002b340       ??0?$_Uninitialized_backout_al@PAPAPAVtask@tbb@@V?$tbb_allocator@PAPAVtask@tbb@@@2@@std@@QAE@PAPAPAVtask@tbb@@AAV?$tbb_allocator@PAPAVtask@tbb@@@3@@Z 1002c340 f i arena.obj
 0001:0002b380       ??0?$context_guard_helper@$0A@@internal@tbb@@QAE@XZ 1002c380 f i arena.obj
 0001:0002b3c0       ??0?$converter@PAVarena@internal@tbb@@@?$atomic_impl@PAVarena@internal@tbb@@@internal@tbb@@QAE@XZ 1002c3c0 f i arena.obj
 0001:0002b3e0       ??0?$converter@PAVgeneric_scheduler@internal@tbb@@@?$atomic_impl@PAVgeneric_scheduler@internal@tbb@@@internal@tbb@@QAE@PAVgeneric_scheduler@23@@Z 1002c3e0 f i arena.obj
 0001:0002b400       ??0?$converter@PAVgeneric_scheduler@internal@tbb@@@?$atomic_impl@PAVgeneric_scheduler@internal@tbb@@@internal@tbb@@QAE@XZ 1002c400 f i arena.obj
 0001:0002b420       ??0?$converter@PAVtask@tbb@@@?$atomic_impl@PAVtask@tbb@@@internal@tbb@@QAE@PAVtask@3@@Z 1002c420 f i arena.obj
 0001:0002b440       ??0?$converter@PAVtask@tbb@@@?$atomic_impl@PAVtask@tbb@@@internal@tbb@@QAE@XZ 1002c440 f i arena.obj
 0001:0002b460       ??0?$converter@PAVtask_group_context@tbb@@@?$atomic_impl@PAVtask_group_context@tbb@@@internal@tbb@@QAE@PAVtask_group_context@3@@Z 1002c460 f i arena.obj
 0001:0002b480       ??0?$deque@PAVtask@tbb@@V?$tbb_allocator@PAVtask@tbb@@@2@@std@@QAE@XZ 1002c480 f i arena.obj
 0001:0002b4b0       ??0?$function_task@Vspawn_functor@graph@interface10@flow@tbb@@@internal@tbb@@QAE@$$QAVspawn_functor@graph@interface10@flow@2@@Z 1002c4b0 f i arena.obj
 0001:0002b500       ??0?$padded@U?$queue_and_mutex@PAVtask@tbb@@Vspin_mutex@2@@internal@tbb@@$0IA@@internal@tbb@@QAE@XZ 1002c500 f i arena.obj
 0001:0002b530       ??0?$padded@Uarena_base@internal@tbb@@$0IA@@internal@tbb@@QAE@XZ 1002c530 f i arena.obj
 0001:0002b560       ??0?$padded@Uintrusive_list_node@internal@tbb@@$0IA@@internal@tbb@@QAE@XZ 1002c560 f i arena.obj
 0001:0002b590       ??0?$padded_base@U?$queue_and_mutex@PAVtask@tbb@@Vspin_mutex@2@@internal@tbb@@$0IA@$0BI@@internal@tbb@@QAE@XZ 1002c590 f i arena.obj
 0001:0002b5c0       ??0?$padded_base@Uarena_base@internal@tbb@@$0IA@$0M@@internal@tbb@@QAE@XZ 1002c5c0 f i arena.obj
 0001:0002b5f0       ??0?$padded_base@Uintrusive_list_node@internal@tbb@@$0IA@$07@internal@tbb@@QAE@XZ 1002c5f0 f i arena.obj
 0001:0002b620       ??0?$ptr_converter@PAPAVtask_group_context@tbb@@@?$atomic_impl@PAVtask_group_context@tbb@@@internal@tbb@@QAE@PAPAVtask_group_context@3@@Z 1002c620 f i arena.obj
 0001:0002b640       ??0?$queue_and_mutex@PAVtask@tbb@@Vspin_mutex@2@@internal@tbb@@QAE@XZ 1002c640 f i arena.obj
 0001:0002b6b0       ??0?$task_stream@$02@internal@tbb@@QAE@XZ 1002c6b0 f i arena.obj
 0001:0002b720       ??0?$tbb_allocator@PAVtask@tbb@@@tbb@@QAE@XZ 1002c720 f i arena.obj
 0001:0002b740       ??0_Container_base12@std@@QAE@XZ 1002c740 f i arena.obj
 0001:0002b760       ??0_Container_proxy@std@@QAE@XZ 1002c760 f i arena.obj
 0001:0002b790       ??0_Iterator_base12@std@@QAE@XZ 1002c790 f i arena.obj
 0001:0002b7c0       ??0arena_base@internal@tbb@@QAE@XZ 1002c7c0 f i arena.obj
 0001:0002b850       ??0auto_empty_task@internal@tbb@@QAE@PAVgeneric_scheduler@12@PAVtask_group_context@2@@Z 1002c850 f i arena.obj
 0001:0002b8b0       ??0delegated_task@internal@interface7@tbb@@QAE@AAVdelegate_base@123@AAVconcurrent_monitor@13@PAVtask@3@@Z 1002c8b0 f i arena.obj
 0001:0002b900       ??0empty_task@tbb@@QAE@XZ  1002c900 f i arena.obj
 0001:0002b930       ??0isolation_guard@internal@interface7@tbb@@QAE@AAH@Z 1002c930 f i arena.obj
 0001:0002b970       ??0mail_inbox@internal@tbb@@QAE@XZ 1002c970 f i arena.obj
 0001:0002b990       ??0nested_arena_context@internal@tbb@@QAE@PAVgeneric_scheduler@12@PAVarena@12@I_N2@Z 1002c990 f i arena.obj
 0001:0002ba60       ??0observer_list@internal@tbb@@QAE@XZ 1002ca60 f i arena.obj
 0001:0002bb70       ??0scheduler_state@internal@tbb@@QAE@XZ 1002cb70 f i arena.obj
 0001:0002bba0       ??0wait_task@internal@interface7@tbb@@QAE@AAVbinary_semaphore@13@@Z 1002cba0 f i arena.obj
 0001:0002bbe0       ??1?$_Deque_alloc@U?$_Deque_base_types@PAVtask@tbb@@V?$tbb_allocator@PAVtask@tbb@@@2@@std@@@std@@QAE@XZ 1002cbe0 f i arena.obj
 0001:0002bc30       ??1?$_Deque_const_iterator@V?$_Deque_val@U?$_Deque_simple_types@PAVtask@tbb@@@std@@@std@@@std@@QAE@XZ 1002cc30 f i arena.obj
 0001:0002bc60       ??1?$_Deque_iterator@V?$_Deque_val@U?$_Deque_simple_types@PAVtask@tbb@@@std@@@std@@@std@@QAE@XZ 1002cc60 f i arena.obj
 0001:0002bc90       ??1?$_Uninitialized_backout_al@PAPAPAVtask@tbb@@V?$tbb_allocator@PAPAVtask@tbb@@@2@@std@@QAE@XZ 1002cc90 f i arena.obj
 0001:0002bd00       ??1?$context_guard_helper@$0A@@internal@tbb@@QAE@XZ 1002cd00 f i arena.obj
 0001:0002bd70       ??1?$deque@PAVtask@tbb@@V?$tbb_allocator@PAVtask@tbb@@@2@@std@@QAE@XZ 1002cd70 f i arena.obj
 0001:0002bdd0       ??1?$function_task@Vspawn_functor@graph@interface10@flow@tbb@@@internal@tbb@@UAE@XZ 1002cdd0 f i arena.obj
 0001:0002be00       ??1?$padded@U?$queue_and_mutex@PAVtask@tbb@@Vspin_mutex@2@@internal@tbb@@$0IA@@internal@tbb@@QAE@XZ 1002ce00 f i arena.obj
 0001:0002be30       ??1?$padded@Uarena_base@internal@tbb@@$0IA@@internal@tbb@@QAE@XZ 1002ce30 f i arena.obj
 0001:0002be60       ??1?$padded_base@U?$queue_and_mutex@PAVtask@tbb@@Vspin_mutex@2@@internal@tbb@@$0IA@$0BI@@internal@tbb@@QAE@XZ 1002ce60 f i arena.obj
 0001:0002be90       ??1?$padded_base@Uarena_base@internal@tbb@@$0IA@$0M@@internal@tbb@@QAE@XZ 1002ce90 f i arena.obj
 0001:0002bec0       ??1?$queue_and_mutex@PAVtask@tbb@@Vspin_mutex@2@@internal@tbb@@QAE@XZ 1002cec0 f i arena.obj
 0001:0002bef0       ??1?$task_stream@$02@internal@tbb@@QAE@XZ 1002cef0 f i arena.obj
 0001:0002bf80       ??1_Iterator_base12@std@@QAE@XZ 1002cf80 f i arena.obj
 0001:0002c020       ??1arena@internal@tbb@@QAE@XZ 1002d020 f i arena.obj
 0001:0002c050       ??1arena_base@internal@tbb@@QAE@XZ 1002d050 f i arena.obj
 0001:0002c090       ??1auto_empty_task@internal@tbb@@QAE@XZ 1002d090 f i arena.obj
 0001:0002c0f0       ??1delegated_task@internal@interface7@tbb@@EAE@XZ 1002d0f0 f i arena.obj
 0001:0002c1a0       ??1empty_task@tbb@@UAE@XZ  1002d1a0 f i arena.obj
 0001:0002c1d0       ??1isolation_guard@internal@interface7@tbb@@QAE@XZ 1002d1d0 f i arena.obj
 0001:0002c1f0       ??1nested_arena_context@internal@tbb@@QAE@XZ 1002d1f0 f i arena.obj
 0001:0002c340       ??1wait_task@internal@interface7@tbb@@UAE@XZ 1002d340 f i arena.obj
 0001:0002c370       ??4?$atomic@PAVtask_group_context@tbb@@@tbb@@QAEPAVtask_group_context@1@PAV21@@Z 1002d370 f i arena.obj
 0001:0002c3a0       ??8?$_Deque_const_iterator@V?$_Deque_val@U?$_Deque_simple_types@PAVtask@tbb@@@std@@@std@@@std@@QBE_NABV01@@Z 1002d3a0 f i arena.obj
 0001:0002c400       ??9?$_Deque_const_iterator@V?$_Deque_val@U?$_Deque_simple_types@PAVtask@tbb@@@std@@@std@@@std@@QBE_NABV01@@Z 1002d400 f i arena.obj
 0001:0002c450       ??9cpu_ctl_env@internal@tbb@@QBE_NABV012@@Z 1002d450 f i arena.obj
 0001:0002c4a0       ??Bauto_empty_task@internal@tbb@@QAEAAVtask@2@XZ 1002d4a0 f i arena.obj
 0001:0002c4c0       ??D?$_Deque_const_iterator@V?$_Deque_val@U?$_Deque_simple_types@PAVtask@tbb@@@std@@@std@@@std@@QBEABQAVtask@tbb@@XZ 1002d4c0 f i arena.obj
 0001:0002c590       ??D?$_Deque_iterator@V?$_Deque_val@U?$_Deque_simple_types@PAVtask@tbb@@@std@@@std@@@std@@QBEAAPAVtask@tbb@@XZ 1002d590 f i arena.obj
 0001:0002c5c0       ??E?$_Deque_const_iterator@V?$_Deque_val@U?$_Deque_simple_types@PAVtask@tbb@@@std@@@std@@@std@@QAEAAV01@XZ 1002d5c0 f i arena.obj
 0001:0002c660       ??E?$_Deque_iterator@V?$_Deque_val@U?$_Deque_simple_types@PAVtask@tbb@@@std@@@std@@@std@@QAEAAV01@XZ 1002d660 f i arena.obj
 0001:0002c690       ??Iauto_empty_task@internal@tbb@@QAEPAVtask@2@XZ 1002d690 f i arena.obj
 0001:0002c6b0       ??R?$less@H@std@@QBE_NABH0@Z 1002d6b0 f i arena.obj
 0001:0002c6f0       ??R?$less@I@std@@QBE_NABI0@Z 1002d6f0 f i arena.obj
 0001:0002c730       ??Rdelegated_task@internal@interface7@tbb@@QBE_NI@Z 1002d730 f i arena.obj
 0001:0002c770       ??Rspawn_functor@graph@interface10@flow@tbb@@QBEXXZ 1002d770 f i arena.obj
 0001:0002c7a0       ??_E?$padded@U?$queue_and_mutex@PAVtask@tbb@@Vspin_mutex@2@@internal@tbb@@$0IA@@internal@tbb@@QAEPAXI@Z 1002d7a0 f i arena.obj
 0001:0002c860       ??_E?$function_task@Vspawn_functor@graph@interface10@flow@tbb@@@internal@tbb@@UAEPAXI@Z 1002d860 f i arena.obj
 0001:0002c860       ??_G?$function_task@Vspawn_functor@graph@interface10@flow@tbb@@@internal@tbb@@UAEPAXI@Z 1002d860 f i arena.obj
 0001:0002c8a0       ??_Garena@internal@tbb@@QAEPAXI@Z 1002d8a0 f i arena.obj
 0001:0002c8f0       ??_Edelegated_task@internal@interface7@tbb@@EAEPAXI@Z 1002d8f0 f i arena.obj
 0001:0002c8f0       ??_Gdelegated_task@internal@interface7@tbb@@EAEPAXI@Z 1002d8f0 f i arena.obj
 0001:0002c930       ??_Gempty_task@tbb@@UAEPAXI@Z 1002d930 f i arena.obj
 0001:0002c930       ??_Eempty_task@tbb@@UAEPAXI@Z 1002d930 f i arena.obj
 0001:0002c970       ??_Gtask_group_context@tbb@@QAEPAXI@Z 1002d970 f i arena.obj
 0001:0002c9c0       ??_Gwait_task@internal@interface7@tbb@@UAEPAXI@Z 1002d9c0 f i arena.obj
 0001:0002c9c0       ??_Ewait_task@internal@interface7@tbb@@UAEPAXI@Z 1002d9c0 f i arena.obj
 0001:0002ca00       ?_Adopt@_Iterator_base12@std@@QAEXPBU_Container_base12@2@@Z 1002da00 f i arena.obj
 0001:0002cb10       ?_Alloc_proxy@?$_Deque_alloc@U?$_Deque_base_types@PAVtask@tbb@@V?$tbb_allocator@PAVtask@tbb@@@2@@std@@@std@@QAEXXZ 1002db10 f i arena.obj
 0001:0002cbf0       ?_Clrcont@_Iterator_base12@std@@QAEXXZ 1002dbf0 f i arena.obj
 0001:0002cc10       ?_Compat@?$_Deque_const_iterator@V?$_Deque_val@U?$_Deque_simple_types@PAVtask@tbb@@@std@@@std@@@std@@QBEXABV12@@Z 1002dc10 f i arena.obj
 0001:0002cc80       ?_Free_proxy@?$_Deque_alloc@U?$_Deque_base_types@PAVtask@tbb@@V?$tbb_allocator@PAVtask@tbb@@@2@@std@@@std@@QAEXXZ 1002dc80 f i arena.obj
 0001:0002cd40       ?_Get_data@?$_Deque_alloc@U?$_Deque_base_types@PAVtask@tbb@@V?$tbb_allocator@PAVtask@tbb@@@2@@std@@@std@@QAEAAV?$_Deque_val@U?$_Deque_simple_types@PAVtask@tbb@@@std@@@2@XZ 1002dd40 f i arena.obj
 0001:0002cd70       ?_Get_data@?$_Deque_alloc@U?$_Deque_base_types@PAVtask@tbb@@V?$tbb_allocator@PAVtask@tbb@@@2@@std@@@std@@QBEABV?$_Deque_val@U?$_Deque_simple_types@PAVtask@tbb@@@std@@@2@XZ 1002dd70 f i arena.obj
 0001:0002cda0       ?_Get_first@?$_Compressed_pair@V?$tbb_allocator@PAVtask@tbb@@@tbb@@V?$_Deque_val@U?$_Deque_simple_types@PAVtask@tbb@@@std@@@std@@$00@std@@QAEAAV?$tbb_allocator@PAVtask@tbb@@@tbb@@XZ 1002dda0 f i arena.obj
 0001:0002cdc0       ?_Get_first@?$_Compressed_pair@V?$tbb_allocator@PAVtask@tbb@@@tbb@@V?$_Deque_val@U?$_Deque_simple_types@PAVtask@tbb@@@std@@@std@@$00@std@@QBEABV?$tbb_allocator@PAVtask@tbb@@@tbb@@XZ 1002ddc0 f i arena.obj
 0001:0002cde0       ?_Get_second@?$_Compressed_pair@V?$tbb_allocator@PAVtask@tbb@@@tbb@@V?$_Deque_val@U?$_Deque_simple_types@PAVtask@tbb@@@std@@@std@@$00@std@@QAEAAV?$_Deque_val@U?$_Deque_simple_types@PAVtask@tbb@@@std@@@2@XZ 1002dde0 f i arena.obj
 0001:0002ce00       ?_Get_second@?$_Compressed_pair@V?$tbb_allocator@PAVtask@tbb@@@tbb@@V?$_Deque_val@U?$_Deque_simple_types@PAVtask@tbb@@@std@@@std@@$00@std@@QBEABV?$_Deque_val@U?$_Deque_simple_types@PAVtask@tbb@@@std@@@2@XZ 1002de00 f i arena.obj
 0001:0002ce20       ?_Getal@?$_Deque_alloc@U?$_Deque_base_types@PAVtask@tbb@@V?$tbb_allocator@PAVtask@tbb@@@2@@std@@@std@@QAEAAV?$tbb_allocator@PAVtask@tbb@@@tbb@@XZ 1002de20 f i arena.obj
 0001:0002ce50       ?_Getal@?$_Deque_alloc@U?$_Deque_base_types@PAVtask@tbb@@V?$tbb_allocator@PAVtask@tbb@@@2@@std@@@std@@QBEABV?$tbb_allocator@PAVtask@tbb@@@tbb@@XZ 1002de50 f i arena.obj
 0001:0002ce80       ?_Getblock@?$_Deque_alloc@U?$_Deque_base_types@PAVtask@tbb@@V?$tbb_allocator@PAVtask@tbb@@@2@@std@@@std@@QBEII@Z 1002de80 f i arena.obj
 0001:0002cec0       ?_Getblock@?$_Deque_val@U?$_Deque_simple_types@PAVtask@tbb@@@std@@@std@@QBEII@Z 1002dec0 f i arena.obj
 0001:0002cef0       ?_Getcont@_Iterator_base12@std@@QBEPBU_Container_base12@2@XZ 1002def0 f i arena.obj
 0001:0002cf30       ?_Getpfirst@?$_Deque_alloc@U?$_Deque_base_types@PAVtask@tbb@@V?$tbb_allocator@PAVtask@tbb@@@2@@std@@@std@@QBEPAPAU_Iterator_base12@2@XZ 1002df30 f i arena.obj
 0001:0002cf60       ?_Getpfirst@_Container_base12@std@@QBEPAPAU_Iterator_base12@2@XZ 1002df60 f i arena.obj
 0001:0002cfa0       ?_Getpnext@_Iterator_base12@std@@QAEPAPAU12@XZ 1002dfa0 f i arena.obj
 0001:0002cfc0       ?_Growmap@?$deque@PAVtask@tbb@@V?$tbb_allocator@PAVtask@tbb@@@2@@std@@IAEXI@Z 1002dfc0 f i arena.obj
 0001:0002d280       ?_Map@?$_Deque_alloc@U?$_Deque_base_types@PAVtask@tbb@@V?$tbb_allocator@PAVtask@tbb@@@2@@std@@@std@@QAEAAPAPAPAVtask@tbb@@XZ 1002e280 f i arena.obj
 0001:0002d2b0       ?_Mapsize@?$_Deque_alloc@U?$_Deque_base_types@PAVtask@tbb@@V?$tbb_allocator@PAVtask@tbb@@@2@@std@@@std@@QAEAAIXZ 1002e2b0 f i arena.obj
 0001:0002d2e0       ?_Max_size1@?$_Normal_allocator_traits@V?$tbb_allocator@PAVtask@tbb@@@tbb@@@std@@SAIABV?$tbb_allocator@PAVtask@tbb@@@tbb@@U?$integral_constant@_N$00@2@@Z 1002e2e0 f i arena.obj
 0001:0002d300       ?_Myoff@?$_Deque_alloc@U?$_Deque_base_types@PAVtask@tbb@@V?$tbb_allocator@PAVtask@tbb@@@2@@std@@@std@@QAEAAIXZ 1002e300 f i arena.obj
 0001:0002d330       ?_Myoff@?$_Deque_alloc@U?$_Deque_base_types@PAVtask@tbb@@V?$tbb_allocator@PAVtask@tbb@@@2@@std@@@std@@QBEABIXZ 1002e330 f i arena.obj
 0001:0002d360       ?_Myproxy@?$_Deque_alloc@U?$_Deque_base_types@PAVtask@tbb@@V?$tbb_allocator@PAVtask@tbb@@@2@@std@@@std@@QAEAAPAU_Container_proxy@2@XZ 1002e360 f i arena.obj
 0001:0002d390       ?_Mysize@?$_Deque_alloc@U?$_Deque_base_types@PAVtask@tbb@@V?$tbb_allocator@PAVtask@tbb@@@2@@std@@@std@@QAEAAIXZ 1002e390 f i arena.obj
 0001:0002d3c0       ?_Mysize@?$_Deque_alloc@U?$_Deque_base_types@PAVtask@tbb@@V?$tbb_allocator@PAVtask@tbb@@@2@@std@@@std@@QBEABIXZ 1002e3c0 f i arena.obj
 0001:0002d3f0       ?_Orphan_all@?$_Deque_alloc@U?$_Deque_base_types@PAVtask@tbb@@V?$tbb_allocator@PAVtask@tbb@@@2@@std@@@std@@QAEXXZ 1002e3f0 f i arena.obj
 0001:0002d420       ?_Orphan_all@_Container_base12@std@@QAEXXZ 1002e420 f i arena.obj
 0001:0002d500       ?_Orphan_me@_Iterator_base12@std@@QAEXXZ 1002e500 f i arena.obj
 0001:0002d5e0       ?_Orphan_off@?$deque@PAVtask@tbb@@V?$tbb_allocator@PAVtask@tbb@@@2@@std@@IBEXI@Z 1002e5e0 f i arena.obj
 0001:0002d740       ?_Release@?$_Uninitialized_backout_al@PAPAPAVtask@tbb@@V?$tbb_allocator@PAPAVtask@tbb@@@2@@std@@QAEPAPAPAVtask@tbb@@XZ 1002e740 f i arena.obj
 0001:0002d770       ?_RethrowException@exception_ptr@std@@QBEXXZ 1002e770 f i arena.obj
 0001:0002d7a0       ?_Setcont@?$_Deque_const_iterator@V?$_Deque_val@U?$_Deque_simple_types@PAVtask@tbb@@@std@@@std@@@std@@QAEXPBV?$_Deque_val@U?$_Deque_simple_types@PAVtask@tbb@@@std@@@2@@Z 1002e7a0 f i arena.obj
 0001:0002d7d0       ?_Tidy@?$deque@PAVtask@tbb@@V?$tbb_allocator@PAVtask@tbb@@@2@@std@@IAEXXZ 1002e7d0 f i arena.obj
 0001:0002d920       ?_Xlen@?$deque@PAVtask@tbb@@V?$tbb_allocator@PAVtask@tbb@@@2@@std@@IBEXXZ 1002e920 f i arena.obj
 0001:0002d950       ?__TBB_set_cpu_ctl_env@@YAXPBVcpu_ctl_env@internal@tbb@@@Z 1002e950 f i arena.obj
 0001:0002d970       ?allocate@?$tbb_allocator@PAPAVtask@tbb@@@tbb@@QAEPAPAPAVtask@2@IPBX@Z 1002e970 f i arena.obj
 0001:0002d9a0       ?allocate@?$tbb_allocator@PAVtask@tbb@@@tbb@@QAEPAPAVtask@2@IPBX@Z 1002e9a0 f i arena.obj
 0001:0002d9d0       ?allocate@?$tbb_allocator@U_Container_proxy@std@@@tbb@@QAEPAU_Container_proxy@std@@IPBX@Z 1002e9d0 f i arena.obj
 0001:0002da00       ?allocation_size@arena@internal@tbb@@SAHI@Z 1002ea00 f i arena.obj
 0001:0002da20       ?assert_context_valid@generic_scheduler@internal@tbb@@SAXPBVtask_group_context@3@@Z 1002ea20 f i arena.obj
 0001:0002dc10       ?attach@mail_inbox@internal@tbb@@QAEXAAVmail_outbox@23@@Z 1002ec10 f i arena.obj
 0001:0002dc30       ?attach_mailbox@generic_scheduler@internal@tbb@@QAEXG@Z 1002ec30 f i arena.obj
 0001:0002dca0       ?begin@?$deque@PAVtask@tbb@@V?$tbb_allocator@PAVtask@tbb@@@2@@std@@QAE?AV?$_Deque_iterator@V?$_Deque_val@U?$_Deque_simple_types@PAVtask@tbb@@@std@@@std@@@2@XZ 1002eca0 f i arena.obj
 0001:0002dd10       ?clear@?$deque@PAVtask@tbb@@V?$tbb_allocator@PAVtask@tbb@@@2@@std@@QAEXXZ 1002ed10 f i arena.obj
 0001:0002dd60       ?clear_one_bit@internal@tbb@@YAXAAIH@Z 1002ed60 f i arena.obj
 0001:0002ddd0       ?compare_and_swap@?$atomic_impl@PAVarena@internal@tbb@@@internal@tbb@@QAEPAVarena@23@PAV423@0@Z 1002edd0 f i arena.obj
 0001:0002de00       ?compare_and_swap@?$atomic_impl@PAVgeneric_scheduler@internal@tbb@@@internal@tbb@@QAEPAVgeneric_scheduler@23@PAV423@0@Z 1002ee00 f i arena.obj
 0001:0002de30       ?compare_and_swap@?$atomic_impl@PAVtask@tbb@@@internal@tbb@@QAEPAVtask@3@PAV43@0@Z 1002ee30 f i arena.obj
 0001:0002de60       ?construct@mail_outbox@internal@tbb@@QAEXXZ 1002ee60 f i arena.obj
 0001:0002df30       ?deallocate@?$_Normal_allocator_traits@V?$tbb_allocator@U_Container_proxy@std@@@tbb@@@std@@SAXAAV?$tbb_allocator@U_Container_proxy@std@@@tbb@@PAU_Container_proxy@2@I@Z 1002ef30 f i arena.obj
 0001:0002df50       ?deallocate@?$tbb_allocator@PAPAVtask@tbb@@@tbb@@QAEXPAPAPAVtask@2@I@Z 1002ef50 f i arena.obj
 0001:0002df80       ?deallocate@?$tbb_allocator@PAVtask@tbb@@@tbb@@QAEXPAPAVtask@2@I@Z 1002ef80 f i arena.obj
 0001:0002dfb0       ?deallocate@?$tbb_allocator@U_Container_proxy@std@@@tbb@@QAEXPAU_Container_proxy@std@@I@Z 1002efb0 f i arena.obj
 0001:0002dfe0       ?destroy@?$tbb_allocator@PAPAVtask@tbb@@@tbb@@QAEXPAPAPAVtask@2@@Z 1002efe0 f i arena.obj
 0001:0002e000       ?destroy@?$tbb_allocator@PAVtask@tbb@@@tbb@@QAEXPAPAVtask@2@@Z 1002f000 f i arena.obj
 0001:0002e020       ?destroy@?$tbb_allocator@U_Container_proxy@std@@@tbb@@QAEXPAU_Container_proxy@std@@@Z 1002f020 f i arena.obj
 0001:0002e040       ?detach@mail_inbox@internal@tbb@@QAEXXZ 1002f040 f i arena.obj
 0001:0002e090       ?drain@?$task_stream@$02@internal@tbb@@QAEHXZ 1002f090 f i arena.obj
 0001:0002e290       ?drain@mail_outbox@internal@tbb@@QAEHXZ 1002f290 f i arena.obj
 0001:0002e300       ?empty@?$deque@PAVtask@tbb@@V?$tbb_allocator@PAVtask@tbb@@@2@@std@@QBE_NXZ 1002f300 f i arena.obj
 0001:0002e350       ?empty@observer_list@internal@tbb@@QBE_NXZ 1002f350 f i arena.obj
 0001:0002e390       ?end@?$deque@PAVtask@tbb@@V?$tbb_allocator@PAVtask@tbb@@@2@@std@@QAE?AV?$_Deque_iterator@V?$_Deque_val@U?$_Deque_simple_types@PAVtask@tbb@@@std@@@std@@@2@XZ 1002f390 f i arena.obj
 0001:0002e410       ?execute@?$function_task@Vspawn_functor@graph@interface10@flow@tbb@@@internal@tbb@@EAEPAVtask@3@XZ 1002f410 f i arena.obj
 0001:0002e440       ?execute@delegated_task@internal@interface7@tbb@@EAEPAVtask@4@XZ 1002f440 f i arena.obj
 0001:0002e550       ?execute@empty_task@tbb@@EAEPAVtask@2@XZ 1002f550 f i arena.obj
 0001:0002e570       ?execute@wait_task@internal@interface7@tbb@@EAEPAVtask@4@XZ 1002f570 f i arena.obj
 0001:0002e670       ?free_task_pool@arena_slot@internal@tbb@@QAEXXZ 1002f670 f i arena.obj
 0001:0002e6f0       ?get@FastRandom@internal@tbb@@QAEGAAI@Z 1002f6f0 f i arena.obj
 0001:0002e770       ?get@FastRandom@internal@tbb@@QAEGXZ 1002f770 f i arena.obj
 0001:0002e7a0       ?initialize@?$task_stream@$02@internal@tbb@@QAEXI@Z 1002f7a0 f i arena.obj
 0001:0002e990       ?inlineCreateEventEx@@YGPAXPAU_SECURITY_ATTRIBUTES@@PB_WKK@Z 1002f990 f i arena.obj
 0001:0002ea20       ?is_bit_set@internal@tbb@@YA_NIH@Z 1002fa20 f i arena.obj
 0001:0002eaa0       ?is_busy_or_empty@arena@internal@tbb@@SA_NI@Z 1002faa0 f i arena.obj
 0001:0002ead0       ?is_idle_state@mail_inbox@internal@tbb@@QBE_N_N@Z 1002fad0 f i arena.obj
 0001:0002eb20       ?is_local_task_pool_quiescent@generic_scheduler@internal@tbb@@QBE_NXZ 1002fb20 f i arena.obj
 0001:0002eba0       ?is_quiescent_local_task_pool_reset@generic_scheduler@internal@tbb@@QBE_NXZ 1002fba0 f i arena.obj
 0001:0002ec40       ?load_with_acquire@?$machine_load_store@PAVgeneric_scheduler@internal@tbb@@$03@internal@tbb@@SAPAVgeneric_scheduler@23@ADSAV423@@Z 1002fc40 f i arena.obj
 0001:0002ec60       ?load_with_acquire@?$machine_load_store@PAVtask@tbb@@$03@internal@tbb@@SAPAVtask@3@ADSAV43@@Z 1002fc60 f i arena.obj
 0001:0002ec80       ?mailbox@arena@internal@tbb@@QAEAAVmail_outbox@23@G@Z 1002fc80 f i arena.obj
 0001:0002ed00       ?max_size@?$_Normal_allocator_traits@V?$tbb_allocator@PAVtask@tbb@@@tbb@@@std@@SAIABV?$tbb_allocator@PAVtask@tbb@@@tbb@@@Z 1002fd00 f i arena.obj
 0001:0002ed30       ?max_size@?$deque@PAVtask@tbb@@V?$tbb_allocator@PAVtask@tbb@@@2@@std@@QBEIXZ 1002fd30 f i arena.obj
 0001:0002ed60       ?max_size@?$tbb_allocator@PAVtask@tbb@@@tbb@@QBEIXZ 1002fd60 f i arena.obj
 0001:0002edb0       ?may_have_tasks@arena@internal@tbb@@QAE_NPAVgeneric_scheduler@23@AA_N1@Z 1002fdb0 f i arena.obj
 0001:0002ee40       ?mimic_outermost_level@nested_arena_context@internal@tbb@@AAEXPAVarena@23@_N@Z 1002fe40 f i arena.obj
 0001:0002eed0       ?notify_entry_observers@observer_list@internal@tbb@@QAEXAAPAVobserver_proxy@23@_N@Z 1002fed0 f i arena.obj
 0001:0002ef10       ?notify_exit_observers@observer_list@internal@tbb@@QAEXAAPAVobserver_proxy@23@_N@Z 1002ff10 f i arena.obj
 0001:0002efb0       ?notify_one@concurrent_monitor@internal@tbb@@QAEXXZ 1002ffb0 f i arena.obj
 0001:0002efe0       ?num_arena_slots@arena@internal@tbb@@SAII@Z 1002ffe0 f i arena.obj
 0001:0002f010       ?pop_back@?$deque@PAVtask@tbb@@V?$tbb_allocator@PAVtask@tbb@@@2@@std@@QAEXXZ 10030010 f i arena.obj
 0001:0002f130       ?prefix@auto_empty_task@internal@tbb@@QAEAAVtask_prefix@23@XZ 10030130 f i arena.obj
 0001:0002f160       ?push@?$task_stream@$02@internal@tbb@@QAEXPAVtask@3@HAAVFastRandom@23@@Z 10030160 f i arena.obj
 0001:0002f290       ?push_back@?$deque@PAVtask@tbb@@V?$tbb_allocator@PAVtask@tbb@@@2@@std@@QAEXABQAVtask@tbb@@@Z 10030290 f i arena.obj
 0001:0002f3f0       ?ref_count@task@tbb@@QBEHXZ 100303f0 f i arena.obj
 0001:0002f460       ?restore_default@?$context_guard_helper@$0A@@internal@tbb@@QAEXXZ 10030460 f i arena.obj
 0001:0002f4b0       ?rethrow_exception@std@@YAXVexception_ptr@1@@Z 100304b0 f i arena.obj
 0001:0002f510       ?rethrow_exception_broken@governor@internal@tbb@@SA_NXZ 10030510 f i arena.obj
 0001:0002f520       ?set_ctx@?$context_guard_helper@$0A@@internal@tbb@@QAEXPBVtask_group_context@3@@Z 10030520 f i arena.obj
 0001:0002f5a0       ?set_env@cpu_ctl_env@internal@tbb@@QBEXXZ 100305a0 f i arena.obj
 0001:0002f5d0       ?set_is_idle@mail_inbox@internal@tbb@@QAEX_N@Z 100305d0 f i arena.obj
 0001:0002f640       ?set_one_bit@internal@tbb@@YAXAAIH@Z 10030640 f i arena.obj
 0001:0002f6a0       ?store_with_release@?$atomic_impl@PAVtask_group_context@tbb@@@internal@tbb@@IAEPAVtask_group_context@3@PAV43@@Z 100306a0 f i arena.obj
 0001:0002f6f0       ?store_with_release@?$machine_load_store@PAVgeneric_scheduler@internal@tbb@@$03@internal@tbb@@SAXACRAVgeneric_scheduler@23@PAV423@@Z 100306f0 f i arena.obj
 0001:0002f700       ?throw_self@tbb_exception_ptr@internal@tbb@@QAEXXZ 10030700 f i arena.obj
 0001:0002f740       ?update_task_node_count@market@internal@tbb@@QAEXH@Z 10030740 f i arena.obj
 0001:0002f770       ?worker_outermost_level@generic_scheduler@internal@tbb@@QBE_NXZ 10030770 f i arena.obj
 0001:0002f860       ??1scheduler@internal@tbb@@UAE@XZ 10030860 f   scheduler.obj
 0001:0002f880       ?init_stack_info@generic_scheduler@internal@tbb@@QAEXXZ 10030880 f   scheduler.obj
 0001:0002f980       ?get_mailbox_task@generic_scheduler@internal@tbb@@QAEPAVtask@3@H@Z 10030980 f   scheduler.obj
 0001:0002fa60       ?steal_task@generic_scheduler@internal@tbb@@QAEPAVtask@3@AAUarena_slot@23@H@Z 10030a60 f   scheduler.obj
 0001:0002fcf0       ?create_master@generic_scheduler@internal@tbb@@SAPAV123@PAVarena@23@@Z 10030cf0 f   scheduler.obj
 0001:0002ff70       ?cleanup_master@generic_scheduler@internal@tbb@@QAE_N_N@Z 10030f70 f   scheduler.obj
 0001:00030290       ?create_worker@generic_scheduler@internal@tbb@@SAPAV123@AAVmarket@23@I@Z 10031290 f   scheduler.obj
 0001:00030320       ?cleanup_worker@generic_scheduler@internal@tbb@@SAXPAX_N@Z 10031320 f   scheduler.obj
 0001:00030390       ??0generic_scheduler@internal@tbb@@IAE@AAVmarket@12@@Z 10031390 f   scheduler.obj
 0001:000305e0       ?spawn@generic_scheduler@internal@tbb@@UAEXAAVtask@3@AAPAV43@@Z 100315e0 f   scheduler.obj
 0001:00030620       ?spawn_root_and_wait@generic_scheduler@internal@tbb@@UAEXAAVtask@3@AAPAV43@@Z 10031620 f   scheduler.obj
 0001:00030660       ?enqueue@generic_scheduler@internal@tbb@@UAEXAAVtask@3@PAX@Z 10031660 f   scheduler.obj
 0001:000306d0       ?local_spawn@generic_scheduler@internal@tbb@@QAEXPAVtask@3@AAPAV43@@Z 100316d0 f   scheduler.obj
 0001:00030980       ?local_spawn_root_and_wait@generic_scheduler@internal@tbb@@QAEXPAVtask@3@AAPAV43@@Z 10031980 f   scheduler.obj
 0001:00030bb0       ?free_scheduler@generic_scheduler@internal@tbb@@QAEXXZ 10031bb0 f   scheduler.obj
 0001:00030cf0       ?allocate_task@generic_scheduler@internal@tbb@@QAEAAVtask@3@IPAV43@PAVtask_group_context@3@@Z 10031cf0 f   scheduler.obj
 0001:00030f20       ?free_nonlocal_small_task@generic_scheduler@internal@tbb@@QAEXAAVtask@3@@Z 10031f20 f   scheduler.obj
 0001:00031050       ?reload_tasks@generic_scheduler@internal@tbb@@QAEPAVtask@3@H@Z 10032050 f   scheduler.obj
 0001:000311f0       ?reload_tasks@generic_scheduler@internal@tbb@@QAEPAVtask@3@AAPAV43@AAPAPAV43@HH@Z 100321f0 f   scheduler.obj
 0001:00031550       ?winnow_task_pool@generic_scheduler@internal@tbb@@QAEPAVtask@3@H@Z 10032550 f   scheduler.obj
 0001:000317a0       ?get_task_and_activate_task_pool@generic_scheduler@internal@tbb@@QAEPAVtask@3@IIH@Z 100327a0 f   scheduler.obj
 0001:000319e0       ?cleanup_local_context_list@generic_scheduler@internal@tbb@@QAEXXZ 100329e0 f   scheduler.obj
 0001:00031bd0       ?Scheduler_OneTimeInitialization@internal@tbb@@YAX_N@Z 10032bd0 f   scheduler.obj
 0001:00031c40       ??$__TBB_load_relaxed@PAUtask_proxy@internal@tbb@@@internal@tbb@@YAPAUtask_proxy@01@ADSAU201@@Z 10032c40 f i scheduler.obj
 0001:00031c60       ??$__TBB_store_relaxed@PAPAVtask@tbb@@PAPAV12@@internal@tbb@@YAXACRAPAVtask@1@PAPAV21@@Z 10032c60 f i scheduler.obj
 0001:00031c80       ??$__TBB_store_relaxed@PAUtask_proxy@internal@tbb@@PAU123@@internal@tbb@@YAXACRAUtask_proxy@01@PAU201@@Z 10032c80 f i scheduler.obj
 0001:00031ca0       ??$__TBB_store_with_release@PAPAVtask@tbb@@PAPAV12@@internal@tbb@@YAXACRAPAVtask@1@PAPAV21@@Z 10032ca0 f i scheduler.obj
 0001:00031cc0       ??$advertise_new_work@$00@arena@internal@tbb@@QAEXXZ 10032cc0 f i scheduler.obj
 0001:00031f50       ??$advertise_new_work@$0A@@arena@internal@tbb@@QAEXXZ 10032f50 f i scheduler.obj
 0001:000321e0       ??$as_atomic@PAPAUtask_proxy@internal@tbb@@@internal@tbb@@YAAAU?$atomic@PAPAUtask_proxy@internal@tbb@@@1@AAPAPAUtask_proxy@01@@Z 100331e0 f i scheduler.obj
 0001:000321f0       ??$as_atomic@PAPAVtask@tbb@@@internal@tbb@@YAAAU?$atomic@PAPAVtask@tbb@@@1@AAPAPAVtask@1@@Z 100331f0 f i scheduler.obj
 0001:00032200       ??$compare_and_swap@$0A@@?$atomic_impl@PAPAUtask_proxy@internal@tbb@@@internal@tbb@@QAEPAPAUtask_proxy@12@PAPAU312@0@Z 10033200 f i scheduler.obj
 0001:00032250       ??$compare_and_swap@$0A@@?$atomic_impl@PAPAVtask@tbb@@@internal@tbb@@QAEPAPAVtask@2@PAPAV32@0@Z 10033250 f i scheduler.obj
 0001:000322a0       ??$extract_task@$00@task_proxy@internal@tbb@@QAEPAVtask@2@XZ 100332a0 f i scheduler.obj
 0001:000323b0       ??$extract_task@$01@task_proxy@internal@tbb@@QAEPAVtask@2@XZ 100333b0 f i scheduler.obj
 0001:000324c0       ??$free_task@$01@generic_scheduler@internal@tbb@@QAEXAAVtask@2@@Z 100334c0 f i scheduler.obj
 0001:00032640       ??$free_task@$05@generic_scheduler@internal@tbb@@QAEXAAVtask@2@@Z 10033640 f i scheduler.obj
 0001:000327c0       ??$free_task@$0A@@generic_scheduler@internal@tbb@@QAEXAAVtask@2@@Z 100337c0 f i scheduler.obj
 0001:00032940       ??$init@I@FastRandom@internal@tbb@@QAEXI@Z 10033940 f i scheduler.obj
 0001:00032980       ??$is_poisoned@Vtask@tbb@@@internal@tbb@@YA_NPAVtask@1@@Z 10033980 f i scheduler.obj
 0001:000329b0       ??$poison_pointer@Vtask_group_context@tbb@@@internal@tbb@@YAXAAPAVtask_group_context@1@@Z 100339b0 f i scheduler.obj
 0001:000329c0       ??$to_bits@PAPAUtask_proxy@internal@tbb@@@?$atomic_impl@PAPAUtask_proxy@internal@tbb@@@internal@tbb@@SAHPAPAUtask_proxy@12@@Z 100339c0 f i scheduler.obj
 0001:000329f0       ??$to_bits@PAPAVtask@tbb@@@?$atomic_impl@PAPAVtask@tbb@@@internal@tbb@@SAHPAPAVtask@2@@Z 100339f0 f i scheduler.obj
 0001:00032a20       ??$to_value@PAPAUtask_proxy@internal@tbb@@@?$atomic_impl@PAPAUtask_proxy@internal@tbb@@@internal@tbb@@SAPAPAUtask_proxy@12@H@Z 10033a20 f i scheduler.obj
 0001:00032a90       ??$to_value@PAPAVtask@tbb@@@?$atomic_impl@PAPAVtask@tbb@@@internal@tbb@@SAPAPAVtask@2@H@Z 10033a90 f i scheduler.obj
 0001:00032b00       ??0?$context_guard_helper@$00@internal@tbb@@QAE@XZ 10033b00 f i scheduler.obj
 0001:00032b40       ??0?$converter@PAPAUtask_proxy@internal@tbb@@@?$atomic_impl@PAPAUtask_proxy@internal@tbb@@@internal@tbb@@QAE@PAPAUtask_proxy@23@@Z 10033b40 f i scheduler.obj
 0001:00032b60       ??0?$converter@PAPAUtask_proxy@internal@tbb@@@?$atomic_impl@PAPAUtask_proxy@internal@tbb@@@internal@tbb@@QAE@XZ 10033b60 f i scheduler.obj
 0001:00032b80       ??0?$converter@PAPAVtask@tbb@@@?$atomic_impl@PAPAVtask@tbb@@@internal@tbb@@QAE@PAPAVtask@3@@Z 10033b80 f i scheduler.obj
 0001:00032ba0       ??0?$converter@PAPAVtask@tbb@@@?$atomic_impl@PAPAVtask@tbb@@@internal@tbb@@QAE@XZ 10033ba0 f i scheduler.obj
 0001:00032bc0       ??0?$custom_scheduler@UDefaultSchedulerTraits@internal@tbb@@@internal@tbb@@AAE@AAVmarket@12@@Z 10033bc0 f i scheduler.obj
 0001:00032c00       ??0?$custom_scheduler@UIntelSchedulerTraits@internal@tbb@@@internal@tbb@@AAE@AAVmarket@12@@Z 10033c00 f i scheduler.obj
 0001:00032c40       ??0?$fast_reverse_vector@PAVtask@tbb@@$0BA@@internal@tbb@@QAE@PAPAVtask@2@I@Z 10033c40 f i scheduler.obj
 0001:00032cc0       ??0FastRandom@internal@tbb@@QAE@PAX@Z 10033cc0 f i scheduler.obj
 0001:00032cf0       ??0auto_indicator@internal@tbb@@QAE@AC_N@Z 10033cf0 f i scheduler.obj
 0001:00032d30       ??0scheduler@internal@tbb@@QAE@XZ 10033d30 f i scheduler.obj
 0001:00032d70       ??1?$context_guard_helper@$00@internal@tbb@@QAE@XZ 10033d70 f i scheduler.obj
 0001:00032de0       ??1?$custom_scheduler@UDefaultSchedulerTraits@internal@tbb@@@internal@tbb@@UAE@XZ 10033de0 f i scheduler.obj
 0001:00032e10       ??1?$custom_scheduler@UIntelSchedulerTraits@internal@tbb@@@internal@tbb@@UAE@XZ 10033e10 f i scheduler.obj
 0001:00032e40       ??1?$fast_reverse_vector@PAVtask@tbb@@$0BA@@internal@tbb@@QAE@XZ 10033e40 f i scheduler.obj
 0001:00032ed0       ??1auto_indicator@internal@tbb@@QAE@XZ 10033ed0 f i scheduler.obj
 0001:00032ef0       ??1generic_scheduler@internal@tbb@@UAE@XZ 10033ef0 f i scheduler.obj
 0001:00032f20       ??_G?$custom_scheduler@UDefaultSchedulerTraits@internal@tbb@@@internal@tbb@@UAEPAXI@Z 10033f20 f i scheduler.obj
 0001:00032f20       ??_E?$custom_scheduler@UDefaultSchedulerTraits@internal@tbb@@@internal@tbb@@UAEPAXI@Z 10033f20 f i scheduler.obj
 0001:00032f70       ??_E?$custom_scheduler@UIntelSchedulerTraits@internal@tbb@@@internal@tbb@@UAEPAXI@Z 10033f70 f i scheduler.obj
 0001:00032f70       ??_G?$custom_scheduler@UIntelSchedulerTraits@internal@tbb@@@internal@tbb@@UAEPAXI@Z 10033f70 f i scheduler.obj
 0001:00032fc0       ??_Egeneric_scheduler@internal@tbb@@UAEPAXI@Z 10033fc0 f i scheduler.obj
 0001:00032fc0       ??_Ggeneric_scheduler@internal@tbb@@UAEPAXI@Z 10033fc0 f i scheduler.obj
 0001:00033010       ?CancellationInfoPresent@internal@tbb@@YA_NAAVtask@2@@Z 10034010 f i scheduler.obj
 0001:00033050       ?ConcurrentWaitsEnabled@internal@tbb@@YA_NAAVtask@2@@Z 10034050 f i scheduler.obj
 0001:000330a0       ?acquire_task_pool@generic_scheduler@internal@tbb@@QBEXXZ 100340a0 f i scheduler.obj
 0001:00033270       ?allocate_scheduler@?$custom_scheduler@UDefaultSchedulerTraits@internal@tbb@@@internal@tbb@@SAPAVgeneric_scheduler@23@AAVmarket@23@@Z 10034270 f i scheduler.obj
 0001:00033320       ?allocate_scheduler@?$custom_scheduler@UIntelSchedulerTraits@internal@tbb@@@internal@tbb@@SAPAVgeneric_scheduler@23@AAVmarket@23@@Z 10034320 f i scheduler.obj
 0001:000333d0       ?allocate_scheduler@internal@tbb@@YAPAVgeneric_scheduler@12@AAVmarket@12@@Z 100343d0 f i scheduler.obj
 0001:00033400       ?allocate_task_pool@arena_slot@internal@tbb@@QAEXI@Z 10034400 f i scheduler.obj
 0001:00033480       ?assert_ok@?$intrusive_list_base@V?$intrusive_list@Vgeneric_scheduler@internal@tbb@@@internal@tbb@@Vgeneric_scheduler@23@@internal@tbb@@ABEXXZ 10034480 f i scheduler.obj
 0001:000334e0       ?bounded_pause@atomic_backoff@internal@tbb@@QAE_NXZ 100344e0 f i scheduler.obj
 0001:00033530       ?can_steal@generic_scheduler@internal@tbb@@QAE_NXZ 10034530 f i scheduler.obj
 0001:00033570       ?commit_relocated_tasks@generic_scheduler@internal@tbb@@QAEXI@Z 10034570 f i scheduler.obj
 0001:000335f0       ?commit_spawned_tasks@generic_scheduler@internal@tbb@@QAEXI@Z 100345f0 f i scheduler.obj
 0001:00033680       ?compare_and_swap@?$atomic_impl@PAPAUtask_proxy@internal@tbb@@@internal@tbb@@QAEPAPAUtask_proxy@23@PAPAU423@0@Z 10034680 f i scheduler.obj
 0001:000336b0       ?compare_and_swap@?$atomic_impl@PAPAVtask@tbb@@@internal@tbb@@QAEPAPAVtask@3@PAPAV43@0@Z 100346b0 f i scheduler.obj
 0001:000336e0       ?copy_memory@?$fast_reverse_vector@PAVtask@tbb@@$0BA@@internal@tbb@@QBEXPAPAVtask@3@@Z 100346e0 f i scheduler.obj
 0001:000337b0       ?effective_reference_priority@generic_scheduler@internal@tbb@@QBEHXZ 100347b0 f i scheduler.obj
 0001:00033830       ?empty@mail_inbox@internal@tbb@@QAE_NXZ 10034830 f i scheduler.obj
 0001:00033860       ?empty@mail_outbox@internal@tbb@@QAE_NXZ 10034860 f i scheduler.obj
 0001:000338b0       ?fill_with_canary_pattern@arena_slot@internal@tbb@@QAEXII@Z 100348b0 f i scheduler.obj
 0001:00033910       ?front@?$deque@PAVtask@tbb@@V?$tbb_allocator@PAVtask@tbb@@@2@@std@@QAEAAPAVtask@tbb@@XZ 10034910 f i scheduler.obj
 0001:000339b0       ?get_task@generic_scheduler@internal@tbb@@QAEPAVtask@3@H@Z 100349b0 f i scheduler.obj
 0001:00033e40       ?get_task@generic_scheduler@internal@tbb@@QAEPAVtask@3@IHAA_N@Z 10034e40 f i scheduler.obj
 0001:00034070       ?init@FastRandom@internal@tbb@@QAEXIU?$int_to_type@$03@23@@Z 10035070 f i scheduler.obj
 0001:000340b0       ?internal_pop@mail_outbox@internal@tbb@@AAEPAUtask_proxy@23@H@Z 100350b0 f i scheduler.obj
 0001:00034230       ?is_proxy@generic_scheduler@internal@tbb@@SA_NABVtask@3@@Z 10035230 f i scheduler.obj
 0001:00034270       ?is_quiescent_local_task_pool_empty@generic_scheduler@internal@tbb@@QBE_NXZ 10035270 f i scheduler.obj
 0001:00034310       ?is_shared@task_proxy@internal@tbb@@SA_NH@Z 10035310 f i scheduler.obj
 0001:00034340       ?is_task_pool_published@generic_scheduler@internal@tbb@@QBE_NXZ 10035340 f i scheduler.obj
 0001:000343b0       ?is_version_3_task@generic_scheduler@internal@tbb@@SA_NAAVtask@3@@Z 100353b0 f i scheduler.obj
 0001:00034400       ?leave_task_pool@generic_scheduler@internal@tbb@@QAEXXZ 10035400 f i scheduler.obj
 0001:00034530       ?load@?$machine_load_store_relaxed@PAUtask_proxy@internal@tbb@@$03@internal@tbb@@SAPAUtask_proxy@23@ADSAU423@@Z 10035530 f i scheduler.obj
 0001:00034540       ?local_wait_for_all@?$custom_scheduler@UDefaultSchedulerTraits@internal@tbb@@@internal@tbb@@EAEXAAVtask@3@PAV43@@Z 10035540 f i scheduler.obj
 0001:00035810       ?local_wait_for_all@?$custom_scheduler@UIntelSchedulerTraits@internal@tbb@@@internal@tbb@@EAEXAAVtask@3@PAV43@@Z 10036810 f i scheduler.obj
 0001:00036ac0       ?lock_task_pool@generic_scheduler@internal@tbb@@QBEPAPAVtask@3@PAUarena_slot@23@@Z 10037ac0 f i scheduler.obj
 0001:00036c30       ?node@?$intrusive_list@Vgeneric_scheduler@internal@tbb@@@internal@tbb@@CAAAUintrusive_list_node@23@AAVgeneric_scheduler@23@@Z 10037c30 f i scheduler.obj
 0001:00036c40       ?node@?$intrusive_list_base@V?$intrusive_list@Vgeneric_scheduler@internal@tbb@@@internal@tbb@@Vgeneric_scheduler@23@@internal@tbb@@CAAAUintrusive_list_node@23@AAVgeneric_scheduler@23@@Z 10037c40 f i scheduler.obj
 0001:00036c60       ?offload_task@generic_scheduler@internal@tbb@@QAEXAAVtask@3@H@Z 10037c60 f i scheduler.obj
 0001:00036d20       ?outbox@mail_inbox@internal@tbb@@QBEPAXXZ 10037d20 f i scheduler.obj
 0001:00036d40       ?plugged_return_list@generic_scheduler@internal@tbb@@SAPAVtask@3@XZ 10037d40 f i scheduler.obj
 0001:00036d50       ?pop@?$task_stream@$02@internal@tbb@@QAEPAVtask@3@HAAI@Z 10037d50 f i scheduler.obj
 0001:00036f00       ?pop@mail_inbox@internal@tbb@@QAEPAUtask_proxy@23@H@Z 10037f00 f i scheduler.obj
 0001:00036f30       ?pop_front@?$deque@PAVtask@tbb@@V?$tbb_allocator@PAVtask@tbb@@@2@@std@@QAEXXZ 10037f30 f i scheduler.obj
 0001:00037060       ?prepare_for_spawning@generic_scheduler@internal@tbb@@QAEPAVtask@3@PAV43@@Z 10038060 f i scheduler.obj
 0001:00037280       ?prepare_task_pool@generic_scheduler@internal@tbb@@QAEII@Z 10038280 f i scheduler.obj
 0001:00037510       ?priority@internal@tbb@@YAAAHAAVtask@2@@Z 10038510 f i scheduler.obj
 0001:00037530       ?prolonged_pause@internal@tbb@@YAXXZ 10038530 f i scheduler.obj
 0001:00037600       ?publish_task_pool@generic_scheduler@internal@tbb@@QAEXXZ 10038600 f i scheduler.obj
 0001:00037770       ?push@mail_outbox@internal@tbb@@QAEXPAUtask_proxy@23@@Z 10038770 f i scheduler.obj
 0001:000377f0       ?push_back@?$fast_reverse_vector@PAVtask@tbb@@$0BA@@internal@tbb@@QAEXABQAVtask@3@@Z 100387f0 f i scheduler.obj
 0001:00037910       ?push_front@?$intrusive_list_base@V?$intrusive_list@Vgeneric_scheduler@internal@tbb@@@internal@tbb@@Vgeneric_scheduler@23@@internal@tbb@@QAEXAAVgeneric_scheduler@23@@Z 10038910 f i scheduler.obj
 0001:000379f0       ?receive_or_steal_task@?$custom_scheduler@UDefaultSchedulerTraits@internal@tbb@@@internal@tbb@@UAEPAVtask@3@AAHH@Z 100389f0 f i scheduler.obj
 0001:00038370       ?receive_or_steal_task@?$custom_scheduler@UIntelSchedulerTraits@internal@tbb@@@internal@tbb@@UAEPAVtask@3@AAHH@Z 10039370 f i scheduler.obj
 0001:00038cc0       ?recipient_is_idle@mail_outbox@internal@tbb@@QAE_NXZ 10039cc0 f i scheduler.obj
 0001:00038ce0       ?register_master@market@internal@tbb@@QAEXAAPAX@Z 10039ce0 f i scheduler.obj
 0001:00038d50       ?release_task_pool@generic_scheduler@internal@tbb@@QBEXXZ 10039d50 f i scheduler.obj
 0001:00038e20       ?remove@?$intrusive_list_base@V?$intrusive_list@Vgeneric_scheduler@internal@tbb@@@internal@tbb@@Vgeneric_scheduler@23@@internal@tbb@@QAEXAAVgeneric_scheduler@23@@Z 10039e20 f i scheduler.obj
 0001:00038f90       ?reset_extra_state@internal@tbb@@YAXPAVtask@2@@Z 10039f90 f i scheduler.obj
 0001:00038fd0       ?reset_task_pool_and_leave@generic_scheduler@internal@tbb@@QAEXXZ 10039fd0 f i scheduler.obj
 0001:00039050       ?restore_default@?$context_guard_helper@$00@internal@tbb@@QAEXXZ 1003a050 f i scheduler.obj
 0001:000390a0       ?set_ctx@?$context_guard_helper@$00@internal@tbb@@QAEXPBVtask_group_context@3@@Z 1003a0a0 f i scheduler.obj
 0001:00039120       ?size@?$fast_reverse_vector@PAVtask@tbb@@$0BA@@internal@tbb@@QBEIXZ 1003a120 f i scheduler.obj
 0001:00039150       ?store@?$machine_load_store_relaxed@PAPAVtask@tbb@@$03@internal@tbb@@SAXACRAPAVtask@3@PAPAV43@@Z 1003a150 f i scheduler.obj
 0001:00039160       ?store@?$machine_load_store_relaxed@PAUtask_proxy@internal@tbb@@$03@internal@tbb@@SAXACRAUtask_proxy@23@PAU423@@Z 1003a160 f i scheduler.obj
 0001:00039170       ?store_with_release@?$machine_load_store@PAPAVtask@tbb@@$03@internal@tbb@@SAXACRAPAVtask@3@PAPAV43@@Z 1003a170 f i scheduler.obj
 0001:00039180       ?tally_completion_of_predecessor@?$custom_scheduler@UDefaultSchedulerTraits@internal@tbb@@@internal@tbb@@AAEXAAVtask@3@AAPAV43@H@Z 1003a180 f i scheduler.obj
 0001:00039300       ?tally_completion_of_predecessor@?$custom_scheduler@UIntelSchedulerTraits@internal@tbb@@@internal@tbb@@AAEXAAVtask@3@AAPAV43@H@Z 1003a300 f i scheduler.obj
 0001:00039480       ?task_ptr@task_proxy@internal@tbb@@SAPAVtask@3@H@Z 1003a480 f i scheduler.obj
 0001:00039490       ?unlock_task_pool@generic_scheduler@internal@tbb@@QBEXPAUarena_slot@23@PAPAVtask@3@@Z 1003a490 f i scheduler.obj
 0001:00039530       ?unregister_master@market@internal@tbb@@QBEXAAPAX@Z 1003a530 f i scheduler.obj
 0001:00039580       ?wait_for_all@?$custom_scheduler@UDefaultSchedulerTraits@internal@tbb@@@internal@tbb@@EAEXAAVtask@3@PAV43@@Z 1003a580 f i scheduler.obj
 0001:000395c0       ?wait_for_all@?$custom_scheduler@UIntelSchedulerTraits@internal@tbb@@@internal@tbb@@EAEXAAVtask@3@PAV43@@Z 1003a5c0 f i scheduler.obj
 0001:00039600       _NtCurrentTeb              1003a600 f i scheduler.obj
 0001:00039660       ?observe@task_scheduler_observer_v3@internal@tbb@@QAEX_N@Z 1003a660 f   observer_proxy.obj
 0001:00039a80       ?do_notify_entry_observers@observer_list@internal@tbb@@AAEXAAPAVobserver_proxy@23@_N@Z 1003aa80 f   observer_proxy.obj
 0001:00039d50       ?do_notify_exit_observers@observer_list@internal@tbb@@AAEXPAVobserver_proxy@23@_N@Z 1003ad50 f   observer_proxy.obj
 0001:00039fe0       ?clear@observer_list@internal@tbb@@QAEXXZ 1003afe0 f   observer_proxy.obj
 0001:0003a230       ?insert@observer_list@internal@tbb@@QAEXPAVobserver_proxy@23@@Z 1003b230 f   observer_proxy.obj
 0001:0003a2e0       ?remove@observer_list@internal@tbb@@QAEXPAVobserver_proxy@23@@Z 1003b2e0 f   observer_proxy.obj
 0001:0003a470       ?remove_ref@observer_list@internal@tbb@@QAEXPAVobserver_proxy@23@@Z 1003b470 f   observer_proxy.obj
 0001:0003a640       ?get_v6_observer@observer_proxy@internal@tbb@@AAEPAVtask_scheduler_observer@interface6@3@XZ 1003b640 f   observer_proxy.obj
 0001:0003a670       ?is_global@observer_proxy@internal@tbb@@AAE_NXZ 1003b670 f   observer_proxy.obj
 0001:0003a6d0       ??0observer_proxy@internal@tbb@@AAE@AAVtask_scheduler_observer_v3@12@@Z 1003b6d0 f   observer_proxy.obj
 0001:0003a7a0       ??1observer_proxy@internal@tbb@@AAE@XZ 1003b7a0 f   observer_proxy.obj
 0001:0003a850       ??$as_atomic@_N@internal@tbb@@YAAAU?$atomic@_N@1@AA_N@Z 1003b850 f i observer_proxy.obj
 0001:0003a860       ??$fetch_and_store@$01@?$atomic_impl@_N@internal@tbb@@QAE_N_N@Z 1003b860 f i observer_proxy.obj
 0001:0003a8b0       ??$load@$02@?$atomic_impl@H@internal@tbb@@QBEHXZ 1003b8b0 f i observer_proxy.obj
 0001:0003a8f0       ??$load@$02H@tbb@@YAHABU?$atomic@H@0@@Z 1003b8f0 f i observer_proxy.obj
 0001:0003a910       ??$poison_pointer@Vobserver_proxy@internal@tbb@@@internal@tbb@@YAXAAPAVobserver_proxy@01@@Z 1003b910 f i observer_proxy.obj
 0001:0003a920       ??$poison_value@U?$atomic@H@tbb@@@internal@tbb@@YAXAAU?$atomic@H@1@@Z 1003b920 f i observer_proxy.obj
 0001:0003a950       ??$punned_cast@PAU?$atomic@H@tbb@@$$CBI@internal@tbb@@YAPAU?$atomic@H@1@PBI@Z 1003b950 f i observer_proxy.obj
 0001:0003a970       ??$punned_cast@PAVspin_rw_mutex_v3@tbb@@$$CBV?$aligned_space@Vspin_rw_mutex_v3@tbb@@$00@2@@internal@tbb@@YAPAVspin_rw_mutex_v3@1@PBV?$aligned_space@Vspin_rw_mutex_v3@tbb@@$00@1@@Z 1003b970 f i observer_proxy.obj
 0001:0003a990       ??$to_bits_ref@$$CBH@?$atomic_impl@H@internal@tbb@@SAAAHABH@Z 1003b990 f i observer_proxy.obj
 0001:0003a9c0       ??$to_bits_ref@H@?$atomic_impl@H@internal@tbb@@SAAAHAAH@Z 1003b9c0 f i observer_proxy.obj
 0001:0003a9f0       ??0?$padded@Vobserver_list@internal@tbb@@$0IA@@internal@tbb@@QAE@XZ 1003b9f0 f i observer_proxy.obj
 0001:0003aa20       ??0?$padded_base@Vobserver_list@internal@tbb@@$0IA@$0BA@@internal@tbb@@QAE@XZ 1003ba20 f i observer_proxy.obj
 0001:0003aa50       ??0?$ptr_converter@PBH@?$atomic_impl@H@internal@tbb@@QAE@PBH@Z 1003ba50 f i observer_proxy.obj
 0001:0003aa70       ??1check_observer_proxy_count@internal@tbb@@QAE@XZ 1003ba70 f i observer_proxy.obj
 0001:0003aae0       ??4?$atomic@H@tbb@@QAEAAU01@ABU01@@Z 1003bae0 f i observer_proxy.obj
 0001:0003ab20       ??_Gobserver_proxy@internal@tbb@@AAEPAXI@Z 1003bb20 f i observer_proxy.obj
 0001:0003ab60       ?begin@?$aligned_space@Vspin_rw_mutex_v3@tbb@@$00@tbb@@QBEPAVspin_rw_mutex_v3@2@XZ 1003bb60 f i observer_proxy.obj
 0001:0003ab90       ?fetch_and_store@?$atomic_traits@$00$01@internal@tbb@@SACPCXC@Z 1003bb90 f i observer_proxy.obj
 0001:0003abb0       ?initialize@task_arena@interface7@tbb@@QAEXXZ 1003bbb0 f i observer_proxy.obj
 0001:0003abf0       ?mark_initialized@task_arena@interface7@tbb@@AAEXXZ 1003bbf0 f i observer_proxy.obj
 0001:0003ac80       ?mutex@observer_list@internal@tbb@@QAEAAVspin_rw_mutex_v3@3@XZ 1003bc80 f i observer_proxy.obj
 0001:0003acc0       ?remove_ref_fast@observer_list@internal@tbb@@CAXAAPAVobserver_proxy@23@@Z 1003bcc0 f i observer_proxy.obj
 0001:0003ad20       ?internal_create@global_control@interface9@tbb@@AAEXXZ 1003bd20 f   tbb_main.obj
 0001:0003ae80       ?internal_destroy@global_control@interface9@tbb@@AAEXXZ 1003be80 f   tbb_main.obj
 0001:0003b0e0       ?active_value@global_control@interface9@tbb@@CAIH@Z 1003c0e0 f   tbb_main.obj
 0001:0003b190       ?DoOneTimeInitializations@internal@tbb@@YAXXZ 1003c190 f   tbb_main.obj
 0001:0003b260       ?ITT_DoUnsafeOneTimeInitialization@internal@tbb@@YAXXZ 1003c260 f   tbb_main.obj
 0001:0003b2e0       ?add_ref@__TBB_InitOnce@internal@tbb@@SAXXZ 1003c2e0 f   tbb_main.obj
 0001:0003b300       ?remove_ref@__TBB_InitOnce@internal@tbb@@SAXXZ 1003c300 f   tbb_main.obj
 0001:0003b360       ?itt_set_sync_name_v3@internal@tbb@@YAXPAXPB_W@Z 1003c360 f   tbb_main.obj
 0001:0003b3b0       ?call_itt_notify_v5@internal@tbb@@YAXHPAX@Z 1003c3b0 f   tbb_main.obj
 0001:0003b480       ?itt_store_pointer_with_release_v3@internal@tbb@@YAXPAX0@Z 1003c480 f   tbb_main.obj
 0001:0003b4c0       ?itt_load_pointer_with_acquire_v3@internal@tbb@@YAPAXPBX@Z 1003c4c0 f   tbb_main.obj
 0001:0003b510       ?itt_load_pointer_v3@internal@tbb@@YAPAXPBX@Z 1003c510 f   tbb_main.obj
 0001:0003b530       ?app_parallelism_limit@market@internal@tbb@@SAIXZ 1003c530 f   tbb_main.obj
 0001:0003b550       _ITT_DoOneTimeInitialization 1003c550 f   tbb_main.obj
 0001:0003b570       _DllMain@12                1003c570 f   tbb_main.obj
 0001:0003b5e0       ??$__TBB_load_with_acquire@PAX@internal@tbb@@YAPAXADSAX@Z 1003c5e0 f i tbb_main.obj
 0001:0003b600       ??$__TBB_store_with_release@PAXPAX@internal@tbb@@YAXACRAXPAX@Z 1003c600 f i tbb_main.obj
 0001:0003b620       ??$min@I@internal@tbb@@YAIABI0@Z 1003c620 f i tbb_main.obj
 0001:0003b650       ??$suppress_unused_warning@$$BY0HM@D@internal@tbb@@YAXAAY0HM@$$CBD@Z 1003c650 f i tbb_main.obj
 0001:0003b660       ??$suppress_unused_warning@PAXPB_W@internal@tbb@@YAXABQAXABQB_W@Z 1003c660 f i tbb_main.obj
 0001:0003b670       ??$to_bits@PAVglobal_control@interface9@tbb@@@?$atomic_impl@PAVglobal_control@interface9@tbb@@@internal@tbb@@CAHPAVglobal_control@interface9@2@@Z 1003c670 f i tbb_main.obj
 0001:0003b6a0       ??$to_bits_ref@PAVglobal_control@interface9@tbb@@@?$atomic_impl@PAVglobal_control@interface9@tbb@@@internal@tbb@@CAAAHAAPAVglobal_control@interface9@2@@Z 1003c6a0 f i tbb_main.obj
 0001:0003b6d0       ??$to_bits_ref@SAVglobal_control@interface9@tbb@@@?$atomic_impl@PAVglobal_control@interface9@tbb@@@internal@tbb@@CAAAHADSAVglobal_control@interface9@2@@Z 1003c6d0 f i tbb_main.obj
 0001:0003b700       ??$to_value@PAVglobal_control@interface9@tbb@@@?$atomic_impl@PAVglobal_control@interface9@tbb@@@internal@tbb@@CAPAVglobal_control@interface9@2@H@Z 1003c700 f i tbb_main.obj
 0001:0003b770       ??0?$converter@PAVglobal_control@interface9@tbb@@@?$atomic_impl@PAVglobal_control@interface9@tbb@@@internal@tbb@@QAE@PAVglobal_control@interface9@3@@Z 1003c770 f i tbb_main.obj
 0001:0003b790       ??0?$converter@PAVglobal_control@interface9@tbb@@@?$atomic_impl@PAVglobal_control@interface9@tbb@@@internal@tbb@@QAE@XZ 1003c790 f i tbb_main.obj
 0001:0003b7b0       ??0?$padded@Vcontrol_storage@internal@tbb@@$0IA@@internal@tbb@@QAE@XZ 1003c7b0 f i tbb_main.obj
 0001:0003b7e0       ??0?$padded_base@Vcontrol_storage@internal@tbb@@$0IA@$0BA@@internal@tbb@@QAE@XZ 1003c7e0 f i tbb_main.obj
 0001:0003b810       ??0?$ptr_converter@PAPAVglobal_control@interface9@tbb@@@?$atomic_impl@PAVglobal_control@interface9@tbb@@@internal@tbb@@QAE@PAPAVglobal_control@interface9@3@@Z 1003c810 f i tbb_main.obj
 0001:0003b830       ??0?$ptr_converter@PDSAVglobal_control@interface9@tbb@@@?$atomic_impl@PAVglobal_control@interface9@tbb@@@internal@tbb@@QAE@PDSAVglobal_control@interface9@3@@Z 1003c830 f i tbb_main.obj
 0001:0003b850       ??0allowed_parallelism_control@internal@tbb@@QAE@XZ 1003c850 f i tbb_main.obj
 0001:0003b880       ??0control_storage@internal@tbb@@QAE@XZ 1003c880 f i tbb_main.obj
 0001:0003b8c0       ??0stack_size_control@internal@tbb@@QAE@XZ 1003c8c0 f i tbb_main.obj
 0001:0003b8f0       ??4?$atomic@PAVglobal_control@interface9@tbb@@@tbb@@QAEPAVglobal_control@interface9@1@PAV231@@Z 1003c8f0 f i tbb_main.obj
 0001:0003b920       ??B?$atomic_impl@PAVglobal_control@interface9@tbb@@@internal@tbb@@QDEPAVglobal_control@interface9@2@XZ 1003c920 f i tbb_main.obj
 0001:0003b960       ??C?$atomic@PAVglobal_control@interface9@tbb@@@tbb@@QBEPAVglobal_control@interface9@1@XZ 1003c960 f i tbb_main.obj
 0001:0003b990       ?active_value@allowed_parallelism_control@internal@tbb@@EBEIXZ 1003c990 f i tbb_main.obj
 0001:0003ba20       ?active_value@control_storage@internal@tbb@@MBEIXZ 1003ca20 f i tbb_main.obj
 0001:0003ba80       ?active_value_if_present@allowed_parallelism_control@internal@tbb@@QBEIXZ 1003ca80 f i tbb_main.obj
 0001:0003bad0       ?apply_active@allowed_parallelism_control@internal@tbb@@EBEXXZ 1003cad0 f i tbb_main.obj
 0001:0003bb30       ?apply_active@control_storage@internal@tbb@@MBEXXZ 1003cb30 f i tbb_main.obj
 0001:0003bb50       ?apply_active@stack_size_control@internal@tbb@@EBEXXZ 1003cb50 f i tbb_main.obj
 0001:0003bb70       ?default_value@allowed_parallelism_control@internal@tbb@@EBEIXZ 1003cb70 f i tbb_main.obj
 0001:0003bbc0       ?default_value@stack_size_control@internal@tbb@@EBEIXZ 1003cbc0 f i tbb_main.obj
 0001:0003bbe0       ?is_first_arg_preferred@allowed_parallelism_control@internal@tbb@@EBE_NII@Z 1003cbe0 f i tbb_main.obj
 0001:0003bc20       ?is_first_arg_preferred@control_storage@internal@tbb@@MBE_NII@Z 1003cc20 f i tbb_main.obj
 0001:0003bc60       ?load_with_acquire@?$machine_load_store@PAX$03@internal@tbb@@SAPAXADSAX@Z 1003cc60 f i tbb_main.obj
 0001:0003bc80       ?lock@__TBB_InitOnce@internal@tbb@@SAXXZ 1003cc80 f i tbb_main.obj
 0001:0003bca0       ?max_num_workers@market@internal@tbb@@SAIXZ 1003cca0 f i tbb_main.obj
 0001:0003bd40       ?store_with_release@?$atomic_impl@PAVglobal_control@interface9@tbb@@@internal@tbb@@IAEPAVglobal_control@interface9@3@PAV453@@Z 1003cd40 f i tbb_main.obj
 0001:0003bd90       ?store_with_release@?$machine_load_store@PAX$03@internal@tbb@@SAXACRAXPAX@Z 1003cd90 f i tbb_main.obj
 0001:0003bda0       ?terminate_auto_initialized_scheduler@governor@internal@tbb@@SAXXZ 1003cda0 f i tbb_main.obj
 0001:0003bdc0       ?unlock@__TBB_InitOnce@internal@tbb@@SAXXZ 1003cdc0 f i tbb_main.obj
 0001:0003be90       ?internal_reserve@concurrent_vector_base@internal@tbb@@IAEXIII@Z 1003ce90 f   concurrent_vector_v2.obj
 0001:0003bf90       ?internal_capacity@concurrent_vector_base@internal@tbb@@IBEIXZ 1003cf90 f   concurrent_vector_v2.obj
 0001:0003bfd0       ?internal_grow_to_at_least@concurrent_vector_base@internal@tbb@@IAEXIIP6AXPAXI@Z@Z 1003cfd0 f   concurrent_vector_v2.obj
 0001:0003c050       ?internal_grow@concurrent_vector_base@internal@tbb@@IAEXIIIP6AXPAXI@Z@Z 1003d050 f   concurrent_vector_v2.obj
 0001:0003c240       ?internal_grow_by@concurrent_vector_base@internal@tbb@@IAEIIIP6AXPAXI@Z@Z 1003d240 f   concurrent_vector_v2.obj
 0001:0003c2a0       ?internal_push_back@concurrent_vector_base@internal@tbb@@IAEPAXIAAI@Z 1003d2a0 f   concurrent_vector_v2.obj
 0001:0003c450       ?internal_clear@concurrent_vector_base@internal@tbb@@IAEXP6AXPAXI@Z_N@Z 1003d450 f   concurrent_vector_v2.obj
 0001:0003c630       ?internal_copy@concurrent_vector_base@internal@tbb@@IAEXABV123@IP6AXPAXPBXI@Z@Z 1003d630 f   concurrent_vector_v2.obj
 0001:0003c790       ?internal_assign@concurrent_vector_base@internal@tbb@@IAEXABV123@IP6AXPAXI@ZP6AX1PBXI@Z4@Z 1003d790 f   concurrent_vector_v2.obj
 0001:0003ca20       ?extend_segment@helper@concurrent_vector_base@internal@tbb@@CAXAAV234@@Z 1003da20 f   concurrent_vector_v2.obj
 0001:0003cb50       ??$compare_and_swap@$0A@@?$atomic_impl@PAUsegment_t@concurrent_vector_base@internal@tbb@@@internal@tbb@@QAEPAUsegment_t@concurrent_vector_base@12@PAU3412@0@Z 1003db50 f i concurrent_vector_v2.obj
 0001:0003cba0       ??$spin_wait_while_eq@PAXPAX@internal@tbb@@YAXADSAXPAX@Z 1003dba0 f i concurrent_vector_v2.obj
 0001:0003cc20       ??$to_bits@PAUsegment_t@concurrent_vector_base@internal@tbb@@@?$atomic_impl@PAUsegment_t@concurrent_vector_base@internal@tbb@@@internal@tbb@@CAHPAUsegment_t@concurrent_vector_base@12@@Z 1003dc20 f i concurrent_vector_v2.obj
 0001:0003cc50       ??$to_bits_ref@PAUsegment_t@concurrent_vector_base@internal@tbb@@@?$atomic_impl@PAUsegment_t@concurrent_vector_base@internal@tbb@@@internal@tbb@@CAAAHAAPAUsegment_t@concurrent_vector_base@12@@Z 1003dc50 f i concurrent_vector_v2.obj
 0001:0003cc80       ??$to_bits_ref@SAUsegment_t@concurrent_vector_base@internal@tbb@@@?$atomic_impl@PAUsegment_t@concurrent_vector_base@internal@tbb@@@internal@tbb@@CAAAHADSAUsegment_t@concurrent_vector_base@12@@Z 1003dc80 f i concurrent_vector_v2.obj
 0001:0003ccb0       ??$to_value@PAUsegment_t@concurrent_vector_base@internal@tbb@@@?$atomic_impl@PAUsegment_t@concurrent_vector_base@internal@tbb@@@internal@tbb@@CAPAUsegment_t@concurrent_vector_base@12@H@Z 1003dcb0 f i concurrent_vector_v2.obj
 0001:0003cd20       ??0?$converter@PAUsegment_t@concurrent_vector_base@internal@tbb@@@?$atomic_impl@PAUsegment_t@concurrent_vector_base@internal@tbb@@@internal@tbb@@QAE@PAUsegment_t@concurrent_vector_base@23@@Z 1003dd20 f i concurrent_vector_v2.obj
 0001:0003cd40       ??0?$converter@PAUsegment_t@concurrent_vector_base@internal@tbb@@@?$atomic_impl@PAUsegment_t@concurrent_vector_base@internal@tbb@@@internal@tbb@@QAE@XZ 1003dd40 f i concurrent_vector_v2.obj
 0001:0003cd60       ??0?$ptr_converter@PAPAUsegment_t@concurrent_vector_base@internal@tbb@@@?$atomic_impl@PAUsegment_t@concurrent_vector_base@internal@tbb@@@internal@tbb@@QAE@PAPAUsegment_t@concurrent_vector_base@23@@Z 1003dd60 f i concurrent_vector_v2.obj
 0001:0003cd80       ??0?$ptr_converter@PDSAUsegment_t@concurrent_vector_base@internal@tbb@@@?$atomic_impl@PAUsegment_t@concurrent_vector_base@internal@tbb@@@internal@tbb@@QAE@PDSAUsegment_t@concurrent_vector_base@23@@Z 1003dd80 f i concurrent_vector_v2.obj
 0001:0003cda0       ??4?$atomic@PAUsegment_t@concurrent_vector_base@internal@tbb@@@tbb@@QAEPAUsegment_t@concurrent_vector_base@internal@1@PAU2341@@Z 1003dda0 f i concurrent_vector_v2.obj
 0001:0003cdd0       ??4segment_t@concurrent_vector_base@internal@tbb@@QAEAAU0123@ABU0123@@Z 1003ddd0 f i concurrent_vector_v2.obj
 0001:0003ce00       ??B?$atomic_impl@PAUsegment_t@concurrent_vector_base@internal@tbb@@@internal@tbb@@QDEPAUsegment_t@concurrent_vector_base@12@XZ 1003de00 f i concurrent_vector_v2.obj
 0001:0003ce40       ?compare_and_swap@?$atomic_impl@PAUsegment_t@concurrent_vector_base@internal@tbb@@@internal@tbb@@QAEPAUsegment_t@concurrent_vector_base@23@PAU4523@0@Z 1003de40 f i concurrent_vector_v2.obj
 0001:0003ce70       ?extend_segment_if_necessary@helper@concurrent_vector_base@internal@tbb@@SAXAAV234@I@Z 1003de70 f i concurrent_vector_v2.obj
 0001:0003cec0       ?find_segment_end@helper@concurrent_vector_base@internal@tbb@@SAKABV234@@Z 1003dec0 f i concurrent_vector_v2.obj
 0001:0003cf60       ?segment_base@concurrent_vector_base@internal@tbb@@KAKK@Z 1003df60 f i concurrent_vector_v2.obj
 0001:0003cf80       ?segment_index_of@concurrent_vector_base@internal@tbb@@KAKI@Z 1003df80 f i concurrent_vector_v2.obj
 0001:0003cfc0       ?segment_size@concurrent_vector_base@internal@tbb@@KAKK@Z 1003dfc0 f i concurrent_vector_v2.obj
 0001:0003d050       ?store_with_release@?$atomic_impl@PAUsegment_t@concurrent_vector_base@internal@tbb@@@internal@tbb@@IAEPAUsegment_t@concurrent_vector_base@23@PAU4523@@Z 1003e050 f i concurrent_vector_v2.obj
 0001:0003d0a0       ??0concurrent_queue_base@internal@tbb@@IAE@I@Z 1003e0a0 f   concurrent_queue_v2.obj
 0001:0003d2a0       ??1concurrent_queue_base@internal@tbb@@MAE@XZ 1003e2a0 f   concurrent_queue_v2.obj
 0001:0003d3b0       ?internal_push@concurrent_queue_base@internal@tbb@@IAEXPBX@Z 1003e3b0 f   concurrent_queue_v2.obj
 0001:0003d480       ?internal_pop@concurrent_queue_base@internal@tbb@@IAEXPAX@Z 1003e480 f   concurrent_queue_v2.obj
 0001:0003d4f0       ?internal_push_if_not_full@concurrent_queue_base@internal@tbb@@IAE_NPBX@Z 1003e4f0 f   concurrent_queue_v2.obj
 0001:0003d5e0       ?internal_pop_if_present@concurrent_queue_base@internal@tbb@@IAE_NPAX@Z 1003e5e0 f   concurrent_queue_v2.obj
 0001:0003d6c0       ?internal_size@concurrent_queue_base@internal@tbb@@IBEHXZ 1003e6c0 f   concurrent_queue_v2.obj
 0001:0003d730       ?internal_set_capacity@concurrent_queue_base@internal@tbb@@IAEXHI@Z 1003e730 f   concurrent_queue_v2.obj
 0001:0003d770       ??0concurrent_queue_iterator_base@internal@tbb@@IAE@ABVconcurrent_queue_base@12@@Z 1003e770 f   concurrent_queue_v2.obj
 0001:0003d830       ?assign@concurrent_queue_iterator_base@internal@tbb@@IAEXABV123@@Z 1003e830 f   concurrent_queue_v2.obj
 0001:0003d8e0       ?advance@concurrent_queue_iterator_base@internal@tbb@@IAEXXZ 1003e8e0 f   concurrent_queue_v2.obj
 0001:0003d9f0       ??1concurrent_queue_iterator_base@internal@tbb@@IAE@XZ 1003e9f0 f   concurrent_queue_v2.obj
 0001:0003da90       ?push@micro_queue@internal@tbb@@QAEXPBXIAAVconcurrent_queue_base@23@@Z 1003ea90 f   concurrent_queue_v2.obj
 0001:0003dc70       ?pop@micro_queue@internal@tbb@@QAE_NPAXIAAVconcurrent_queue_base@23@@Z 1003ec70 f   concurrent_queue_v2.obj
 0001:0003de00       ??$to_bits@PAUpage@concurrent_queue_base@internal@tbb@@@?$atomic_impl@PAUpage@concurrent_queue_base@internal@tbb@@@internal@tbb@@CAHPAUpage@concurrent_queue_base@12@@Z 1003ee00 f i concurrent_queue_v2.obj
 0001:0003de30       ??$to_bits_ref@PAUpage@concurrent_queue_base@internal@tbb@@@?$atomic_impl@PAUpage@concurrent_queue_base@internal@tbb@@@internal@tbb@@CAAAHAAPAUpage@concurrent_queue_base@12@@Z 1003ee30 f i concurrent_queue_v2.obj
 0001:0003de60       ??$to_bits_ref@SAUpage@concurrent_queue_base@internal@tbb@@@?$atomic_impl@PAUpage@concurrent_queue_base@internal@tbb@@@internal@tbb@@CAAAHADSAUpage@concurrent_queue_base@12@@Z 1003ee60 f i concurrent_queue_v2.obj
 0001:0003de90       ??$to_value@PAUpage@concurrent_queue_base@internal@tbb@@@?$atomic_impl@PAUpage@concurrent_queue_base@internal@tbb@@@internal@tbb@@CAPAUpage@concurrent_queue_base@12@H@Z 1003ee90 f i concurrent_queue_v2.obj
 0001:0003df00       ??0?$converter@PAUpage@concurrent_queue_base@internal@tbb@@@?$atomic_impl@PAUpage@concurrent_queue_base@internal@tbb@@@internal@tbb@@QAE@PAUpage@concurrent_queue_base@23@@Z 1003ef00 f i concurrent_queue_v2.obj
 0001:0003df20       ??0?$converter@PAUpage@concurrent_queue_base@internal@tbb@@@?$atomic_impl@PAUpage@concurrent_queue_base@internal@tbb@@@internal@tbb@@QAE@XZ 1003ef20 f i concurrent_queue_v2.obj
 0001:0003df40       ??0?$ptr_converter@PAPAUpage@concurrent_queue_base@internal@tbb@@@?$atomic_impl@PAUpage@concurrent_queue_base@internal@tbb@@@internal@tbb@@QAE@PAPAUpage@concurrent_queue_base@23@@Z 1003ef40 f i concurrent_queue_v2.obj
 0001:0003df60       ??0?$ptr_converter@PDSAUpage@concurrent_queue_base@internal@tbb@@@?$atomic_impl@PAUpage@concurrent_queue_base@internal@tbb@@@internal@tbb@@QAE@PDSAUpage@concurrent_queue_base@23@@Z 1003ef60 f i concurrent_queue_v2.obj
 0001:0003df80       ??0concurrent_queue_iterator_rep@internal@tbb@@QAE@ABVconcurrent_queue_base@12@@Z 1003ef80 f i concurrent_queue_v2.obj
 0001:0003e010       ??0pop_finalizer@micro_queue@internal@tbb@@QAE@AAU123@IPAUpage@concurrent_queue_base@23@@Z 1003f010 f i concurrent_queue_v2.obj
 0001:0003e060       ??0push_finalizer@micro_queue@internal@tbb@@QAE@AAU123@I@Z 1003f060 f i concurrent_queue_v2.obj
 0001:0003e0a0       ??1pop_finalizer@micro_queue@internal@tbb@@QAE@XZ 1003f0a0 f i concurrent_queue_v2.obj
 0001:0003e1b0       ??1push_finalizer@micro_queue@internal@tbb@@QAE@XZ 1003f1b0 f i concurrent_queue_v2.obj
 0001:0003e210       ??4?$atomic@PAUpage@concurrent_queue_base@internal@tbb@@@tbb@@QAEPAUpage@concurrent_queue_base@internal@1@PAU2341@@Z 1003f210 f i concurrent_queue_v2.obj
 0001:0003e240       ??B?$atomic_impl@PAUpage@concurrent_queue_base@internal@tbb@@@internal@tbb@@QDEPAUpage@concurrent_queue_base@12@XZ 1003f240 f i concurrent_queue_v2.obj
 0001:0003e280       ??_Gconcurrent_queue_base@internal@tbb@@MAEPAXI@Z 1003f280 f i concurrent_queue_v2.obj
 0001:0003e280       ??_Econcurrent_queue_base@internal@tbb@@MAEPAXI@Z 1003f280 f i concurrent_queue_v2.obj
 0001:0003e2c0       ?choose@concurrent_queue_iterator_rep@internal@tbb@@QAEPAXI@Z 1003f2c0 f i concurrent_queue_v2.obj
 0001:0003e380       ?store_with_release@?$atomic_impl@PAUpage@concurrent_queue_base@internal@tbb@@@internal@tbb@@IAEPAUpage@concurrent_queue_base@23@PAU4523@@Z 1003f380 f i concurrent_queue_v2.obj
 0001:0003e3d0       ?internal_itt_releasing@spin_rw_mutex@tbb@@CAXPAV12@@Z 1003f3d0 f   spin_rw_mutex_v2.obj
 0001:0003e420       ?internal_acquire_writer@spin_rw_mutex@tbb@@CA_NPAV12@@Z 1003f420 f   spin_rw_mutex_v2.obj
 0001:0003e540       ?internal_release_writer@spin_rw_mutex@tbb@@CAXPAV12@@Z 1003f540 f   spin_rw_mutex_v2.obj
 0001:0003e5a0       ?internal_acquire_reader@spin_rw_mutex@tbb@@CAXPAV12@@Z 1003f5a0 f   spin_rw_mutex_v2.obj
 0001:0003e6d0       ?internal_upgrade@spin_rw_mutex@tbb@@CA_NPAV12@@Z 1003f6d0 f   spin_rw_mutex_v2.obj
 0001:0003e890       ?internal_downgrade@spin_rw_mutex@tbb@@CAXPAV12@@Z 1003f890 f   spin_rw_mutex_v2.obj
 0001:0003e940       ?internal_release_reader@spin_rw_mutex@tbb@@CAXPAV12@@Z 1003f940 f   spin_rw_mutex_v2.obj
 0001:0003e9d0       ?internal_try_acquire_writer@spin_rw_mutex@tbb@@CA_NPAV12@@Z 1003f9d0 f   spin_rw_mutex_v2.obj
 0001:0003ea40       ?internal_try_acquire_reader@spin_rw_mutex@tbb@@CA_NPAV12@@Z 1003fa40 f   spin_rw_mutex_v2.obj
 0001:0003eb80       ??$as_atomic@$$CCI@internal@tbb@@YAAAU?$atomic@$$CCI@1@ACI@Z 1003fb80 f i spin_rw_mutex_v2.obj
 0001:0003eb90       ??$compare_and_swap@$0A@@?$atomic_impl@$$CCI@internal@tbb@@QAE?CIII@Z 1003fb90 f i spin_rw_mutex_v2.obj
 0001:0003ebe0       ??$to_bits@I@?$atomic_impl@$$CCI@internal@tbb@@CAHI@Z 1003fbe0 f i spin_rw_mutex_v2.obj
 0001:0003ec10       ??$to_value@$$CCI@?$atomic_impl@$$CCI@internal@tbb@@CA?CIH@Z 1003fc10 f i spin_rw_mutex_v2.obj
 0001:0003ec80       ??0?$converter@$$CCI@?$atomic_impl@$$CCI@internal@tbb@@QAE@XZ 1003fc80 f i spin_rw_mutex_v2.obj
 0001:0003eca0       ??0?$converter@I@?$atomic_impl@$$CCI@internal@tbb@@QAE@I@Z 1003fca0 f i spin_rw_mutex_v2.obj
 0001:0003ecc0       ?compare_and_swap@?$atomic_impl@$$CCI@internal@tbb@@QAE?CIII@Z 1003fcc0 f i spin_rw_mutex_v2.obj
 0001:0003ecf0       ?destroy@task@tbb@@QAEXAAV12@@Z 1003fcf0 f   task_v2.obj
 0001:0003ed20       ___TBB_machine_fetchadd1   1003fd20     atomic_support.obj
 0001:0003ed30       ___TBB_machine_fetchstore1 1003fd30     atomic_support.obj
 0001:0003ed3c       ___TBB_machine_cmpswp1     1003fd3c     atomic_support.obj
 0001:0003ed50       ___TBB_machine_fetchadd2   1003fd50     atomic_support.obj
 0001:0003ed60       ___TBB_machine_fetchstore2 1003fd60     atomic_support.obj
 0001:0003ed70       ___TBB_machine_cmpswp2     1003fd70     atomic_support.obj
 0001:0003ed84       ___TBB_machine_fetchadd4   1003fd84     atomic_support.obj
 0001:0003ed94       ___TBB_machine_fetchstore4 1003fd94     atomic_support.obj
 0001:0003eda0       ___TBB_machine_cmpswp4     1003fda0     atomic_support.obj
 0001:0003edb4       ___TBB_machine_fetchadd8   1003fdb4     atomic_support.obj
 0001:0003edd4       ___TBB_machine_fetchstore8 1003fdd4     atomic_support.obj
 0001:0003edf0       ___TBB_machine_cmpswp8     1003fdf0     atomic_support.obj
 0001:0003ee10       ___TBB_machine_load8       1003fe10     atomic_support.obj
 0001:0003ee44       ___TBB_machine_store8      1003fe44     atomic_support.obj
 0001:0003ee60       ___TBB_machine_try_lock_elided 1003fe60     itsx.obj
 0001:0003ee70       ___TBB_machine_unlock_elided 1003fe70     itsx.obj
 0001:0003ee7c       ___TBB_machine_begin_transaction 1003fe7c     itsx.obj
 0001:0003ee88       ___TBB_machine_end_transaction 1003fe88     itsx.obj
 0001:0003ee8c       ___TBB_machine_transaction_conflict_abort 1003fe8c     itsx.obj
 0001:0003ee90       ___TBB_machine_is_in_transaction 1003fe90     itsx.obj
 0001:0003eea0       ___TBB_machine_trylockbyte 1003fea0     lock_byte.obj
 0001:0003eebb       _SwitchToThread@0          1003febb f   kernel32:KERNEL32.dll
 0001:0003eec1       _CloseHandle@4             1003fec1 f   kernel32:KERNEL32.dll
 0001:0003eec7       _SetEvent@4                1003fec7 f   kernel32:KERNEL32.dll
 0001:0003eecd       _WaitForSingleObjectEx@12  1003fecd f   kernel32:KERNEL32.dll
 0001:0003eed3       _GetLastError@0            1003fed3 f   kernel32:KERNEL32.dll
 0001:0003eed9       _SetErrorMode@4            1003fed9 f   kernel32:KERNEL32.dll
 0001:0003eedf       _FreeLibrary@4             1003fedf f   kernel32:KERNEL32.dll
 0001:0003eee5       _GetModuleFileNameA@12     1003fee5 f   kernel32:KERNEL32.dll
 0001:0003eeeb       _GetModuleHandleExA@12     1003feeb f   kernel32:KERNEL32.dll
 0001:0003eef1       _GetProcAddress@8          1003fef1 f   kernel32:KERNEL32.dll
 0001:0003eef7       _LoadLibraryA@4            1003fef7 f   kernel32:KERNEL32.dll
 0001:0003eefd       _GetEnvironmentVariableA@12 1003fefd f   kernel32:KERNEL32.dll
 0001:0003ef03       _InitializeCriticalSection@4 1003ff03 f   kernel32:KERNEL32.dll
 0001:0003ef09       _EnterCriticalSection@4    1003ff09 f   kernel32:KERNEL32.dll
 0001:0003ef0f       _LeaveCriticalSection@4    1003ff0f f   kernel32:KERNEL32.dll
 0001:0003ef15       _GetCurrentThreadId@0      1003ff15 f   kernel32:KERNEL32.dll
 0001:0003ef1b       _lstrcmpA@8                1003ff1b f   kernel32:KERNEL32.dll
 0001:0003ef21       _ReleaseSemaphore@12       1003ff21 f   kernel32:KERNEL32.dll
 0001:0003ef27       _CreateSemaphoreW@16       1003ff27 f   kernel32:KERNEL32.dll
 0001:0003ef2d       _TlsAlloc@0                1003ff2d f   kernel32:KERNEL32.dll
 0001:0003ef33       _TlsGetValue@4             1003ff33 f   kernel32:KERNEL32.dll
 0001:0003ef39       _TlsSetValue@8             1003ff39 f   kernel32:KERNEL32.dll
 0001:0003ef3f       _TlsFree@4                 1003ff3f f   kernel32:KERNEL32.dll
 0001:0003ef45       _InitializeCriticalSectionAndSpinCount@8 1003ff45 f   kernel32:KERNEL32.dll
 0001:0003ef4b       _TryEnterCriticalSection@4 1003ff4b f   kernel32:KERNEL32.dll
 0001:0003ef51       _DeleteCriticalSection@4   1003ff51 f   kernel32:KERNEL32.dll
 0001:0003ef57       _SetLastError@4            1003ff57 f   kernel32:KERNEL32.dll
 0001:0003ef5d       _QueryPerformanceFrequency@4 1003ff5d f   kernel32:KERNEL32.dll
 0001:0003ef63       _ResetEvent@4              1003ff63 f   kernel32:KERNEL32.dll
 0001:0003ef69       _CreateEventA@16           1003ff69 f   kernel32:KERNEL32.dll
 0001:0003ef6f       _QueryPerformanceCounter@4 1003ff6f f   kernel32:KERNEL32.dll
 0001:0003ef75       _Sleep@4                   1003ff75 f   kernel32:KERNEL32.dll
 0001:0003ef7b       _ResumeThread@4            1003ff7b f   kernel32:KERNEL32.dll
 0001:0003ef81       _FormatMessageA@28         1003ff81 f   kernel32:KERNEL32.dll
 0001:0003ef87       _GetCurrentProcess@0       1003ff87 f   kernel32:KERNEL32.dll
 0001:0003ef8d       _GetCurrentThread@0        1003ff8d f   kernel32:KERNEL32.dll
 0001:0003ef93       _GetNativeSystemInfo@4     1003ff93 f   kernel32:KERNEL32.dll
 0001:0003ef99       _GetProcessAffinityMask@12 1003ff99 f   kernel32:KERNEL32.dll
 0001:0003ef9f       _CreateEventW@16           1003ff9f f   kernel32:KERNEL32.dll
 0001:0003efb0       ?_Debug_message@std@@YAXPBG0I@Z 1003ffb0 f   libcpmtd:stdthrow.obj
 0001:0003efd0       ?_Debug_message@std@@YAXPB_W0I@Z 1003ffd0 f   libcpmtd:stdthrow.obj
 0001:0003f000       ??$?0AAPAUEHExceptionRecord@@_N@?$_Ref_count_obj@V__ExceptionPtr@@@std@@QAE@AAPAUEHExceptionRecord@@$$QA_N@Z 10040000 f i libcpmtd:excptptr.obj
 0001:0003f0a0       ??$?0AAPAUEHExceptionRecord@@_N@?$_Ref_count_obj_alloc@V__ExceptionPtr@@U?$_StaticAllocator@H@@@std@@QAE@ABU?$_StaticAllocator@H@@AAPAUEHExceptionRecord@@$$QA_N@Z 100400a0 f i libcpmtd:excptptr.obj
 0001:0003f160       ??$?0ABU?$_StaticAllocator@H@@$$V@?$_Compressed_pair@U?$_StaticAllocator@V?$_Ref_count_obj_alloc@V__ExceptionPtr@@U?$_StaticAllocator@H@@@std@@@@T?$_Align_type@H$0FE@@std@@$00@std@@QAE@U_One_then_variadic_args_t@1@ABU?$_StaticAllocator@H@@@Z 10040160 f i libcpmtd:excptptr.obj
 0001:0003f1a0       ??$?0H@?$_StaticAllocator@V?$_Ref_count_obj_alloc@V__ExceptionPtr@@U?$_StaticAllocator@H@@@std@@@@QAE@ABU?$_StaticAllocator@H@@@Z 100401a0 f i libcpmtd:excptptr.obj
 0001:0003f1b0       ??$?8V__ExceptionPtr@@V0@@std@@YA_NABV?$shared_ptr@V__ExceptionPtr@@@0@0@Z 100401b0 f i libcpmtd:excptptr.obj
 0001:0003f1f0       ??$?CV__ExceptionPtr@@$0A@@?$shared_ptr@V__ExceptionPtr@@@std@@QBEPAV__ExceptionPtr@@XZ 100401f0 f i libcpmtd:excptptr.obj
 0001:0003f210       ??$_Construct1@V?$_Ref_count_obj_alloc@V__ExceptionPtr@@U?$_StaticAllocator@H@@@std@@ABU?$_StaticAllocator@H@@AAPAUEHExceptionRecord@@_N@?$_Normal_allocator_traits@U?$_StaticAllocator@V?$_Ref_count_obj_alloc@V__ExceptionPtr@@U?$_StaticAllocator@H@@@std@@@@@std@@SAXU?$integral_constant@_N$00@1@AAU?$_StaticAllocator@V?$_Ref_count_obj_alloc@V__ExceptionPtr@@U?$_StaticAllocator@H@@@std@@@@PAV?$_Ref_count_obj_alloc@V__ExceptionPtr@@U?$_StaticAllocator@H@@@1@ABU?$_StaticAllocator@H@@AAPAUEHExceptionRecord@@$$QA_N@Z 10040210 f i libcpmtd:excptptr.obj
 0001:0003f260       ??$_Copy_construct_from@V__ExceptionPtr@@@?$_Ptr_base@V__ExceptionPtr@@@std@@IAEXABV?$shared_ptr@V__ExceptionPtr@@@1@@Z 10040260 f i libcpmtd:excptptr.obj
 0001:0003f2a0       ??$_Deallocate_plain@U?$_StaticAllocator@V?$_Ref_count_obj_alloc@V__ExceptionPtr@@U?$_StaticAllocator@H@@@std@@@@$0A@@std@@YAXAAU?$_StaticAllocator@V?$_Ref_count_obj_alloc@V__ExceptionPtr@@U?$_StaticAllocator@H@@@std@@@@QAV?$_Ref_count_obj_alloc@V__ExceptionPtr@@U?$_StaticAllocator@H@@@0@@Z 100402a0 f i libcpmtd:excptptr.obj
 0001:0003f2c0       ??$_Destroy1@V?$_Ref_count_obj_alloc@V__ExceptionPtr@@U?$_StaticAllocator@H@@@std@@@?$_Normal_allocator_traits@U?$_StaticAllocator@V?$_Ref_count_obj_alloc@V__ExceptionPtr@@U?$_StaticAllocator@H@@@std@@@@@std@@SAXAAU?$_StaticAllocator@V?$_Ref_count_obj_alloc@V__ExceptionPtr@@U?$_StaticAllocator@H@@@std@@@@PAV?$_Ref_count_obj_alloc@V__ExceptionPtr@@U?$_StaticAllocator@H@@@1@U?$integral_constant@_N$00@1@@Z 100402c0 f i libcpmtd:excptptr.obj
 0001:0003f2f0       ??$_Enable_shared_from_this1@V__ExceptionPtr@@V1@@std@@YAXABV?$shared_ptr@V__ExceptionPtr@@@0@PAV__ExceptionPtr@@U?$integral_constant@_N$0A@@0@@Z 100402f0 f i libcpmtd:excptptr.obj
 0001:0003f300       ??$_Enable_shared_from_this@V__ExceptionPtr@@V1@@std@@YAXABV?$shared_ptr@V__ExceptionPtr@@@0@PAV__ExceptionPtr@@@Z 10040300 f i libcpmtd:excptptr.obj
 0001:0003f330       ??$_Move_construct_from@V__ExceptionPtr@@@?$_Ptr_base@V__ExceptionPtr@@@std@@IAEX$$QAV01@@Z 10040330 f i libcpmtd:excptptr.obj
 0001:0003f370       ??$_Set_ptr_rep_and_enable_shared@V__ExceptionPtr@@@?$shared_ptr@V__ExceptionPtr@@@std@@AAEXPAV__ExceptionPtr@@PAV_Ref_count_base@1@@Z 10040370 f i libcpmtd:excptptr.obj
 0001:0003f3a0       ??$_Unfancy@V?$_Ref_count_obj_alloc@V__ExceptionPtr@@U?$_StaticAllocator@H@@@std@@@std@@YAPAV?$_Ref_count_obj_alloc@V__ExceptionPtr@@U?$_StaticAllocator@H@@@0@PAV10@@Z 100403a0 f i libcpmtd:excptptr.obj
 0001:0003f3b0       ??$allocate_shared@V__ExceptionPtr@@U?$_StaticAllocator@H@@AAPAUEHExceptionRecord@@_N@std@@YA?AV?$shared_ptr@V__ExceptionPtr@@@0@ABU?$_StaticAllocator@H@@AAPAUEHExceptionRecord@@$$QA_N@Z 100403b0 f i libcpmtd:excptptr.obj
 0001:0003f4e0       ??$construct@V?$_Ref_count_obj_alloc@V__ExceptionPtr@@U?$_StaticAllocator@H@@@std@@ABU?$_StaticAllocator@H@@AAPAUEHExceptionRecord@@_N@?$_Normal_allocator_traits@U?$_StaticAllocator@V?$_Ref_count_obj_alloc@V__ExceptionPtr@@U?$_StaticAllocator@H@@@std@@@@@std@@SAXAAU?$_StaticAllocator@V?$_Ref_count_obj_alloc@V__ExceptionPtr@@U?$_StaticAllocator@H@@@std@@@@PAV?$_Ref_count_obj_alloc@V__ExceptionPtr@@U?$_StaticAllocator@H@@@1@ABU?$_StaticAllocator@H@@AAPAUEHExceptionRecord@@$$QA_N@Z 100404e0 f i libcpmtd:excptptr.obj
 0001:0003f530       ??$destroy@V?$_Ref_count_obj_alloc@V__ExceptionPtr@@U?$_StaticAllocator@H@@@std@@@?$_Normal_allocator_traits@U?$_StaticAllocator@V?$_Ref_count_obj_alloc@V__ExceptionPtr@@U?$_StaticAllocator@H@@@std@@@@@std@@SAXAAU?$_StaticAllocator@V?$_Ref_count_obj_alloc@V__ExceptionPtr@@U?$_StaticAllocator@H@@@std@@@@PAV?$_Ref_count_obj_alloc@V__ExceptionPtr@@U?$_StaticAllocator@H@@@1@@Z 10040530 f i libcpmtd:excptptr.obj
 0001:0003f550       ??$forward@AAPAUEHExceptionRecord@@@std@@YAAAPAUEHExceptionRecord@@AAPAU1@@Z 10040550 f i libcpmtd:excptptr.obj
 0001:0003f560       ??$forward@ABU?$_StaticAllocator@H@@@std@@YAABU?$_StaticAllocator@H@@ABU1@@Z 10040560 f i libcpmtd:excptptr.obj
 0001:0003f570       ??$forward@_N@std@@YA$$QA_NAA_N@Z 10040570 f i libcpmtd:excptptr.obj
 0001:0003f580       ??$make_shared@V__ExceptionPtr@@AAPAUEHExceptionRecord@@_N@std@@YA?AV?$shared_ptr@V__ExceptionPtr@@@0@AAPAUEHExceptionRecord@@$$QA_N@Z 10040580 f i libcpmtd:excptptr.obj
 0001:0003f670       ??$move@AAPAV_Ref_count_base@std@@@std@@YA$$QAPAV_Ref_count_base@0@AAPAV10@@Z 10040670 f i libcpmtd:excptptr.obj
 0001:0003f680       ??$move@AAPAV__ExceptionPtr@@@std@@YA$$QAPAV__ExceptionPtr@@AAPAV1@@Z 10040680 f i libcpmtd:excptptr.obj
 0001:0003f690       ??$move@AAV?$shared_ptr@V__ExceptionPtr@@@std@@@std@@YA$$QAV?$shared_ptr@V__ExceptionPtr@@@0@AAV10@@Z 10040690 f i libcpmtd:excptptr.obj
 0001:0003f6a0       ??$swap@PAV_Ref_count_base@std@@X@std@@YAXAAPAV_Ref_count_base@0@0@Z 100406a0 f i libcpmtd:excptptr.obj
 0001:0003f6e0       ??$swap@PAV__ExceptionPtr@@X@std@@YAXAAPAV__ExceptionPtr@@0@Z 100406e0 f i libcpmtd:excptptr.obj
 0001:0003f720       ??0?$_Ptr_base@V__ExceptionPtr@@@std@@IAE@XZ 10040720 f i libcpmtd:excptptr.obj
 0001:0003f750       ??0?$shared_ptr@V__ExceptionPtr@@@std@@QAE@$$QAV01@@Z 10040750 f i libcpmtd:excptptr.obj
 0001:0003f7b0       ??0?$shared_ptr@V__ExceptionPtr@@@std@@QAE@ABV01@@Z 100407b0 f i libcpmtd:excptptr.obj
 0001:0003f800       ??0?$shared_ptr@V__ExceptionPtr@@@std@@QAE@XZ 10040800 f i libcpmtd:excptptr.obj
 0001:0003f820       ??0_Ref_count_base@std@@IAE@XZ 10040820 f i libcpmtd:excptptr.obj
 0001:0003f850       ??0__ExceptionPtr@@QAE@PBUEHExceptionRecord@@_N@Z 10040850 f   libcpmtd:excptptr.obj
 0001:0003fa30       ??0bad_exception@std@@QAE@ABV01@@Z 10040a30 f i libcpmtd:excptptr.obj
 0001:0003fa60       ??0bad_exception@std@@QAE@XZ 10040a60 f i libcpmtd:excptptr.obj
 0001:0003fa90       ??1?$_Ref_count_obj@V__ExceptionPtr@@@std@@UAE@XZ 10040a90 f i libcpmtd:excptptr.obj
 0001:0003fab0       ??1?$_Ref_count_obj_alloc@V__ExceptionPtr@@U?$_StaticAllocator@H@@@std@@UAE@XZ 10040ab0 f i libcpmtd:excptptr.obj
 0001:0003fad0       ??1?$shared_ptr@V__ExceptionPtr@@@std@@QAE@XZ 10040ad0 f i libcpmtd:excptptr.obj
 0001:0003fb10       ??1_Ref_count_base@std@@UAE@XZ 10040b10 f i libcpmtd:excptptr.obj
 0001:0003fb20       ??1__ExceptionPtr@@QAE@XZ  10040b20 f   libcpmtd:excptptr.obj
 0001:0003fc60       ??1bad_exception@std@@UAE@XZ 10040c60 f i libcpmtd:excptptr.obj
 0001:0003fc80       ??4?$shared_ptr@V__ExceptionPtr@@@std@@QAEAAV01@$$QAV01@@Z 10040c80 f i libcpmtd:excptptr.obj
 0001:0003fcc0       ??4?$shared_ptr@V__ExceptionPtr@@@std@@QAEAAV01@ABV01@@Z 10040cc0 f i libcpmtd:excptptr.obj
 0001:0003fd00       ??B?$shared_ptr@V__ExceptionPtr@@@std@@QBE_NXZ 10040d00 f i libcpmtd:excptptr.obj
 0001:0003fd30       ??_E?$_Ref_count_obj@V__ExceptionPtr@@@std@@UAEPAXI@Z 10040d30 f i libcpmtd:excptptr.obj
 0001:0003fd30       ??_G?$_Ref_count_obj@V__ExceptionPtr@@@std@@UAEPAXI@Z 10040d30 f i libcpmtd:excptptr.obj
 0001:0003fd60       ??_G?$_Ref_count_obj_alloc@V__ExceptionPtr@@U?$_StaticAllocator@H@@@std@@UAEPAXI@Z 10040d60 f i libcpmtd:excptptr.obj
 0001:0003fd60       ??_E?$_Ref_count_obj_alloc@V__ExceptionPtr@@U?$_StaticAllocator@H@@@std@@UAEPAXI@Z 10040d60 f i libcpmtd:excptptr.obj
 0001:0003fd90       ??_G?$shared_ptr@V__ExceptionPtr@@@std@@QAEPAXI@Z 10040d90 f i libcpmtd:excptptr.obj
 0001:0003fdc0       ??_G__ExceptionPtr@@QAEPAXI@Z 10040dc0 f i libcpmtd:excptptr.obj
 0001:0003fdf0       ??_Ebad_exception@std@@UAEPAXI@Z 10040df0 f i libcpmtd:excptptr.obj
 0001:0003fdf0       ??_Gbad_exception@std@@UAEPAXI@Z 10040df0 f i libcpmtd:excptptr.obj
 0001:0003fe20       ?_BadAllocException@__ExceptionPtr@@SAABV?$shared_ptr@V__ExceptionPtr@@@std@@XZ 10040e20 f   libcpmtd:excptptr.obj
 0001:0003fe50       ?_CallCopyCtor@__ExceptionPtr@@ABEXPAX0IQBU_s_CatchableType@@@Z 10040e50 f   libcpmtd:excptptr.obj
 0001:0003ff70       ?_CallMemberFunction0@@YGXQAX0@Z 10040f70 f i libcpmtd:excptptr.obj
 0001:0003ff90       ?_CallMemberFunction1@@YGXQAX00@Z 10040f90 f i libcpmtd:excptptr.obj
 0001:0003ffb0       ?_CallMemberFunction2@@YGXQAX00H@Z 10040fb0 f i libcpmtd:excptptr.obj
 0001:0003ffd0       ?_CopyException@__ExceptionPtr@@SA?AV?$shared_ptr@V__ExceptionPtr@@@std@@PBXPBU_s_ThrowInfo@@@Z 10040fd0 f   libcpmtd:excptptr.obj
 0001:000400b0       ?_CurrentException@__ExceptionPtr@@SA?AV?$shared_ptr@V__ExceptionPtr@@@std@@XZ 100410b0 f   libcpmtd:excptptr.obj
 0001:000401c0       ?_Decref@?$_Ptr_base@V__ExceptionPtr@@@std@@IAEXXZ 100411c0 f i libcpmtd:excptptr.obj
 0001:000401e0       ?_Decref@_Ref_count_base@std@@QAEXXZ 100411e0 f i libcpmtd:excptptr.obj
 0001:00040220       ?_Decwref@_Ref_count_base@std@@QAEXXZ 10041220 f i libcpmtd:excptptr.obj
 0001:00040260       ?_Delete_this@?$_Ref_count_obj@V__ExceptionPtr@@@std@@EAEXXZ 10041260 f i libcpmtd:excptptr.obj
 0001:000402b0       ?_Delete_this@?$_Ref_count_obj_alloc@V__ExceptionPtr@@U?$_StaticAllocator@H@@@std@@EAEXXZ 100412b0 f i libcpmtd:excptptr.obj
 0001:00040320       ?_Destroy@?$_Ref_count_obj@V__ExceptionPtr@@@std@@EAEXXZ 10041320 f i libcpmtd:excptptr.obj
 0001:00040370       ?_Destroy@?$_Ref_count_obj_alloc@V__ExceptionPtr@@U?$_StaticAllocator@H@@@std@@EAEXXZ 10041370 f i libcpmtd:excptptr.obj
 0001:000403c0       ?_Get_deleter@_Ref_count_base@std@@UBEPAXABVtype_info@@@Z 100413c0 f i libcpmtd:excptptr.obj
 0001:000403d0       ?_Get_first@?$_Compressed_pair@U?$_StaticAllocator@V?$_Ref_count_obj_alloc@V__ExceptionPtr@@U?$_StaticAllocator@H@@@std@@@@T?$_Align_type@H$0FE@@std@@$00@std@@QAEAAU?$_StaticAllocator@V?$_Ref_count_obj_alloc@V__ExceptionPtr@@U?$_StaticAllocator@H@@@std@@@@XZ 100413d0 f i libcpmtd:excptptr.obj
 0001:000403e0       ?_Get_second@?$_Compressed_pair@U?$_StaticAllocator@V?$_Ref_count_obj_alloc@V__ExceptionPtr@@U?$_StaticAllocator@H@@@std@@@@T?$_Align_type@H$0FE@@std@@$00@std@@QAEAAT?$_Align_type@H$0FE@@2@XZ 100413e0 f i libcpmtd:excptptr.obj
 0001:000403f0       ?_Getptr@?$_Ref_count_obj@V__ExceptionPtr@@@std@@QAEPAV__ExceptionPtr@@XZ 100413f0 f i libcpmtd:excptptr.obj
 0001:00040410       ?_Getptr@?$_Ref_count_obj_alloc@V__ExceptionPtr@@U?$_StaticAllocator@H@@@std@@QAEPAV__ExceptionPtr@@XZ 10041410 f i libcpmtd:excptptr.obj
 0001:00040430       ?_Incref@_Ref_count_base@std@@QAEXXZ 10041430 f i libcpmtd:excptptr.obj
 0001:00040450       ?_InitBadAllocException@__ExceptionPtr@@CA?AV?$shared_ptr@V__ExceptionPtr@@@std@@XZ 10041450 f   libcpmtd:excptptr.obj
 0001:000404f0       ?_PlacementInitBadAllocException@__ExceptionPtr@@CGHPAX0PAPAX@Z 100414f0 f i libcpmtd:excptptr.obj
 0001:00040550       ?_PopulateExceptionRecord@__ExceptionPtr@@SAPAUEHExceptionRecord@@AAU2@PBXPBU_s_ThrowInfo@@@Z 10041550 f   libcpmtd:excptptr.obj
 0001:00040610       ?_RethrowException@__ExceptionPtr@@QBEXXZ 10041610 f   libcpmtd:excptptr.obj
 0001:00040770       ?_Set_ptr_rep@?$_Ptr_base@V__ExceptionPtr@@@std@@IAEXPAV__ExceptionPtr@@PAV_Ref_count_base@2@@Z 10041770 f i libcpmtd:excptptr.obj
 0001:000407e0       ?_Swap@?$_Ptr_base@V__ExceptionPtr@@@std@@IAEXAAV12@@Z 100417e0 f i libcpmtd:excptptr.obj
 0001:00040820       ?__ExceptionPtrAssign@@YAXPAXPBX@Z 10041820 f   libcpmtd:excptptr.obj
 0001:00040850       ?__ExceptionPtrCompare@@YA_NPBX0@Z 10041850 f   libcpmtd:excptptr.obj
 0001:00040880       ?__ExceptionPtrCopy@@YAXPAXPBX@Z 10041880 f   libcpmtd:excptptr.obj
 0001:000408c0       ?__ExceptionPtrCopyException@@YAXPAXPBX1@Z 100418c0 f   libcpmtd:excptptr.obj
 0001:00040900       ?__ExceptionPtrCreate@@YAXPAX@Z 10041900 f   libcpmtd:excptptr.obj
 0001:00040930       ?__ExceptionPtrCurrentException@@YAXPAX@Z 10041930 f   libcpmtd:excptptr.obj
 0001:000409a0       ?__ExceptionPtrDestroy@@YAXPAX@Z 100419a0 f   libcpmtd:excptptr.obj
 0001:000409b0       ?__ExceptionPtrRethrow@@YAXPBX@Z 100419b0 f   libcpmtd:excptptr.obj
 0001:000409d0       ?__ExceptionPtrSwap@@YAXPAX0@Z 100419d0 f   libcpmtd:excptptr.obj
 0001:00040a00       ?__ExceptionPtrToBool@@YA_NPBX@Z 10041a00 f   libcpmtd:excptptr.obj
 0001:00040a40       ?align@std@@YAPAXIIAAPAXAAI@Z 10041a40 f i libcpmtd:excptptr.obj
 0001:00040aa0       ?allocate@?$_Normal_allocator_traits@U?$_StaticAllocator@V?$_Ref_count_obj_alloc@V__ExceptionPtr@@U?$_StaticAllocator@H@@@std@@@@@std@@SAPAV?$_Ref_count_obj_alloc@V__ExceptionPtr@@U?$_StaticAllocator@H@@@2@AAU?$_StaticAllocator@V?$_Ref_count_obj_alloc@V__ExceptionPtr@@U?$_StaticAllocator@H@@@std@@@@I@Z 10041aa0 f i libcpmtd:excptptr.obj
 0001:00040ac0       ?allocate@?$_StaticAllocator@V?$_Ref_count_obj_alloc@V__ExceptionPtr@@U?$_StaticAllocator@H@@@std@@@@QBEPAV?$_Ref_count_obj_alloc@V__ExceptionPtr@@U?$_StaticAllocator@H@@@std@@I@Z 10041ac0 f i libcpmtd:excptptr.obj
 0001:00040b00       ?deallocate@?$_Normal_allocator_traits@U?$_StaticAllocator@V?$_Ref_count_obj_alloc@V__ExceptionPtr@@U?$_StaticAllocator@H@@@std@@@@@std@@SAXAAU?$_StaticAllocator@V?$_Ref_count_obj_alloc@V__ExceptionPtr@@U?$_StaticAllocator@H@@@std@@@@PAV?$_Ref_count_obj_alloc@V__ExceptionPtr@@U?$_StaticAllocator@H@@@2@I@Z 10041b00 f i libcpmtd:excptptr.obj
 0001:00040b20       ?deallocate@?$_StaticAllocator@V?$_Ref_count_obj_alloc@V__ExceptionPtr@@U?$_StaticAllocator@H@@@std@@@@QBEXPAV?$_Ref_count_obj_alloc@V__ExceptionPtr@@U?$_StaticAllocator@H@@@std@@I@Z 10041b20 f i libcpmtd:excptptr.obj
 0001:00040b30       ?get@?$_Ptr_base@V__ExceptionPtr@@@std@@IBEPAV__ExceptionPtr@@XZ 10041b30 f i libcpmtd:excptptr.obj
 0001:00040b40       ?swap@?$shared_ptr@V__ExceptionPtr@@@std@@QAEXAAV12@@Z 10041b40 f i libcpmtd:excptptr.obj
 0001:00040b60       ??0_Init_locks@std@@QAE@XZ 10041b60 f   libcpmtd:xlock.obj
 0001:00040bb0       ??0_Lockit@std@@QAE@H@Z    10041bb0 f   libcpmtd:xlock.obj
 0001:00040c00       ??0_Lockit@std@@QAE@XZ     10041c00 f   libcpmtd:xlock.obj
 0001:00040c40       ??1_Init_locks@std@@QAE@XZ 10041c40 f   libcpmtd:xlock.obj
 0001:00040c90       ??1_Lockit@std@@QAE@XZ     10041c90 f   libcpmtd:xlock.obj
 0001:00040cd0       ?_Init_locks_ctor@_Init_locks@std@@CAXPAV12@@Z 10041cd0 f   libcpmtd:xlock.obj
 0001:00040d20       ?_Init_locks_dtor@_Init_locks@std@@CAXPAV12@@Z 10041d20 f   libcpmtd:xlock.obj
 0001:00040d70       ?_Lockit_ctor@_Lockit@std@@CAXPAV12@@Z 10041d70 f   libcpmtd:xlock.obj
 0001:00040d90       ?_Lockit_ctor@_Lockit@std@@CAXPAV12@H@Z 10041d90 f   libcpmtd:xlock.obj
 0001:00040dd0       ?_Lockit_ctor@_Lockit@std@@SAXH@Z 10041dd0 f   libcpmtd:xlock.obj
 0001:00040e00       ?_Lockit_dtor@_Lockit@std@@CAXPAV12@@Z 10041e00 f   libcpmtd:xlock.obj
 0001:00040e20       ?_Lockit_dtor@_Lockit@std@@SAXH@Z 10041e20 f   libcpmtd:xlock.obj
 0001:00040e50       __Lock_at_thread_exit_mutex 10041e50 f   libcpmtd:xlock.obj
 0001:00040e70       __Unlock_at_thread_exit_mutex 10041e70 f   libcpmtd:xlock.obj
 0001:00040e90       ??0bad_function_call@std@@QAE@ABV01@@Z 10041e90 f i libcpmtd:xthrow.obj
 0001:00040ec0       ??0bad_function_call@std@@QAE@XZ 10041ec0 f i libcpmtd:xthrow.obj
 0001:00040ee0       ??0overflow_error@std@@QAE@ABV01@@Z 10041ee0 f i libcpmtd:xthrow.obj
 0001:00040f10       ??0overflow_error@std@@QAE@PBD@Z 10041f10 f i libcpmtd:xthrow.obj
 0001:00040f40       ??0regex_error@std@@QAE@ABV01@@Z 10041f40 f i libcpmtd:xthrow.obj
 0001:00040f80       ??0regex_error@std@@QAE@W4error_type@regex_constants@1@@Z 10041f80 f i libcpmtd:xthrow.obj
 0001:00040fc0       ??1bad_function_call@std@@UAE@XZ 10041fc0 f i libcpmtd:xthrow.obj
 0001:00040fe0       ??1overflow_error@std@@UAE@XZ 10041fe0 f i libcpmtd:xthrow.obj
 0001:00041000       ??1regex_error@std@@UAE@XZ 10042000 f i libcpmtd:xthrow.obj
 0001:00041020       ??_Gbad_function_call@std@@UAEPAXI@Z 10042020 f i libcpmtd:xthrow.obj
 0001:00041020       ??_Ebad_function_call@std@@UAEPAXI@Z 10042020 f i libcpmtd:xthrow.obj
 0001:00041050       ??_Eoverflow_error@std@@UAEPAXI@Z 10042050 f i libcpmtd:xthrow.obj
 0001:00041050       ??_Goverflow_error@std@@UAEPAXI@Z 10042050 f i libcpmtd:xthrow.obj
 0001:00041080       ??_Gregex_error@std@@UAEPAXI@Z 10042080 f i libcpmtd:xthrow.obj
 0001:00041080       ??_Eregex_error@std@@UAEPAXI@Z 10042080 f i libcpmtd:xthrow.obj
 0001:000410b0       ?_Stringify@regex_error@std@@CAPBDW4error_type@regex_constants@2@@Z 100420b0 f i libcpmtd:xthrow.obj
 0001:00041180       ?_Xbad_alloc@std@@YAXXZ    10042180 f   libcpmtd:xthrow.obj
 0001:000411a0       ?_Xbad_function_call@std@@YAXXZ 100421a0 f   libcpmtd:xthrow.obj
 0001:000411c0       ?_Xinvalid_argument@std@@YAXPBD@Z 100421c0 f   libcpmtd:xthrow.obj
 0001:000411f0       ?_Xlength_error@std@@YAXPBD@Z 100421f0 f   libcpmtd:xthrow.obj
 0001:00041220       ?_Xout_of_range@std@@YAXPBD@Z 10042220 f   libcpmtd:xthrow.obj
 0001:00041250       ?_Xoverflow_error@std@@YAXPBD@Z 10042250 f   libcpmtd:xthrow.obj
 0001:00041280       ?_Xregex_error@std@@YAXW4error_type@regex_constants@1@@Z 10042280 f   libcpmtd:xthrow.obj
 0001:000412b0       ?_Xruntime_error@std@@YAXPBD@Z 100422b0 f   libcpmtd:xthrow.obj
 0001:000412e0       ?__empty_global_delete@@YAXPAXIW4align_val_t@std@@@Z 100422e0 f i libcpmtd:xthrow.obj
 0001:000412f0       ?__empty_global_delete@@YAXPAXW4align_val_t@std@@@Z 100422f0 f i libcpmtd:xthrow.obj
 0001:00041300       ?what@bad_function_call@std@@UBEPBDXZ 10042300 f i libcpmtd:xthrow.obj
 0001:00041310       ??$?0$$V@?$_Compressed_pair@V?$allocator@D@std@@V?$_String_val@U?$_Simple_types@D@std@@@2@$00@std@@QAE@U_Zero_then_variadic_args_t@1@@Z 10042310 f i libcpmtd:xonce.obj
 0001:00041330       ??$?0D@?$allocator@U_Container_proxy@std@@@std@@QAE@ABV?$allocator@D@1@@Z 10042330 f i libcpmtd:xonce.obj
 0001:00041340       ??$?0V?$allocator@D@std@@$$V@?$_Compressed_pair@V?$allocator@D@std@@V?$_String_val@U?$_Simple_types@D@std@@@2@$00@std@@QAE@U_One_then_variadic_args_t@1@$$QAV?$allocator@D@1@@Z 10042340 f i libcpmtd:xonce.obj
 0001:00041370       ??$?0V?$allocator@D@std@@X@?$_String_alloc@U?$_String_base_types@DV?$allocator@D@std@@@std@@@std@@QAE@$$QAV?$allocator@D@1@@Z 10042370 f i libcpmtd:xonce.obj
 0001:000413e0       ??$_Allocate@$07U_Default_allocate_traits@std@@$0A@@std@@YAPAXI@Z 100423e0 f i libcpmtd:xonce.obj
 0001:00041420       ??$_Allocate_manually_vector_aligned@U_Default_allocate_traits@std@@@std@@YAPAXI@Z 10042420 f i libcpmtd:xonce.obj
 0001:000414e0       ??$_Convert_size@I@std@@YAII@Z 100424e0 f i libcpmtd:xonce.obj
 0001:000414f0       ??$_Deallocate@$07$0A@@std@@YAXPAXI@Z 100424f0 f i libcpmtd:xonce.obj
 0001:00041520       ??$_Deallocate_plain@V?$allocator@U_Container_proxy@std@@@std@@$0A@@std@@YAXAAV?$allocator@U_Container_proxy@std@@@0@QAU_Container_proxy@0@@Z 10042520 f i libcpmtd:xonce.obj
 0001:00041540       ??$_Get_size_of_n@$00@std@@YAII@Z 10042540 f i libcpmtd:xonce.obj
 0001:00041550       ??$_Get_size_of_n@$07@std@@YAII@Z 10042550 f i libcpmtd:xonce.obj
 0001:00041580       ??$_Immortalize@V_Generic_error_category@std@@@std@@YAAAV_Generic_error_category@0@XZ 10042580 f i libcpmtd:xonce.obj
 0001:000415b0       ??$_Immortalize@V_System_error_category@std@@@std@@YAAAV_System_error_category@0@XZ 100425b0 f i libcpmtd:xonce.obj
 0001:000415e0       ??$_Immortalize_impl@V_Generic_error_category@std@@@std@@YGHPAX0PAPAX@Z 100425e0 f i libcpmtd:xonce.obj
 0001:00041610       ??$_Immortalize_impl@V_System_error_category@std@@@std@@YGHPAX0PAPAX@Z 10042610 f i libcpmtd:xonce.obj
 0001:00041640       ??$_Max_value@I@std@@YAABIABI0@Z 10042640 f i libcpmtd:xonce.obj
 0001:00041670       ??$_Min_value@I@std@@YAABIABI0@Z 10042670 f i libcpmtd:xonce.obj
 0001:00041b00       ??$_Unfancy@D@std@@YAPADPAD@Z 10042b00 f i libcpmtd:xonce.obj
 0001:00041b10       ??$addressof@PAD@std@@YAPAPADAAPAD@Z 10042b10 f i libcpmtd:xonce.obj
 0001:00041b20       ??$addressof@V?$_String_val@U?$_Simple_types@D@std@@@std@@@std@@YAPAV?$_String_val@U?$_Simple_types@D@std@@@0@AAV10@@Z 10042b20 f i libcpmtd:xonce.obj
 0001:00041b30       ??$construct@PADABQAD@?$_Default_allocator_traits@V?$allocator@D@std@@@std@@SAXAAV?$allocator@D@1@QAPADABQAD@Z 10042b30 f i libcpmtd:xonce.obj
 0001:00041b60       ??$construct@U_Container_proxy@std@@U12@@?$_Default_allocator_traits@V?$allocator@U_Container_proxy@std@@@std@@@std@@SAXAAV?$allocator@U_Container_proxy@std@@@1@QAU_Container_proxy@1@$$QAU31@@Z 10042b60 f i libcpmtd:xonce.obj
 0001:00041ba0       ??$destroy@PAD@?$_Default_allocator_traits@V?$allocator@D@std@@@std@@SAXAAV?$allocator@D@1@QAPAD@Z 10042ba0 f i libcpmtd:xonce.obj
 0001:00041bb0       ??$destroy@U_Container_proxy@std@@@?$_Default_allocator_traits@V?$allocator@U_Container_proxy@std@@@std@@@std@@SAXAAV?$allocator@U_Container_proxy@std@@@1@QAU_Container_proxy@1@@Z 10042bb0 f i libcpmtd:xonce.obj
 0001:00041bc0       ??$forward@ABQAD@std@@YAABQADABQAD@Z 10042bc0 f i libcpmtd:xonce.obj
 0001:00041bd0       ??$forward@V?$allocator@D@std@@@std@@YA$$QAV?$allocator@D@0@AAV10@@Z 10042bd0 f i libcpmtd:xonce.obj
 0001:00041be0       ??$move@AAV?$allocator@D@std@@@std@@YA$$QAV?$allocator@D@0@AAV10@@Z 10042be0 f i libcpmtd:xonce.obj
 0001:00041bf0       ??$move@AAV?$basic_string@DU?$char_traits@D@std@@V?$allocator@D@2@@std@@@std@@YA$$QAV?$basic_string@DU?$char_traits@D@std@@V?$allocator@D@2@@0@AAV10@@Z 10042bf0 f i libcpmtd:xonce.obj
 0001:00041c00       ??0?$_String_alloc@U?$_String_base_types@DV?$allocator@D@std@@@std@@@std@@QAE@XZ 10042c00 f i libcpmtd:xonce.obj
 0001:00041c60       ??0?$_String_val@U?$_Simple_types@D@std@@@std@@QAE@XZ 10042c60 f i libcpmtd:xonce.obj
 0001:00041ca0       ??0?$allocator@D@std@@QAE@XZ 10042ca0 f i libcpmtd:xonce.obj
 0001:00041cb0       ??0?$basic_string@DU?$char_traits@D@std@@V?$allocator@D@2@@std@@QAE@$$QAV01@@Z 10042cb0 f i libcpmtd:xonce.obj
 0001:00041d30       ??0?$basic_string@DU?$char_traits@D@std@@V?$allocator@D@2@@std@@QAE@ABV01@@Z 10042d30 f i libcpmtd:xonce.obj
 0001:00041db0       ??0?$basic_string@DU?$char_traits@D@std@@V?$allocator@D@2@@std@@QAE@ID@Z 10042db0 f i libcpmtd:xonce.obj
 0001:00041e20       ??0?$basic_string@DU?$char_traits@D@std@@V?$allocator@D@2@@std@@QAE@QBD@Z 10042e20 f i libcpmtd:xonce.obj
 0001:00041e90       ??0_Bxty@?$_String_val@U?$_Simple_types@D@std@@@std@@QAE@XZ 10042e90 f i libcpmtd:xonce.obj
 0001:00041ea0       ??0_Generic_error_category@std@@QAE@XZ 10042ea0 f i libcpmtd:xonce.obj
 0001:00041ed0       ??0_System_error@std@@IAE@Verror_code@1@ABV?$basic_string@DU?$char_traits@D@std@@V?$allocator@D@2@@1@@Z 10042ed0 f i libcpmtd:xonce.obj
 0001:00041f90       ??0_System_error@std@@QAE@ABV01@@Z 10042f90 f i libcpmtd:xonce.obj
 0001:00041fd0       ??0_System_error_category@std@@QAE@XZ 10042fd0 f i libcpmtd:xonce.obj
 0001:00042000       ??0error_category@std@@QAE@XZ 10043000 f i libcpmtd:xonce.obj
 0001:00042020       ??0error_code@std@@QAE@HABVerror_category@1@@Z 10043020 f i libcpmtd:xonce.obj
 0001:00042050       ??0error_condition@std@@QAE@HABVerror_category@1@@Z 10043050 f i libcpmtd:xonce.obj
 0001:00042080       ??0runtime_error@std@@QAE@ABV?$basic_string@DU?$char_traits@D@std@@V?$allocator@D@2@@1@@Z 10043080 f i libcpmtd:xonce.obj
 0001:000420b0       ??0system_error@std@@QAE@ABV01@@Z 100430b0 f i libcpmtd:xonce.obj
 0001:000420e0       ??0system_error@std@@QAE@Verror_code@1@@Z 100430e0 f i libcpmtd:xonce.obj
 0001:00042170       ??1?$_Compressed_pair@V?$allocator@D@std@@V?$_String_val@U?$_Simple_types@D@std@@@2@$00@std@@QAE@XZ 10043170 f i libcpmtd:xonce.obj
 0001:00042190       ??1?$_String_alloc@U?$_String_base_types@DV?$allocator@D@std@@@std@@@std@@QAE@XZ 10043190 f i libcpmtd:xonce.obj
 0001:000421e0       ??1?$_String_val@U?$_Simple_types@D@std@@@std@@QAE@XZ 100431e0 f i libcpmtd:xonce.obj
 0001:00042200       ??1?$basic_string@DU?$char_traits@D@std@@V?$allocator@D@2@@std@@QAE@XZ 10043200 f i libcpmtd:xonce.obj
 0001:00042250       ??1_Bxty@?$_String_val@U?$_Simple_types@D@std@@@std@@QAE@XZ 10043250 f i libcpmtd:xonce.obj
 0001:00042260       ??1_Generic_error_category@std@@UAE@XZ 10043260 f i libcpmtd:xonce.obj
 0001:00042280       ??1_System_error@std@@UAE@XZ 10043280 f i libcpmtd:xonce.obj
 0001:000422a0       ??1_System_error_category@std@@UAE@XZ 100432a0 f i libcpmtd:xonce.obj
 0001:000422c0       ??1error_category@std@@UAE@XZ 100432c0 f i libcpmtd:xonce.obj
 0001:000422d0       ??1system_error@std@@UAE@XZ 100432d0 f i libcpmtd:xonce.obj
 0001:000422f0       ??4?$basic_string@DU?$char_traits@D@std@@V?$allocator@D@2@@std@@QAEAAV01@QBD@Z 100432f0 f i libcpmtd:xonce.obj
 0001:00042310       ??8error_category@std@@QBE_NABV01@@Z 10043310 f i libcpmtd:xonce.obj
 0001:00042340       ??8std@@YA_NABVerror_condition@0@0@Z 10043340 f i libcpmtd:xonce.obj
 0001:000423a0       ??A?$basic_string@DU?$char_traits@D@std@@V?$allocator@D@2@@std@@QAEAADI@Z 100433a0 f i libcpmtd:xonce.obj
 0001:00042550       ??_G_Generic_error_category@std@@UAEPAXI@Z 10043550 f i libcpmtd:xonce.obj
 0001:00042550       ??_E_Generic_error_category@std@@UAEPAXI@Z 10043550 f i libcpmtd:xonce.obj
 0001:00042580       ??_G_System_error@std@@UAEPAXI@Z 10043580 f i libcpmtd:xonce.obj
 0001:00042580       ??_E_System_error@std@@UAEPAXI@Z 10043580 f i libcpmtd:xonce.obj
 0001:000425b0       ??_G_System_error_category@std@@UAEPAXI@Z 100435b0 f i libcpmtd:xonce.obj
 0001:000425b0       ??_E_System_error_category@std@@UAEPAXI@Z 100435b0 f i libcpmtd:xonce.obj
 0001:000425e0       ??_Esystem_error@std@@UAEPAXI@Z 100435e0 f i libcpmtd:xonce.obj
 0001:000425e0       ??_Gsystem_error@std@@UAEPAXI@Z 100435e0 f i libcpmtd:xonce.obj
 0001:00042610       ?_Adjust_manually_vector_aligned@std@@YAXAAPAXAAI@Z 10043610 f i libcpmtd:xonce.obj
 0001:000426c0       ?_Alloc_proxy@?$_String_alloc@U?$_String_base_types@DV?$allocator@D@std@@@std@@@std@@QAEXXZ 100436c0 f i libcpmtd:xonce.obj
 0001:00042740       ?_Allocate@_Default_allocate_traits@std@@SAPAXI@Z 10043740 f i libcpmtd:xonce.obj
 0001:00042760       ?_Assign_rv_contents_with_alloc_always_equal@?$basic_string@DU?$char_traits@D@std@@V?$allocator@D@2@@std@@QAEX$$QAV12@U?$integral_constant@_N$00@2@@Z 10043760 f i libcpmtd:xonce.obj
 0001:00042810       ?_Become_small@?$basic_string@DU?$char_traits@D@std@@V?$allocator@D@2@@std@@QAEXXZ 10043810 f i libcpmtd:xonce.obj
 0001:000428b0       ?_Calculate_growth@?$basic_string@DU?$char_traits@D@std@@V?$allocator@D@2@@std@@QBEII@Z 100438b0 f i libcpmtd:xonce.obj
 0001:00042930       ?_Construct_lv_contents@?$basic_string@DU?$char_traits@D@std@@V?$allocator@D@2@@std@@QAEXABV12@@Z 10043930 f i libcpmtd:xonce.obj
 0001:00042a40       ?_Eos@?$basic_string@DU?$char_traits@D@std@@V?$allocator@D@2@@std@@QAEXI@Z 10043a40 f i libcpmtd:xonce.obj
 0001:00042a80       ?_Execute_once@std@@YAHAAUonce_flag@1@P6GHPAX1PAPAX@Z1@Z 10043a80 f   libcpmtd:xonce.obj
 0001:00042aa0       ?_Free_proxy@?$_String_alloc@U?$_String_base_types@DV?$allocator@D@std@@@std@@@std@@QAEXXZ 10043aa0 f i libcpmtd:xonce.obj
 0001:00042b10       ?_Get_data@?$_String_alloc@U?$_String_base_types@DV?$allocator@D@std@@@std@@@std@@QAEAAV?$_String_val@U?$_Simple_types@D@std@@@2@XZ 10043b10 f i libcpmtd:xonce.obj
 0001:00042b30       ?_Get_data@?$_String_alloc@U?$_String_base_types@DV?$allocator@D@std@@@std@@@std@@QBEABV?$_String_val@U?$_Simple_types@D@std@@@2@XZ 10043b30 f i libcpmtd:xonce.obj
 0001:00042b50       ?_Get_first@?$_Compressed_pair@V?$allocator@D@std@@V?$_String_val@U?$_Simple_types@D@std@@@2@$00@std@@QAEAAV?$allocator@D@2@XZ 10043b50 f i libcpmtd:xonce.obj
 0001:00042b60       ?_Get_first@?$_Compressed_pair@V?$allocator@D@std@@V?$_String_val@U?$_Simple_types@D@std@@@2@$00@std@@QBEABV?$allocator@D@2@XZ 10043b60 f i libcpmtd:xonce.obj
 0001:00042b70       ?_Get_second@?$_Compressed_pair@V?$allocator@D@std@@V?$_String_val@U?$_Simple_types@D@std@@@2@$00@std@@QAEAAV?$_String_val@U?$_Simple_types@D@std@@@2@XZ 10043b70 f i libcpmtd:xonce.obj
 0001:00042b80       ?_Get_second@?$_Compressed_pair@V?$allocator@D@std@@V?$_String_val@U?$_Simple_types@D@std@@@2@$00@std@@QBEABV?$_String_val@U?$_Simple_types@D@std@@@2@XZ 10043b80 f i libcpmtd:xonce.obj
 0001:00042b90       ?_Getal@?$_String_alloc@U?$_String_base_types@DV?$allocator@D@std@@@std@@@std@@QAEAAV?$allocator@D@2@XZ 10043b90 f i libcpmtd:xonce.obj
 0001:00042bb0       ?_Getal@?$_String_alloc@U?$_String_base_types@DV?$allocator@D@std@@@std@@@std@@QBEABV?$allocator@D@2@XZ 10043bb0 f i libcpmtd:xonce.obj
 0001:00042bd0       ?_Large_string_engaged@?$_String_val@U?$_Simple_types@D@std@@@std@@QBE_NXZ 10043bd0 f i libcpmtd:xonce.obj
 0001:00042c00       ?_Makestr@_System_error@std@@CA?AV?$basic_string@DU?$char_traits@D@std@@V?$allocator@D@2@@2@Verror_code@2@V32@@Z 10043c00 f i libcpmtd:xonce.obj
 0001:00042cd0       ?_Myproxy@?$_String_alloc@U?$_String_base_types@DV?$allocator@D@std@@@std@@@std@@QAEAAPAU_Container_proxy@2@XZ 10043cd0 f i libcpmtd:xonce.obj
 0001:00042cf0       ?_Myptr@?$_String_val@U?$_Simple_types@D@std@@@std@@QAEPADXZ 10043cf0 f i libcpmtd:xonce.obj
 0001:00042d30       ?_Myptr@?$_String_val@U?$_Simple_types@D@std@@@std@@QBEPBDXZ 10043d30 f i libcpmtd:xonce.obj
 0001:00042d70       ?_Orphan_all@?$_String_alloc@U?$_String_base_types@DV?$allocator@D@std@@@std@@@std@@QAEXXZ 10043d70 f i libcpmtd:xonce.obj
 0001:00042d90       ?_Swap_all@?$_String_alloc@U?$_String_base_types@DV?$allocator@D@std@@@std@@@std@@QAEXAAV12@@Z 10043d90 f i libcpmtd:xonce.obj
 0001:00042dc0       ?_Swap_all@_Container_base12@std@@QAEXAAU12@@Z 10043dc0 f i libcpmtd:xonce.obj
 0001:00042e50       ?_Tidy_deallocate@?$basic_string@DU?$char_traits@D@std@@V?$allocator@D@2@@std@@QAEXXZ 10043e50 f i libcpmtd:xonce.obj
 0001:00042f00       ?_Tidy_init@?$basic_string@DU?$char_traits@D@std@@V?$allocator@D@2@@std@@QAEXXZ 10043f00 f i libcpmtd:xonce.obj
 0001:00042f50       ?_XGetLastError@std@@YAXXZ 10043f50 f   libcpmtd:xonce.obj
 0001:00042f90       ?_Xlen@?$basic_string@DU?$char_traits@D@std@@V?$allocator@D@2@@std@@SAXXZ 10043f90 f i libcpmtd:xonce.obj
 0001:00042fa0       ?allocate@?$allocator@D@std@@QAEPADI@Z 10043fa0 f i libcpmtd:xonce.obj
 0001:00042fd0       ?allocate@?$allocator@U_Container_proxy@std@@@std@@QAEPAU_Container_proxy@2@I@Z 10043fd0 f i libcpmtd:xonce.obj
 0001:00043000       ?append@?$basic_string@DU?$char_traits@D@std@@V?$allocator@D@2@@std@@QAEAAV12@ABV12@@Z 10044000 f i libcpmtd:xonce.obj
 0001:00043040       ?append@?$basic_string@DU?$char_traits@D@std@@V?$allocator@D@2@@std@@QAEAAV12@ID@Z 10044040 f i libcpmtd:xonce.obj
 0001:000430e0       ?append@?$basic_string@DU?$char_traits@D@std@@V?$allocator@D@2@@std@@QAEAAV12@QBD@Z 100440e0 f i libcpmtd:xonce.obj
 0001:00043110       ?append@?$basic_string@DU?$char_traits@D@std@@V?$allocator@D@2@@std@@QAEAAV12@QBDI@Z 10044110 f i libcpmtd:xonce.obj
 0001:000431b0       ?assign@?$basic_string@DU?$char_traits@D@std@@V?$allocator@D@2@@std@@QAEAAV12@ID@Z 100441b0 f i libcpmtd:xonce.obj
 0001:00043240       ?assign@?$basic_string@DU?$char_traits@D@std@@V?$allocator@D@2@@std@@QAEAAV12@QBD@Z 10044240 f i libcpmtd:xonce.obj
 0001:00043270       ?assign@?$basic_string@DU?$char_traits@D@std@@V?$allocator@D@2@@std@@QAEAAV12@QBDI@Z 10044270 f i libcpmtd:xonce.obj
 0001:00043300       ?assign@?$char_traits@D@std@@SAPADQADID@Z 10044300 f i libcpmtd:xonce.obj
 0001:00043320       ?assign@?$char_traits@D@std@@SAXAADABD@Z 10044320 f i libcpmtd:xonce.obj
 0001:00043330       ?c_str@?$basic_string@DU?$char_traits@D@std@@V?$allocator@D@2@@std@@QBEPBDXZ 10044330 f i libcpmtd:xonce.obj
 0001:00043380       ?category@error_code@std@@QBEABVerror_category@2@XZ 10044380 f i libcpmtd:xonce.obj
 0001:000433a0       ?category@error_condition@std@@QBEABVerror_category@2@XZ 100443a0 f i libcpmtd:xonce.obj
 0001:000433c0       ?copy@?$char_traits@D@std@@SAPADQADQBDI@Z 100443c0 f i libcpmtd:xonce.obj
 0001:000433e0       ?deallocate@?$_Default_allocator_traits@V?$allocator@U_Container_proxy@std@@@std@@@std@@SAXAAV?$allocator@U_Container_proxy@std@@@2@QAU_Container_proxy@2@I@Z 100443e0 f i libcpmtd:xonce.obj
 0001:00043400       ?deallocate@?$allocator@D@std@@QAEXQADI@Z 10044400 f i libcpmtd:xonce.obj
 0001:00043420       ?default_error_condition@_System_error_category@std@@UBE?AVerror_condition@2@H@Z 10044420 f i libcpmtd:xonce.obj
 0001:000434a0       ?default_error_condition@error_category@std@@UBE?AVerror_condition@2@H@Z 100444a0 f i libcpmtd:xonce.obj
 0001:000434c0       ?empty@?$basic_string@DU?$char_traits@D@std@@V?$allocator@D@2@@std@@QBE_NXZ 100444c0 f i libcpmtd:xonce.obj
 0001:000434f0       ?equivalent@error_category@std@@UBE_NABVerror_code@2@H@Z 100444f0 f i libcpmtd:xonce.obj
 0001:00043540       ?equivalent@error_category@std@@UBE_NHABVerror_condition@2@@Z 10044540 f i libcpmtd:xonce.obj
 0001:00043580       ?generic_category@std@@YAABVerror_category@1@XZ 10044580 f i libcpmtd:xonce.obj
 0001:000435c0       ?length@?$char_traits@D@std@@SAIQBD@Z 100445c0 f i libcpmtd:xonce.obj
 0001:000435e0       ?max@?$numeric_limits@H@std@@SAHXZ 100445e0 f i libcpmtd:xonce.obj
 0001:000435f0       ?max_size@?$_Default_allocator_traits@V?$allocator@D@std@@@std@@SAIABV?$allocator@D@2@@Z 100445f0 f i libcpmtd:xonce.obj
 0001:00043600       ?max_size@?$basic_string@DU?$char_traits@D@std@@V?$allocator@D@2@@std@@QBEIXZ 10044600 f i libcpmtd:xonce.obj
 0001:00043660       ?message@_Generic_error_category@std@@UBE?AV?$basic_string@DU?$char_traits@D@std@@V?$allocator@D@2@@2@H@Z 10044660 f i libcpmtd:xonce.obj
 0001:000436a0       ?message@_System_error_category@std@@UBE?AV?$basic_string@DU?$char_traits@D@std@@V?$allocator@D@2@@2@H@Z 100446a0 f i libcpmtd:xonce.obj
 0001:00043780       ?message@error_code@std@@QBE?AV?$basic_string@DU?$char_traits@D@std@@V?$allocator@D@2@@2@XZ 10044780 f i libcpmtd:xonce.obj
 0001:000437e0       ?move@?$char_traits@D@std@@SAPADQADQBDI@Z 100447e0 f i libcpmtd:xonce.obj
 0001:00043800       ?name@_Generic_error_category@std@@UBEPBDXZ 10044800 f i libcpmtd:xonce.obj
 0001:00043810       ?name@_System_error_category@std@@UBEPBDXZ 10044810 f i libcpmtd:xonce.obj
 0001:00043820       ?resize@?$basic_string@DU?$char_traits@D@std@@V?$allocator@D@2@@std@@QAEXID@Z 10044820 f i libcpmtd:xonce.obj
 0001:00043870       ?select_on_container_copy_construction@?$_Default_allocator_traits@V?$allocator@D@std@@@std@@SA?AV?$allocator@D@2@ABV32@@Z 10044870 f i libcpmtd:xonce.obj
 0001:00043880       ?shrink_to_fit@?$basic_string@DU?$char_traits@D@std@@V?$allocator@D@2@@std@@QAEXXZ 10044880 f i libcpmtd:xonce.obj
 0001:00043980       ?size@?$basic_string@DU?$char_traits@D@std@@V?$allocator@D@2@@std@@QBEIXZ 10044980 f i libcpmtd:xonce.obj
 0001:000439a0       ?system_category@std@@YAABVerror_category@1@XZ 100449a0 f i libcpmtd:xonce.obj
 0001:000439e0       ?value@error_code@std@@QBEHXZ 100449e0 f i libcpmtd:xonce.obj
 0001:000439f0       ?value@error_condition@std@@QBEHXZ 100449f0 f i libcpmtd:xonce.obj
 0001:00043a00       __Mtxdst                   10044a00 f   libcpmtd:xmtx.obj
 0001:00043a10       __Mtxinit                  10044a10 f   libcpmtd:xmtx.obj
 0001:00043a30       __Mtxlock                  10044a30 f   libcpmtd:xmtx.obj
 0001:00043a40       __Mtxunlock                10044a40 f   libcpmtd:xmtx.obj
 0001:00043a50       ??$?0$$V@?$_Compressed_pair@V?$allocator@_W@std@@V?$_String_val@U?$_Simple_types@_W@std@@@2@$00@std@@QAE@U_Zero_then_variadic_args_t@1@@Z 10044a50 f i libcpmtd:syserror.obj
 0001:00043a70       ??$?0_W@?$allocator@U_Container_proxy@std@@@std@@QAE@ABV?$allocator@_W@1@@Z 10044a70 f i libcpmtd:syserror.obj
 0001:00043a80       ??$_Get_size_of_n@$01@std@@YAII@Z 10044a80 f i libcpmtd:syserror.obj
 0001:00043ba0       ??$_Unfancy@_W@std@@YAPA_WPA_W@Z 10044ba0 f i libcpmtd:syserror.obj
 0001:00043bb0       ??$addressof@PA_W@std@@YAPAPA_WAAPA_W@Z 10044bb0 f i libcpmtd:syserror.obj
 0001:00043bc0       ??$addressof@V?$_String_val@U?$_Simple_types@_W@std@@@std@@@std@@YAPAV?$_String_val@U?$_Simple_types@_W@std@@@0@AAV10@@Z 10044bc0 f i libcpmtd:syserror.obj
 0001:00043bd0       ??$construct@PA_WABQA_W@?$_Default_allocator_traits@V?$allocator@_W@std@@@std@@SAXAAV?$allocator@_W@1@QAPA_WABQA_W@Z 10044bd0 f i libcpmtd:syserror.obj
 0001:00043c00       ??$destroy@PA_W@?$_Default_allocator_traits@V?$allocator@_W@std@@@std@@SAXAAV?$allocator@_W@1@QAPA_W@Z 10044c00 f i libcpmtd:syserror.obj
 0001:00043c10       ??$end@$$CBU_Sys_errtab_t@std@@$0EO@@std@@YAPBU_Sys_errtab_t@0@AAY0EO@$$CBU10@@Z 10044c10 f i libcpmtd:syserror.obj
 0001:00043c20       ??$end@$$CBU_Win_errtab_t@std@@$0EN@@std@@YAPBU_Win_errtab_t@0@AAY0EN@$$CBU10@@Z 10044c20 f i libcpmtd:syserror.obj
 0001:00043c30       ??$forward@ABQA_W@std@@YAABQA_WABQA_W@Z 10044c30 f i libcpmtd:syserror.obj
 0001:00043c40       ??0?$_String_alloc@U?$_String_base_types@_WV?$allocator@_W@std@@@std@@@std@@QAE@XZ 10044c40 f i libcpmtd:syserror.obj
 0001:00043ca0       ??0?$_String_val@U?$_Simple_types@_W@std@@@std@@QAE@XZ 10044ca0 f i libcpmtd:syserror.obj
 0001:00043ce0       ??0?$allocator@_W@std@@QAE@XZ 10044ce0 f i libcpmtd:syserror.obj
 0001:00043cf0       ??0?$basic_string@_WU?$char_traits@_W@std@@V?$allocator@_W@2@@std@@QAE@I_W@Z 10044cf0 f i libcpmtd:syserror.obj
 0001:00043d60       ??0_Bxty@?$_String_val@U?$_Simple_types@_W@std@@@std@@QAE@XZ 10044d60 f i libcpmtd:syserror.obj
 0001:00043d70       ??1?$_Compressed_pair@V?$allocator@_W@std@@V?$_String_val@U?$_Simple_types@_W@std@@@2@$00@std@@QAE@XZ 10044d70 f i libcpmtd:syserror.obj
 0001:00043d90       ??1?$_String_alloc@U?$_String_base_types@_WV?$allocator@_W@std@@@std@@@std@@QAE@XZ 10044d90 f i libcpmtd:syserror.obj
 0001:00043de0       ??1?$_String_val@U?$_Simple_types@_W@std@@@std@@QAE@XZ 10044de0 f i libcpmtd:syserror.obj
 0001:00043e00       ??1?$basic_string@_WU?$char_traits@_W@std@@V?$allocator@_W@2@@std@@QAE@XZ 10044e00 f i libcpmtd:syserror.obj
 0001:00043e50       ??1_Bxty@?$_String_val@U?$_Simple_types@_W@std@@@std@@QAE@XZ 10044e50 f i libcpmtd:syserror.obj
 0001:00043e60       ??A?$basic_string@_WU?$char_traits@_W@std@@V?$allocator@_W@2@@std@@QAEAA_WI@Z 10044e60 f i libcpmtd:syserror.obj
 0001:00043f10       ?_Alloc_proxy@?$_String_alloc@U?$_String_base_types@_WV?$allocator@_W@std@@@std@@@std@@QAEXXZ 10044f10 f i libcpmtd:syserror.obj
 0001:00043f90       ?_Calculate_growth@?$basic_string@_WU?$char_traits@_W@std@@V?$allocator@_W@2@@std@@QBEII@Z 10044f90 f i libcpmtd:syserror.obj
 0001:00044010       ?_Free_proxy@?$_String_alloc@U?$_String_base_types@_WV?$allocator@_W@std@@@std@@@std@@QAEXXZ 10045010 f i libcpmtd:syserror.obj
 0001:00044080       ?_Get_data@?$_String_alloc@U?$_String_base_types@_WV?$allocator@_W@std@@@std@@@std@@QAEAAV?$_String_val@U?$_Simple_types@_W@std@@@2@XZ 10045080 f i libcpmtd:syserror.obj
 0001:000440a0       ?_Get_data@?$_String_alloc@U?$_String_base_types@_WV?$allocator@_W@std@@@std@@@std@@QBEABV?$_String_val@U?$_Simple_types@_W@std@@@2@XZ 100450a0 f i libcpmtd:syserror.obj
 0001:000440c0       ?_Get_first@?$_Compressed_pair@V?$allocator@_W@std@@V?$_String_val@U?$_Simple_types@_W@std@@@2@$00@std@@QAEAAV?$allocator@_W@2@XZ 100450c0 f i libcpmtd:syserror.obj
 0001:000440d0       ?_Get_first@?$_Compressed_pair@V?$allocator@_W@std@@V?$_String_val@U?$_Simple_types@_W@std@@@2@$00@std@@QBEABV?$allocator@_W@2@XZ 100450d0 f i libcpmtd:syserror.obj
 0001:000440e0       ?_Get_second@?$_Compressed_pair@V?$allocator@_W@std@@V?$_String_val@U?$_Simple_types@_W@std@@@2@$00@std@@QAEAAV?$_String_val@U?$_Simple_types@_W@std@@@2@XZ 100450e0 f i libcpmtd:syserror.obj
 0001:000440f0       ?_Get_second@?$_Compressed_pair@V?$allocator@_W@std@@V?$_String_val@U?$_Simple_types@_W@std@@@2@$00@std@@QBEABV?$_String_val@U?$_Simple_types@_W@std@@@2@XZ 100450f0 f i libcpmtd:syserror.obj
 0001:00044100       ?_Getal@?$_String_alloc@U?$_String_base_types@_WV?$allocator@_W@std@@@std@@@std@@QAEAAV?$allocator@_W@2@XZ 10045100 f i libcpmtd:syserror.obj
 0001:00044120       ?_Getal@?$_String_alloc@U?$_String_base_types@_WV?$allocator@_W@std@@@std@@@std@@QBEABV?$allocator@_W@2@XZ 10045120 f i libcpmtd:syserror.obj
 0001:00044140       ?_Large_string_engaged@?$_String_val@U?$_Simple_types@_W@std@@@std@@QBE_NXZ 10045140 f i libcpmtd:syserror.obj
 0001:00044170       ?_Myproxy@?$_String_alloc@U?$_String_base_types@_WV?$allocator@_W@std@@@std@@@std@@QAEAAPAU_Container_proxy@2@XZ 10045170 f i libcpmtd:syserror.obj
 0001:00044190       ?_Myptr@?$_String_val@U?$_Simple_types@_W@std@@@std@@QAEPA_WXZ 10045190 f i libcpmtd:syserror.obj
 0001:000441d0       ?_Orphan_all@?$_String_alloc@U?$_String_base_types@_WV?$allocator@_W@std@@@std@@@std@@QAEXXZ 100451d0 f i libcpmtd:syserror.obj
 0001:000441f0       ?_Syserror_map@std@@YAPBDH@Z 100451f0 f   libcpmtd:syserror.obj
 0001:00044240       ?_Tidy_deallocate@?$basic_string@_WU?$char_traits@_W@std@@V?$allocator@_W@2@@std@@QAEXXZ 10045240 f i libcpmtd:syserror.obj
 0001:000442f0       ?_Tidy_init@?$basic_string@_WU?$char_traits@_W@std@@V?$allocator@_W@2@@std@@QAEXXZ 100452f0 f i libcpmtd:syserror.obj
 0001:00044340       ?_Winerror_map@std@@YAHH@Z 10045340 f   libcpmtd:syserror.obj
 0001:00044390       ?_Winerror_message@std@@YAKKPADK@Z 10045390 f   libcpmtd:syserror.obj
 0001:00044490       ?_Xlen@?$basic_string@_WU?$char_traits@_W@std@@V?$allocator@_W@2@@std@@SAXXZ 10045490 f i libcpmtd:syserror.obj
 0001:000444a0       ?allocate@?$allocator@_W@std@@QAEPA_WI@Z 100454a0 f i libcpmtd:syserror.obj
 0001:000444d0       ?assign@?$_WChar_traits@_W@std@@SAPA_WQA_WI_W@Z 100454d0 f i libcpmtd:syserror.obj
 0001:000444f0       ?assign@?$_WChar_traits@_W@std@@SAXAA_WAB_W@Z 100454f0 f i libcpmtd:syserror.obj
 0001:00044510       ?assign@?$basic_string@_WU?$char_traits@_W@std@@V?$allocator@_W@2@@std@@QAEAAV12@I_W@Z 10045510 f i libcpmtd:syserror.obj
 0001:000445a0       ?deallocate@?$allocator@_W@std@@QAEXQA_WI@Z 100455a0 f i libcpmtd:syserror.obj
 0001:000445c0       ?max_size@?$_Default_allocator_traits@V?$allocator@_W@std@@@std@@SAIABV?$allocator@_W@2@@Z 100455c0 f i libcpmtd:syserror.obj
 0001:000445d0       ?max_size@?$basic_string@_WU?$char_traits@_W@std@@V?$allocator@_W@2@@std@@QBEIXZ 100455d0 f i libcpmtd:syserror.obj
 0001:00044630       _wmemset                   10045630 f i libcpmtd:syserror.obj
 0001:00044c00       ___crtAcquireSRWLockExclusive 10045c00 f   libcpmtd:winapisupp.obj
 0001:00044c40       ___crtCloseThreadpoolTimer 10045c40 f   libcpmtd:winapisupp.obj
 0001:00044c80       ___crtCloseThreadpoolWait  10045c80 f   libcpmtd:winapisupp.obj
 0001:00044cc0       ___crtCloseThreadpoolWork  10045cc0 f   libcpmtd:winapisupp.obj
 0001:00044d00       ___crtCreateEventExW       10045d00 f   libcpmtd:winapisupp.obj
 0001:00044d70       ___crtCreateSemaphoreExW   10045d70 f   libcpmtd:winapisupp.obj
 0001:00044e00       ___crtCreateSymbolicLinkW  10045e00 f   libcpmtd:winapisupp.obj
 0001:00044e50       ___crtCreateThreadpoolTimer 10045e50 f   libcpmtd:winapisupp.obj
 0001:00044ea0       ___crtCreateThreadpoolWait 10045ea0 f   libcpmtd:winapisupp.obj
 0001:00044ef0       ___crtCreateThreadpoolWork 10045ef0 f   libcpmtd:winapisupp.obj
 0001:00044f30       ___crtFlsAlloc             10045f30 f   libcpmtd:winapisupp.obj
 0001:00044f80       ___crtFlsFree              10045f80 f   libcpmtd:winapisupp.obj
 0001:00044fd0       ___crtFlsGetValue          10045fd0 f   libcpmtd:winapisupp.obj
 0001:00045020       ___crtFlsSetValue          10046020 f   libcpmtd:winapisupp.obj
 0001:00045070       ___crtFlushProcessWriteBuffers 10046070 f   libcpmtd:winapisupp.obj
 0001:000450b0       ___crtFreeLibraryWhenCallbackReturns 100460b0 f   libcpmtd:winapisupp.obj
 0001:000450f0       ___crtGetCurrentProcessorNumber 100460f0 f   libcpmtd:winapisupp.obj
 0001:00045130       ___crtGetFileInformationByHandleEx 10046130 f   libcpmtd:winapisupp.obj
 0001:00045190       ___crtGetSystemTimePreciseAsFileTime 10046190 f   libcpmtd:winapisupp.obj
 0001:000451e0       ___crtGetTickCount64       100461e0 f   libcpmtd:winapisupp.obj
 0001:00045220       ___crtInitOnceExecuteOnce  10046220 f   libcpmtd:winapisupp.obj
 0001:00045330       ___crtInitializeConditionVariable 10046330 f   libcpmtd:winapisupp.obj
 0001:00045370       ___crtInitializeCriticalSectionEx 10046370 f   libcpmtd:winapisupp.obj
 0001:000453d0       ___crtInitializeSRWLock    100463d0 f   libcpmtd:winapisupp.obj
 0001:00045410       ___crtIsPackagedApp        10046410 f   libcpmtd:winapisupp.obj
 0001:00045450       ___crtReleaseSRWLockExclusive 10046450 f   libcpmtd:winapisupp.obj
 0001:00045490       ___crtSetFileInformationByHandle 10046490 f   libcpmtd:winapisupp.obj
 0001:000454f0       ___crtSetThreadpoolTimer   100464f0 f   libcpmtd:winapisupp.obj
 0001:00045540       ___crtSetThreadpoolWait    10046540 f   libcpmtd:winapisupp.obj
 0001:00045590       ___crtSleepConditionVariableCS 10046590 f   libcpmtd:winapisupp.obj
 0001:000455d0       ___crtSleepConditionVariableSRW 100465d0 f   libcpmtd:winapisupp.obj
 0001:00045620       ___crtSubmitThreadpoolWork 10046620 f   libcpmtd:winapisupp.obj
 0001:00045660       ___crtTryAcquireSRWLockExclusive 10046660 f   libcpmtd:winapisupp.obj
 0001:000456a0       ___crtWaitForThreadpoolTimerCallbacks 100466a0 f   libcpmtd:winapisupp.obj
 0001:000456e0       ___crtWakeAllConditionVariable 100466e0 f   libcpmtd:winapisupp.obj
 0001:00045720       ___crtWakeConditionVariable 10046720 f   libcpmtd:winapisupp.obj
 0001:00045760       ___crt_IsPackagedAppHelper 10046760 f   libcpmtd:winapisupp.obj
 0001:000457c0       @_RTC_AllocaHelper@12      100467c0 f   LIBCMTD:_stack_.obj
 0001:00045800       @_RTC_CheckStackVars2@12   10046800 f   LIBCMTD:_stack_.obj
 0001:000458e0       @_RTC_CheckStackVars@8     100468e0 f   LIBCMTD:_stack_.obj
 0001:00045950       __RTC_CheckEsp             10046950 f   LIBCMTD:_stack_.obj
 0001:00045990       __CRT_RTC_INIT             10046990 f   LIBCMTD:_init_.obj
 0001:000459a0       __CRT_RTC_INITW            100469a0 f   LIBCMTD:_init_.obj
 0001:000459b0       __RTC_InitBase             100469b0 f   LIBCMTD:_init_.obj
 0001:000459e0       __RTC_Shutdown             100469e0 f   LIBCMTD:_init_.obj
 0001:00045a00       ??3@YAXPAXI@Z              10046a00 f   LIBCMTD:delete_scalar_size.obj
 0001:00045a20       @__security_check_cookie@4 10046a20 f   LIBCMTD:_secchk_.obj
 0001:00045a40       ??1type_info@@UAE@XZ       10046a40 f   LIBCMTD:std_type_info_static.obj
 0001:00045a60       ??_Gtype_info@@UAEPAXI@Z   10046a60 f i LIBCMTD:std_type_info_static.obj
 0001:00045a60       ??_Etype_info@@UAEPAXI@Z   10046a60 f i LIBCMTD:std_type_info_static.obj
 0001:00045a90       ??_M@YGXPAXIHP6EX0@Z@Z     10046a90 f   LIBCMTD:ehvecdtr.obj
 0001:00045ab0       ??_M@YGXPAXIIP6EX0@Z@Z     10046ab0 f   LIBCMTD:ehvecdtr.obj
 0001:00045bb0       ?__ArrayUnwind@@YGXPAXIIP6EX0@Z@Z 10046bb0 f   LIBCMTD:ehvecdtr.obj
 0001:00045c60       ___raise_securityfailure   10046c60 f   LIBCMTD:gs_report.obj
 0001:00045c90       ___report_gsfailure        10046c90 f   LIBCMTD:gs_report.obj
 0001:00045da0       ___report_rangecheckfailure 10046da0 f   LIBCMTD:gs_report.obj
 0001:00045db0       ___report_securityfailure  10046db0 f   LIBCMTD:gs_report.obj
 0001:00045e90       ___report_securityfailureEx 10046e90 f   LIBCMTD:gs_report.obj
 0001:00045fc0       ??2@YAPAXI@Z               10046fc0 f   LIBCMTD:new_scalar.obj
 0001:00046010       __ftoui3                   10047010 f   LIBCMTD:_ftol3_.obj
 0001:0004601f       __ftoul3                   1004701f f   LIBCMTD:_ftol3_.obj
 0001:0004602e       __ftol3                    1004702e f   LIBCMTD:_ftol3_.obj
 0001:0004603b       __ftol3_NaN                1004703b f   LIBCMTD:_ftol3_.obj
 0001:00046053       __ftol3_work               10047053 f   LIBCMTD:_ftol3_.obj
 0001:000460d9       __ftol3_common             100470d9 f   LIBCMTD:_ftol3_.obj
 0001:0004619b       __ftol3_arg_error          1004719b f   LIBCMTD:_ftol3_.obj
 0001:000461ad       __ftol3_except             100471ad f   LIBCMTD:_ftol3_.obj
 0001:000461f1       __dtoui3                   100471f1 f   LIBCMTD:_ftol3_.obj
 0001:00046200       __dtoul3                   10047200 f   LIBCMTD:_ftol3_.obj
 0001:0004620f       __dtol3                    1004720f f   LIBCMTD:_ftol3_.obj
 0001:0004621c       __dtol3_NaN                1004721c f   LIBCMTD:_ftol3_.obj
 0001:00046239       __dtol3_work               10047239 f   LIBCMTD:_ftol3_.obj
 0001:00046320       __ultod3                   10047320 f   LIBCMTD:_ftol3_.obj
 0001:00046360       __ltod3                    10047360 f   LIBCMTD:_ftol3_.obj
 0001:00046390       __alloca_probe_16          10047390 f   LIBCMTD:alloca16.obj
 0001:000463a6       __alloca_probe_8           100473a6     LIBCMTD:alloca16.obj
 0001:000463c0       ?__scrt_initialize_type_info@@YAXXZ 100473c0 f   LIBCMTD:tncleanup.obj
 0001:000463d0       ?__scrt_uninitialize_type_info@@YAXXZ 100473d0 f   LIBCMTD:tncleanup.obj
 0001:000463f0       ??_L@YGXPAXIHP6EX0@Z1@Z    100473f0 f   LIBCMTD:ehvecctr.obj
 0001:00046410       ??_L@YGXPAXIIP6EX0@Z1@Z    10047410 f   LIBCMTD:ehvecctr.obj
 0001:000464d0       ??_U@YAPAXI@Z              100474d0 f   LIBCMTD:new_array.obj
 0001:000464f0       ??_V@YAXPAXI@Z             100474f0 f   LIBCMTD:delete_array_size.obj
 0001:00046510       ??$__crt_fast_decode_pointer@PAP6AXXZ@@YAPAP6AXXZQAP6AXXZ@Z 10047510 f i LIBCMTD:utility.obj
 0001:00046540       ??$__crt_fast_encode_pointer@PAP6AXXZ@@YAPAP6AXXZQAP6AXXZ@Z 10047540 f i LIBCMTD:utility.obj
 0001:00046570       ?__crt_rotate_pointer_value@@YAIIH@Z 10047570 f i LIBCMTD:utility.obj
 0001:00046580       ?configure_argv@__scrt_narrow_argv_policy@@SAHXZ 10047580 f i LIBCMTD:utility.obj
 0001:00046630       ?initialize_environment@__scrt_narrow_environment_policy@@SAHXZ 10047630 f i LIBCMTD:utility.obj
 0001:000466b0       ___scrt_acquire_startup_lock 100476b0 f   LIBCMTD:utility.obj
 0001:00046700       ___scrt_dllmain_after_initialize_c 10047700 f   LIBCMTD:utility.obj
 0001:00046730       ___scrt_dllmain_before_initialize_c 10047730 f   LIBCMTD:utility.obj
 0001:00046750       ___scrt_dllmain_crt_thread_attach 10047750 f   LIBCMTD:utility.obj
 0001:00046780       ___scrt_dllmain_crt_thread_detach 10047780 f   LIBCMTD:utility.obj
 0001:000467a0       ___scrt_dllmain_exception_filter 100477a0 f   LIBCMTD:utility.obj
 0001:000467f0       ___scrt_dllmain_uninitialize_c 100477f0 f   LIBCMTD:utility.obj
 0001:00046820       ___scrt_dllmain_uninitialize_critical 10047820 f   LIBCMTD:utility.obj
 0001:00046840       ___scrt_initialize_crt     10047840 f   LIBCMTD:utility.obj
 0001:00046890       ___scrt_initialize_onexit_tables 10047890 f   LIBCMTD:utility.obj
 0001:00046970       ___scrt_is_nonwritable_in_current_image 10047970 f   LIBCMTD:utility.obj
 0001:00046aa0       ___scrt_release_startup_lock 10047aa0 f   LIBCMTD:utility.obj
 0001:00046ad0       ___scrt_uninitialize_crt   10047ad0 f   LIBCMTD:utility.obj
 0001:00046b10       __onexit                   10047b10 f   LIBCMTD:utility.obj
 0001:00046b80       _at_quick_exit             10047b80 f   LIBCMTD:utility.obj
 0001:00046bd0       _atexit                    10047bd0 f   LIBCMTD:utility.obj
 0001:00046c00       ??3@YAXPAX@Z               10047c00 f   LIBCMTD:delete_scalar.obj
 0001:000470c0       __CRT_INIT@12              100480c0 f   LIBCMTD:dll_dllmain.obj
 0001:000470e0       __DllMainCRTStartup@12     100480e0 f   LIBCMTD:dll_dllmain.obj
 0001:00047110       @_guard_check_icall_nop@4  10048110 f i LIBCMTD:guard_support.obj
 0001:00047120       _ReadNoFence               10048120 f i LIBCMTD:guard_support.obj
 0001:00047140       _ReadPointerNoFence        10048140 f i LIBCMTD:guard_support.obj
 0001:00047160       __guard_icall_checks_enforced 10048160 f i LIBCMTD:guard_support.obj
 0001:00047220       ?_RTC_AllocaFailure@@YAXPAXPAU_RTC_ALLOCA_NODE@@H@Z 10048220 f   LIBCMTD:_error_.obj
 0001:00047310       ?_RTC_Failure@@YAXPAXH@Z   10048310 f   LIBCMTD:_error_.obj
 0001:00047360       ?_RTC_StackFailure@@YAXPAXPBD@Z 10048360 f   LIBCMTD:_error_.obj
 0001:00047720       __RTC_UninitUse            10048720 f   LIBCMTD:_error_.obj
 0001:000477d0       __vsprintf_s_l             100487d0 f i LIBCMTD:_error_.obj
 0001:00047800       _sprintf_s                 10048800 f i LIBCMTD:_error_.obj
 0001:00047820       ?_RTC_GetErrorFunc@@YAP6AHHPBDH00ZZPBX@Z 10048820 f   LIBCMTD:_userapi_.obj
 0001:00047830       ?_RTC_GetErrorFuncW@@YAP6AHHPB_WH00ZZPBX@Z 10048830 f   LIBCMTD:_userapi_.obj
 0001:00047840       __RTC_GetErrDesc           10048840 f   LIBCMTD:_userapi_.obj
 0001:00047860       __RTC_NumErrors            10048860 f   LIBCMTD:_userapi_.obj
 0001:00047870       __RTC_SetErrorFunc         10048870 f   LIBCMTD:_userapi_.obj
 0001:00047890       __RTC_SetErrorFuncW        10048890 f   LIBCMTD:_userapi_.obj
 0001:000478b0       __RTC_SetErrorType         100488b0 f   LIBCMTD:_userapi_.obj
 0001:000478e0       ??0bad_alloc@std@@AAE@QBD@Z 100488e0 f i LIBCMTD:throw_bad_alloc.obj
 0001:00047910       ??0bad_array_new_length@std@@QAE@ABV01@@Z 10048910 f i LIBCMTD:throw_bad_alloc.obj
 0001:00047940       ??0bad_array_new_length@std@@QAE@XZ 10048940 f i LIBCMTD:throw_bad_alloc.obj
 0001:00047970       ??1bad_array_new_length@std@@UAE@XZ 10048970 f i LIBCMTD:throw_bad_alloc.obj
 0001:00047990       ??_Gbad_array_new_length@std@@UAEPAXI@Z 10048990 f i LIBCMTD:throw_bad_alloc.obj
 0001:00047990       ??_Ebad_array_new_length@std@@UAEPAXI@Z 10048990 f i LIBCMTD:throw_bad_alloc.obj
 0001:000479c0       ?__scrt_throw_std_bad_alloc@@YAXXZ 100489c0 f   LIBCMTD:throw_bad_alloc.obj
 0001:000479e0       ?__scrt_throw_std_bad_array_new_length@@YAXXZ 100489e0 f   LIBCMTD:throw_bad_alloc.obj
 0001:00047a00       __alloca_probe             10048a00 f   LIBCMTD:chkstk.obj
 0001:00047a00       __chkstk                   10048a00 f   LIBCMTD:chkstk.obj
 0001:00047a30       ??_V@YAXPAX@Z              10048a30 f   LIBCMTD:delete_array.obj
 0001:00047a50       ___isa_available_init      10048a50 f   LIBCMTD:_cpu_disp_.obj
 0001:00047d30       __get_startup_argv_mode    10048d30 f   LIBCMTD:argv_mode.obj
 0001:00047d40       ___scrt_is_ucrt_dll_in_use 10048d40 f   LIBCMTD:ucrt_detection.obj
 0001:00047d70       ___scrt_fastfail           10048d70 f   LIBCMTD:utility_desktop.obj
 0001:00047eb0       ___scrt_get_show_window_mode 10048eb0 f   LIBCMTD:utility_desktop.obj
 0001:00047ef0       ___scrt_initialize_winrt   10048ef0 f   LIBCMTD:utility_desktop.obj
 0001:00047f00       ___scrt_is_managed_app     10048f00 f   LIBCMTD:utility_desktop.obj
 0001:00047f90       ___scrt_set_unhandled_exception_filter 10048f90 f   LIBCMTD:utility_desktop.obj
 0001:00047fa0       ___scrt_unhandled_exception_filter@4 10048fa0 f   LIBCMTD:utility_desktop.obj
 0001:00048000       __crt_debugger_hook        10049000 f   LIBCMTD:utility_desktop.obj
 0001:00048080       ___security_init_cookie    10049080 f   LIBCMTD:gs_support.obj
 0001:00048100       ___local_stdio_scanf_options 10049100 f i LIBCMTD:default_local_stdio_options.obj
 0001:00048110       ___scrt_initialize_default_local_stdio_options 10049110 f   LIBCMTD:default_local_stdio_options.obj
 0001:00048150       ___scrt_get_dyn_tls_init_callback 10049150 f   LIBCMTD:dyn_tls_init.obj
 0001:00048160       __RTC_Initialize           10049160 f   LIBCMTD:_initsect_.obj
 0001:00048190       __RTC_Terminate            10049190 f   LIBCMTD:_initsect_.obj
 0001:00048640       ?_RTC_GetSrcLine@@YAHPAEPA_WKPAH1K@Z 10049640 f   LIBCMTD:_pdblkup_.obj
 0001:000489d0       __except_handler4_noexcept 100499d0 f   LIBCMTD:chandler4_noexcept.obj
 0001:00048a20       ??$__crt_fast_decode_pointer@P6AXXZ@@YAP6AXXZQ6AXXZ@Z 10049a20 f i libvcruntimed:purevirt.obj
 0001:00048a50       ??$__crt_fast_encode_pointer@P6AXXZ@@YAP6AXXZQ6AXXZ@Z 10049a50 f i libvcruntimed:purevirt.obj
 0001:00048a80       ??$__crt_interlocked_exchange_pointer@$$A6AXXZP6AXXZ@@YAP6AXXZPDS6AXXZQ6AXXZ@Z 10049a80 f i libvcruntimed:purevirt.obj
 0001:00048a90       ??$__crt_interlocked_read_pointer@$$A6AXXZ@@YAP6AXXZPDS6AXXZ@Z 10049a90 f i libvcruntimed:purevirt.obj
 0001:00048ab0       ?__crt_interlocked_read_32@@YAHPDH@Z 10049ab0 f i libvcruntimed:purevirt.obj
 0001:00048ad0       __get_purecall_handler     10049ad0 f   libvcruntimed:purevirt.obj
 0001:00048af0       __purecall                 10049af0 f   libvcruntimed:purevirt.obj
 0001:00048b20       __set_purecall_handler     10049b20 f   libvcruntimed:purevirt.obj
 0001:00048b50       _memset                    10049b50 f   libvcruntimed:memset.obj
 0001:00048cb0       __CxxThrowException@8      10049cb0 f   libvcruntimed:throw.obj
 0001:00048d60       ?_CallCatchBlock2@@YAPAXPAUEHRegistrationNode@@PBU_s_FuncInfo@@PAXHK@Z 10049d60 f   libvcruntimed:trnsctrl.obj
 0001:00048dd0       ?_CallSETranslator@@YAHPAUEHExceptionRecord@@PAUEHRegistrationNode@@PAX2PBU_s_FuncInfo@@H1@Z 10049dd0 f   libvcruntimed:trnsctrl.obj
 0001:00048ec0       ?_GetRangeOfTrysToCheck@@YAPBU_s_TryBlockMapEntry@@PBU_s_FuncInfo@@HHPAI1@Z 10049ec0 f   libvcruntimed:trnsctrl.obj
 0001:00048f90       ?_JumpToContinuation@@YGXPAXPAUEHRegistrationNode@@@Z 10049f90 f   libvcruntimed:trnsctrl.obj
 0001:00048fd0       ?_UnwindNestedFrames@@YGXPAUEHRegistrationNode@@PAUEHExceptionRecord@@@Z 10049fd0 f   libvcruntimed:trnsctrl.obj
 0001:00049030       __CatchGuardHandler        1004a030 f   libvcruntimed:trnsctrl.obj
 0001:00049080       __CreateFrameInfo          1004a080 f   libvcruntimed:trnsctrl.obj
 0001:000490b0       __FindAndUnlinkFrame       1004a0b0 f   libvcruntimed:trnsctrl.obj
 0001:00049120       __TranslatorGuardHandler   1004a120 f   libvcruntimed:trnsctrl.obj
 0001:000491d0       ___CxxFrameHandler         1004a1d0 f   libvcruntimed:trnsctrl.obj
 0001:00049210       ___CxxFrameHandler2        1004a210 f   libvcruntimed:trnsctrl.obj
 0001:00049250       ___CxxFrameHandler3        1004a250 f   libvcruntimed:trnsctrl.obj
 0001:00049290       ___CxxLongjmpUnwind@4      1004a290 f   libvcruntimed:trnsctrl.obj
 0001:000492d0       _strrchr                   1004a2d0 f   libvcruntimed:strrchr.obj
 0001:00049410       ??$?RD@__crt_public_free_policy@@QBEXQBD@Z 1004a410 f i libvcruntimed:std_exception.obj
 0001:00049430       ??0?$__crt_unique_heap_ptr@DU__crt_public_free_policy@@@@QAE@QAD@Z 1004a430 f i libvcruntimed:std_exception.obj
 0001:00049450       ??1?$__crt_unique_heap_ptr@DU__crt_public_free_policy@@@@QAE@XZ 1004a450 f i libvcruntimed:std_exception.obj
 0001:00049470       ??B?$__crt_unique_heap_ptr@DU__crt_public_free_policy@@@@QBE_NXZ 1004a470 f i libvcruntimed:std_exception.obj
 0001:00049490       ?detach@?$__crt_unique_heap_ptr@DU__crt_public_free_policy@@@@QAEPADXZ 1004a490 f i libvcruntimed:std_exception.obj
 0001:000494c0       ?get@?$__crt_unique_heap_ptr@DU__crt_public_free_policy@@@@QBEPADXZ 1004a4c0 f i libvcruntimed:std_exception.obj
 0001:000494d0       ?is_valid@?$__crt_unique_heap_ptr@DU__crt_public_free_policy@@@@QBE_NXZ 1004a4d0 f i libvcruntimed:std_exception.obj
 0001:00049500       ?release@?$__crt_unique_heap_ptr@DU__crt_public_free_policy@@@@QAEXXZ 1004a500 f i libvcruntimed:std_exception.obj
 0001:00049530       ___std_exception_copy      1004a530 f   libvcruntimed:std_exception.obj
 0001:00049610       ___std_exception_destroy   1004a610 f   libvcruntimed:std_exception.obj
 0001:00049640       ??0__non_rtti_object@std@@AAE@QBDH@Z 1004a640 f i libvcruntimed:rtti.obj
 0001:00049670       ??0__non_rtti_object@std@@QAE@ABV01@@Z 1004a670 f i libvcruntimed:rtti.obj
 0001:000496a0       ??0bad_cast@std@@AAE@QBDH@Z 1004a6a0 f i libvcruntimed:rtti.obj
 0001:000496d0       ??0bad_cast@std@@QAE@ABV01@@Z 1004a6d0 f i libvcruntimed:rtti.obj
 0001:00049700       ??0bad_typeid@std@@AAE@QBDH@Z 1004a700 f i libvcruntimed:rtti.obj
 0001:00049730       ??0bad_typeid@std@@QAE@ABV01@@Z 1004a730 f i libvcruntimed:rtti.obj
 0001:00049760       ??1__non_rtti_object@std@@UAE@XZ 1004a760 f i libvcruntimed:rtti.obj
 0001:00049780       ??1bad_cast@std@@UAE@XZ    1004a780 f i libvcruntimed:rtti.obj
 0001:000497a0       ??1bad_typeid@std@@UAE@XZ  1004a7a0 f i libvcruntimed:rtti.obj
 0001:000497c0       ??_E__non_rtti_object@std@@UAEPAXI@Z 1004a7c0 f i libvcruntimed:rtti.obj
 0001:000497c0       ??_G__non_rtti_object@std@@UAEPAXI@Z 1004a7c0 f i libvcruntimed:rtti.obj
 0001:000497f0       ??_Gbad_cast@std@@UAEPAXI@Z 1004a7f0 f i libvcruntimed:rtti.obj
 0001:000497f0       ??_Ebad_cast@std@@UAEPAXI@Z 1004a7f0 f i libvcruntimed:rtti.obj
 0001:00049820       ??_Ebad_typeid@std@@UAEPAXI@Z 1004a820 f i libvcruntimed:rtti.obj
 0001:00049820       ??_Gbad_typeid@std@@UAEPAXI@Z 1004a820 f i libvcruntimed:rtti.obj
 0001:00049e70       ?__construct_from_string_literal@__non_rtti_object@std@@SA?AV12@QBD@Z 1004ae70 f i libvcruntimed:rtti.obj
 0001:00049e90       ?__construct_from_string_literal@bad_cast@std@@SA?AV12@QBD@Z 1004ae90 f i libvcruntimed:rtti.obj
 0001:00049eb0       ?__construct_from_string_literal@bad_typeid@std@@SA?AV12@QBD@Z 1004aeb0 f i libvcruntimed:rtti.obj
 0001:00049ed0       ___RTCastToVoid            1004aed0 f   libvcruntimed:rtti.obj
 0001:00049fa0       ___RTDynamicCast           1004afa0 f   libvcruntimed:rtti.obj
 0001:0004a170       ___RTtypeid                1004b170 f   libvcruntimed:rtti.obj
 0001:0004a2b0       ??$?RD@__crt_internal_free_policy@@QBEXQBD@Z 1004b2b0 f i libvcruntimed:std_type_info.obj
 0001:0004a2d0       ??$?RX@__crt_internal_free_policy@@QBEXQBX@Z 1004b2d0 f i libvcruntimed:std_type_info.obj
 0001:0004a2f0       ??$__crt_interlocked_compare_exchange_pointer@$$CBDPAD$$T@@YAPBDPDSBDQAD$$T@Z 1004b2f0 f i libvcruntimed:std_type_info.obj
 0001:0004a310       ??$__crt_interlocked_read_pointer@$$CBD@@YAPBDPDSBD@Z 1004b310 f i libvcruntimed:std_type_info.obj
 0001:0004a330       ??0?$__crt_unique_heap_ptr@DU__crt_internal_free_policy@@@@QAE@QAD@Z 1004b330 f i libvcruntimed:std_type_info.obj
 0001:0004a350       ??0?$__crt_unique_heap_ptr@XU__crt_internal_free_policy@@@@QAE@QAX@Z 1004b350 f i libvcruntimed:std_type_info.obj
 0001:0004a370       ??1?$__crt_unique_heap_ptr@DU__crt_internal_free_policy@@@@QAE@XZ 1004b370 f i libvcruntimed:std_type_info.obj
 0001:0004a390       ??1?$__crt_unique_heap_ptr@XU__crt_internal_free_policy@@@@QAE@XZ 1004b390 f i libvcruntimed:std_type_info.obj
 0001:0004a3d0       ??B?$__crt_unique_heap_ptr@DU__crt_internal_free_policy@@@@QBE_NXZ 1004b3d0 f i libvcruntimed:std_type_info.obj
 0001:0004a3f0       ??B?$__crt_unique_heap_ptr@XU__crt_internal_free_policy@@@@QBE_NXZ 1004b3f0 f i libvcruntimed:std_type_info.obj
 0001:0004a460       ?detach@?$__crt_unique_heap_ptr@XU__crt_internal_free_policy@@@@QAEPAXXZ 1004b460 f i libvcruntimed:std_type_info.obj
 0001:0004a490       ?get@?$__crt_unique_heap_ptr@DU__crt_internal_free_policy@@@@QBEPADXZ 1004b490 f i libvcruntimed:std_type_info.obj
 0001:0004a4a0       ?get@?$__crt_unique_heap_ptr@XU__crt_internal_free_policy@@@@QBEPAXXZ 1004b4a0 f i libvcruntimed:std_type_info.obj
 0001:0004a4b0       ?is_valid@?$__crt_unique_heap_ptr@DU__crt_internal_free_policy@@@@QBE_NXZ 1004b4b0 f i libvcruntimed:std_type_info.obj
 0001:0004a4e0       ?is_valid@?$__crt_unique_heap_ptr@XU__crt_internal_free_policy@@@@QBE_NXZ 1004b4e0 f i libvcruntimed:std_type_info.obj
 0001:0004a510       ?release@?$__crt_unique_heap_ptr@DU__crt_internal_free_policy@@@@QAEXXZ 1004b510 f i libvcruntimed:std_type_info.obj
 0001:0004a540       ?release@?$__crt_unique_heap_ptr@XU__crt_internal_free_policy@@@@QAEXXZ 1004b540 f i libvcruntimed:std_type_info.obj
 0001:0004a570       ___std_type_info_compare   1004b570 f   libvcruntimed:std_type_info.obj
 0001:0004a5a0       ___std_type_info_destroy_list 1004b5a0 f   libvcruntimed:std_type_info.obj
 0001:0004a5e0       ___std_type_info_hash      1004b5e0 f   libvcruntimed:std_type_info.obj
 0001:0004a640       ___std_type_info_name      1004b640 f   libvcruntimed:std_type_info.obj
 0001:0004a820       _memcpy                    1004b820 f   libvcruntimed:memcpy.obj
 0001:0004ada0       ___DestructExceptionObject 1004bda0 f   libvcruntimed:ehhelpers.obj
 0001:0004aed0       ?raw_name@type_info@@QBEPBDXZ 1004bed0 f i libvcruntimed:ehhelpers.obj
 0001:0004aef0       __IsExceptionObjectToBeDestroyed 1004bef0 f   libvcruntimed:ehhelpers.obj
 0001:0004af30       __SetWinRTOutOfMemoryExceptionCallback 1004bf30 f   libvcruntimed:ehhelpers.obj
 0001:0004af40       ___AdjustPointer           1004bf40 f   libvcruntimed:ehhelpers.obj
 0001:0004af90       ___FrameUnwindFilter       1004bf90 f   libvcruntimed:ehhelpers.obj
 0001:0004b010       ___GetPlatformExceptionInfo 1004c010 f   libvcruntimed:ehhelpers.obj
 0001:0004b090       ___current_exception       1004c090 f   libvcruntimed:ehhelpers.obj
 0001:0004b0a0       ___current_exception_context 1004c0a0 f   libvcruntimed:ehhelpers.obj
 0001:0004b0b0       ___processing_throw        1004c0b0 f   libvcruntimed:ehhelpers.obj
 0001:0004b0c0       ___std_terminate           1004c0c0 f   libvcruntimed:ehhelpers.obj
 0001:0004b0d0       __is_exception_typeof      1004c0d0 f   libvcruntimed:ehhelpers.obj
 0001:0004b1b0       _memmove                   1004c1b0 f   libvcruntimed:memmove.obj
 0001:0004b790       __except_handler4          1004c790 f   libvcruntimed:_chandler4_.obj
 0001:0004b960       ___vcrt_initialize         1004c960 f   libvcruntimed:initialization.obj
 0001:0004b9a0       ___vcrt_thread_attach      1004c9a0 f   libvcruntimed:initialization.obj
 0001:0004b9c0       ___vcrt_thread_detach      1004c9c0 f   libvcruntimed:initialization.obj
 0001:0004b9e0       ___vcrt_uninitialize       1004c9e0 f   libvcruntimed:initialization.obj
 0001:0004ba00       ___vcrt_uninitialize_critical 1004ca00 f   libvcruntimed:initialization.obj
 0001:0004ba20       ___vcrt_GetModuleFileNameW 1004ca20 f   libvcruntimed:winapi_thunks.obj
 0001:0004ba40       ___vcrt_GetModuleHandleW   1004ca40 f   libvcruntimed:winapi_thunks.obj
 0001:0004ba50       ___vcrt_LoadLibraryExW     1004ca50 f   libvcruntimed:winapi_thunks.obj
 0001:0004ba70       ??$?B$$A6AXXZ@__crt_fast_encoded_nullptr_t@@QBEP6AXXZXZ 1004ca70 f i libvcruntimed:purevirt_data.obj
 0001:0004ba90       ?__crt_fast_encode_pointer@@YA?AU__crt_fast_encoded_nullptr_t@@$$T@Z 1004ca90 f i libvcruntimed:purevirt_data.obj
 0001:0004baa0       ___vcrt_initialize_pure_virtual_call_handler 1004caa0 f   libvcruntimed:purevirt_data.obj
 0001:0004bad0       ??$?RU__vcrt_ptd@@@__crt_internal_free_policy@@QBEXQBU__vcrt_ptd@@@Z 1004cad0 f i libvcruntimed:per_thread_data.obj
 0001:0004baf0       ??0?$__crt_unique_heap_ptr@U__vcrt_ptd@@U__crt_internal_free_policy@@@@QAE@QAU__vcrt_ptd@@@Z 1004caf0 f i libvcruntimed:per_thread_data.obj
 0001:0004bb30       ??1?$__crt_unique_heap_ptr@U__vcrt_ptd@@U__crt_internal_free_policy@@@@QAE@XZ 1004cb30 f i libvcruntimed:per_thread_data.obj
 0001:0004bb70       ??B?$__crt_unique_heap_ptr@U__vcrt_ptd@@U__crt_internal_free_policy@@@@QBE_NXZ 1004cb70 f i libvcruntimed:per_thread_data.obj
 0001:0004bb90       ?detach@?$__crt_unique_heap_ptr@U__vcrt_ptd@@U__crt_internal_free_policy@@@@QAEPAU__vcrt_ptd@@XZ 1004cb90 f i libvcruntimed:per_thread_data.obj
 0001:0004bbc0       ?get@?$__crt_unique_heap_ptr@U__vcrt_ptd@@U__crt_internal_free_policy@@@@QBEPAU__vcrt_ptd@@XZ 1004cbc0 f i libvcruntimed:per_thread_data.obj
 0001:0004bbd0       ?is_valid@?$__crt_unique_heap_ptr@U__vcrt_ptd@@U__crt_internal_free_policy@@@@QBE_NXZ 1004cbd0 f i libvcruntimed:per_thread_data.obj
 0001:0004bc00       ?release@?$__crt_unique_heap_ptr@U__vcrt_ptd@@U__crt_internal_free_policy@@@@QAEXXZ 1004cc00 f i libvcruntimed:per_thread_data.obj
 0001:0004bc60       ___vcrt_freefls@4          1004cc60 f   libvcruntimed:per_thread_data.obj
 0001:0004bc90       ___vcrt_freeptd            1004cc90 f   libvcruntimed:per_thread_data.obj
 0001:0004bcf0       ___vcrt_getptd             1004ccf0 f   libvcruntimed:per_thread_data.obj
 0001:0004bd10       ___vcrt_getptd_noexit      1004cd10 f   libvcruntimed:per_thread_data.obj
 0001:0004be70       ___vcrt_getptd_noinit      1004ce70 f   libvcruntimed:per_thread_data.obj
 0001:0004bed0       ___vcrt_initialize_ptd     1004ced0 f   libvcruntimed:per_thread_data.obj
 0001:0004bf20       ___vcrt_uninitialize_ptd   1004cf20 f   libvcruntimed:per_thread_data.obj
 0001:0004bf50       __CallSettingFrame@12      1004cf50 f   libvcruntimed:lowhelpr.obj
 0001:0004bf77       __NLG_Return               1004cf77     libvcruntimed:lowhelpr.obj
 0001:0004bfa0       ??8type_info@@QBE_NABV0@@Z 1004cfa0 f i libvcruntimed:frame.obj
 0001:0004cba0       ?_ValidateExecute@@YA_NP6GHXZ@Z 1004dba0 f i libvcruntimed:frame.obj
 0001:0004cbc0       ?_ValidateRead@@YA_NPBXI@Z 1004dbc0 f i libvcruntimed:frame.obj
 0001:0004cbe0       ?_ValidateWrite@@YA_NPAXI@Z 1004dbe0 f i libvcruntimed:frame.obj
 0001:0004cc00       ___BuildCatchObject        1004dc00 f   libvcruntimed:frame.obj
 0001:0004cd10       ___BuildCatchObjectHelper  1004dd10 f   libvcruntimed:frame.obj
 0001:0004d040       ___FrameUnwindToState      1004e040 f   libvcruntimed:frame.obj
 0001:0004d1c0       ___InternalCxxFrameHandler 1004e1c0 f   libvcruntimed:frame.obj
 0001:0004d370       ___TypeMatch               1004e370 f   libvcruntimed:frame.obj
 0001:0004d450       ___vcrt_EncodePointer      1004e450 f i libvcruntimed:frame.obj
 0001:0004d470       ___except_validate_context_record 1004e470 f   libvcruntimed:jbcxrval.obj
 0001:0004d4c0       ___except_validate_jump_buffer 1004e4c0 f   libvcruntimed:jbcxrval.obj
 0001:0004d4e0       ___except_validate_jump_buffer_common 1004e4e0 f i libvcruntimed:jbcxrval.obj
 0001:0004d540       ??0Block@_HeapManager@@QAE@XZ 1004e540 f i libvcruntimed:undname.obj
 0001:0004d560       ??0DName@@QAE@AAPBDD@Z     1004e560 f   libvcruntimed:undname.obj
 0001:0004d790       ??0DName@@QAE@ABV0@@Z      1004e790 f i libvcruntimed:undname.obj
 0001:0004d7c0       ??0DName@@QAE@D@Z          1004e7c0 f   libvcruntimed:undname.obj
 0001:0004d800       ??0DName@@QAE@PAV0@@Z      1004e800 f   libvcruntimed:undname.obj
 0001:0004d8b0       ??0DName@@QAE@PBD@Z        1004e8b0 f   libvcruntimed:undname.obj
 0001:0004d900       ??0DName@@QAE@W4DNameStatus@@@Z 1004e900 f   libvcruntimed:undname.obj
 0001:0004d9a0       ??0DName@@QAE@XZ           1004e9a0 f i libvcruntimed:undname.obj
 0001:0004d9d0       ??0DName@@QAE@_J@Z         1004e9d0 f   libvcruntimed:undname.obj
 0001:0004dac0       ??0DName@@QAE@_K@Z         1004eac0 f   libvcruntimed:undname.obj
 0001:0004db70       ??0DNameNode@@IAE@XZ       1004eb70 f i libvcruntimed:undname.obj
 0001:0004db90       ??0Replicator@@QAE@XZ      1004eb90 f i libvcruntimed:undname.obj
 0001:0004dbd0       ??0UnDecorator@@QAE@PBDP6APADJ@ZK@Z 1004ebd0 f i libvcruntimed:undname.obj
 0001:0004dc50       ??0charNode@@QAE@D@Z       1004ec50 f i libvcruntimed:undname.obj
 0001:0004dc80       ??0pDNameNode@@QAE@PAVDName@@@Z 1004ec80 f   libvcruntimed:undname.obj
 0001:0004dce0       ??0pairNode@@QAE@PBVDNameNode@@0@Z 1004ece0 f i libvcruntimed:undname.obj
 0001:0004dd20       ??0pcharNode@@QAE@PBDH@Z   1004ed20 f   libvcruntimed:undname.obj
 0001:0004dde0       ??2@YAPAXIAAV_HeapManager@@H@Z 1004ede0 f i libvcruntimed:undname.obj
 0001:0004de00       ??4DName@@QAEAAV0@ABV0@@Z  1004ee00 f   libvcruntimed:undname.obj
 0001:0004de30       ??4DName@@QAEAAV0@D@Z      1004ee30 f i libvcruntimed:undname.obj
 0001:0004de70       ??4DName@@QAEAAV0@PAV0@@Z  1004ee70 f   libvcruntimed:undname.obj
 0001:0004df10       ??4DName@@QAEAAV0@PBD@Z    1004ef10 f   libvcruntimed:undname.obj
 0001:0004df50       ??4DName@@QAEAAV0@W4DNameStatus@@@Z 1004ef50 f   libvcruntimed:undname.obj
 0001:0004dfd0       ??AReplicator@@QBE?AVDName@@H@Z 1004efd0 f   libvcruntimed:undname.obj
 0001:0004e040       ??H@YA?AVDName@@DABV0@@Z   1004f040 f i libvcruntimed:undname.obj
 0001:0004e070       ??H@YA?AVDName@@PBDABV0@@Z 1004f070 f i libvcruntimed:undname.obj
 0001:0004e0a0       ??H@YA?AVDName@@W4DNameStatus@@ABV0@@Z 1004f0a0 f i libvcruntimed:undname.obj
 0001:0004e0d0       ??HDName@@QBE?AV0@ABV0@@Z  1004f0d0 f   libvcruntimed:undname.obj
 0001:0004e110       ??HDName@@QBE?AV0@D@Z      1004f110 f   libvcruntimed:undname.obj
 0001:0004e150       ??HDName@@QBE?AV0@PAV0@@Z  1004f150 f   libvcruntimed:undname.obj
 0001:0004e190       ??HDName@@QBE?AV0@PBD@Z    1004f190 f   libvcruntimed:undname.obj
 0001:0004e1d0       ??HDName@@QBE?AV0@W4DNameStatus@@@Z 1004f1d0 f   libvcruntimed:undname.obj
 0001:0004e210       ??YDName@@QAEAAV0@ABV0@@Z  1004f210 f   libvcruntimed:undname.obj
 0001:0004e280       ??YDName@@QAEAAV0@D@Z      1004f280 f   libvcruntimed:undname.obj
 0001:0004e300       ??YDName@@QAEAAV0@PAV0@@Z  1004f300 f   libvcruntimed:undname.obj
 0001:0004e3b0       ??YDName@@QAEAAV0@PBD@Z    1004f3b0 f   libvcruntimed:undname.obj
 0001:0004e450       ??YDName@@QAEAAV0@W4DNameStatus@@@Z 1004f450 f   libvcruntimed:undname.obj
 0001:0004e4b0       ??YReplicator@@QAEAAV0@ABVDName@@@Z 1004f4b0 f   libvcruntimed:undname.obj
 0001:0004e540       ??_5DName@@QAEAAV0@ABV0@@Z 1004f540 f   libvcruntimed:undname.obj
 0001:0004e5a0       ?Constructor@_HeapManager@@QAEXP6APAXI@ZP6AXPAX@Z@Z 1004f5a0 f i libvcruntimed:undname.obj
 0001:0004e5e0       ?Destructor@_HeapManager@@QAEXXZ 1004f5e0 f i libvcruntimed:undname.obj
 0001:0004e640       ?UScore@UnDecorator@@SAPBDW4Tokens@@@Z 1004f640 f   libvcruntimed:undname.obj
 0001:0004e670       ?append@DName@@AAEXPBVDNameNode@@@Z 1004f670 f   libvcruntimed:undname.obj
 0001:0004e700       ?composeDeclaration@UnDecorator@@CA?AVDName@@ABV2@@Z 1004f700 f i libvcruntimed:undname.obj
 0001:000503d0       ?dbGetString@DName@@QBEPADXZ 100513d0 f   libvcruntimed:undname.obj
 0001:000503f0       ?doAccessSpecifiers@UnDecorator@@SAHXZ 100513f0 f i libvcruntimed:undname.obj
 0001:00050420       ?doAllocationLanguage@UnDecorator@@SAHXZ 10051420 f i libvcruntimed:undname.obj
 0001:00050450       ?doAllocationModel@UnDecorator@@SAHXZ 10051450 f i libvcruntimed:undname.obj
 0001:00050480       ?doEcsu@UnDecorator@@SAHXZ 10051480 f i libvcruntimed:undname.obj
 0001:000504b0       ?doEllipsis@UnDecorator@@SAHXZ 100514b0 f i libvcruntimed:undname.obj
 0001:000504e0       ?doFunctionReturns@UnDecorator@@SAHXZ 100514e0 f i libvcruntimed:undname.obj
 0001:00050510       ?doMSKeywords@UnDecorator@@SAHXZ 10051510 f i libvcruntimed:undname.obj
 0001:00050540       ?doMemberTypes@UnDecorator@@SAHXZ 10051540 f i libvcruntimed:undname.obj
 0001:00050570       ?doNameOnly@UnDecorator@@SAHXZ 10051570 f i libvcruntimed:undname.obj
 0001:00050580       ?doNoIdentCharCheck@UnDecorator@@SAHXZ 10051580 f i libvcruntimed:undname.obj
 0001:00050590       ?doPchar@DName@@AAEXPBDH@Z 10051590 f   libvcruntimed:undname.obj
 0001:000506d0       ?doPtr64@UnDecorator@@SAHXZ 100516d0 f i libvcruntimed:undname.obj
 0001:00050700       ?doRestrictionSpec@UnDecorator@@SAHXZ 10051700 f i libvcruntimed:undname.obj
 0001:00050730       ?doThisTypes@UnDecorator@@SAHXZ 10051730 f i libvcruntimed:undname.obj
 0001:00050760       ?doThrowTypes@UnDecorator@@SAHXZ 10051760 f i libvcruntimed:undname.obj
 0001:00050790       ?doTypeOnly@UnDecorator@@SAHXZ 10051790 f i libvcruntimed:undname.obj
 0001:000507a0       ?doUnderScore@UnDecorator@@SAHXZ 100517a0 f i libvcruntimed:undname.obj
 0001:000507d0       ?getArgumentList@UnDecorator@@CA?AVDName@@XZ 100517d0 f   libvcruntimed:undname.obj
 0001:00050920       ?getArgumentTypes@UnDecorator@@CA?AVDName@@XZ 10051920 f   libvcruntimed:undname.obj
 0001:00050a70       ?getArrayType@UnDecorator@@CA?AVDName@@ABV2@@Z 10051a70 f i libvcruntimed:undname.obj
 0001:00050cb0       ?getBasedType@UnDecorator@@CA?AVDName@@XZ 10051cb0 f   libvcruntimed:undname.obj
 0001:00050d70       ?getBasicDataType@UnDecorator@@CA?AVDName@@ABV2@@Z 10051d70 f   libvcruntimed:undname.obj
 0001:00051360       ?getCHPEName@UnDecorator@@QAEPADPADH@Z 10052360 f i libvcruntimed:undname.obj
 0001:000514c0       ?getCallIndex@UnDecorator@@CA?AVDName@@XZ 100524c0 f i libvcruntimed:undname.obj
 0001:000514e0       ?getCallingConvention@UnDecorator@@CA?AVDName@@XZ 100524e0 f   libvcruntimed:undname.obj
 0001:00051690       ?getDataIndirectType@UnDecorator@@CA?AVDName@@ABV2@PBD0H@Z 10052690 f   libvcruntimed:undname.obj
 0001:00051e50       ?getDataIndirectType@UnDecorator@@CA?AVDName@@XZ 10052e50 f i libvcruntimed:undname.obj
 0001:00051e90       ?getDataType@UnDecorator@@CA?AVDName@@PAV2@@Z 10052e90 f   libvcruntimed:undname.obj
 0001:00051fb0       ?getDecoratedName@UnDecorator@@CA?AVDName@@XZ 10052fb0 f   libvcruntimed:undname.obj
 0001:000523b0       ?getDimension@UnDecorator@@CA?AVDName@@_N@Z 100533b0 f   libvcruntimed:undname.obj
 0001:00052660       ?getDispatchTarget@UnDecorator@@CA?AVDName@@XZ 10053660 f   libvcruntimed:undname.obj
 0001:00052700       ?getDisplacement@UnDecorator@@CA?AVDName@@XZ 10053700 f i libvcruntimed:undname.obj
 0001:00052720       ?getECSUDataType@UnDecorator@@CA?AVDName@@XZ 10053720 f   libvcruntimed:undname.obj
 0001:000528f0       ?getECSUName@UnDecorator@@CA?AVDName@@XZ 100538f0 f i libvcruntimed:undname.obj
 0001:00052910       ?getEnumType@UnDecorator@@CA?AVDName@@XZ 10053910 f i libvcruntimed:undname.obj
 0001:00052a60       ?getExtendedDataIndirectType@UnDecorator@@CA?AVDName@@AAPBDAA_NH@Z 10053a60 f   libvcruntimed:undname.obj
 0001:00052cb0       ?getExternalDataType@UnDecorator@@CA?AVDName@@ABV2@@Z 10053cb0 f i libvcruntimed:undname.obj
 0001:00052d40       ?getFunctionIndirectType@UnDecorator@@CA?AVDName@@ABV2@@Z 10053d40 f   libvcruntimed:undname.obj
 0001:000531e0       ?getGuardNumber@UnDecorator@@CA?AVDName@@XZ 100541e0 f i libvcruntimed:undname.obj
 0001:00053200       ?getLastChar@DName@@QBEDXZ 10054200 f i libvcruntimed:undname.obj
 0001:00053240       ?getLastChar@DNameStatusNode@@UBEDXZ 10054240 f i libvcruntimed:undname.obj
 0001:00053270       ?getLastChar@charNode@@UBEDXZ 10054270 f i libvcruntimed:undname.obj
 0001:00053290       ?getLastChar@pDNameNode@@UBEDXZ 10054290 f i libvcruntimed:undname.obj
 0001:000532c0       ?getLastChar@pairNode@@UBEDXZ 100542c0 f i libvcruntimed:undname.obj
 0001:00053330       ?getLastChar@pcharNode@@UBEDXZ 10054330 f i libvcruntimed:undname.obj
 0001:00053370       ?getLexicalFrame@UnDecorator@@CA?AVDName@@XZ 10054370 f i libvcruntimed:undname.obj
 0001:000533b0       ?getMemory@_HeapManager@@QAEPAXIH@Z 100543b0 f   libvcruntimed:undname.obj
 0001:000534d0       ?getNoexcept@UnDecorator@@CA?AVDName@@XZ 100544d0 f   libvcruntimed:undname.obj
 0001:00053540       ?getNumberOfDimensions@UnDecorator@@CAHXZ 10054540 f   libvcruntimed:undname.obj
 0001:00053640       ?getOperatorName@UnDecorator@@CA?AVDName@@_NPA_N@Z 10054640 f i libvcruntimed:undname.obj
 0001:00054070       ?getPointerType@UnDecorator@@CA?AVDName@@ABV2@0@Z 10055070 f i libvcruntimed:undname.obj
 0001:000540a0       ?getPointerTypeArray@UnDecorator@@CA?AVDName@@ABV2@0@Z 100550a0 f i libvcruntimed:undname.obj
 0001:000540d0       ?getPrimaryDataType@UnDecorator@@CA?AVDName@@ABV2@@Z 100550d0 f   libvcruntimed:undname.obj
 0001:000544d0       ?getPtrRefDataType@UnDecorator@@CA?AVDName@@ABV2@H@Z 100554d0 f   libvcruntimed:undname.obj
 0001:00054700       ?getPtrRefType@UnDecorator@@CA?AVDName@@ABV2@0PBD@Z 10055700 f   libvcruntimed:undname.obj
 0001:00054870       ?getReferenceType@UnDecorator@@CA?AVDName@@ABV2@0PBD@Z 10055870 f i libvcruntimed:undname.obj
 0001:00054890       ?getRestrictionSpec@UnDecorator@@CA?AVDName@@XZ 10055890 f   libvcruntimed:undname.obj
 0001:00054a00       ?getReturnType@UnDecorator@@CA?AVDName@@PAV2@@Z 10055a00 f   libvcruntimed:undname.obj
 0001:00054a50       ?getScope@UnDecorator@@CA?AVDName@@XZ 10055a50 f   libvcruntimed:undname.obj
 0001:00054f40       ?getScopedName@UnDecorator@@CA?AVDName@@XZ 10055f40 f   libvcruntimed:undname.obj
 0001:00055060       ?getSignedDimension@UnDecorator@@CA?AVDName@@XZ 10056060 f   libvcruntimed:undname.obj
 0001:000550e0       ?getStorageConvention@UnDecorator@@CA?AVDName@@XZ 100560e0 f i libvcruntimed:undname.obj
 0001:00055100       ?getString@DName@@QBEPADPAD0@Z 10056100 f i libvcruntimed:undname.obj
 0001:00055150       ?getString@DName@@QBEPADPADH@Z 10056150 f i libvcruntimed:undname.obj
 0001:000551e0       ?getString@DNameStatusNode@@UBEPADPAD0@Z 100561e0 f i libvcruntimed:undname.obj
 0001:00055220       ?getString@charNode@@UBEPADPAD0@Z 10056220 f i libvcruntimed:undname.obj
 0001:00055250       ?getString@pDNameNode@@UBEPADPAD0@Z 10056250 f i libvcruntimed:undname.obj
 0001:00055290       ?getString@pairNode@@UBEPADPAD0@Z 10056290 f i libvcruntimed:undname.obj
 0001:00055310       ?getString@pcharNode@@UBEPADPAD0@Z 10056310 f i libvcruntimed:undname.obj
 0001:00055340       ?getStringEncoding@UnDecorator@@CA?AVDName@@PBDH@Z 10056340 f   libvcruntimed:undname.obj
 0001:00055450       ?getStringHelper@@YAPADPADPBD1H@Z 10056450 f i libvcruntimed:undname.obj
 0001:00055490       ?getSymbolName@UnDecorator@@CA?AVDName@@XZ 10056490 f i libvcruntimed:undname.obj
 0001:00055520       ?getTemplateArgumentList@UnDecorator@@CA?AVDName@@XZ 10056520 f   libvcruntimed:undname.obj
 0001:00055910       ?getTemplateConstant@UnDecorator@@CA?AVDName@@XZ 10056910 f   libvcruntimed:undname.obj
 0001:00055ec0       ?getTemplateName@UnDecorator@@CA?AVDName@@_N@Z 10056ec0 f   libvcruntimed:undname.obj
 0001:00056090       ?getThisType@UnDecorator@@CA?AVDName@@XZ 10057090 f i libvcruntimed:undname.obj
 0001:000560d0       ?getThrowTypes@UnDecorator@@CA?AVDName@@XZ 100570d0 f   libvcruntimed:undname.obj
 0001:00056110       ?getTypeEncoding@UnDecorator@@CAHXZ 10057110 f i libvcruntimed:undname.obj
 0001:00056b90       ?getUndecoratedName@UnDecorator@@QAEPADPADH@Z 10057b90 f i libvcruntimed:undname.obj
 0001:00056cd0       ?getVCallThunkType@UnDecorator@@CA?AVDName@@XZ 10057cd0 f i libvcruntimed:undname.obj
 0001:00056d30       ?getVbTableType@UnDecorator@@CA?AVDName@@ABV2@@Z 10057d30 f i libvcruntimed:undname.obj
 0001:00056d50       ?getVdispMapType@UnDecorator@@CA?AVDName@@ABV2@@Z 10057d50 f i libvcruntimed:undname.obj
 0001:00056dc0       ?getVfTableType@UnDecorator@@CA?AVDName@@ABV2@@Z 10057dc0 f i libvcruntimed:undname.obj
 0001:00056f80       ?getZName@UnDecorator@@CA?AVDName@@_N0@Z 10057f80 f   libvcruntimed:undname.obj
 0001:00057250       ?haveTemplateParameters@UnDecorator@@SAHXZ 10058250 f i libvcruntimed:undname.obj
 0001:00057260       ?isArray@DName@@QBEHXZ     10058260 f i libvcruntimed:undname.obj
 0001:00057280       ?isComArray@DName@@QBEHXZ  10058280 f i libvcruntimed:undname.obj
 0001:000572a0       ?isEmpty@DName@@QBEHXZ     100582a0 f i libvcruntimed:undname.obj
 0001:000572d0       ?isFull@Replicator@@QBEHXZ 100582d0 f i libvcruntimed:undname.obj
 0001:00057300       ?isNoTE@DName@@QBEHXZ      10058300 f i libvcruntimed:undname.obj
 0001:00057320       ?isPinPtr@DName@@QBEHXZ    10058320 f i libvcruntimed:undname.obj
 0001:00057340       ?isPtrRef@DName@@QBEHXZ    10058340 f i libvcruntimed:undname.obj
 0001:00057360       ?isUDC@DName@@QBEHXZ       10058360 f i libvcruntimed:undname.obj
 0001:000573a0       ?isUDTThunk@DName@@QBEHXZ  100583a0 f i libvcruntimed:undname.obj
 0001:000573e0       ?isVCallThunk@DName@@QBEHXZ 100583e0 f i libvcruntimed:undname.obj
 0001:00057400       ?isValid@DName@@QBEHXZ     10058400 f i libvcruntimed:undname.obj
 0001:00057440       ?length@DName@@QBEHXZ      10058440 f i libvcruntimed:undname.obj
 0001:00057480       ?length@DNameStatusNode@@UBEHXZ 10058480 f i libvcruntimed:undname.obj
 0001:000574a0       ?length@charNode@@UBEHXZ   100584a0 f i libvcruntimed:undname.obj
 0001:000574b0       ?length@pDNameNode@@UBEHXZ 100584b0 f i libvcruntimed:undname.obj
 0001:000574e0       ?length@pairNode@@UBEHXZ   100584e0 f i libvcruntimed:undname.obj
 0001:00057550       ?length@pcharNode@@UBEHXZ  10058550 f i libvcruntimed:undname.obj
 0001:00057570       ?make@DNameStatusNode@@SAPBV1@W4DNameStatus@@@Z 10058570 f i libvcruntimed:undname.obj
 0001:000575a0       ?parseDecoratedName@UnDecorator@@CA?AVDName@@XZ 100585a0 f   libvcruntimed:undname.obj
 0001:00057720       ?setIsArray@DName@@QAEXXZ  10058720 f i libvcruntimed:undname.obj
 0001:00057740       ?setIsComArray@DName@@QAEXXZ 10058740 f i libvcruntimed:undname.obj
 0001:00057760       ?setIsNoTE@DName@@QAEXXZ   10058760 f i libvcruntimed:undname.obj
 0001:00057780       ?setIsPinPtr@DName@@QAEXXZ 10058780 f i libvcruntimed:undname.obj
 0001:000577a0       ?setIsUDC@DName@@QAEXXZ    100587a0 f i libvcruntimed:undname.obj
 0001:000577d0       ?setIsVCallThunk@DName@@QAEXXZ 100587d0 f i libvcruntimed:undname.obj
 0001:000577f0       ?setPtrRef@DName@@QAEAAV1@XZ 100587f0 f i libvcruntimed:undname.obj
 0001:00057810       ?status@DName@@QBE?AW4DNameStatus@@XZ 10058810 f i libvcruntimed:undname.obj
 0001:00057910       ___unDName                 10058910 f   libvcruntimed:undname.obj
 0001:00057940       ___unDNameEx               10058940 f   libvcruntimed:undname.obj
 0001:00057a10       _unDNameGenerateCHPE       10058a10 f   libvcruntimed:undname.obj
 0001:00057a70       __local_unwind4            10058a70 f   libvcruntimed:_exsup4_.obj
 0001:00057b48       __seh_longjmp_unwind4@4    10058b48 f   libvcruntimed:_exsup4_.obj
 0001:00057b70       @_EH4_CallFilterFunc@8     10058b70 f   libvcruntimed:_exsup4_.obj
 0001:00057b88       @_EH4_TransferToHandler@8  10058b88 f   libvcruntimed:_exsup4_.obj
 0001:00057ba4       @_EH4_GlobalUnwind2@8      10058ba4 f   libvcruntimed:_exsup4_.obj
 0001:00057bc0       @_EH4_LocalUnwind@16       10058bc0 f   libvcruntimed:_exsup4_.obj
 0001:00057be0       ___vcrt_initialize_locks   10058be0 f   libvcruntimed:locks.obj
 0001:00057c40       ___vcrt_lock               10058c40 f   libvcruntimed:locks.obj
 0001:00057c60       ___vcrt_uninitialize_locks 10058c60 f   libvcruntimed:locks.obj
 0001:00057cb0       ___vcrt_unlock             10058cb0 f   libvcruntimed:locks.obj
 0001:00057cd0       ??$?BX@__crt_fast_encoded_nullptr_t@@QBEPAXXZ 10058cd0 f i libvcruntimed:winapi_downlevel.obj
 0001:00057cf0       ??$__crt_fast_decode_pointer@PAX@@YAPAXQAX@Z 10058cf0 f i libvcruntimed:winapi_downlevel.obj
 0001:00057d20       ??$__crt_fast_encode_pointer@PAX@@YAPAXQAX@Z 10058d20 f i libvcruntimed:winapi_downlevel.obj
 0001:00057d50       ??$__crt_interlocked_exchange_pointer@UHINSTANCE__@@PAU1@@@YAPAUHINSTANCE__@@PDSAU0@QAU0@@Z 10058d50 f i libvcruntimed:winapi_downlevel.obj
 0001:00057d60       ??$__crt_interlocked_exchange_pointer@UHINSTANCE__@@PAX@@YAPAUHINSTANCE__@@PDSAU0@QAX@Z 10058d60 f i libvcruntimed:winapi_downlevel.obj
 0001:00057d70       ??$__crt_interlocked_exchange_pointer@XPAX@@YAPAXPDSAXQAX@Z 10058d70 f i libvcruntimed:winapi_downlevel.obj
 0001:00057d80       ??$__crt_interlocked_read_pointer@UHINSTANCE__@@@@YAPAUHINSTANCE__@@PDSAU0@@Z 10058d80 f i libvcruntimed:winapi_downlevel.obj
 0001:00057da0       ??$__crt_interlocked_read_pointer@X@@YAPAXPDSAX@Z 10058da0 f i libvcruntimed:winapi_downlevel.obj
 0001:000581b0       ___vcrt_FlsAlloc           100591b0 f   libvcruntimed:winapi_downlevel.obj
 0001:000581f0       ___vcrt_FlsFree            100591f0 f   libvcruntimed:winapi_downlevel.obj
 0001:00058230       ___vcrt_FlsGetValue        10059230 f   libvcruntimed:winapi_downlevel.obj
 0001:00058270       ___vcrt_FlsSetValue        10059270 f   libvcruntimed:winapi_downlevel.obj
 0001:000582c0       ___vcrt_InitializeCriticalSectionEx 100592c0 f   libvcruntimed:winapi_downlevel.obj
 0001:00058310       ___vcrt_initialize_winapi_thunks 10059310 f   libvcruntimed:winapi_downlevel.obj
 0001:00058370       ___vcrt_uninitialize_winapi_thunks 10059370 f   libvcruntimed:winapi_downlevel.obj
 0001:000583e0       __global_unwind2           100593e0 f   libvcruntimed:_exsup_.obj
 0001:00058446       __local_unwind2            10059446 f   libvcruntimed:_exsup_.obj
 0001:000584ca       __abnormal_termination     100594ca f   libvcruntimed:_exsup_.obj
 0001:000584f0       __NLG_Notify1              100594f0 f   libvcruntimed:_exsup_.obj
 0001:000584fc       __NLG_Notify               100594fc f   libvcruntimed:_exsup_.obj
 0001:00058513       __NLG_Dispatch2            10059513     libvcruntimed:_exsup_.obj
 0001:00058513       __NLG_Dispatch             10059513     libvcruntimed:_exsup_.obj
 0001:0005851b       __NLG_Call                 1005951b f   libvcruntimed:_exsup_.obj
 0001:0005851d       __NLG_Return2              1005951d     libvcruntimed:_exsup_.obj
 0001:00058550       __get_unexpected           10059550 f   libvcruntimed:unexpected.obj
 0001:00058570       _set_unexpected            10059570 f   libvcruntimed:unexpected.obj
 0001:000585a0       _unexpected                100595a0 f   libvcruntimed:unexpected.obj
 0001:000585e0       ??$__crt_fast_decode_pointer@P6AXPB_W00II@Z@@YAP6AXPB_W00II@ZQ6AX000II@Z@Z 100595e0 f i libucrtd:invalid_parameter.obj
 0001:00058610       ??$__crt_fast_encode_pointer@P6AXPB_W00II@Z@@YAP6AXPB_W00II@ZQ6AX000II@Z@Z 10059610 f i libucrtd:invalid_parameter.obj
 0001:00058640       ??$initialize_from_array@$$BY00Q6AXPB_W00II@Z@?$dual_state_global@P6AXPB_W00II@Z@__crt_state_management@@QAAXAAY00Q6AXPB_W00II@Z@Z 10059640 f i libucrtd:invalid_parameter.obj
 0001:00058690       ?dangerous_get_state_array@?$dual_state_global@P6AXPB_W00II@Z@__crt_state_management@@QAEPAP6AXPB_W00II@ZXZ 10059690 f i libucrtd:invalid_parameter.obj
 0001:000586a0       ?get_current_state_index@__crt_state_management@@YAIXZ 100596a0 f i libucrtd:invalid_parameter.obj
 0001:000586b0       ?value@?$dual_state_global@P6AXPB_W00II@Z@__crt_state_management@@QAEAAP6AXPB_W00II@ZXZ 100596b0 f i libucrtd:invalid_parameter.obj
 0001:000586d0       ___acrt_call_reportfault   100596d0 f   libucrtd:invalid_parameter.obj
 0001:00058830       ___acrt_initialize_invalid_parameter_handler 10059830 f   libucrtd:invalid_parameter.obj
 0001:00058860       __get_invalid_parameter_handler 10059860 f   libucrtd:invalid_parameter.obj
 0001:00058880       __get_thread_local_invalid_parameter_handler 10059880 f   libucrtd:invalid_parameter.obj
 0001:000588b0       __invalid_parameter        100598b0 f   libucrtd:invalid_parameter.obj
 0001:00058980       __invalid_parameter_noinfo 10059980 f   libucrtd:invalid_parameter.obj
 0001:000589a0       __invalid_parameter_noinfo_noreturn 100599a0 f   libucrtd:invalid_parameter.obj
 0001:000589d0       __invoke_watson            100599d0 f   libucrtd:invalid_parameter.obj
 0001:00058a10       __set_invalid_parameter_handler 10059a10 f   libucrtd:invalid_parameter.obj
 0001:00058a60       __set_thread_local_invalid_parameter_handler 10059a60 f   libucrtd:invalid_parameter.obj
 0001:00058a90       _strlen                    10059a90 f   libucrtd:strlen.obj
 0001:00058b20       _strncpy                   10059b20 f   libucrtd:strncpy.obj
 0001:00058c50       __invoke_watson_if_error   10059c50 f i libucrtd:wcsdup.obj
 0001:00058c80       __wcsdup                   10059c80 f   libucrtd:wcsdup.obj
 0001:00058ca0       __wcsdup_dbg               10059ca0 f   libucrtd:wcsdup.obj
 0001:00058d30       _wcscmp                    10059d30 f   libucrtd:wcscmp.obj
 0001:000591c0       _strncpy_s                 1005a1c0 f   libucrtd:strncpy_s.obj
 0001:000591e0       __strdup                   1005a1e0 f   libucrtd:strdup.obj
 0001:00059200       __strdup_dbg               1005a200 f   libucrtd:strdup.obj
 0001:00059280       _malloc                    1005a280 f   libucrtd:malloc.obj
 0001:000592a0       _free                      1005a2a0 f   libucrtd:free.obj
 0001:000592d0       ??$?RU__acrt_thread_parameter@@@__crt_internal_free_policy@@QBEXQBU__acrt_thread_parameter@@@Z 1005a2d0 f i libucrtd:thread.obj
 0001:00059510       ??0?$__crt_unique_heap_ptr@U__acrt_thread_parameter@@U__crt_internal_free_policy@@@@QAE@QAU__acrt_thread_parameter@@@Z 1005a510 f i libucrtd:thread.obj
 0001:00059550       ??1?$__crt_unique_heap_ptr@U__acrt_thread_parameter@@U__crt_internal_free_policy@@@@QAE@XZ 1005a550 f i libucrtd:thread.obj
 0001:00059770       ?detach@?$__crt_unique_heap_ptr@U__acrt_thread_parameter@@U__crt_internal_free_policy@@@@QAEPAU__acrt_thread_parameter@@XZ 1005a770 f i libucrtd:thread.obj
 0001:000598a0       ?release@?$__crt_unique_heap_ptr@U__acrt_thread_parameter@@U__crt_internal_free_policy@@@@QAEXXZ 1005a8a0 f i libucrtd:thread.obj
 0001:00059900       __beginthread              1005a900 f   libucrtd:thread.obj
 0001:00059a80       __beginthreadex            1005aa80 f   libucrtd:thread.obj
 0001:00059bc0       __endthread                1005abc0 f   libucrtd:thread.obj
 0001:00059be0       __endthreadex              1005abe0 f   libucrtd:thread.obj
 0001:00059c00       ___acrt_errno_from_os_error 1005ac00 f   libucrtd:errno.obj
 0001:00059c80       ___acrt_errno_map_os_error 1005ac80 f   libucrtd:errno.obj
 0001:00059cb0       ___doserrno                1005acb0 f   libucrtd:errno.obj
 0001:00059ce0       __errno                    1005ace0 f   libucrtd:errno.obj
 0001:00059d10       __get_doserrno             1005ad10 f   libucrtd:errno.obj
 0001:00059da0       __get_errno                1005ada0 f   libucrtd:errno.obj
 0001:00059e30       __set_doserrno             1005ae30 f   libucrtd:errno.obj
 0001:00059e60       __set_errno                1005ae60 f   libucrtd:errno.obj
 0001:00059e90       ??$?B$$A6GXPAXK0@Z@__crt_fast_encoded_nullptr_t@@QBEP6GXPAXK0@ZXZ 1005ae90 f i libucrtd:exit.obj
 0001:00059f70       ??$__crt_fast_decode_pointer@P6GXPAXK0@Z@@YAP6GXPAXK0@ZQ6GX0K0@Z@Z 1005af70 f i libucrtd:exit.obj
 0001:00059fa0       ??$__crt_fast_encode_pointer@P6GXPAXK0@Z@@YAP6GXPAXK0@ZQ6GX0K0@Z@Z 1005afa0 f i libucrtd:exit.obj
 0001:00059fd0       ??$__crt_get_proc_address@P6GXI@Z@@YAP6GXI@ZQAUHINSTANCE__@@QBD@Z 1005afd0 f i libucrtd:exit.obj
 0001:00059ff0       ??$__crt_interlocked_read@J@@YAJPDJ@Z 1005aff0 f i libucrtd:exit.obj
 0001:0005a080       ??0?$__crt_unique_handle_t@U__crt_hmodule_traits@@@@QAE@QAUHINSTANCE__@@@Z 1005b080 f i libucrtd:exit.obj
 0001:0005a0a0       ??1?$__crt_unique_handle_t@U__crt_hmodule_traits@@@@QAE@XZ 1005b0a0 f i libucrtd:exit.obj
 0001:0005a270       ?__acrt_select_exit_lock@@YA?AW4__acrt_lock_id@@XZ 1005b270 f i libucrtd:exit.obj
 0001:0005a2a0       ?close@?$__crt_unique_handle_t@U__crt_hmodule_traits@@@@QAEXXZ 1005b2a0 f i libucrtd:exit.obj
 0001:0005a2e0       ?close@__crt_hmodule_traits@@SA_NPAUHINSTANCE__@@@Z 1005b2e0 f i libucrtd:exit.obj
 0001:0005a3d0       ?get@?$__crt_unique_handle_t@U__crt_hmodule_traits@@@@QBEPAUHINSTANCE__@@XZ 1005b3d0 f i libucrtd:exit.obj
 0001:0005a3f0       ?get_address_of@?$__crt_unique_handle_t@U__crt_hmodule_traits@@@@QAEPAPAUHINSTANCE__@@XZ 1005b3f0 f i libucrtd:exit.obj
 0001:0005a400       ?get_invalid_value@__crt_hmodule_traits@@SAPAUHINSTANCE__@@XZ 1005b400 f i libucrtd:exit.obj
 0001:0005a590       __Exit                     1005b590 f   libucrtd:exit.obj
 0001:0005a5b0       ___acrt_initialize_thread_local_exit_callback 1005b5b0 f   libucrtd:exit.obj
 0001:0005a5c0       __c_exit                   1005b5c0 f   libucrtd:exit.obj
 0001:0005a5e0       __cexit                    1005b5e0 f   libucrtd:exit.obj
 0001:0005a600       __exit                     1005b600 f   libucrtd:exit.obj
 0001:0005a620       __is_c_termination_complete 1005b620 f   libucrtd:exit.obj
 0001:0005a640       __register_thread_local_exe_atexit_callback 1005b640 f   libucrtd:exit.obj
 0001:0005a680       _exit                      1005b680 f   libucrtd:exit.obj
 0001:0005a6a0       _quick_exit                1005b6a0 f   libucrtd:exit.obj
 0001:0005a6c0       ??$?RPAU__crt_stdio_stream_data@@@__crt_internal_free_policy@@QBEXQBQAU__crt_stdio_stream_data@@@Z 1005b6c0 f i libucrtd:_file.obj
 0001:0005a6e0       ??0?$__crt_unique_heap_ptr@PAU__crt_stdio_stream_data@@U__crt_internal_free_policy@@@@QAE@QAPAU__crt_stdio_stream_data@@@Z 1005b6e0 f i libucrtd:_file.obj
 0001:0005a700       ??0__crt_stdio_stream@@QAE@QAU_iobuf@@@Z 1005b700 f i libucrtd:_file.obj
 0001:0005a720       ??1?$__crt_unique_heap_ptr@PAU__crt_stdio_stream_data@@U__crt_internal_free_policy@@@@QAE@XZ 1005b720 f i libucrtd:_file.obj
 0001:0005a740       ??C__crt_stdio_stream@@QBEPAU__crt_stdio_stream_data@@XZ 1005b740 f i libucrtd:_file.obj
 0001:0005a760       ?detach@?$__crt_unique_heap_ptr@PAU__crt_stdio_stream_data@@U__crt_internal_free_policy@@@@QAEPAPAU__crt_stdio_stream_data@@XZ 1005b760 f i libucrtd:_file.obj
 0001:0005a790       ?release@?$__crt_unique_heap_ptr@PAU__crt_stdio_stream_data@@U__crt_internal_free_policy@@@@QAEXXZ 1005b790 f i libucrtd:_file.obj
 0001:0005a7c0       ___acrt_initialize_stdio   1005b7c0 f   libucrtd:_file.obj
 0001:0005a930       ___acrt_iob_func           1005b930 f   libucrtd:_file.obj
 0001:0005a940       ___acrt_uninitialize_stdio 1005b940 f   libucrtd:_file.obj
 0001:0005a9c0       __get_stream_buffer_pointers 1005b9c0 f   libucrtd:_file.obj
 0001:0005aaa0       __lock_file                1005baa0 f   libucrtd:_file.obj
 0001:0005aad0       __unlock_file              1005bad0 f   libucrtd:_file.obj
 0001:0005ab00       ??$?0ABV?$stream_output_adapter@D@__crt_stdio_output@@AB_KABQBDABQAU__crt_locale_pointers@@ABQAD@?$format_validation_base@DV?$stream_output_adapter@D@__crt_stdio_output@@@__crt_stdio_output@@IAE@ABV?$stream_output_adapter@D@1@AB_KABQBDABQAU__crt_locale_pointers@@ABQAD@Z 1005bb00 f i libucrtd:output.obj
 0001:0005ab30       ??$?0ABV?$stream_output_adapter@D@__crt_stdio_output@@AB_KABQBDABQAU__crt_locale_pointers@@ABQAD@?$positional_parameter_base@DV?$stream_output_adapter@D@__crt_stdio_output@@@__crt_stdio_output@@IAE@ABV?$stream_output_adapter@D@1@AB_KABQBDABQAU__crt_locale_pointers@@ABQAD@Z 1005bb30 f i libucrtd:output.obj
 0001:0005abb0       ??$?0ABV?$stream_output_adapter@D@__crt_stdio_output@@AB_KABQBDABQAU__crt_locale_pointers@@ABQAD@?$standard_base@DV?$stream_output_adapter@D@__crt_stdio_output@@@__crt_stdio_output@@IAE@ABV?$stream_output_adapter@D@1@AB_KABQBDABQAU__crt_locale_pointers@@ABQAD@Z 1005bbb0 f i libucrtd:output.obj
 0001:0005ac00       ??$?0ABV?$stream_output_adapter@_W@__crt_stdio_output@@AB_KABQB_WABQAU__crt_locale_pointers@@ABQAD@?$format_validation_base@_WV?$stream_output_adapter@_W@__crt_stdio_output@@@__crt_stdio_output@@IAE@ABV?$stream_output_adapter@_W@1@AB_KABQB_WABQAU__crt_locale_pointers@@ABQAD@Z 1005bc00 f i libucrtd:output.obj
 0001:0005ac30       ??$?0ABV?$stream_output_adapter@_W@__crt_stdio_output@@AB_KABQB_WABQAU__crt_locale_pointers@@ABQAD@?$positional_parameter_base@_WV?$stream_output_adapter@_W@__crt_stdio_output@@@__crt_stdio_output@@IAE@ABV?$stream_output_adapter@_W@1@AB_KABQB_WABQAU__crt_locale_pointers@@ABQAD@Z 1005bc30 f i libucrtd:output.obj
 0001:0005acb0       ??$?0ABV?$stream_output_adapter@_W@__crt_stdio_output@@AB_KABQB_WABQAU__crt_locale_pointers@@ABQAD@?$standard_base@_WV?$stream_output_adapter@_W@__crt_stdio_output@@@__crt_stdio_output@@IAE@ABV?$stream_output_adapter@_W@1@AB_KABQB_WABQAU__crt_locale_pointers@@ABQAD@Z 1005bcb0 f i libucrtd:output.obj
 0001:0005ad00       ??$?0ABV?$string_output_adapter@D@__crt_stdio_output@@AB_KABQBDABQAU__crt_locale_pointers@@ABQAD@?$format_validation_base@DV?$string_output_adapter@D@__crt_stdio_output@@@__crt_stdio_output@@IAE@ABV?$string_output_adapter@D@1@AB_KABQBDABQAU__crt_locale_pointers@@ABQAD@Z 1005bd00 f i libucrtd:output.obj
 0001:0005ad30       ??$?0ABV?$string_output_adapter@D@__crt_stdio_output@@AB_KABQBDABQAU__crt_locale_pointers@@ABQAD@?$positional_parameter_base@DV?$string_output_adapter@D@__crt_stdio_output@@@__crt_stdio_output@@IAE@ABV?$string_output_adapter@D@1@AB_KABQBDABQAU__crt_locale_pointers@@ABQAD@Z 1005bd30 f i libucrtd:output.obj
 0001:0005adb0       ??$?0ABV?$string_output_adapter@D@__crt_stdio_output@@AB_KABQBDABQAU__crt_locale_pointers@@ABQAD@?$standard_base@DV?$string_output_adapter@D@__crt_stdio_output@@@__crt_stdio_output@@IAE@ABV?$string_output_adapter@D@1@AB_KABQBDABQAU__crt_locale_pointers@@ABQAD@Z 1005bdb0 f i libucrtd:output.obj
 0001:0005ae00       ??$?0ABV?$string_output_adapter@_W@__crt_stdio_output@@AB_KABQB_WABQAU__crt_locale_pointers@@ABQAD@?$format_validation_base@_WV?$string_output_adapter@_W@__crt_stdio_output@@@__crt_stdio_output@@IAE@ABV?$string_output_adapter@_W@1@AB_KABQB_WABQAU__crt_locale_pointers@@ABQAD@Z 1005be00 f i libucrtd:output.obj
 0001:0005ae30       ??$?0ABV?$string_output_adapter@_W@__crt_stdio_output@@AB_KABQB_WABQAU__crt_locale_pointers@@ABQAD@?$positional_parameter_base@_WV?$string_output_adapter@_W@__crt_stdio_output@@@__crt_stdio_output@@IAE@ABV?$string_output_adapter@_W@1@AB_KABQB_WABQAU__crt_locale_pointers@@ABQAD@Z 1005be30 f i libucrtd:output.obj
 0001:0005aeb0       ??$?0ABV?$string_output_adapter@_W@__crt_stdio_output@@AB_KABQB_WABQAU__crt_locale_pointers@@ABQAD@?$standard_base@_WV?$string_output_adapter@_W@__crt_stdio_output@@@__crt_stdio_output@@IAE@ABV?$string_output_adapter@_W@1@AB_KABQB_WABQAU__crt_locale_pointers@@ABQAD@Z 1005beb0 f i libucrtd:output.obj
 0001:0005e160       ??$count@D@formatting_buffer@__crt_stdio_output@@QBEIXZ 1005f160 f i libucrtd:output.obj
 0001:0005e1a0       ??$count@_W@formatting_buffer@__crt_stdio_output@@QBEIXZ 1005f1a0 f i libucrtd:output.obj
 0001:0005e1e0       ??$data@D@formatting_buffer@__crt_stdio_output@@QAEPADXZ 1005f1e0 f i libucrtd:output.obj
 0001:0005e220       ??$data@_W@formatting_buffer@__crt_stdio_output@@QAEPA_WXZ 1005f220 f i libucrtd:output.obj
 0001:0005e260       ??$ensure_buffer_is_big_enough@D@formatting_buffer@__crt_stdio_output@@QAE_NI@Z 1005f260 f i libucrtd:output.obj
 0001:0005e340       ??$ensure_buffer_is_big_enough@_W@formatting_buffer@__crt_stdio_output@@QAE_NI@Z 1005f340 f i libucrtd:output.obj
 0001:0005e430       ??$extract_argument_from_va_list@C_J@?$positional_parameter_base@DV?$stream_output_adapter@D@__crt_stdio_output@@@__crt_stdio_output@@IAE_NAA_J@Z 1005f430 f i libucrtd:output.obj
 0001:0005e570       ??$extract_argument_from_va_list@C_J@?$positional_parameter_base@DV?$string_output_adapter@D@__crt_stdio_output@@@__crt_stdio_output@@IAE_NAA_J@Z 1005f570 f i libucrtd:output.obj
 0001:0005e6b0       ??$extract_argument_from_va_list@C_J@?$positional_parameter_base@_WV?$stream_output_adapter@_W@__crt_stdio_output@@@__crt_stdio_output@@IAE_NAA_J@Z 1005f6b0 f i libucrtd:output.obj
 0001:0005e7f0       ??$extract_argument_from_va_list@C_J@?$positional_parameter_base@_WV?$string_output_adapter@_W@__crt_stdio_output@@@__crt_stdio_output@@IAE_NAA_J@Z 1005f7f0 f i libucrtd:output.obj
 0001:0005e930       ??$extract_argument_from_va_list@C_J@?$standard_base@DV?$stream_output_adapter@D@__crt_stdio_output@@@__crt_stdio_output@@IAE_NAA_J@Z 1005f930 f i libucrtd:output.obj
 0001:0005e960       ??$extract_argument_from_va_list@C_J@?$standard_base@DV?$string_output_adapter@D@__crt_stdio_output@@@__crt_stdio_output@@IAE_NAA_J@Z 1005f960 f i libucrtd:output.obj
 0001:0005e990       ??$extract_argument_from_va_list@C_J@?$standard_base@_WV?$stream_output_adapter@_W@__crt_stdio_output@@@__crt_stdio_output@@IAE_NAA_J@Z 1005f990 f i libucrtd:output.obj
 0001:0005e9c0       ??$extract_argument_from_va_list@C_J@?$standard_base@_WV?$string_output_adapter@_W@__crt_stdio_output@@@__crt_stdio_output@@IAE_NAA_J@Z 1005f9c0 f i libucrtd:output.obj
 0001:0005e9f0       ??$extract_argument_from_va_list@E_J@?$positional_parameter_base@DV?$stream_output_adapter@D@__crt_stdio_output@@@__crt_stdio_output@@IAE_NAA_J@Z 1005f9f0 f i libucrtd:output.obj
 0001:0005eb30       ??$extract_argument_from_va_list@E_J@?$positional_parameter_base@DV?$string_output_adapter@D@__crt_stdio_output@@@__crt_stdio_output@@IAE_NAA_J@Z 1005fb30 f i libucrtd:output.obj
 0001:0005ec70       ??$extract_argument_from_va_list@E_J@?$positional_parameter_base@_WV?$stream_output_adapter@_W@__crt_stdio_output@@@__crt_stdio_output@@IAE_NAA_J@Z 1005fc70 f i libucrtd:output.obj
 0001:0005edb0       ??$extract_argument_from_va_list@E_J@?$positional_parameter_base@_WV?$string_output_adapter@_W@__crt_stdio_output@@@__crt_stdio_output@@IAE_NAA_J@Z 1005fdb0 f i libucrtd:output.obj
 0001:0005eef0       ??$extract_argument_from_va_list@E_J@?$standard_base@DV?$stream_output_adapter@D@__crt_stdio_output@@@__crt_stdio_output@@IAE_NAA_J@Z 1005fef0 f i libucrtd:output.obj
 0001:0005ef20       ??$extract_argument_from_va_list@E_J@?$standard_base@DV?$string_output_adapter@D@__crt_stdio_output@@@__crt_stdio_output@@IAE_NAA_J@Z 1005ff20 f i libucrtd:output.obj
 0001:0005ef50       ??$extract_argument_from_va_list@E_J@?$standard_base@_WV?$stream_output_adapter@_W@__crt_stdio_output@@@__crt_stdio_output@@IAE_NAA_J@Z 1005ff50 f i libucrtd:output.obj
 0001:0005ef80       ??$extract_argument_from_va_list@E_J@?$standard_base@_WV?$string_output_adapter@_W@__crt_stdio_output@@@__crt_stdio_output@@IAE_NAA_J@Z 1005ff80 f i libucrtd:output.obj
 0001:0005efb0       ??$extract_argument_from_va_list@F_J@?$positional_parameter_base@DV?$stream_output_adapter@D@__crt_stdio_output@@@__crt_stdio_output@@IAE_NAA_J@Z 1005ffb0 f i libucrtd:output.obj
 0001:0005f0e0       ??$extract_argument_from_va_list@F_J@?$positional_parameter_base@DV?$string_output_adapter@D@__crt_stdio_output@@@__crt_stdio_output@@IAE_NAA_J@Z 100600e0 f i libucrtd:output.obj
 0001:0005f210       ??$extract_argument_from_va_list@F_J@?$positional_parameter_base@_WV?$stream_output_adapter@_W@__crt_stdio_output@@@__crt_stdio_output@@IAE_NAA_J@Z 10060210 f i libucrtd:output.obj
 0001:0005f340       ??$extract_argument_from_va_list@F_J@?$positional_parameter_base@_WV?$string_output_adapter@_W@__crt_stdio_output@@@__crt_stdio_output@@IAE_NAA_J@Z 10060340 f i libucrtd:output.obj
 0001:0005f470       ??$extract_argument_from_va_list@F_J@?$standard_base@DV?$stream_output_adapter@D@__crt_stdio_output@@@__crt_stdio_output@@IAE_NAA_J@Z 10060470 f i libucrtd:output.obj
 0001:0005f4a0       ??$extract_argument_from_va_list@F_J@?$standard_base@DV?$string_output_adapter@D@__crt_stdio_output@@@__crt_stdio_output@@IAE_NAA_J@Z 100604a0 f i libucrtd:output.obj
 0001:0005f4d0       ??$extract_argument_from_va_list@F_J@?$standard_base@_WV?$stream_output_adapter@_W@__crt_stdio_output@@@__crt_stdio_output@@IAE_NAA_J@Z 100604d0 f i libucrtd:output.obj
 0001:0005f500       ??$extract_argument_from_va_list@F_J@?$standard_base@_WV?$string_output_adapter@_W@__crt_stdio_output@@@__crt_stdio_output@@IAE_NAA_J@Z 10060500 f i libucrtd:output.obj
 0001:0005f530       ??$extract_argument_from_va_list@GD@?$positional_parameter_base@DV?$stream_output_adapter@D@__crt_stdio_output@@@__crt_stdio_output@@IAE_NAAD@Z 10060530 f i libucrtd:output.obj
 0001:0005f660       ??$extract_argument_from_va_list@GD@?$positional_parameter_base@DV?$string_output_adapter@D@__crt_stdio_output@@@__crt_stdio_output@@IAE_NAAD@Z 10060660 f i libucrtd:output.obj
 0001:0005f790       ??$extract_argument_from_va_list@GD@?$standard_base@DV?$stream_output_adapter@D@__crt_stdio_output@@@__crt_stdio_output@@IAE_NAAD@Z 10060790 f i libucrtd:output.obj
 0001:0005f7c0       ??$extract_argument_from_va_list@GD@?$standard_base@DV?$string_output_adapter@D@__crt_stdio_output@@@__crt_stdio_output@@IAE_NAAD@Z 100607c0 f i libucrtd:output.obj
 0001:0005f7f0       ??$extract_argument_from_va_list@G_J@?$positional_parameter_base@DV?$stream_output_adapter@D@__crt_stdio_output@@@__crt_stdio_output@@IAE_NAA_J@Z 100607f0 f i libucrtd:output.obj
 0001:0005f930       ??$extract_argument_from_va_list@G_J@?$positional_parameter_base@DV?$string_output_adapter@D@__crt_stdio_output@@@__crt_stdio_output@@IAE_NAA_J@Z 10060930 f i libucrtd:output.obj
 0001:0005fa70       ??$extract_argument_from_va_list@G_J@?$positional_parameter_base@_WV?$stream_output_adapter@_W@__crt_stdio_output@@@__crt_stdio_output@@IAE_NAA_J@Z 10060a70 f i libucrtd:output.obj
 0001:0005fbb0       ??$extract_argument_from_va_list@G_J@?$positional_parameter_base@_WV?$string_output_adapter@_W@__crt_stdio_output@@@__crt_stdio_output@@IAE_NAA_J@Z 10060bb0 f i libucrtd:output.obj
 0001:0005fcf0       ??$extract_argument_from_va_list@G_J@?$standard_base@DV?$stream_output_adapter@D@__crt_stdio_output@@@__crt_stdio_output@@IAE_NAA_J@Z 10060cf0 f i libucrtd:output.obj
 0001:0005fd20       ??$extract_argument_from_va_list@G_J@?$standard_base@DV?$string_output_adapter@D@__crt_stdio_output@@@__crt_stdio_output@@IAE_NAA_J@Z 10060d20 f i libucrtd:output.obj
 0001:0005fd50       ??$extract_argument_from_va_list@G_J@?$standard_base@_WV?$stream_output_adapter@_W@__crt_stdio_output@@@__crt_stdio_output@@IAE_NAA_J@Z 10060d50 f i libucrtd:output.obj
 0001:0005fd80       ??$extract_argument_from_va_list@G_J@?$standard_base@_WV?$string_output_adapter@_W@__crt_stdio_output@@@__crt_stdio_output@@IAE_NAA_J@Z 10060d80 f i libucrtd:output.obj
 0001:0005fdb0       ??$extract_argument_from_va_list@H_J@?$positional_parameter_base@DV?$stream_output_adapter@D@__crt_stdio_output@@@__crt_stdio_output@@IAE_NAA_J@Z 10060db0 f i libucrtd:output.obj
 0001:0005fee0       ??$extract_argument_from_va_list@H_J@?$positional_parameter_base@DV?$string_output_adapter@D@__crt_stdio_output@@@__crt_stdio_output@@IAE_NAA_J@Z 10060ee0 f i libucrtd:output.obj
 0001:00060010       ??$extract_argument_from_va_list@H_J@?$positional_parameter_base@_WV?$stream_output_adapter@_W@__crt_stdio_output@@@__crt_stdio_output@@IAE_NAA_J@Z 10061010 f i libucrtd:output.obj
 0001:00060140       ??$extract_argument_from_va_list@H_J@?$positional_parameter_base@_WV?$string_output_adapter@_W@__crt_stdio_output@@@__crt_stdio_output@@IAE_NAA_J@Z 10061140 f i libucrtd:output.obj
 0001:00060270       ??$extract_argument_from_va_list@H_J@?$standard_base@DV?$stream_output_adapter@D@__crt_stdio_output@@@__crt_stdio_output@@IAE_NAA_J@Z 10061270 f i libucrtd:output.obj
 0001:000602a0       ??$extract_argument_from_va_list@H_J@?$standard_base@DV?$string_output_adapter@D@__crt_stdio_output@@@__crt_stdio_output@@IAE_NAA_J@Z 100612a0 f i libucrtd:output.obj
 0001:000602d0       ??$extract_argument_from_va_list@H_J@?$standard_base@_WV?$stream_output_adapter@_W@__crt_stdio_output@@@__crt_stdio_output@@IAE_NAA_J@Z 100612d0 f i libucrtd:output.obj
 0001:00060300       ??$extract_argument_from_va_list@H_J@?$standard_base@_WV?$string_output_adapter@_W@__crt_stdio_output@@@__crt_stdio_output@@IAE_NAA_J@Z 10061300 f i libucrtd:output.obj
 0001:00060330       ??$extract_argument_from_va_list@I_J@?$positional_parameter_base@DV?$stream_output_adapter@D@__crt_stdio_output@@@__crt_stdio_output@@IAE_NAA_J@Z 10061330 f i libucrtd:output.obj
 0001:00060460       ??$extract_argument_from_va_list@I_J@?$positional_parameter_base@DV?$string_output_adapter@D@__crt_stdio_output@@@__crt_stdio_output@@IAE_NAA_J@Z 10061460 f i libucrtd:output.obj
 0001:00060590       ??$extract_argument_from_va_list@I_J@?$positional_parameter_base@_WV?$stream_output_adapter@_W@__crt_stdio_output@@@__crt_stdio_output@@IAE_NAA_J@Z 10061590 f i libucrtd:output.obj
 0001:000606c0       ??$extract_argument_from_va_list@I_J@?$positional_parameter_base@_WV?$string_output_adapter@_W@__crt_stdio_output@@@__crt_stdio_output@@IAE_NAA_J@Z 100616c0 f i libucrtd:output.obj
 0001:000607f0       ??$extract_argument_from_va_list@I_J@?$standard_base@DV?$stream_output_adapter@D@__crt_stdio_output@@@__crt_stdio_output@@IAE_NAA_J@Z 100617f0 f i libucrtd:output.obj
 0001:00060820       ??$extract_argument_from_va_list@I_J@?$standard_base@DV?$string_output_adapter@D@__crt_stdio_output@@@__crt_stdio_output@@IAE_NAA_J@Z 10061820 f i libucrtd:output.obj
 0001:00060850       ??$extract_argument_from_va_list@I_J@?$standard_base@_WV?$stream_output_adapter@_W@__crt_stdio_output@@@__crt_stdio_output@@IAE_NAA_J@Z 10061850 f i libucrtd:output.obj
 0001:00060880       ??$extract_argument_from_va_list@I_J@?$standard_base@_WV?$string_output_adapter@_W@__crt_stdio_output@@@__crt_stdio_output@@IAE_NAA_J@Z 10061880 f i libucrtd:output.obj
 0001:000608b0       ??$extract_argument_from_va_list@PADPAD@?$positional_parameter_base@DV?$stream_output_adapter@D@__crt_stdio_output@@@__crt_stdio_output@@IAE_NAAPAD@Z 100618b0 f i libucrtd:output.obj
 0001:000609e0       ??$extract_argument_from_va_list@PADPAD@?$positional_parameter_base@DV?$string_output_adapter@D@__crt_stdio_output@@@__crt_stdio_output@@IAE_NAAPAD@Z 100619e0 f i libucrtd:output.obj
 0001:00060b10       ??$extract_argument_from_va_list@PADPAD@?$positional_parameter_base@_WV?$stream_output_adapter@_W@__crt_stdio_output@@@__crt_stdio_output@@IAE_NAAPAD@Z 10061b10 f i libucrtd:output.obj
 0001:00060c40       ??$extract_argument_from_va_list@PADPAD@?$positional_parameter_base@_WV?$string_output_adapter@_W@__crt_stdio_output@@@__crt_stdio_output@@IAE_NAAPAD@Z 10061c40 f i libucrtd:output.obj
 0001:00060d70       ??$extract_argument_from_va_list@PADPAD@?$standard_base@DV?$stream_output_adapter@D@__crt_stdio_output@@@__crt_stdio_output@@IAE_NAAPAD@Z 10061d70 f i libucrtd:output.obj
 0001:00060da0       ??$extract_argument_from_va_list@PADPAD@?$standard_base@DV?$string_output_adapter@D@__crt_stdio_output@@@__crt_stdio_output@@IAE_NAAPAD@Z 10061da0 f i libucrtd:output.obj
 0001:00060dd0       ??$extract_argument_from_va_list@PADPAD@?$standard_base@_WV?$stream_output_adapter@_W@__crt_stdio_output@@@__crt_stdio_output@@IAE_NAAPAD@Z 10061dd0 f i libucrtd:output.obj
 0001:00060e00       ??$extract_argument_from_va_list@PADPAD@?$standard_base@_WV?$string_output_adapter@_W@__crt_stdio_output@@@__crt_stdio_output@@IAE_NAAPAD@Z 10061e00 f i libucrtd:output.obj
 0001:00061530       ??$extract_argument_from_va_list@PAXPAX@?$positional_parameter_base@DV?$stream_output_adapter@D@__crt_stdio_output@@@__crt_stdio_output@@IAE_NAAPAX@Z 10062530 f i libucrtd:output.obj
 0001:00061660       ??$extract_argument_from_va_list@PAXPAX@?$positional_parameter_base@DV?$string_output_adapter@D@__crt_stdio_output@@@__crt_stdio_output@@IAE_NAAPAX@Z 10062660 f i libucrtd:output.obj
 0001:00061790       ??$extract_argument_from_va_list@PAXPAX@?$positional_parameter_base@_WV?$stream_output_adapter@_W@__crt_stdio_output@@@__crt_stdio_output@@IAE_NAAPAX@Z 10062790 f i libucrtd:output.obj
 0001:000618c0       ??$extract_argument_from_va_list@PAXPAX@?$positional_parameter_base@_WV?$string_output_adapter@_W@__crt_stdio_output@@@__crt_stdio_output@@IAE_NAAPAX@Z 100628c0 f i libucrtd:output.obj
 0001:000619f0       ??$extract_argument_from_va_list@PAXPAX@?$standard_base@DV?$stream_output_adapter@D@__crt_stdio_output@@@__crt_stdio_output@@IAE_NAAPAX@Z 100629f0 f i libucrtd:output.obj
 0001:00061a20       ??$extract_argument_from_va_list@PAXPAX@?$standard_base@DV?$string_output_adapter@D@__crt_stdio_output@@@__crt_stdio_output@@IAE_NAAPAX@Z 10062a20 f i libucrtd:output.obj
 0001:00061a50       ??$extract_argument_from_va_list@PAXPAX@?$standard_base@_WV?$stream_output_adapter@_W@__crt_stdio_output@@@__crt_stdio_output@@IAE_NAAPAX@Z 10062a50 f i libucrtd:output.obj
 0001:00061a80       ??$extract_argument_from_va_list@PAXPAX@?$standard_base@_WV?$string_output_adapter@_W@__crt_stdio_output@@@__crt_stdio_output@@IAE_NAAPAX@Z 10062a80 f i libucrtd:output.obj
 0001:00061ab0       ??$extract_argument_from_va_list@U_CRT_DOUBLE@@U1@@?$positional_parameter_base@DV?$stream_output_adapter@D@__crt_stdio_output@@@__crt_stdio_output@@IAE_NAAU_CRT_DOUBLE@@@Z 10062ab0 f i libucrtd:output.obj
 0001:00061c10       ??$extract_argument_from_va_list@U_CRT_DOUBLE@@U1@@?$positional_parameter_base@DV?$string_output_adapter@D@__crt_stdio_output@@@__crt_stdio_output@@IAE_NAAU_CRT_DOUBLE@@@Z 10062c10 f i libucrtd:output.obj
 0001:00061d70       ??$extract_argument_from_va_list@U_CRT_DOUBLE@@U1@@?$positional_parameter_base@_WV?$stream_output_adapter@_W@__crt_stdio_output@@@__crt_stdio_output@@IAE_NAAU_CRT_DOUBLE@@@Z 10062d70 f i libucrtd:output.obj
 0001:00061ed0       ??$extract_argument_from_va_list@U_CRT_DOUBLE@@U1@@?$positional_parameter_base@_WV?$string_output_adapter@_W@__crt_stdio_output@@@__crt_stdio_output@@IAE_NAAU_CRT_DOUBLE@@@Z 10062ed0 f i libucrtd:output.obj
 0001:00062030       ??$extract_argument_from_va_list@U_CRT_DOUBLE@@U1@@?$standard_base@DV?$stream_output_adapter@D@__crt_stdio_output@@@__crt_stdio_output@@IAE_NAAU_CRT_DOUBLE@@@Z 10063030 f i libucrtd:output.obj
 0001:00062080       ??$extract_argument_from_va_list@U_CRT_DOUBLE@@U1@@?$standard_base@DV?$string_output_adapter@D@__crt_stdio_output@@@__crt_stdio_output@@IAE_NAAU_CRT_DOUBLE@@@Z 10063080 f i libucrtd:output.obj
 0001:000620d0       ??$extract_argument_from_va_list@U_CRT_DOUBLE@@U1@@?$standard_base@_WV?$stream_output_adapter@_W@__crt_stdio_output@@@__crt_stdio_output@@IAE_NAAU_CRT_DOUBLE@@@Z 100630d0 f i libucrtd:output.obj
 0001:00062120       ??$extract_argument_from_va_list@U_CRT_DOUBLE@@U1@@?$standard_base@_WV?$string_output_adapter@_W@__crt_stdio_output@@@__crt_stdio_output@@IAE_NAAU_CRT_DOUBLE@@@Z 10063120 f i libucrtd:output.obj
 0001:00062170       ??$extract_argument_from_va_list@_J_J@?$positional_parameter_base@DV?$stream_output_adapter@D@__crt_stdio_output@@@__crt_stdio_output@@IAE_NAA_J@Z 10063170 f i libucrtd:output.obj
 0001:000622a0       ??$extract_argument_from_va_list@_J_J@?$positional_parameter_base@DV?$string_output_adapter@D@__crt_stdio_output@@@__crt_stdio_output@@IAE_NAA_J@Z 100632a0 f i libucrtd:output.obj
 0001:000623d0       ??$extract_argument_from_va_list@_J_J@?$positional_parameter_base@_WV?$stream_output_adapter@_W@__crt_stdio_output@@@__crt_stdio_output@@IAE_NAA_J@Z 100633d0 f i libucrtd:output.obj
 0001:00062500       ??$extract_argument_from_va_list@_J_J@?$positional_parameter_base@_WV?$string_output_adapter@_W@__crt_stdio_output@@@__crt_stdio_output@@IAE_NAA_J@Z 10063500 f i libucrtd:output.obj
 0001:00062630       ??$extract_argument_from_va_list@_J_J@?$standard_base@DV?$stream_output_adapter@D@__crt_stdio_output@@@__crt_stdio_output@@IAE_NAA_J@Z 10063630 f i libucrtd:output.obj
 0001:00062660       ??$extract_argument_from_va_list@_J_J@?$standard_base@DV?$string_output_adapter@D@__crt_stdio_output@@@__crt_stdio_output@@IAE_NAA_J@Z 10063660 f i libucrtd:output.obj
 0001:00062690       ??$extract_argument_from_va_list@_J_J@?$standard_base@_WV?$stream_output_adapter@_W@__crt_stdio_output@@@__crt_stdio_output@@IAE_NAA_J@Z 10063690 f i libucrtd:output.obj
 0001:000626c0       ??$extract_argument_from_va_list@_J_J@?$standard_base@_WV?$string_output_adapter@_W@__crt_stdio_output@@@__crt_stdio_output@@IAE_NAA_J@Z 100636c0 f i libucrtd:output.obj
 0001:000626f0       ??$extract_argument_from_va_list@_K_J@?$positional_parameter_base@DV?$stream_output_adapter@D@__crt_stdio_output@@@__crt_stdio_output@@IAE_NAA_J@Z 100636f0 f i libucrtd:output.obj
 0001:00062820       ??$extract_argument_from_va_list@_K_J@?$positional_parameter_base@DV?$string_output_adapter@D@__crt_stdio_output@@@__crt_stdio_output@@IAE_NAA_J@Z 10063820 f i libucrtd:output.obj
 0001:00062950       ??$extract_argument_from_va_list@_K_J@?$positional_parameter_base@_WV?$stream_output_adapter@_W@__crt_stdio_output@@@__crt_stdio_output@@IAE_NAA_J@Z 10063950 f i libucrtd:output.obj
 0001:00062a80       ??$extract_argument_from_va_list@_K_J@?$positional_parameter_base@_WV?$string_output_adapter@_W@__crt_stdio_output@@@__crt_stdio_output@@IAE_NAA_J@Z 10063a80 f i libucrtd:output.obj
 0001:00062bb0       ??$extract_argument_from_va_list@_K_J@?$standard_base@DV?$stream_output_adapter@D@__crt_stdio_output@@@__crt_stdio_output@@IAE_NAA_J@Z 10063bb0 f i libucrtd:output.obj
 0001:00062be0       ??$extract_argument_from_va_list@_K_J@?$standard_base@DV?$string_output_adapter@D@__crt_stdio_output@@@__crt_stdio_output@@IAE_NAA_J@Z 10063be0 f i libucrtd:output.obj
 0001:00062c10       ??$extract_argument_from_va_list@_K_J@?$standard_base@_WV?$stream_output_adapter@_W@__crt_stdio_output@@@__crt_stdio_output@@IAE_NAA_J@Z 10063c10 f i libucrtd:output.obj
 0001:00062c40       ??$extract_argument_from_va_list@_K_J@?$standard_base@_WV?$string_output_adapter@_W@__crt_stdio_output@@@__crt_stdio_output@@IAE_NAA_J@Z 10063c40 f i libucrtd:output.obj
 0001:00062c70       ??$extract_argument_from_va_list@_W_W@?$positional_parameter_base@DV?$stream_output_adapter@D@__crt_stdio_output@@@__crt_stdio_output@@IAE_NAA_W@Z 10063c70 f i libucrtd:output.obj
 0001:00062da0       ??$extract_argument_from_va_list@_W_W@?$positional_parameter_base@DV?$string_output_adapter@D@__crt_stdio_output@@@__crt_stdio_output@@IAE_NAA_W@Z 10063da0 f i libucrtd:output.obj
 0001:00062ed0       ??$extract_argument_from_va_list@_W_W@?$positional_parameter_base@_WV?$stream_output_adapter@_W@__crt_stdio_output@@@__crt_stdio_output@@IAE_NAA_W@Z 10063ed0 f i libucrtd:output.obj
 0001:00063000       ??$extract_argument_from_va_list@_W_W@?$positional_parameter_base@_WV?$string_output_adapter@_W@__crt_stdio_output@@@__crt_stdio_output@@IAE_NAA_W@Z 10064000 f i libucrtd:output.obj
 0001:00063130       ??$extract_argument_from_va_list@_W_W@?$standard_base@DV?$stream_output_adapter@D@__crt_stdio_output@@@__crt_stdio_output@@IAE_NAA_W@Z 10064130 f i libucrtd:output.obj
 0001:00063160       ??$extract_argument_from_va_list@_W_W@?$standard_base@DV?$string_output_adapter@D@__crt_stdio_output@@@__crt_stdio_output@@IAE_NAA_W@Z 10064160 f i libucrtd:output.obj
 0001:00063190       ??$extract_argument_from_va_list@_W_W@?$standard_base@_WV?$stream_output_adapter@_W@__crt_stdio_output@@@__crt_stdio_output@@IAE_NAA_W@Z 10064190 f i libucrtd:output.obj
 0001:000631c0       ??$extract_argument_from_va_list@_W_W@?$standard_base@_WV?$string_output_adapter@_W@__crt_stdio_output@@@__crt_stdio_output@@IAE_NAA_W@Z 100641c0 f i libucrtd:output.obj
 0001:000631f0       ??$get_parameter_type@D@?$positional_parameter_base@DV?$stream_output_adapter@D@__crt_stdio_output@@@__crt_stdio_output@@CA?AW4parameter_type@01@PAD@Z 100641f0 f i libucrtd:output.obj
 0001:00063200       ??$get_parameter_type@D@?$positional_parameter_base@DV?$string_output_adapter@D@__crt_stdio_output@@@__crt_stdio_output@@CA?AW4parameter_type@01@PAD@Z 10064200 f i libucrtd:output.obj
 0001:00063210       ??$get_parameter_type@D@?$positional_parameter_base@_WV?$stream_output_adapter@_W@__crt_stdio_output@@@__crt_stdio_output@@CA?AW4parameter_type@01@PAD@Z 10064210 f i libucrtd:output.obj
 0001:00063220       ??$get_parameter_type@D@?$positional_parameter_base@_WV?$string_output_adapter@_W@__crt_stdio_output@@@__crt_stdio_output@@CA?AW4parameter_type@01@PAD@Z 10064220 f i libucrtd:output.obj
 0001:00063270       ??$get_parameter_type@X@?$positional_parameter_base@DV?$stream_output_adapter@D@__crt_stdio_output@@@__crt_stdio_output@@CA?AW4parameter_type@01@PAX@Z 10064270 f i libucrtd:output.obj
 0001:00063280       ??$get_parameter_type@X@?$positional_parameter_base@DV?$string_output_adapter@D@__crt_stdio_output@@@__crt_stdio_output@@CA?AW4parameter_type@01@PAX@Z 10064280 f i libucrtd:output.obj
 0001:00063290       ??$get_parameter_type@X@?$positional_parameter_base@_WV?$stream_output_adapter@_W@__crt_stdio_output@@@__crt_stdio_output@@CA?AW4parameter_type@01@PAX@Z 10064290 f i libucrtd:output.obj
 0001:000632a0       ??$get_parameter_type@X@?$positional_parameter_base@_WV?$string_output_adapter@_W@__crt_stdio_output@@@__crt_stdio_output@@CA?AW4parameter_type@01@PAX@Z 100642a0 f i libucrtd:output.obj
 0001:000632b0       ??$is_character_specifier@D@?$positional_parameter_base@DV?$stream_output_adapter@D@__crt_stdio_output@@@__crt_stdio_output@@CA_ND@Z 100642b0 f i libucrtd:output.obj
 0001:000632e0       ??$is_character_specifier@D@?$positional_parameter_base@DV?$string_output_adapter@D@__crt_stdio_output@@@__crt_stdio_output@@CA_ND@Z 100642e0 f i libucrtd:output.obj
 0001:00063310       ??$is_character_specifier@_W@?$positional_parameter_base@_WV?$stream_output_adapter@_W@__crt_stdio_output@@@__crt_stdio_output@@CA_N_W@Z 10064310 f i libucrtd:output.obj
 0001:00063340       ??$is_character_specifier@_W@?$positional_parameter_base@_WV?$string_output_adapter@_W@__crt_stdio_output@@@__crt_stdio_output@@CA_N_W@Z 10064340 f i libucrtd:output.obj
 0001:00063370       ??$is_integral_specifier@D@?$positional_parameter_base@DV?$stream_output_adapter@D@__crt_stdio_output@@@__crt_stdio_output@@CA_ND@Z 10064370 f i libucrtd:output.obj
 0001:000633d0       ??$is_integral_specifier@D@?$positional_parameter_base@DV?$string_output_adapter@D@__crt_stdio_output@@@__crt_stdio_output@@CA_ND@Z 100643d0 f i libucrtd:output.obj
 0001:00063430       ??$is_integral_specifier@_W@?$positional_parameter_base@_WV?$stream_output_adapter@_W@__crt_stdio_output@@@__crt_stdio_output@@CA_N_W@Z 10064430 f i libucrtd:output.obj
 0001:00063490       ??$is_integral_specifier@_W@?$positional_parameter_base@_WV?$string_output_adapter@_W@__crt_stdio_output@@@__crt_stdio_output@@CA_N_W@Z 10064490 f i libucrtd:output.obj
 0001:000634f0       ??$is_pointer_specifier@D@?$positional_parameter_base@DV?$stream_output_adapter@D@__crt_stdio_output@@@__crt_stdio_output@@CA_ND@Z 100644f0 f i libucrtd:output.obj
 0001:00063520       ??$is_pointer_specifier@D@?$positional_parameter_base@DV?$string_output_adapter@D@__crt_stdio_output@@@__crt_stdio_output@@CA_ND@Z 10064520 f i libucrtd:output.obj
 0001:00063550       ??$is_pointer_specifier@_W@?$positional_parameter_base@_WV?$stream_output_adapter@_W@__crt_stdio_output@@@__crt_stdio_output@@CA_N_W@Z 10064550 f i libucrtd:output.obj
 0001:00063580       ??$is_pointer_specifier@_W@?$positional_parameter_base@_WV?$string_output_adapter@_W@__crt_stdio_output@@@__crt_stdio_output@@CA_N_W@Z 10064580 f i libucrtd:output.obj
 0001:000635b0       ??$is_string_specifier@D@?$positional_parameter_base@DV?$stream_output_adapter@D@__crt_stdio_output@@@__crt_stdio_output@@CA_ND@Z 100645b0 f i libucrtd:output.obj
 0001:000635e0       ??$is_string_specifier@D@?$positional_parameter_base@DV?$string_output_adapter@D@__crt_stdio_output@@@__crt_stdio_output@@CA_ND@Z 100645e0 f i libucrtd:output.obj
 0001:00063610       ??$is_string_specifier@_W@?$positional_parameter_base@_WV?$stream_output_adapter@_W@__crt_stdio_output@@@__crt_stdio_output@@CA_N_W@Z 10064610 f i libucrtd:output.obj
 0001:00063640       ??$is_string_specifier@_W@?$positional_parameter_base@_WV?$string_output_adapter@_W@__crt_stdio_output@@@__crt_stdio_output@@CA_N_W@Z 10064640 f i libucrtd:output.obj
 0001:00063670       ??$is_wide_character_specifier@D@__crt_stdio_output@@YA_N_KDW4length_modifier@0@@Z 10064670 f i libucrtd:output.obj
 0001:000636f0       ??$is_wide_character_specifier@_W@__crt_stdio_output@@YA_N_K_WW4length_modifier@0@@Z 100646f0 f i libucrtd:output.obj
 0001:000637b0       ??$peek_va_arg@C@__crt_stdio_output@@YACPAD@Z 100647b0 f i libucrtd:output.obj
 0001:000637d0       ??$peek_va_arg@E@__crt_stdio_output@@YAEPAD@Z 100647d0 f i libucrtd:output.obj
 0001:000637f0       ??$peek_va_arg@F@__crt_stdio_output@@YAFPAD@Z 100647f0 f i libucrtd:output.obj
 0001:00063810       ??$peek_va_arg@G@__crt_stdio_output@@YAGPAD@Z 10064810 f i libucrtd:output.obj
 0001:00063830       ??$peek_va_arg@H@__crt_stdio_output@@YAHPAD@Z 10064830 f i libucrtd:output.obj
 0001:00063850       ??$peek_va_arg@I@__crt_stdio_output@@YAIPAD@Z 10064850 f i libucrtd:output.obj
 0001:00063870       ??$peek_va_arg@PAD@__crt_stdio_output@@YAPADPAD@Z 10064870 f i libucrtd:output.obj
 0001:00063910       ??$peek_va_arg@PAX@__crt_stdio_output@@YAPAXPAD@Z 10064910 f i libucrtd:output.obj
 0001:00063930       ??$peek_va_arg@U_CRT_DOUBLE@@@__crt_stdio_output@@YA?AU_CRT_DOUBLE@@PAD@Z 10064930 f i libucrtd:output.obj
 0001:00063950       ??$peek_va_arg@_J@__crt_stdio_output@@YA_JPAD@Z 10064950 f i libucrtd:output.obj
 0001:00063970       ??$peek_va_arg@_K@__crt_stdio_output@@YA_KPAD@Z 10064970 f i libucrtd:output.obj
 0001:00063990       ??$peek_va_arg@_W@__crt_stdio_output@@YA_WPAD@Z 10064990 f i libucrtd:output.obj
 0001:000639b0       ??$puttc_nolock@ABDPAU_iobuf@@@?$__crt_char_traits@D@@SAHABD$$QAPAU_iobuf@@@Z 100649b0 f i libucrtd:output.obj
 0001:000639d0       ??$puttc_nolock@AB_WPAU_iobuf@@@?$__crt_char_traits@_W@@SAGAB_W$$QAPAU_iobuf@@@Z 100649d0 f i libucrtd:output.obj
 0001:000639f0       ??$read_va_arg@C@__crt_stdio_output@@YACAAPAD@Z 100649f0 f i libucrtd:output.obj
 0001:00063a10       ??$read_va_arg@E@__crt_stdio_output@@YAEAAPAD@Z 10064a10 f i libucrtd:output.obj
 0001:00063a30       ??$read_va_arg@F@__crt_stdio_output@@YAFAAPAD@Z 10064a30 f i libucrtd:output.obj
 0001:00063a50       ??$read_va_arg@G@__crt_stdio_output@@YAGAAPAD@Z 10064a50 f i libucrtd:output.obj
 0001:00063a70       ??$read_va_arg@H@__crt_stdio_output@@YAHAAPAD@Z 10064a70 f i libucrtd:output.obj
 0001:00063a90       ??$read_va_arg@I@__crt_stdio_output@@YAIAAPAD@Z 10064a90 f i libucrtd:output.obj
 0001:00063ab0       ??$read_va_arg@PAD@__crt_stdio_output@@YAPADAAPAD@Z 10064ab0 f i libucrtd:output.obj
 0001:00063c50       ??$read_va_arg@PAX@__crt_stdio_output@@YAPAXAAPAD@Z 10064c50 f i libucrtd:output.obj
 0001:00063c70       ??$read_va_arg@U_CRT_DOUBLE@@@__crt_stdio_output@@YA?AU_CRT_DOUBLE@@AAPAD@Z 10064c70 f i libucrtd:output.obj
 0001:00063c90       ??$read_va_arg@_J@__crt_stdio_output@@YA_JAAPAD@Z 10064c90 f i libucrtd:output.obj
 0001:00063cb0       ??$read_va_arg@_K@__crt_stdio_output@@YA_KAAPAD@Z 10064cb0 f i libucrtd:output.obj
 0001:00063cd0       ??$read_va_arg@_W@__crt_stdio_output@@YA_WAAPAD@Z 10064cd0 f i libucrtd:output.obj
 0001:00063cf0       ??$scratch_count@D@formatting_buffer@__crt_stdio_output@@QBEIXZ 10064cf0 f i libucrtd:output.obj
 0001:00063d10       ??$scratch_data@D@formatting_buffer@__crt_stdio_output@@QAEPADXZ 10064d10 f i libucrtd:output.obj
 0001:00063d60       ??$tcstol@AAPBDPAPADH@?$__crt_char_traits@D@@SAJAAPBD$$QAPAPAD$$QAH@Z 10064d60 f i libucrtd:output.obj
 0001:00063d90       ??$tcstol@AAPB_WPAPA_WH@?$__crt_char_traits@_W@@SAJAAPB_W$$QAPAPA_W$$QAH@Z 10064d90 f i libucrtd:output.obj
 0001:00063dc0       ??$tcstol@PBDPAPADH@?$__crt_char_traits@D@@SAJ$$QAPBD$$QAPAPAD$$QAH@Z 10064dc0 f i libucrtd:output.obj
 0001:00063df0       ??$tcstol@PB_WPAPA_WH@?$__crt_char_traits@_W@@SAJ$$QAPB_W$$QAPAPA_W$$QAH@Z 10064df0 f i libucrtd:output.obj
 0001:00063e20       ??$type_case_integer_parse_into_buffer@I@?$output_processor@DV?$stream_output_adapter@D@__crt_stdio_output@@V?$format_validation_base@DV?$stream_output_adapter@D@__crt_stdio_output@@@2@@__crt_stdio_output@@AAEXII_N@Z 10064e20 f i libucrtd:output.obj
 0001:00063ef0       ??$type_case_integer_parse_into_buffer@I@?$output_processor@DV?$stream_output_adapter@D@__crt_stdio_output@@V?$positional_parameter_base@DV?$stream_output_adapter@D@__crt_stdio_output@@@2@@__crt_stdio_output@@AAEXII_N@Z 10064ef0 f i libucrtd:output.obj
 0001:00063fc0       ??$type_case_integer_parse_into_buffer@I@?$output_processor@DV?$stream_output_adapter@D@__crt_stdio_output@@V?$standard_base@DV?$stream_output_adapter@D@__crt_stdio_output@@@2@@__crt_stdio_output@@AAEXII_N@Z 10064fc0 f i libucrtd:output.obj
 0001:00064090       ??$type_case_integer_parse_into_buffer@I@?$output_processor@DV?$string_output_adapter@D@__crt_stdio_output@@V?$format_validation_base@DV?$string_output_adapter@D@__crt_stdio_output@@@2@@__crt_stdio_output@@AAEXII_N@Z 10065090 f i libucrtd:output.obj
 0001:00064160       ??$type_case_integer_parse_into_buffer@I@?$output_processor@DV?$string_output_adapter@D@__crt_stdio_output@@V?$positional_parameter_base@DV?$string_output_adapter@D@__crt_stdio_output@@@2@@__crt_stdio_output@@AAEXII_N@Z 10065160 f i libucrtd:output.obj
 0001:00064230       ??$type_case_integer_parse_into_buffer@I@?$output_processor@DV?$string_output_adapter@D@__crt_stdio_output@@V?$standard_base@DV?$string_output_adapter@D@__crt_stdio_output@@@2@@__crt_stdio_output@@AAEXII_N@Z 10065230 f i libucrtd:output.obj
 0001:00064300       ??$type_case_integer_parse_into_buffer@I@?$output_processor@_WV?$stream_output_adapter@_W@__crt_stdio_output@@V?$format_validation_base@_WV?$stream_output_adapter@_W@__crt_stdio_output@@@2@@__crt_stdio_output@@AAEXII_N@Z 10065300 f i libucrtd:output.obj
 0001:000643e0       ??$type_case_integer_parse_into_buffer@I@?$output_processor@_WV?$stream_output_adapter@_W@__crt_stdio_output@@V?$positional_parameter_base@_WV?$stream_output_adapter@_W@__crt_stdio_output@@@2@@__crt_stdio_output@@AAEXII_N@Z 100653e0 f i libucrtd:output.obj
 0001:000644c0       ??$type_case_integer_parse_into_buffer@I@?$output_processor@_WV?$stream_output_adapter@_W@__crt_stdio_output@@V?$standard_base@_WV?$stream_output_adapter@_W@__crt_stdio_output@@@2@@__crt_stdio_output@@AAEXII_N@Z 100654c0 f i libucrtd:output.obj
 0001:000645a0       ??$type_case_integer_parse_into_buffer@I@?$output_processor@_WV?$string_output_adapter@_W@__crt_stdio_output@@V?$format_validation_base@_WV?$string_output_adapter@_W@__crt_stdio_output@@@2@@__crt_stdio_output@@AAEXII_N@Z 100655a0 f i libucrtd:output.obj
 0001:00064680       ??$type_case_integer_parse_into_buffer@I@?$output_processor@_WV?$string_output_adapter@_W@__crt_stdio_output@@V?$positional_parameter_base@_WV?$string_output_adapter@_W@__crt_stdio_output@@@2@@__crt_stdio_output@@AAEXII_N@Z 10065680 f i libucrtd:output.obj
 0001:00064760       ??$type_case_integer_parse_into_buffer@I@?$output_processor@_WV?$string_output_adapter@_W@__crt_stdio_output@@V?$standard_base@_WV?$string_output_adapter@_W@__crt_stdio_output@@@2@@__crt_stdio_output@@AAEXII_N@Z 10065760 f i libucrtd:output.obj
 0001:00064840       ??$type_case_integer_parse_into_buffer@_K@?$output_processor@DV?$stream_output_adapter@D@__crt_stdio_output@@V?$format_validation_base@DV?$stream_output_adapter@D@__crt_stdio_output@@@2@@__crt_stdio_output@@AAEX_KI_N@Z 10065840 f i libucrtd:output.obj
 0001:00064940       ??$type_case_integer_parse_into_buffer@_K@?$output_processor@DV?$stream_output_adapter@D@__crt_stdio_output@@V?$positional_parameter_base@DV?$stream_output_adapter@D@__crt_stdio_output@@@2@@__crt_stdio_output@@AAEX_KI_N@Z 10065940 f i libucrtd:output.obj
 0001:00064a40       ??$type_case_integer_parse_into_buffer@_K@?$output_processor@DV?$stream_output_adapter@D@__crt_stdio_output@@V?$standard_base@DV?$stream_output_adapter@D@__crt_stdio_output@@@2@@__crt_stdio_output@@AAEX_KI_N@Z 10065a40 f i libucrtd:output.obj
 0001:00064b40       ??$type_case_integer_parse_into_buffer@_K@?$output_processor@DV?$string_output_adapter@D@__crt_stdio_output@@V?$format_validation_base@DV?$string_output_adapter@D@__crt_stdio_output@@@2@@__crt_stdio_output@@AAEX_KI_N@Z 10065b40 f i libucrtd:output.obj
 0001:00064c40       ??$type_case_integer_parse_into_buffer@_K@?$output_processor@DV?$string_output_adapter@D@__crt_stdio_output@@V?$positional_parameter_base@DV?$string_output_adapter@D@__crt_stdio_output@@@2@@__crt_stdio_output@@AAEX_KI_N@Z 10065c40 f i libucrtd:output.obj
 0001:00064d40       ??$type_case_integer_parse_into_buffer@_K@?$output_processor@DV?$string_output_adapter@D@__crt_stdio_output@@V?$standard_base@DV?$string_output_adapter@D@__crt_stdio_output@@@2@@__crt_stdio_output@@AAEX_KI_N@Z 10065d40 f i libucrtd:output.obj
 0001:00064e40       ??$type_case_integer_parse_into_buffer@_K@?$output_processor@_WV?$stream_output_adapter@_W@__crt_stdio_output@@V?$format_validation_base@_WV?$stream_output_adapter@_W@__crt_stdio_output@@@2@@__crt_stdio_output@@AAEX_KI_N@Z 10065e40 f i libucrtd:output.obj
 0001:00064f40       ??$type_case_integer_parse_into_buffer@_K@?$output_processor@_WV?$stream_output_adapter@_W@__crt_stdio_output@@V?$positional_parameter_base@_WV?$stream_output_adapter@_W@__crt_stdio_output@@@2@@__crt_stdio_output@@AAEX_KI_N@Z 10065f40 f i libucrtd:output.obj
 0001:00065040       ??$type_case_integer_parse_into_buffer@_K@?$output_processor@_WV?$stream_output_adapter@_W@__crt_stdio_output@@V?$standard_base@_WV?$stream_output_adapter@_W@__crt_stdio_output@@@2@@__crt_stdio_output@@AAEX_KI_N@Z 10066040 f i libucrtd:output.obj
 0001:00065140       ??$type_case_integer_parse_into_buffer@_K@?$output_processor@_WV?$string_output_adapter@_W@__crt_stdio_output@@V?$format_validation_base@_WV?$string_output_adapter@_W@__crt_stdio_output@@@2@@__crt_stdio_output@@AAEX_KI_N@Z 10066140 f i libucrtd:output.obj
 0001:00065240       ??$type_case_integer_parse_into_buffer@_K@?$output_processor@_WV?$string_output_adapter@_W@__crt_stdio_output@@V?$positional_parameter_base@_WV?$string_output_adapter@_W@__crt_stdio_output@@@2@@__crt_stdio_output@@AAEX_KI_N@Z 10066240 f i libucrtd:output.obj
 0001:00065340       ??$type_case_integer_parse_into_buffer@_K@?$output_processor@_WV?$string_output_adapter@_W@__crt_stdio_output@@V?$standard_base@_WV?$string_output_adapter@_W@__crt_stdio_output@@@2@@__crt_stdio_output@@AAEX_KI_N@Z 10066340 f i libucrtd:output.obj
 0001:00065440       ??$write_multiple_characters@V?$stream_output_adapter@D@__crt_stdio_output@@D@__crt_stdio_output@@YAXABV?$stream_output_adapter@D@0@DHQAH@Z 10066440 f i libucrtd:output.obj
 0001:00065490       ??$write_multiple_characters@V?$stream_output_adapter@_W@__crt_stdio_output@@D@__crt_stdio_output@@YAXABV?$stream_output_adapter@_W@0@DHQAH@Z 10066490 f i libucrtd:output.obj
 0001:000654e0       ??$write_multiple_characters@V?$string_output_adapter@D@__crt_stdio_output@@D@__crt_stdio_output@@YAXABV?$string_output_adapter@D@0@DHQAH@Z 100664e0 f i libucrtd:output.obj
 0001:00065530       ??$write_multiple_characters@V?$string_output_adapter@_W@__crt_stdio_output@@D@__crt_stdio_output@@YAXABV?$string_output_adapter@_W@0@DHQAH@Z 10066530 f i libucrtd:output.obj
 0001:00065880       ??0?$common_data@D@__crt_stdio_output@@IAE@XZ 10066880 f i libucrtd:output.obj
 0001:00065930       ??0?$common_data@_W@__crt_stdio_output@@IAE@XZ 10066930 f i libucrtd:output.obj
 0001:000659e0       ??0?$output_adapter_data@DV?$stream_output_adapter@D@__crt_stdio_output@@@__crt_stdio_output@@IAE@ABV?$stream_output_adapter@D@1@_KQBDQAU__crt_locale_pointers@@QAD@Z 100669e0 f i libucrtd:output.obj
 0001:00065a40       ??0?$output_adapter_data@DV?$string_output_adapter@D@__crt_stdio_output@@@__crt_stdio_output@@IAE@ABV?$string_output_adapter@D@1@_KQBDQAU__crt_locale_pointers@@QAD@Z 10066a40 f i libucrtd:output.obj
 0001:00065aa0       ??0?$output_adapter_data@_WV?$stream_output_adapter@_W@__crt_stdio_output@@@__crt_stdio_output@@IAE@ABV?$stream_output_adapter@_W@1@_KQB_WQAU__crt_locale_pointers@@QAD@Z 10066aa0 f i libucrtd:output.obj
 0001:00065b00       ??0?$output_adapter_data@_WV?$string_output_adapter@_W@__crt_stdio_output@@@__crt_stdio_output@@IAE@ABV?$string_output_adapter@_W@1@_KQB_WQAU__crt_locale_pointers@@QAD@Z 10066b00 f i libucrtd:output.obj
 0001:00065b60       ??0?$output_processor@DV?$stream_output_adapter@D@__crt_stdio_output@@V?$format_validation_base@DV?$stream_output_adapter@D@__crt_stdio_output@@@2@@__crt_stdio_output@@QAE@ABV?$stream_output_adapter@D@1@_KQBDQAU__crt_locale_pointers@@QAD@Z 10066b60 f i libucrtd:output.obj
 0001:00065b90       ??0?$output_processor@DV?$stream_output_adapter@D@__crt_stdio_output@@V?$positional_parameter_base@DV?$stream_output_adapter@D@__crt_stdio_output@@@2@@__crt_stdio_output@@QAE@ABV?$stream_output_adapter@D@1@_KQBDQAU__crt_locale_pointers@@QAD@Z 10066b90 f i libucrtd:output.obj
 0001:00065bc0       ??0?$output_processor@DV?$stream_output_adapter@D@__crt_stdio_output@@V?$standard_base@DV?$stream_output_adapter@D@__crt_stdio_output@@@2@@__crt_stdio_output@@QAE@ABV?$stream_output_adapter@D@1@_KQBDQAU__crt_locale_pointers@@QAD@Z 10066bc0 f i libucrtd:output.obj
 0001:00065bf0       ??0?$output_processor@DV?$string_output_adapter@D@__crt_stdio_output@@V?$format_validation_base@DV?$string_output_adapter@D@__crt_stdio_output@@@2@@__crt_stdio_output@@QAE@ABV?$string_output_adapter@D@1@_KQBDQAU__crt_locale_pointers@@QAD@Z 10066bf0 f i libucrtd:output.obj
 0001:00065c20       ??0?$output_processor@DV?$string_output_adapter@D@__crt_stdio_output@@V?$positional_parameter_base@DV?$string_output_adapter@D@__crt_stdio_output@@@2@@__crt_stdio_output@@QAE@ABV?$string_output_adapter@D@1@_KQBDQAU__crt_locale_pointers@@QAD@Z 10066c20 f i libucrtd:output.obj
 0001:00065c50       ??0?$output_processor@DV?$string_output_adapter@D@__crt_stdio_output@@V?$standard_base@DV?$string_output_adapter@D@__crt_stdio_output@@@2@@__crt_stdio_output@@QAE@ABV?$string_output_adapter@D@1@_KQBDQAU__crt_locale_pointers@@QAD@Z 10066c50 f i libucrtd:output.obj
 0001:00065c80       ??0?$output_processor@_WV?$stream_output_adapter@_W@__crt_stdio_output@@V?$format_validation_base@_WV?$stream_output_adapter@_W@__crt_stdio_output@@@2@@__crt_stdio_output@@QAE@ABV?$stream_output_adapter@_W@1@_KQB_WQAU__crt_locale_pointers@@QAD@Z 10066c80 f i libucrtd:output.obj
 0001:00065cb0       ??0?$output_processor@_WV?$stream_output_adapter@_W@__crt_stdio_output@@V?$positional_parameter_base@_WV?$stream_output_adapter@_W@__crt_stdio_output@@@2@@__crt_stdio_output@@QAE@ABV?$stream_output_adapter@_W@1@_KQB_WQAU__crt_locale_pointers@@QAD@Z 10066cb0 f i libucrtd:output.obj
 0001:00065ce0       ??0?$output_processor@_WV?$stream_output_adapter@_W@__crt_stdio_output@@V?$standard_base@_WV?$stream_output_adapter@_W@__crt_stdio_output@@@2@@__crt_stdio_output@@QAE@ABV?$stream_output_adapter@_W@1@_KQB_WQAU__crt_locale_pointers@@QAD@Z 10066ce0 f i libucrtd:output.obj
 0001:00065d10       ??0?$output_processor@_WV?$string_output_adapter@_W@__crt_stdio_output@@V?$format_validation_base@_WV?$string_output_adapter@_W@__crt_stdio_output@@@2@@__crt_stdio_output@@QAE@ABV?$string_output_adapter@_W@1@_KQB_WQAU__crt_locale_pointers@@QAD@Z 10066d10 f i libucrtd:output.obj
 0001:00065d40       ??0?$output_processor@_WV?$string_output_adapter@_W@__crt_stdio_output@@V?$positional_parameter_base@_WV?$string_output_adapter@_W@__crt_stdio_output@@@2@@__crt_stdio_output@@QAE@ABV?$string_output_adapter@_W@1@_KQB_WQAU__crt_locale_pointers@@QAD@Z 10066d40 f i libucrtd:output.obj
 0001:00065d70       ??0?$output_processor@_WV?$string_output_adapter@_W@__crt_stdio_output@@V?$standard_base@_WV?$string_output_adapter@_W@__crt_stdio_output@@@2@@__crt_stdio_output@@QAE@ABV?$string_output_adapter@_W@1@_KQB_WQAU__crt_locale_pointers@@QAD@Z 10066d70 f i libucrtd:output.obj
 0001:00065da0       ??0?$stream_output_adapter@D@__crt_stdio_output@@QAE@QAU_iobuf@@@Z 10066da0 f i libucrtd:output.obj
 0001:00065dc0       ??0?$stream_output_adapter@_W@__crt_stdio_output@@QAE@QAU_iobuf@@@Z 10066dc0 f i libucrtd:output.obj
 0001:00065de0       ??0?$string_output_adapter@D@__crt_stdio_output@@QAE@QAU?$string_output_adapter_context@D@1@@Z 10066de0 f i libucrtd:output.obj
 0001:00065e00       ??0?$string_output_adapter@_W@__crt_stdio_output@@QAE@QAU?$string_output_adapter_context@_W@1@@Z 10066e00 f i libucrtd:output.obj
 0001:00065e20       ??0_LocaleUpdate@@QAE@QAU__crt_locale_pointers@@@Z 10066e20 f i libucrtd:output.obj
 0001:00065f00       ??0__acrt_stdio_temporary_buffering_guard@@QAE@QAU_iobuf@@@Z 10066f00 f i libucrtd:output.obj
 0001:00065f30       ??0__crt_deferred_errno_cache@@QAE@XZ 10066f30 f i libucrtd:output.obj
 0001:00065f50       ??0__crt_errno_guard@@QAE@QAH@Z 10066f50 f i libucrtd:output.obj
 0001:00065f80       ??0formatting_buffer@__crt_stdio_output@@QAE@XZ 10066f80 f i libucrtd:output.obj
 0001:00065fb0       ??1?$common_data@D@__crt_stdio_output@@QAE@XZ 10066fb0 f i libucrtd:output.obj
 0001:00065fd0       ??1?$common_data@_W@__crt_stdio_output@@QAE@XZ 10066fd0 f i libucrtd:output.obj
 0001:00065ff0       ??1?$format_validation_base@DV?$stream_output_adapter@D@__crt_stdio_output@@@__crt_stdio_output@@QAE@XZ 10066ff0 f i libucrtd:output.obj
 0001:00066010       ??1?$format_validation_base@DV?$string_output_adapter@D@__crt_stdio_output@@@__crt_stdio_output@@QAE@XZ 10067010 f i libucrtd:output.obj
 0001:00066030       ??1?$format_validation_base@_WV?$stream_output_adapter@_W@__crt_stdio_output@@@__crt_stdio_output@@QAE@XZ 10067030 f i libucrtd:output.obj
 0001:00066050       ??1?$format_validation_base@_WV?$string_output_adapter@_W@__crt_stdio_output@@@__crt_stdio_output@@QAE@XZ 10067050 f i libucrtd:output.obj
 0001:00066070       ??1?$output_adapter_data@DV?$stream_output_adapter@D@__crt_stdio_output@@@__crt_stdio_output@@QAE@XZ 10067070 f i libucrtd:output.obj
 0001:00066090       ??1?$output_adapter_data@DV?$string_output_adapter@D@__crt_stdio_output@@@__crt_stdio_output@@QAE@XZ 10067090 f i libucrtd:output.obj
 0001:000660b0       ??1?$output_adapter_data@_WV?$stream_output_adapter@_W@__crt_stdio_output@@@__crt_stdio_output@@QAE@XZ 100670b0 f i libucrtd:output.obj
 0001:000660d0       ??1?$output_adapter_data@_WV?$string_output_adapter@_W@__crt_stdio_output@@@__crt_stdio_output@@QAE@XZ 100670d0 f i libucrtd:output.obj
 0001:000660f0       ??1?$output_processor@DV?$stream_output_adapter@D@__crt_stdio_output@@V?$format_validation_base@DV?$stream_output_adapter@D@__crt_stdio_output@@@2@@__crt_stdio_output@@QAE@XZ 100670f0 f i libucrtd:output.obj
 0001:00066110       ??1?$output_processor@DV?$stream_output_adapter@D@__crt_stdio_output@@V?$positional_parameter_base@DV?$stream_output_adapter@D@__crt_stdio_output@@@2@@__crt_stdio_output@@QAE@XZ 10067110 f i libucrtd:output.obj
 0001:00066130       ??1?$output_processor@DV?$stream_output_adapter@D@__crt_stdio_output@@V?$standard_base@DV?$stream_output_adapter@D@__crt_stdio_output@@@2@@__crt_stdio_output@@QAE@XZ 10067130 f i libucrtd:output.obj
 0001:00066150       ??1?$output_processor@DV?$string_output_adapter@D@__crt_stdio_output@@V?$format_validation_base@DV?$string_output_adapter@D@__crt_stdio_output@@@2@@__crt_stdio_output@@QAE@XZ 10067150 f i libucrtd:output.obj
 0001:00066170       ??1?$output_processor@DV?$string_output_adapter@D@__crt_stdio_output@@V?$positional_parameter_base@DV?$string_output_adapter@D@__crt_stdio_output@@@2@@__crt_stdio_output@@QAE@XZ 10067170 f i libucrtd:output.obj
 0001:00066190       ??1?$output_processor@DV?$string_output_adapter@D@__crt_stdio_output@@V?$standard_base@DV?$string_output_adapter@D@__crt_stdio_output@@@2@@__crt_stdio_output@@QAE@XZ 10067190 f i libucrtd:output.obj
 0001:000661b0       ??1?$output_processor@_WV?$stream_output_adapter@_W@__crt_stdio_output@@V?$format_validation_base@_WV?$stream_output_adapter@_W@__crt_stdio_output@@@2@@__crt_stdio_output@@QAE@XZ 100671b0 f i libucrtd:output.obj
 0001:000661d0       ??1?$output_processor@_WV?$stream_output_adapter@_W@__crt_stdio_output@@V?$positional_parameter_base@_WV?$stream_output_adapter@_W@__crt_stdio_output@@@2@@__crt_stdio_output@@QAE@XZ 100671d0 f i libucrtd:output.obj
 0001:000661f0       ??1?$output_processor@_WV?$stream_output_adapter@_W@__crt_stdio_output@@V?$standard_base@_WV?$stream_output_adapter@_W@__crt_stdio_output@@@2@@__crt_stdio_output@@QAE@XZ 100671f0 f i libucrtd:output.obj
 0001:00066210       ??1?$output_processor@_WV?$string_output_adapter@_W@__crt_stdio_output@@V?$format_validation_base@_WV?$string_output_adapter@_W@__crt_stdio_output@@@2@@__crt_stdio_output@@QAE@XZ 10067210 f i libucrtd:output.obj
 0001:00066230       ??1?$output_processor@_WV?$string_output_adapter@_W@__crt_stdio_output@@V?$positional_parameter_base@_WV?$string_output_adapter@_W@__crt_stdio_output@@@2@@__crt_stdio_output@@QAE@XZ 10067230 f i libucrtd:output.obj
 0001:00066250       ??1?$output_processor@_WV?$string_output_adapter@_W@__crt_stdio_output@@V?$standard_base@_WV?$string_output_adapter@_W@__crt_stdio_output@@@2@@__crt_stdio_output@@QAE@XZ 10067250 f i libucrtd:output.obj
 0001:00066270       ??1?$positional_parameter_base@DV?$stream_output_adapter@D@__crt_stdio_output@@@__crt_stdio_output@@QAE@XZ 10067270 f i libucrtd:output.obj
 0001:00066290       ??1?$positional_parameter_base@DV?$string_output_adapter@D@__crt_stdio_output@@@__crt_stdio_output@@QAE@XZ 10067290 f i libucrtd:output.obj
 0001:000662b0       ??1?$positional_parameter_base@_WV?$stream_output_adapter@_W@__crt_stdio_output@@@__crt_stdio_output@@QAE@XZ 100672b0 f i libucrtd:output.obj
 0001:000662d0       ??1?$positional_parameter_base@_WV?$string_output_adapter@_W@__crt_stdio_output@@@__crt_stdio_output@@QAE@XZ 100672d0 f i libucrtd:output.obj
 0001:000662f0       ??1?$standard_base@DV?$stream_output_adapter@D@__crt_stdio_output@@@__crt_stdio_output@@QAE@XZ 100672f0 f i libucrtd:output.obj
 0001:00066310       ??1?$standard_base@DV?$string_output_adapter@D@__crt_stdio_output@@@__crt_stdio_output@@QAE@XZ 10067310 f i libucrtd:output.obj
 0001:00066330       ??1?$standard_base@_WV?$stream_output_adapter@_W@__crt_stdio_output@@@__crt_stdio_output@@QAE@XZ 10067330 f i libucrtd:output.obj
 0001:00066350       ??1?$standard_base@_WV?$string_output_adapter@_W@__crt_stdio_output@@@__crt_stdio_output@@QAE@XZ 10067350 f i libucrtd:output.obj
 0001:00066370       ??1_LocaleUpdate@@QAE@XZ   10067370 f i libucrtd:output.obj
 0001:000663b0       ??1__acrt_stdio_temporary_buffering_guard@@QAE@XZ 100673b0 f i libucrtd:output.obj
 0001:000663e0       ??1__crt_errno_guard@@QAE@XZ 100673e0 f i libucrtd:output.obj
 0001:00066410       ??1formatting_buffer@__crt_stdio_output@@QAE@XZ 10067410 f i libucrtd:output.obj
 0001:00066430       ??4?$__crt_unique_heap_ptr@DU__crt_internal_free_policy@@@@QAEAAV0@$$QAV0@@Z 10067430 f i libucrtd:output.obj
 0001:00066b80       ?GetLocaleT@_LocaleUpdate@@QAEPAU__crt_locale_pointers@@XZ 10067b80 f i libucrtd:output.obj
 0001:00066ba0       ?adjust_hexit@?$output_processor@DV?$stream_output_adapter@D@__crt_stdio_output@@V?$format_validation_base@DV?$stream_output_adapter@D@__crt_stdio_output@@@2@@__crt_stdio_output@@CADH_N@Z 10067ba0 f i libucrtd:output.obj
 0001:00066be0       ?adjust_hexit@?$output_processor@DV?$stream_output_adapter@D@__crt_stdio_output@@V?$positional_parameter_base@DV?$stream_output_adapter@D@__crt_stdio_output@@@2@@__crt_stdio_output@@CADH_N@Z 10067be0 f i libucrtd:output.obj
 0001:00066c20       ?adjust_hexit@?$output_processor@DV?$stream_output_adapter@D@__crt_stdio_output@@V?$standard_base@DV?$stream_output_adapter@D@__crt_stdio_output@@@2@@__crt_stdio_output@@CADH_N@Z 10067c20 f i libucrtd:output.obj
 0001:00066c60       ?adjust_hexit@?$output_processor@DV?$string_output_adapter@D@__crt_stdio_output@@V?$format_validation_base@DV?$string_output_adapter@D@__crt_stdio_output@@@2@@__crt_stdio_output@@CADH_N@Z 10067c60 f i libucrtd:output.obj
 0001:00066ca0       ?adjust_hexit@?$output_processor@DV?$string_output_adapter@D@__crt_stdio_output@@V?$positional_parameter_base@DV?$string_output_adapter@D@__crt_stdio_output@@@2@@__crt_stdio_output@@CADH_N@Z 10067ca0 f i libucrtd:output.obj
 0001:00066ce0       ?adjust_hexit@?$output_processor@DV?$string_output_adapter@D@__crt_stdio_output@@V?$standard_base@DV?$string_output_adapter@D@__crt_stdio_output@@@2@@__crt_stdio_output@@CADH_N@Z 10067ce0 f i libucrtd:output.obj
 0001:00066d20       ?adjust_hexit@?$output_processor@_WV?$stream_output_adapter@_W@__crt_stdio_output@@V?$format_validation_base@_WV?$stream_output_adapter@_W@__crt_stdio_output@@@2@@__crt_stdio_output@@CADH_N@Z 10067d20 f i libucrtd:output.obj
 0001:00066d60       ?adjust_hexit@?$output_processor@_WV?$stream_output_adapter@_W@__crt_stdio_output@@V?$positional_parameter_base@_WV?$stream_output_adapter@_W@__crt_stdio_output@@@2@@__crt_stdio_output@@CADH_N@Z 10067d60 f i libucrtd:output.obj
 0001:00066da0       ?adjust_hexit@?$output_processor@_WV?$stream_output_adapter@_W@__crt_stdio_output@@V?$standard_base@_WV?$stream_output_adapter@_W@__crt_stdio_output@@@2@@__crt_stdio_output@@CADH_N@Z 10067da0 f i libucrtd:output.obj
 0001:00066de0       ?adjust_hexit@?$output_processor@_WV?$string_output_adapter@_W@__crt_stdio_output@@V?$format_validation_base@_WV?$string_output_adapter@_W@__crt_stdio_output@@@2@@__crt_stdio_output@@CADH_N@Z 10067de0 f i libucrtd:output.obj
 0001:00066e20       ?adjust_hexit@?$output_processor@_WV?$string_output_adapter@_W@__crt_stdio_output@@V?$positional_parameter_base@_WV?$string_output_adapter@_W@__crt_stdio_output@@@2@@__crt_stdio_output@@CADH_N@Z 10067e20 f i libucrtd:output.obj
 0001:00066e60       ?adjust_hexit@?$output_processor@_WV?$string_output_adapter@_W@__crt_stdio_output@@V?$standard_base@_WV?$string_output_adapter@_W@__crt_stdio_output@@@2@@__crt_stdio_output@@CADH_N@Z 10067e60 f i libucrtd:output.obj
 0001:00066ea0       ?advance_to_next_pass@?$positional_parameter_base@DV?$stream_output_adapter@D@__crt_stdio_output@@@__crt_stdio_output@@IAE_NXZ 10067ea0 f i libucrtd:output.obj
 0001:00066f40       ?advance_to_next_pass@?$positional_parameter_base@DV?$string_output_adapter@D@__crt_stdio_output@@@__crt_stdio_output@@IAE_NXZ 10067f40 f i libucrtd:output.obj
 0001:00066fe0       ?advance_to_next_pass@?$positional_parameter_base@_WV?$stream_output_adapter@_W@__crt_stdio_output@@@__crt_stdio_output@@IAE_NXZ 10067fe0 f i libucrtd:output.obj
 0001:00067080       ?advance_to_next_pass@?$positional_parameter_base@_WV?$string_output_adapter@_W@__crt_stdio_output@@@__crt_stdio_output@@IAE_NXZ 10068080 f i libucrtd:output.obj
 0001:00067120       ?advance_to_next_pass@?$standard_base@DV?$stream_output_adapter@D@__crt_stdio_output@@@__crt_stdio_output@@IAE_NXZ 10068120 f i libucrtd:output.obj
 0001:00067170       ?advance_to_next_pass@?$standard_base@DV?$string_output_adapter@D@__crt_stdio_output@@@__crt_stdio_output@@IAE_NXZ 10068170 f i libucrtd:output.obj
 0001:000671c0       ?advance_to_next_pass@?$standard_base@_WV?$stream_output_adapter@_W@__crt_stdio_output@@@__crt_stdio_output@@IAE_NXZ 100681c0 f i libucrtd:output.obj
 0001:00067210       ?advance_to_next_pass@?$standard_base@_WV?$string_output_adapter@_W@__crt_stdio_output@@@__crt_stdio_output@@IAE_NXZ 10068210 f i libucrtd:output.obj
 0001:00067260       ?crop_zeroes@__crt_stdio_output@@YAXPADQAU__crt_locale_pointers@@@Z 10068260 f i libucrtd:output.obj
 0001:00067360       ?find_next_state@?$output_processor@DV?$stream_output_adapter@D@__crt_stdio_output@@V?$format_validation_base@DV?$stream_output_adapter@D@__crt_stdio_output@@@2@@__crt_stdio_output@@ABE?AW4state@2@DW432@@Z 10068360 f i libucrtd:output.obj
 0001:000673e0       ?find_next_state@?$output_processor@DV?$stream_output_adapter@D@__crt_stdio_output@@V?$positional_parameter_base@DV?$stream_output_adapter@D@__crt_stdio_output@@@2@@__crt_stdio_output@@ABE?AW4state@2@DW432@@Z 100683e0 f i libucrtd:output.obj
 0001:00067460       ?find_next_state@?$output_processor@DV?$stream_output_adapter@D@__crt_stdio_output@@V?$standard_base@DV?$stream_output_adapter@D@__crt_stdio_output@@@2@@__crt_stdio_output@@ABE?AW4state@2@DW432@@Z 10068460 f i libucrtd:output.obj
 0001:000674e0       ?find_next_state@?$output_processor@DV?$string_output_adapter@D@__crt_stdio_output@@V?$format_validation_base@DV?$string_output_adapter@D@__crt_stdio_output@@@2@@__crt_stdio_output@@ABE?AW4state@2@DW432@@Z 100684e0 f i libucrtd:output.obj
 0001:00067560       ?find_next_state@?$output_processor@DV?$string_output_adapter@D@__crt_stdio_output@@V?$positional_parameter_base@DV?$string_output_adapter@D@__crt_stdio_output@@@2@@__crt_stdio_output@@ABE?AW4state@2@DW432@@Z 10068560 f i libucrtd:output.obj
 0001:000675e0       ?find_next_state@?$output_processor@DV?$string_output_adapter@D@__crt_stdio_output@@V?$standard_base@DV?$string_output_adapter@D@__crt_stdio_output@@@2@@__crt_stdio_output@@ABE?AW4state@2@DW432@@Z 100685e0 f i libucrtd:output.obj
 0001:00067660       ?find_next_state@?$output_processor@_WV?$stream_output_adapter@_W@__crt_stdio_output@@V?$format_validation_base@_WV?$stream_output_adapter@_W@__crt_stdio_output@@@2@@__crt_stdio_output@@ABE?AW4state@2@_WW432@@Z 10068660 f i libucrtd:output.obj
 0001:000676e0       ?find_next_state@?$output_processor@_WV?$stream_output_adapter@_W@__crt_stdio_output@@V?$positional_parameter_base@_WV?$stream_output_adapter@_W@__crt_stdio_output@@@2@@__crt_stdio_output@@ABE?AW4state@2@_WW432@@Z 100686e0 f i libucrtd:output.obj
 0001:00067760       ?find_next_state@?$output_processor@_WV?$stream_output_adapter@_W@__crt_stdio_output@@V?$standard_base@_WV?$stream_output_adapter@_W@__crt_stdio_output@@@2@@__crt_stdio_output@@ABE?AW4state@2@_WW432@@Z 10068760 f i libucrtd:output.obj
 0001:000677e0       ?find_next_state@?$output_processor@_WV?$string_output_adapter@_W@__crt_stdio_output@@V?$format_validation_base@_WV?$string_output_adapter@_W@__crt_stdio_output@@@2@@__crt_stdio_output@@ABE?AW4state@2@_WW432@@Z 100687e0 f i libucrtd:output.obj
 0001:00067860       ?find_next_state@?$output_processor@_WV?$string_output_adapter@_W@__crt_stdio_output@@V?$positional_parameter_base@_WV?$string_output_adapter@_W@__crt_stdio_output@@@2@@__crt_stdio_output@@ABE?AW4state@2@_WW432@@Z 10068860 f i libucrtd:output.obj
 0001:000678e0       ?find_next_state@?$output_processor@_WV?$string_output_adapter@_W@__crt_stdio_output@@V?$standard_base@_WV?$string_output_adapter@_W@__crt_stdio_output@@@2@@__crt_stdio_output@@ABE?AW4state@2@_WW432@@Z 100688e0 f i libucrtd:output.obj
 0001:00067960       ?force_decimal_point@__crt_stdio_output@@YAXPADQAU__crt_locale_pointers@@@Z 10068960 f i libucrtd:output.obj
 0001:00067a10       ?get@__crt_deferred_errno_cache@@QAEAAHXZ 10068a10 f i libucrtd:output.obj
 0001:00067a40       ?get_flags@__crt_stdio_stream@@QBEJXZ 10068a40 f i libucrtd:output.obj
 0001:00067a60       ?get_parameter_type@?$positional_parameter_base@DV?$stream_output_adapter@D@__crt_stdio_output@@@__crt_stdio_output@@CA?AW4parameter_type@12@F@Z 10068a60 f i libucrtd:output.obj
 0001:00067a70       ?get_parameter_type@?$positional_parameter_base@DV?$stream_output_adapter@D@__crt_stdio_output@@@__crt_stdio_output@@CA?AW4parameter_type@12@G@Z 10068a70 f i libucrtd:output.obj
 0001:00067a80       ?get_parameter_type@?$positional_parameter_base@DV?$stream_output_adapter@D@__crt_stdio_output@@@__crt_stdio_output@@CA?AW4parameter_type@12@H@Z 10068a80 f i libucrtd:output.obj
 0001:00067a90       ?get_parameter_type@?$positional_parameter_base@DV?$stream_output_adapter@D@__crt_stdio_output@@@__crt_stdio_output@@CA?AW4parameter_type@12@I@Z 10068a90 f i libucrtd:output.obj
 0001:00067aa0       ?get_parameter_type@?$positional_parameter_base@DV?$stream_output_adapter@D@__crt_stdio_output@@@__crt_stdio_output@@CA?AW4parameter_type@12@U_CRT_DOUBLE@@@Z 10068aa0 f i libucrtd:output.obj
 0001:00067ab0       ?get_parameter_type@?$positional_parameter_base@DV?$stream_output_adapter@D@__crt_stdio_output@@@__crt_stdio_output@@CA?AW4parameter_type@12@_J@Z 10068ab0 f i libucrtd:output.obj
 0001:00067ac0       ?get_parameter_type@?$positional_parameter_base@DV?$stream_output_adapter@D@__crt_stdio_output@@@__crt_stdio_output@@CA?AW4parameter_type@12@_K@Z 10068ac0 f i libucrtd:output.obj
 0001:00067ad0       ?get_parameter_type@?$positional_parameter_base@DV?$stream_output_adapter@D@__crt_stdio_output@@@__crt_stdio_output@@CA?AW4parameter_type@12@_W@Z 10068ad0 f i libucrtd:output.obj
 0001:00067ae0       ?get_parameter_type@?$positional_parameter_base@DV?$string_output_adapter@D@__crt_stdio_output@@@__crt_stdio_output@@CA?AW4parameter_type@12@F@Z 10068ae0 f i libucrtd:output.obj
 0001:00067af0       ?get_parameter_type@?$positional_parameter_base@DV?$string_output_adapter@D@__crt_stdio_output@@@__crt_stdio_output@@CA?AW4parameter_type@12@G@Z 10068af0 f i libucrtd:output.obj
 0001:00067b00       ?get_parameter_type@?$positional_parameter_base@DV?$string_output_adapter@D@__crt_stdio_output@@@__crt_stdio_output@@CA?AW4parameter_type@12@H@Z 10068b00 f i libucrtd:output.obj
 0001:00067b10       ?get_parameter_type@?$positional_parameter_base@DV?$string_output_adapter@D@__crt_stdio_output@@@__crt_stdio_output@@CA?AW4parameter_type@12@I@Z 10068b10 f i libucrtd:output.obj
 0001:00067b20       ?get_parameter_type@?$positional_parameter_base@DV?$string_output_adapter@D@__crt_stdio_output@@@__crt_stdio_output@@CA?AW4parameter_type@12@U_CRT_DOUBLE@@@Z 10068b20 f i libucrtd:output.obj
 0001:00067b30       ?get_parameter_type@?$positional_parameter_base@DV?$string_output_adapter@D@__crt_stdio_output@@@__crt_stdio_output@@CA?AW4parameter_type@12@_J@Z 10068b30 f i libucrtd:output.obj
 0001:00067b40       ?get_parameter_type@?$positional_parameter_base@DV?$string_output_adapter@D@__crt_stdio_output@@@__crt_stdio_output@@CA?AW4parameter_type@12@_K@Z 10068b40 f i libucrtd:output.obj
 0001:00067b50       ?get_parameter_type@?$positional_parameter_base@DV?$string_output_adapter@D@__crt_stdio_output@@@__crt_stdio_output@@CA?AW4parameter_type@12@_W@Z 10068b50 f i libucrtd:output.obj
 0001:00067b60       ?get_parameter_type@?$positional_parameter_base@_WV?$stream_output_adapter@_W@__crt_stdio_output@@@__crt_stdio_output@@CA?AW4parameter_type@12@F@Z 10068b60 f i libucrtd:output.obj
 0001:00067b70       ?get_parameter_type@?$positional_parameter_base@_WV?$stream_output_adapter@_W@__crt_stdio_output@@@__crt_stdio_output@@CA?AW4parameter_type@12@G@Z 10068b70 f i libucrtd:output.obj
 0001:00067b80       ?get_parameter_type@?$positional_parameter_base@_WV?$stream_output_adapter@_W@__crt_stdio_output@@@__crt_stdio_output@@CA?AW4parameter_type@12@H@Z 10068b80 f i libucrtd:output.obj
 0001:00067b90       ?get_parameter_type@?$positional_parameter_base@_WV?$stream_output_adapter@_W@__crt_stdio_output@@@__crt_stdio_output@@CA?AW4parameter_type@12@I@Z 10068b90 f i libucrtd:output.obj
 0001:00067ba0       ?get_parameter_type@?$positional_parameter_base@_WV?$stream_output_adapter@_W@__crt_stdio_output@@@__crt_stdio_output@@CA?AW4parameter_type@12@U_CRT_DOUBLE@@@Z 10068ba0 f i libucrtd:output.obj
 0001:00067bb0       ?get_parameter_type@?$positional_parameter_base@_WV?$stream_output_adapter@_W@__crt_stdio_output@@@__crt_stdio_output@@CA?AW4parameter_type@12@_J@Z 10068bb0 f i libucrtd:output.obj
 0001:00067bc0       ?get_parameter_type@?$positional_parameter_base@_WV?$stream_output_adapter@_W@__crt_stdio_output@@@__crt_stdio_output@@CA?AW4parameter_type@12@_K@Z 10068bc0 f i libucrtd:output.obj
 0001:00067bd0       ?get_parameter_type@?$positional_parameter_base@_WV?$stream_output_adapter@_W@__crt_stdio_output@@@__crt_stdio_output@@CA?AW4parameter_type@12@_W@Z 10068bd0 f i libucrtd:output.obj
 0001:00067be0       ?get_parameter_type@?$positional_parameter_base@_WV?$string_output_adapter@_W@__crt_stdio_output@@@__crt_stdio_output@@CA?AW4parameter_type@12@F@Z 10068be0 f i libucrtd:output.obj
 0001:00067bf0       ?get_parameter_type@?$positional_parameter_base@_WV?$string_output_adapter@_W@__crt_stdio_output@@@__crt_stdio_output@@CA?AW4parameter_type@12@G@Z 10068bf0 f i libucrtd:output.obj
 0001:00067c00       ?get_parameter_type@?$positional_parameter_base@_WV?$string_output_adapter@_W@__crt_stdio_output@@@__crt_stdio_output@@CA?AW4parameter_type@12@H@Z 10068c00 f i libucrtd:output.obj
 0001:00067c10       ?get_parameter_type@?$positional_parameter_base@_WV?$string_output_adapter@_W@__crt_stdio_output@@@__crt_stdio_output@@CA?AW4parameter_type@12@I@Z 10068c10 f i libucrtd:output.obj
 0001:00067c20       ?get_parameter_type@?$positional_parameter_base@_WV?$string_output_adapter@_W@__crt_stdio_output@@@__crt_stdio_output@@CA?AW4parameter_type@12@U_CRT_DOUBLE@@@Z 10068c20 f i libucrtd:output.obj
 0001:00067c30       ?get_parameter_type@?$positional_parameter_base@_WV?$string_output_adapter@_W@__crt_stdio_output@@@__crt_stdio_output@@CA?AW4parameter_type@12@_J@Z 10068c30 f i libucrtd:output.obj
 0001:00067c40       ?get_parameter_type@?$positional_parameter_base@_WV?$string_output_adapter@_W@__crt_stdio_output@@@__crt_stdio_output@@CA?AW4parameter_type@12@_K@Z 10068c40 f i libucrtd:output.obj
 0001:00067c50       ?get_parameter_type@?$positional_parameter_base@_WV?$string_output_adapter@_W@__crt_stdio_output@@@__crt_stdio_output@@CA?AW4parameter_type@12@_W@Z 10068c50 f i libucrtd:output.obj
 0001:00067c60       ?has_flag@?$output_processor@DV?$stream_output_adapter@D@__crt_stdio_output@@V?$format_validation_base@DV?$stream_output_adapter@D@__crt_stdio_output@@@2@@__crt_stdio_output@@ABE_NI@Z 10068c60 f i libucrtd:output.obj
 0001:00067c90       ?has_flag@?$output_processor@DV?$stream_output_adapter@D@__crt_stdio_output@@V?$positional_parameter_base@DV?$stream_output_adapter@D@__crt_stdio_output@@@2@@__crt_stdio_output@@ABE_NI@Z 10068c90 f i libucrtd:output.obj
 0001:00067cc0       ?has_flag@?$output_processor@DV?$stream_output_adapter@D@__crt_stdio_output@@V?$standard_base@DV?$stream_output_adapter@D@__crt_stdio_output@@@2@@__crt_stdio_output@@ABE_NI@Z 10068cc0 f i libucrtd:output.obj
 0001:00067cf0       ?has_flag@?$output_processor@DV?$string_output_adapter@D@__crt_stdio_output@@V?$format_validation_base@DV?$string_output_adapter@D@__crt_stdio_output@@@2@@__crt_stdio_output@@ABE_NI@Z 10068cf0 f i libucrtd:output.obj
 0001:00067d20       ?has_flag@?$output_processor@DV?$string_output_adapter@D@__crt_stdio_output@@V?$positional_parameter_base@DV?$string_output_adapter@D@__crt_stdio_output@@@2@@__crt_stdio_output@@ABE_NI@Z 10068d20 f i libucrtd:output.obj
 0001:00067d50       ?has_flag@?$output_processor@DV?$string_output_adapter@D@__crt_stdio_output@@V?$standard_base@DV?$string_output_adapter@D@__crt_stdio_output@@@2@@__crt_stdio_output@@ABE_NI@Z 10068d50 f i libucrtd:output.obj
 0001:00067d80       ?has_flag@?$output_processor@_WV?$stream_output_adapter@_W@__crt_stdio_output@@V?$format_validation_base@_WV?$stream_output_adapter@_W@__crt_stdio_output@@@2@@__crt_stdio_output@@ABE_NI@Z 10068d80 f i libucrtd:output.obj
 0001:00067db0       ?has_flag@?$output_processor@_WV?$stream_output_adapter@_W@__crt_stdio_output@@V?$positional_parameter_base@_WV?$stream_output_adapter@_W@__crt_stdio_output@@@2@@__crt_stdio_output@@ABE_NI@Z 10068db0 f i libucrtd:output.obj
 0001:00067de0       ?has_flag@?$output_processor@_WV?$stream_output_adapter@_W@__crt_stdio_output@@V?$standard_base@_WV?$stream_output_adapter@_W@__crt_stdio_output@@@2@@__crt_stdio_output@@ABE_NI@Z 10068de0 f i libucrtd:output.obj
 0001:00067e10       ?has_flag@?$output_processor@_WV?$string_output_adapter@_W@__crt_stdio_output@@V?$format_validation_base@_WV?$string_output_adapter@_W@__crt_stdio_output@@@2@@__crt_stdio_output@@ABE_NI@Z 10068e10 f i libucrtd:output.obj
 0001:00067e40       ?has_flag@?$output_processor@_WV?$string_output_adapter@_W@__crt_stdio_output@@V?$positional_parameter_base@_WV?$string_output_adapter@_W@__crt_stdio_output@@@2@@__crt_stdio_output@@ABE_NI@Z 10068e40 f i libucrtd:output.obj
 0001:00067e70       ?has_flag@?$output_processor@_WV?$string_output_adapter@_W@__crt_stdio_output@@V?$standard_base@_WV?$string_output_adapter@_W@__crt_stdio_output@@@2@@__crt_stdio_output@@ABE_NI@Z 10068e70 f i libucrtd:output.obj
 0001:00067ea0       ?is_positional_parameter_reappearance_consistent@?$positional_parameter_base@DV?$stream_output_adapter@D@__crt_stdio_output@@@__crt_stdio_output@@AAE_NABUparameter_data@12@W4parameter_type@12@DW4length_modifier@2@@Z 10068ea0 f i libucrtd:output.obj
 0001:000680d0       ?is_positional_parameter_reappearance_consistent@?$positional_parameter_base@DV?$string_output_adapter@D@__crt_stdio_output@@@__crt_stdio_output@@AAE_NABUparameter_data@12@W4parameter_type@12@DW4length_modifier@2@@Z 100690d0 f i libucrtd:output.obj
 0001:00068300       ?is_positional_parameter_reappearance_consistent@?$positional_parameter_base@_WV?$stream_output_adapter@_W@__crt_stdio_output@@@__crt_stdio_output@@AAE_NABUparameter_data@12@W4parameter_type@12@_WW4length_modifier@2@@Z 10069300 f i libucrtd:output.obj
 0001:00068530       ?is_positional_parameter_reappearance_consistent@?$positional_parameter_base@_WV?$string_output_adapter@_W@__crt_stdio_output@@@__crt_stdio_output@@AAE_NABUparameter_data@12@W4parameter_type@12@_WW4length_modifier@2@@Z 10069530 f i libucrtd:output.obj
 0001:00068760       ?is_string_backed@__crt_stdio_stream@@QBE_NXZ 10069760 f i libucrtd:output.obj
 0001:000687a0       ?narrow_null_string@?$output_processor@DV?$stream_output_adapter@D@__crt_stdio_output@@V?$format_validation_base@DV?$stream_output_adapter@D@__crt_stdio_output@@@2@@__crt_stdio_output@@CAPADXZ 100697a0 f i libucrtd:output.obj
 0001:000687b0       ?narrow_null_string@?$output_processor@DV?$stream_output_adapter@D@__crt_stdio_output@@V?$positional_parameter_base@DV?$stream_output_adapter@D@__crt_stdio_output@@@2@@__crt_stdio_output@@CAPADXZ 100697b0 f i libucrtd:output.obj
 0001:000687c0       ?narrow_null_string@?$output_processor@DV?$stream_output_adapter@D@__crt_stdio_output@@V?$standard_base@DV?$stream_output_adapter@D@__crt_stdio_output@@@2@@__crt_stdio_output@@CAPADXZ 100697c0 f i libucrtd:output.obj
 0001:000687d0       ?narrow_null_string@?$output_processor@DV?$string_output_adapter@D@__crt_stdio_output@@V?$format_validation_base@DV?$string_output_adapter@D@__crt_stdio_output@@@2@@__crt_stdio_output@@CAPADXZ 100697d0 f i libucrtd:output.obj
 0001:000687e0       ?narrow_null_string@?$output_processor@DV?$string_output_adapter@D@__crt_stdio_output@@V?$positional_parameter_base@DV?$string_output_adapter@D@__crt_stdio_output@@@2@@__crt_stdio_output@@CAPADXZ 100697e0 f i libucrtd:output.obj
 0001:000687f0       ?narrow_null_string@?$output_processor@DV?$string_output_adapter@D@__crt_stdio_output@@V?$standard_base@DV?$string_output_adapter@D@__crt_stdio_output@@@2@@__crt_stdio_output@@CAPADXZ 100697f0 f i libucrtd:output.obj
 0001:00068800       ?narrow_null_string@?$output_processor@_WV?$stream_output_adapter@_W@__crt_stdio_output@@V?$format_validation_base@_WV?$stream_output_adapter@_W@__crt_stdio_output@@@2@@__crt_stdio_output@@CAPADXZ 10069800 f i libucrtd:output.obj
 0001:00068810       ?narrow_null_string@?$output_processor@_WV?$stream_output_adapter@_W@__crt_stdio_output@@V?$positional_parameter_base@_WV?$stream_output_adapter@_W@__crt_stdio_output@@@2@@__crt_stdio_output@@CAPADXZ 10069810 f i libucrtd:output.obj
 0001:00068820       ?narrow_null_string@?$output_processor@_WV?$stream_output_adapter@_W@__crt_stdio_output@@V?$standard_base@_WV?$stream_output_adapter@_W@__crt_stdio_output@@@2@@__crt_stdio_output@@CAPADXZ 10069820 f i libucrtd:output.obj
 0001:00068830       ?narrow_null_string@?$output_processor@_WV?$string_output_adapter@_W@__crt_stdio_output@@V?$format_validation_base@_WV?$string_output_adapter@_W@__crt_stdio_output@@@2@@__crt_stdio_output@@CAPADXZ 10069830 f i libucrtd:output.obj
 0001:00068840       ?narrow_null_string@?$output_processor@_WV?$string_output_adapter@_W@__crt_stdio_output@@V?$positional_parameter_base@_WV?$string_output_adapter@_W@__crt_stdio_output@@@2@@__crt_stdio_output@@CAPADXZ 10069840 f i libucrtd:output.obj
 0001:00068850       ?narrow_null_string@?$output_processor@_WV?$string_output_adapter@_W@__crt_stdio_output@@V?$standard_base@_WV?$string_output_adapter@_W@__crt_stdio_output@@@2@@__crt_stdio_output@@CAPADXZ 10069850 f i libucrtd:output.obj
 0001:00068860       ?parse_int_from_format_string@?$output_processor@DV?$stream_output_adapter@D@__crt_stdio_output@@V?$format_validation_base@DV?$stream_output_adapter@D@__crt_stdio_output@@@2@@__crt_stdio_output@@AAE_NQAH@Z 10069860 f i libucrtd:output.obj
 0001:00068920       ?parse_int_from_format_string@?$output_processor@DV?$stream_output_adapter@D@__crt_stdio_output@@V?$positional_parameter_base@DV?$stream_output_adapter@D@__crt_stdio_output@@@2@@__crt_stdio_output@@AAE_NQAH@Z 10069920 f i libucrtd:output.obj
 0001:000689e0       ?parse_int_from_format_string@?$output_processor@DV?$stream_output_adapter@D@__crt_stdio_output@@V?$standard_base@DV?$stream_output_adapter@D@__crt_stdio_output@@@2@@__crt_stdio_output@@AAE_NQAH@Z 100699e0 f i libucrtd:output.obj
 0001:00068aa0       ?parse_int_from_format_string@?$output_processor@DV?$string_output_adapter@D@__crt_stdio_output@@V?$format_validation_base@DV?$string_output_adapter@D@__crt_stdio_output@@@2@@__crt_stdio_output@@AAE_NQAH@Z 10069aa0 f i libucrtd:output.obj
 0001:00068b60       ?parse_int_from_format_string@?$output_processor@DV?$string_output_adapter@D@__crt_stdio_output@@V?$positional_parameter_base@DV?$string_output_adapter@D@__crt_stdio_output@@@2@@__crt_stdio_output@@AAE_NQAH@Z 10069b60 f i libucrtd:output.obj
 0001:00068c20       ?parse_int_from_format_string@?$output_processor@DV?$string_output_adapter@D@__crt_stdio_output@@V?$standard_base@DV?$string_output_adapter@D@__crt_stdio_output@@@2@@__crt_stdio_output@@AAE_NQAH@Z 10069c20 f i libucrtd:output.obj
 0001:00068ce0       ?parse_int_from_format_string@?$output_processor@_WV?$stream_output_adapter@_W@__crt_stdio_output@@V?$format_validation_base@_WV?$stream_output_adapter@_W@__crt_stdio_output@@@2@@__crt_stdio_output@@AAE_NQAH@Z 10069ce0 f i libucrtd:output.obj
 0001:00068da0       ?parse_int_from_format_string@?$output_processor@_WV?$stream_output_adapter@_W@__crt_stdio_output@@V?$positional_parameter_base@_WV?$stream_output_adapter@_W@__crt_stdio_output@@@2@@__crt_stdio_output@@AAE_NQAH@Z 10069da0 f i libucrtd:output.obj
 0001:00068e60       ?parse_int_from_format_string@?$output_processor@_WV?$stream_output_adapter@_W@__crt_stdio_output@@V?$standard_base@_WV?$stream_output_adapter@_W@__crt_stdio_output@@@2@@__crt_stdio_output@@AAE_NQAH@Z 10069e60 f i libucrtd:output.obj
 0001:00068f20       ?parse_int_from_format_string@?$output_processor@_WV?$string_output_adapter@_W@__crt_stdio_output@@V?$format_validation_base@_WV?$string_output_adapter@_W@__crt_stdio_output@@@2@@__crt_stdio_output@@AAE_NQAH@Z 10069f20 f i libucrtd:output.obj
 0001:00068fe0       ?parse_int_from_format_string@?$output_processor@_WV?$string_output_adapter@_W@__crt_stdio_output@@V?$positional_parameter_base@_WV?$string_output_adapter@_W@__crt_stdio_output@@@2@@__crt_stdio_output@@AAE_NQAH@Z 10069fe0 f i libucrtd:output.obj
 0001:000690a0       ?parse_int_from_format_string@?$output_processor@_WV?$string_output_adapter@_W@__crt_stdio_output@@V?$standard_base@_WV?$string_output_adapter@_W@__crt_stdio_output@@@2@@__crt_stdio_output@@AAE_NQAH@Z 1006a0a0 f i libucrtd:output.obj
 0001:00069160       ?process@?$output_processor@DV?$stream_output_adapter@D@__crt_stdio_output@@V?$format_validation_base@DV?$stream_output_adapter@D@__crt_stdio_output@@@2@@__crt_stdio_output@@QAEHXZ 1006a160 f i libucrtd:output.obj
 0001:00069410       ?process@?$output_processor@DV?$stream_output_adapter@D@__crt_stdio_output@@V?$positional_parameter_base@DV?$stream_output_adapter@D@__crt_stdio_output@@@2@@__crt_stdio_output@@QAEHXZ 1006a410 f i libucrtd:output.obj
 0001:000696c0       ?process@?$output_processor@DV?$stream_output_adapter@D@__crt_stdio_output@@V?$standard_base@DV?$stream_output_adapter@D@__crt_stdio_output@@@2@@__crt_stdio_output@@QAEHXZ 1006a6c0 f i libucrtd:output.obj
 0001:00069970       ?process@?$output_processor@DV?$string_output_adapter@D@__crt_stdio_output@@V?$format_validation_base@DV?$string_output_adapter@D@__crt_stdio_output@@@2@@__crt_stdio_output@@QAEHXZ 1006a970 f i libucrtd:output.obj
 0001:00069c20       ?process@?$output_processor@DV?$string_output_adapter@D@__crt_stdio_output@@V?$positional_parameter_base@DV?$string_output_adapter@D@__crt_stdio_output@@@2@@__crt_stdio_output@@QAEHXZ 1006ac20 f i libucrtd:output.obj
 0001:00069ed0       ?process@?$output_processor@DV?$string_output_adapter@D@__crt_stdio_output@@V?$standard_base@DV?$string_output_adapter@D@__crt_stdio_output@@@2@@__crt_stdio_output@@QAEHXZ 1006aed0 f i libucrtd:output.obj
 0001:0006a180       ?process@?$output_processor@_WV?$stream_output_adapter@_W@__crt_stdio_output@@V?$format_validation_base@_WV?$stream_output_adapter@_W@__crt_stdio_output@@@2@@__crt_stdio_output@@QAEHXZ 1006b180 f i libucrtd:output.obj
 0001:0006a430       ?process@?$output_processor@_WV?$stream_output_adapter@_W@__crt_stdio_output@@V?$positional_parameter_base@_WV?$stream_output_adapter@_W@__crt_stdio_output@@@2@@__crt_stdio_output@@QAEHXZ 1006b430 f i libucrtd:output.obj
 0001:0006a6e0       ?process@?$output_processor@_WV?$stream_output_adapter@_W@__crt_stdio_output@@V?$standard_base@_WV?$stream_output_adapter@_W@__crt_stdio_output@@@2@@__crt_stdio_output@@QAEHXZ 1006b6e0 f i libucrtd:output.obj
 0001:0006a990       ?process@?$output_processor@_WV?$string_output_adapter@_W@__crt_stdio_output@@V?$format_validation_base@_WV?$string_output_adapter@_W@__crt_stdio_output@@@2@@__crt_stdio_output@@QAEHXZ 1006b990 f i libucrtd:output.obj
 0001:0006ac40       ?process@?$output_processor@_WV?$string_output_adapter@_W@__crt_stdio_output@@V?$positional_parameter_base@_WV?$string_output_adapter@_W@__crt_stdio_output@@@2@@__crt_stdio_output@@QAEHXZ 1006bc40 f i libucrtd:output.obj
 0001:0006aef0       ?process@?$output_processor@_WV?$string_output_adapter@_W@__crt_stdio_output@@V?$standard_base@_WV?$string_output_adapter@_W@__crt_stdio_output@@@2@@__crt_stdio_output@@QAEHXZ 1006bef0 f i libucrtd:output.obj
 0001:0006b1a0       ?public_stream@__crt_stdio_stream@@QBEPAU_iobuf@@XZ 1006c1a0 f i libucrtd:output.obj
 0001:0006b1c0       ?set_flag@?$output_processor@DV?$stream_output_adapter@D@__crt_stdio_output@@V?$format_validation_base@DV?$stream_output_adapter@D@__crt_stdio_output@@@2@@__crt_stdio_output@@AAEXI@Z 1006c1c0 f i libucrtd:output.obj
 0001:0006b1e0       ?set_flag@?$output_processor@DV?$stream_output_adapter@D@__crt_stdio_output@@V?$positional_parameter_base@DV?$stream_output_adapter@D@__crt_stdio_output@@@2@@__crt_stdio_output@@AAEXI@Z 1006c1e0 f i libucrtd:output.obj
 0001:0006b200       ?set_flag@?$output_processor@DV?$stream_output_adapter@D@__crt_stdio_output@@V?$standard_base@DV?$stream_output_adapter@D@__crt_stdio_output@@@2@@__crt_stdio_output@@AAEXI@Z 1006c200 f i libucrtd:output.obj
 0001:0006b220       ?set_flag@?$output_processor@DV?$string_output_adapter@D@__crt_stdio_output@@V?$format_validation_base@DV?$string_output_adapter@D@__crt_stdio_output@@@2@@__crt_stdio_output@@AAEXI@Z 1006c220 f i libucrtd:output.obj
 0001:0006b240       ?set_flag@?$output_processor@DV?$string_output_adapter@D@__crt_stdio_output@@V?$positional_parameter_base@DV?$string_output_adapter@D@__crt_stdio_output@@@2@@__crt_stdio_output@@AAEXI@Z 1006c240 f i libucrtd:output.obj
 0001:0006b260       ?set_flag@?$output_processor@DV?$string_output_adapter@D@__crt_stdio_output@@V?$standard_base@DV?$string_output_adapter@D@__crt_stdio_output@@@2@@__crt_stdio_output@@AAEXI@Z 1006c260 f i libucrtd:output.obj
 0001:0006b280       ?set_flag@?$output_processor@_WV?$stream_output_adapter@_W@__crt_stdio_output@@V?$format_validation_base@_WV?$stream_output_adapter@_W@__crt_stdio_output@@@2@@__crt_stdio_output@@AAEXI@Z 1006c280 f i libucrtd:output.obj
 0001:0006b2a0       ?set_flag@?$output_processor@_WV?$stream_output_adapter@_W@__crt_stdio_output@@V?$positional_parameter_base@_WV?$stream_output_adapter@_W@__crt_stdio_output@@@2@@__crt_stdio_output@@AAEXI@Z 1006c2a0 f i libucrtd:output.obj
 0001:0006b2c0       ?set_flag@?$output_processor@_WV?$stream_output_adapter@_W@__crt_stdio_output@@V?$standard_base@_WV?$stream_output_adapter@_W@__crt_stdio_output@@@2@@__crt_stdio_output@@AAEXI@Z 1006c2c0 f i libucrtd:output.obj
 0001:0006b2e0       ?set_flag@?$output_processor@_WV?$string_output_adapter@_W@__crt_stdio_output@@V?$format_validation_base@_WV?$string_output_adapter@_W@__crt_stdio_output@@@2@@__crt_stdio_output@@AAEXI@Z 1006c2e0 f i libucrtd:output.obj
 0001:0006b300       ?set_flag@?$output_processor@_WV?$string_output_adapter@_W@__crt_stdio_output@@V?$positional_parameter_base@_WV?$string_output_adapter@_W@__crt_stdio_output@@@2@@__crt_stdio_output@@AAEXI@Z 1006c300 f i libucrtd:output.obj
 0001:0006b320       ?set_flag@?$output_processor@_WV?$string_output_adapter@_W@__crt_stdio_output@@V?$standard_base@_WV?$string_output_adapter@_W@__crt_stdio_output@@@2@@__crt_stdio_output@@AAEXI@Z 1006c320 f i libucrtd:output.obj
 0001:0006b340       ?should_format@?$positional_parameter_base@DV?$stream_output_adapter@D@__crt_stdio_output@@@__crt_stdio_output@@IAE_NXZ 1006c340 f i libucrtd:output.obj
 0001:0006b380       ?should_format@?$positional_parameter_base@DV?$string_output_adapter@D@__crt_stdio_output@@@__crt_stdio_output@@IAE_NXZ 1006c380 f i libucrtd:output.obj
 0001:0006b3c0       ?should_format@?$positional_parameter_base@_WV?$stream_output_adapter@_W@__crt_stdio_output@@@__crt_stdio_output@@IAE_NXZ 1006c3c0 f i libucrtd:output.obj
 0001:0006b400       ?should_format@?$positional_parameter_base@_WV?$string_output_adapter@_W@__crt_stdio_output@@@__crt_stdio_output@@IAE_NXZ 1006c400 f i libucrtd:output.obj
 0001:0006b440       ?should_format@?$standard_base@DV?$stream_output_adapter@D@__crt_stdio_output@@@__crt_stdio_output@@IAE_NXZ 1006c440 f i libucrtd:output.obj
 0001:0006b450       ?should_format@?$standard_base@DV?$string_output_adapter@D@__crt_stdio_output@@@__crt_stdio_output@@IAE_NXZ 1006c450 f i libucrtd:output.obj
 0001:0006b460       ?should_format@?$standard_base@_WV?$stream_output_adapter@_W@__crt_stdio_output@@@__crt_stdio_output@@IAE_NXZ 1006c460 f i libucrtd:output.obj
 0001:0006b470       ?should_format@?$standard_base@_WV?$string_output_adapter@_W@__crt_stdio_output@@@__crt_stdio_output@@IAE_NXZ 1006c470 f i libucrtd:output.obj
 0001:0006b480       ?should_skip_normal_state_processing@?$positional_parameter_base@DV?$stream_output_adapter@D@__crt_stdio_output@@@__crt_stdio_output@@IAE_NXZ 1006c480 f i libucrtd:output.obj
 0001:0006b4d0       ?should_skip_normal_state_processing@?$positional_parameter_base@DV?$string_output_adapter@D@__crt_stdio_output@@@__crt_stdio_output@@IAE_NXZ 1006c4d0 f i libucrtd:output.obj
 0001:0006b520       ?should_skip_normal_state_processing@?$positional_parameter_base@_WV?$stream_output_adapter@_W@__crt_stdio_output@@@__crt_stdio_output@@IAE_NXZ 1006c520 f i libucrtd:output.obj
 0001:0006b570       ?should_skip_normal_state_processing@?$positional_parameter_base@_WV?$string_output_adapter@_W@__crt_stdio_output@@@__crt_stdio_output@@IAE_NXZ 1006c570 f i libucrtd:output.obj
 0001:0006b5c0       ?should_skip_normal_state_processing@?$standard_base@DV?$stream_output_adapter@D@__crt_stdio_output@@@__crt_stdio_output@@IAE_NXZ 1006c5c0 f i libucrtd:output.obj
 0001:0006b5d0       ?should_skip_normal_state_processing@?$standard_base@DV?$string_output_adapter@D@__crt_stdio_output@@@__crt_stdio_output@@IAE_NXZ 1006c5d0 f i libucrtd:output.obj
 0001:0006b5e0       ?should_skip_normal_state_processing@?$standard_base@_WV?$stream_output_adapter@_W@__crt_stdio_output@@@__crt_stdio_output@@IAE_NXZ 1006c5e0 f i libucrtd:output.obj
 0001:0006b5f0       ?should_skip_normal_state_processing@?$standard_base@_WV?$string_output_adapter@_W@__crt_stdio_output@@@__crt_stdio_output@@IAE_NXZ 1006c5f0 f i libucrtd:output.obj
 0001:0006b600       ?should_skip_type_state_output@?$positional_parameter_base@DV?$stream_output_adapter@D@__crt_stdio_output@@@__crt_stdio_output@@IBE_NXZ 1006c600 f i libucrtd:output.obj
 0001:0006b640       ?should_skip_type_state_output@?$positional_parameter_base@DV?$string_output_adapter@D@__crt_stdio_output@@@__crt_stdio_output@@IBE_NXZ 1006c640 f i libucrtd:output.obj
 0001:0006b680       ?should_skip_type_state_output@?$positional_parameter_base@_WV?$stream_output_adapter@_W@__crt_stdio_output@@@__crt_stdio_output@@IBE_NXZ 1006c680 f i libucrtd:output.obj
 0001:0006b6c0       ?should_skip_type_state_output@?$positional_parameter_base@_WV?$string_output_adapter@_W@__crt_stdio_output@@@__crt_stdio_output@@IBE_NXZ 1006c6c0 f i libucrtd:output.obj
 0001:0006b700       ?should_skip_type_state_output@?$standard_base@DV?$stream_output_adapter@D@__crt_stdio_output@@@__crt_stdio_output@@IBE_NXZ 1006c700 f i libucrtd:output.obj
 0001:0006b710       ?should_skip_type_state_output@?$standard_base@DV?$string_output_adapter@D@__crt_stdio_output@@@__crt_stdio_output@@IBE_NXZ 1006c710 f i libucrtd:output.obj
 0001:0006b720       ?should_skip_type_state_output@?$standard_base@_WV?$stream_output_adapter@_W@__crt_stdio_output@@@__crt_stdio_output@@IBE_NXZ 1006c720 f i libucrtd:output.obj
 0001:0006b730       ?should_skip_type_state_output@?$standard_base@_WV?$string_output_adapter@_W@__crt_stdio_output@@@__crt_stdio_output@@IBE_NXZ 1006c730 f i libucrtd:output.obj
 0001:0006b740       ?state_case_dot@?$output_processor@DV?$stream_output_adapter@D@__crt_stdio_output@@V?$format_validation_base@DV?$stream_output_adapter@D@__crt_stdio_output@@@2@@__crt_stdio_output@@AAE_NXZ 1006c740 f i libucrtd:output.obj
 0001:0006b760       ?state_case_dot@?$output_processor@DV?$stream_output_adapter@D@__crt_stdio_output@@V?$positional_parameter_base@DV?$stream_output_adapter@D@__crt_stdio_output@@@2@@__crt_stdio_output@@AAE_NXZ 1006c760 f i libucrtd:output.obj
 0001:0006b780       ?state_case_dot@?$output_processor@DV?$stream_output_adapter@D@__crt_stdio_output@@V?$standard_base@DV?$stream_output_adapter@D@__crt_stdio_output@@@2@@__crt_stdio_output@@AAE_NXZ 1006c780 f i libucrtd:output.obj
 0001:0006b7a0       ?state_case_dot@?$output_processor@DV?$string_output_adapter@D@__crt_stdio_output@@V?$format_validation_base@DV?$string_output_adapter@D@__crt_stdio_output@@@2@@__crt_stdio_output@@AAE_NXZ 1006c7a0 f i libucrtd:output.obj
 0001:0006b7c0       ?state_case_dot@?$output_processor@DV?$string_output_adapter@D@__crt_stdio_output@@V?$positional_parameter_base@DV?$string_output_adapter@D@__crt_stdio_output@@@2@@__crt_stdio_output@@AAE_NXZ 1006c7c0 f i libucrtd:output.obj
 0001:0006b7e0       ?state_case_dot@?$output_processor@DV?$string_output_adapter@D@__crt_stdio_output@@V?$standard_base@DV?$string_output_adapter@D@__crt_stdio_output@@@2@@__crt_stdio_output@@AAE_NXZ 1006c7e0 f i libucrtd:output.obj
 0001:0006b800       ?state_case_dot@?$output_processor@_WV?$stream_output_adapter@_W@__crt_stdio_output@@V?$format_validation_base@_WV?$stream_output_adapter@_W@__crt_stdio_output@@@2@@__crt_stdio_output@@AAE_NXZ 1006c800 f i libucrtd:output.obj
 0001:0006b820       ?state_case_dot@?$output_processor@_WV?$stream_output_adapter@_W@__crt_stdio_output@@V?$positional_parameter_base@_WV?$stream_output_adapter@_W@__crt_stdio_output@@@2@@__crt_stdio_output@@AAE_NXZ 1006c820 f i libucrtd:output.obj
 0001:0006b840       ?state_case_dot@?$output_processor@_WV?$stream_output_adapter@_W@__crt_stdio_output@@V?$standard_base@_WV?$stream_output_adapter@_W@__crt_stdio_output@@@2@@__crt_stdio_output@@AAE_NXZ 1006c840 f i libucrtd:output.obj
 0001:0006b860       ?state_case_dot@?$output_processor@_WV?$string_output_adapter@_W@__crt_stdio_output@@V?$format_validation_base@_WV?$string_output_adapter@_W@__crt_stdio_output@@@2@@__crt_stdio_output@@AAE_NXZ 1006c860 f i libucrtd:output.obj
 0001:0006b880       ?state_case_dot@?$output_processor@_WV?$string_output_adapter@_W@__crt_stdio_output@@V?$positional_parameter_base@_WV?$string_output_adapter@_W@__crt_stdio_output@@@2@@__crt_stdio_output@@AAE_NXZ 1006c880 f i libucrtd:output.obj
 0001:0006b8a0       ?state_case_dot@?$output_processor@_WV?$string_output_adapter@_W@__crt_stdio_output@@V?$standard_base@_WV?$string_output_adapter@_W@__crt_stdio_output@@@2@@__crt_stdio_output@@AAE_NXZ 1006c8a0 f i libucrtd:output.obj
 0001:0006b8c0       ?state_case_flag@?$output_processor@DV?$stream_output_adapter@D@__crt_stdio_output@@V?$format_validation_base@DV?$stream_output_adapter@D@__crt_stdio_output@@@2@@__crt_stdio_output@@AAE_NXZ 1006c8c0 f i libucrtd:output.obj
 0001:0006b970       ?state_case_flag@?$output_processor@DV?$stream_output_adapter@D@__crt_stdio_output@@V?$positional_parameter_base@DV?$stream_output_adapter@D@__crt_stdio_output@@@2@@__crt_stdio_output@@AAE_NXZ 1006c970 f i libucrtd:output.obj
 0001:0006ba20       ?state_case_flag@?$output_processor@DV?$stream_output_adapter@D@__crt_stdio_output@@V?$standard_base@DV?$stream_output_adapter@D@__crt_stdio_output@@@2@@__crt_stdio_output@@AAE_NXZ 1006ca20 f i libucrtd:output.obj
 0001:0006bad0       ?state_case_flag@?$output_processor@DV?$string_output_adapter@D@__crt_stdio_output@@V?$format_validation_base@DV?$string_output_adapter@D@__crt_stdio_output@@@2@@__crt_stdio_output@@AAE_NXZ 1006cad0 f i libucrtd:output.obj
 0001:0006bb80       ?state_case_flag@?$output_processor@DV?$string_output_adapter@D@__crt_stdio_output@@V?$positional_parameter_base@DV?$string_output_adapter@D@__crt_stdio_output@@@2@@__crt_stdio_output@@AAE_NXZ 1006cb80 f i libucrtd:output.obj
 0001:0006bc30       ?state_case_flag@?$output_processor@DV?$string_output_adapter@D@__crt_stdio_output@@V?$standard_base@DV?$string_output_adapter@D@__crt_stdio_output@@@2@@__crt_stdio_output@@AAE_NXZ 1006cc30 f i libucrtd:output.obj
 0001:0006bce0       ?state_case_flag@?$output_processor@_WV?$stream_output_adapter@_W@__crt_stdio_output@@V?$format_validation_base@_WV?$stream_output_adapter@_W@__crt_stdio_output@@@2@@__crt_stdio_output@@AAE_NXZ 1006cce0 f i libucrtd:output.obj
 0001:0006bd90       ?state_case_flag@?$output_processor@_WV?$stream_output_adapter@_W@__crt_stdio_output@@V?$positional_parameter_base@_WV?$stream_output_adapter@_W@__crt_stdio_output@@@2@@__crt_stdio_output@@AAE_NXZ 1006cd90 f i libucrtd:output.obj
 0001:0006be40       ?state_case_flag@?$output_processor@_WV?$stream_output_adapter@_W@__crt_stdio_output@@V?$standard_base@_WV?$stream_output_adapter@_W@__crt_stdio_output@@@2@@__crt_stdio_output@@AAE_NXZ 1006ce40 f i libucrtd:output.obj
 0001:0006bef0       ?state_case_flag@?$output_processor@_WV?$string_output_adapter@_W@__crt_stdio_output@@V?$format_validation_base@_WV?$string_output_adapter@_W@__crt_stdio_output@@@2@@__crt_stdio_output@@AAE_NXZ 1006cef0 f i libucrtd:output.obj
 0001:0006bfa0       ?state_case_flag@?$output_processor@_WV?$string_output_adapter@_W@__crt_stdio_output@@V?$positional_parameter_base@_WV?$string_output_adapter@_W@__crt_stdio_output@@@2@@__crt_stdio_output@@AAE_NXZ 1006cfa0 f i libucrtd:output.obj
 0001:0006c050       ?state_case_flag@?$output_processor@_WV?$string_output_adapter@_W@__crt_stdio_output@@V?$standard_base@_WV?$string_output_adapter@_W@__crt_stdio_output@@@2@@__crt_stdio_output@@AAE_NXZ 1006d050 f i libucrtd:output.obj
 0001:0006c100       ?state_case_normal@?$output_processor@DV?$stream_output_adapter@D@__crt_stdio_output@@V?$format_validation_base@DV?$stream_output_adapter@D@__crt_stdio_output@@@2@@__crt_stdio_output@@AAE_NXZ 1006d100 f i libucrtd:output.obj
 0001:0006c1b0       ?state_case_normal@?$output_processor@DV?$stream_output_adapter@D@__crt_stdio_output@@V?$positional_parameter_base@DV?$stream_output_adapter@D@__crt_stdio_output@@@2@@__crt_stdio_output@@AAE_NXZ 1006d1b0 f i libucrtd:output.obj
 0001:0006c260       ?state_case_normal@?$output_processor@DV?$stream_output_adapter@D@__crt_stdio_output@@V?$standard_base@DV?$stream_output_adapter@D@__crt_stdio_output@@@2@@__crt_stdio_output@@AAE_NXZ 1006d260 f i libucrtd:output.obj
 0001:0006c310       ?state_case_normal@?$output_processor@DV?$string_output_adapter@D@__crt_stdio_output@@V?$format_validation_base@DV?$string_output_adapter@D@__crt_stdio_output@@@2@@__crt_stdio_output@@AAE_NXZ 1006d310 f i libucrtd:output.obj
 0001:0006c3c0       ?state_case_normal@?$output_processor@DV?$string_output_adapter@D@__crt_stdio_output@@V?$positional_parameter_base@DV?$string_output_adapter@D@__crt_stdio_output@@@2@@__crt_stdio_output@@AAE_NXZ 1006d3c0 f i libucrtd:output.obj
 0001:0006c470       ?state_case_normal@?$output_processor@DV?$string_output_adapter@D@__crt_stdio_output@@V?$standard_base@DV?$string_output_adapter@D@__crt_stdio_output@@@2@@__crt_stdio_output@@AAE_NXZ 1006d470 f i libucrtd:output.obj
 0001:0006c520       ?state_case_normal@?$output_processor@_WV?$stream_output_adapter@_W@__crt_stdio_output@@V?$format_validation_base@_WV?$stream_output_adapter@_W@__crt_stdio_output@@@2@@__crt_stdio_output@@AAE_NXZ 1006d520 f i libucrtd:output.obj
 0001:0006c5d0       ?state_case_normal@?$output_processor@_WV?$stream_output_adapter@_W@__crt_stdio_output@@V?$positional_parameter_base@_WV?$stream_output_adapter@_W@__crt_stdio_output@@@2@@__crt_stdio_output@@AAE_NXZ 1006d5d0 f i libucrtd:output.obj
 0001:0006c680       ?state_case_normal@?$output_processor@_WV?$stream_output_adapter@_W@__crt_stdio_output@@V?$standard_base@_WV?$stream_output_adapter@_W@__crt_stdio_output@@@2@@__crt_stdio_output@@AAE_NXZ 1006d680 f i libucrtd:output.obj
 0001:0006c730       ?state_case_normal@?$output_processor@_WV?$string_output_adapter@_W@__crt_stdio_output@@V?$format_validation_base@_WV?$string_output_adapter@_W@__crt_stdio_output@@@2@@__crt_stdio_output@@AAE_NXZ 1006d730 f i libucrtd:output.obj
 0001:0006c7e0       ?state_case_normal@?$output_processor@_WV?$string_output_adapter@_W@__crt_stdio_output@@V?$positional_parameter_base@_WV?$string_output_adapter@_W@__crt_stdio_output@@@2@@__crt_stdio_output@@AAE_NXZ 1006d7e0 f i libucrtd:output.obj
 0001:0006c890       ?state_case_normal@?$output_processor@_WV?$string_output_adapter@_W@__crt_stdio_output@@V?$standard_base@_WV?$string_output_adapter@_W@__crt_stdio_output@@@2@@__crt_stdio_output@@AAE_NXZ 1006d890 f i libucrtd:output.obj
 0001:0006c940       ?state_case_normal_common@?$output_processor@DV?$stream_output_adapter@D@__crt_stdio_output@@V?$format_validation_base@DV?$stream_output_adapter@D@__crt_stdio_output@@@2@@__crt_stdio_output@@AAE_NXZ 1006d940 f i libucrtd:output.obj
 0001:0006c990       ?state_case_normal_common@?$output_processor@DV?$stream_output_adapter@D@__crt_stdio_output@@V?$positional_parameter_base@DV?$stream_output_adapter@D@__crt_stdio_output@@@2@@__crt_stdio_output@@AAE_NXZ 1006d990 f i libucrtd:output.obj
 0001:0006c9e0       ?state_case_normal_common@?$output_processor@DV?$stream_output_adapter@D@__crt_stdio_output@@V?$standard_base@DV?$stream_output_adapter@D@__crt_stdio_output@@@2@@__crt_stdio_output@@AAE_NXZ 1006d9e0 f i libucrtd:output.obj
 0001:0006ca30       ?state_case_normal_common@?$output_processor@DV?$string_output_adapter@D@__crt_stdio_output@@V?$format_validation_base@DV?$string_output_adapter@D@__crt_stdio_output@@@2@@__crt_stdio_output@@AAE_NXZ 1006da30 f i libucrtd:output.obj
 0001:0006ca80       ?state_case_normal_common@?$output_processor@DV?$string_output_adapter@D@__crt_stdio_output@@V?$positional_parameter_base@DV?$string_output_adapter@D@__crt_stdio_output@@@2@@__crt_stdio_output@@AAE_NXZ 1006da80 f i libucrtd:output.obj
 0001:0006cad0       ?state_case_normal_common@?$output_processor@DV?$string_output_adapter@D@__crt_stdio_output@@V?$standard_base@DV?$string_output_adapter@D@__crt_stdio_output@@@2@@__crt_stdio_output@@AAE_NXZ 1006dad0 f i libucrtd:output.obj
 0001:0006cb20       ?state_case_normal_common@?$output_processor@_WV?$stream_output_adapter@_W@__crt_stdio_output@@V?$format_validation_base@_WV?$stream_output_adapter@_W@__crt_stdio_output@@@2@@__crt_stdio_output@@AAE_NXZ 1006db20 f i libucrtd:output.obj
 0001:0006cb70       ?state_case_normal_common@?$output_processor@_WV?$stream_output_adapter@_W@__crt_stdio_output@@V?$positional_parameter_base@_WV?$stream_output_adapter@_W@__crt_stdio_output@@@2@@__crt_stdio_output@@AAE_NXZ 1006db70 f i libucrtd:output.obj
 0001:0006cbc0       ?state_case_normal_common@?$output_processor@_WV?$stream_output_adapter@_W@__crt_stdio_output@@V?$standard_base@_WV?$stream_output_adapter@_W@__crt_stdio_output@@@2@@__crt_stdio_output@@AAE_NXZ 1006dbc0 f i libucrtd:output.obj
 0001:0006cc10       ?state_case_normal_common@?$output_processor@_WV?$string_output_adapter@_W@__crt_stdio_output@@V?$format_validation_base@_WV?$string_output_adapter@_W@__crt_stdio_output@@@2@@__crt_stdio_output@@AAE_NXZ 1006dc10 f i libucrtd:output.obj
 0001:0006cc60       ?state_case_normal_common@?$output_processor@_WV?$string_output_adapter@_W@__crt_stdio_output@@V?$positional_parameter_base@_WV?$string_output_adapter@_W@__crt_stdio_output@@@2@@__crt_stdio_output@@AAE_NXZ 1006dc60 f i libucrtd:output.obj
 0001:0006ccb0       ?state_case_normal_common@?$output_processor@_WV?$string_output_adapter@_W@__crt_stdio_output@@V?$standard_base@_WV?$string_output_adapter@_W@__crt_stdio_output@@@2@@__crt_stdio_output@@AAE_NXZ 1006dcb0 f i libucrtd:output.obj
 0001:0006cd00       ?state_case_normal_tchar@?$output_processor@DV?$stream_output_adapter@D@__crt_stdio_output@@V?$format_validation_base@DV?$stream_output_adapter@D@__crt_stdio_output@@@2@@__crt_stdio_output@@AAE_ND@Z 1006dd00 f i libucrtd:output.obj
 0001:0006ce00       ?state_case_normal_tchar@?$output_processor@DV?$stream_output_adapter@D@__crt_stdio_output@@V?$positional_parameter_base@DV?$stream_output_adapter@D@__crt_stdio_output@@@2@@__crt_stdio_output@@AAE_ND@Z 1006de00 f i libucrtd:output.obj
 0001:0006cf00       ?state_case_normal_tchar@?$output_processor@DV?$stream_output_adapter@D@__crt_stdio_output@@V?$standard_base@DV?$stream_output_adapter@D@__crt_stdio_output@@@2@@__crt_stdio_output@@AAE_ND@Z 1006df00 f i libucrtd:output.obj
 0001:0006d000       ?state_case_normal_tchar@?$output_processor@DV?$string_output_adapter@D@__crt_stdio_output@@V?$format_validation_base@DV?$string_output_adapter@D@__crt_stdio_output@@@2@@__crt_stdio_output@@AAE_ND@Z 1006e000 f i libucrtd:output.obj
 0001:0006d100       ?state_case_normal_tchar@?$output_processor@DV?$string_output_adapter@D@__crt_stdio_output@@V?$positional_parameter_base@DV?$string_output_adapter@D@__crt_stdio_output@@@2@@__crt_stdio_output@@AAE_ND@Z 1006e100 f i libucrtd:output.obj
 0001:0006d200       ?state_case_normal_tchar@?$output_processor@DV?$string_output_adapter@D@__crt_stdio_output@@V?$standard_base@DV?$string_output_adapter@D@__crt_stdio_output@@@2@@__crt_stdio_output@@AAE_ND@Z 1006e200 f i libucrtd:output.obj
 0001:0006d300       ?state_case_normal_tchar@?$output_processor@_WV?$stream_output_adapter@_W@__crt_stdio_output@@V?$format_validation_base@_WV?$stream_output_adapter@_W@__crt_stdio_output@@@2@@__crt_stdio_output@@AAE_N_W@Z 1006e300 f i libucrtd:output.obj
 0001:0006d320       ?state_case_normal_tchar@?$output_processor@_WV?$stream_output_adapter@_W@__crt_stdio_output@@V?$positional_parameter_base@_WV?$stream_output_adapter@_W@__crt_stdio_output@@@2@@__crt_stdio_output@@AAE_N_W@Z 1006e320 f i libucrtd:output.obj
 0001:0006d340       ?state_case_normal_tchar@?$output_processor@_WV?$stream_output_adapter@_W@__crt_stdio_output@@V?$standard_base@_WV?$stream_output_adapter@_W@__crt_stdio_output@@@2@@__crt_stdio_output@@AAE_N_W@Z 1006e340 f i libucrtd:output.obj
 0001:0006d360       ?state_case_normal_tchar@?$output_processor@_WV?$string_output_adapter@_W@__crt_stdio_output@@V?$format_validation_base@_WV?$string_output_adapter@_W@__crt_stdio_output@@@2@@__crt_stdio_output@@AAE_N_W@Z 1006e360 f i libucrtd:output.obj
 0001:0006d380       ?state_case_normal_tchar@?$output_processor@_WV?$string_output_adapter@_W@__crt_stdio_output@@V?$positional_parameter_base@_WV?$string_output_adapter@_W@__crt_stdio_output@@@2@@__crt_stdio_output@@AAE_N_W@Z 1006e380 f i libucrtd:output.obj
 0001:0006d3a0       ?state_case_normal_tchar@?$output_processor@_WV?$string_output_adapter@_W@__crt_stdio_output@@V?$standard_base@_WV?$string_output_adapter@_W@__crt_stdio_output@@@2@@__crt_stdio_output@@AAE_N_W@Z 1006e3a0 f i libucrtd:output.obj
 0001:0006d3c0       ?state_case_percent@?$output_processor@DV?$stream_output_adapter@D@__crt_stdio_output@@V?$format_validation_base@DV?$stream_output_adapter@D@__crt_stdio_output@@@2@@__crt_stdio_output@@AAE_NXZ 1006e3c0 f i libucrtd:output.obj
 0001:0006d410       ?state_case_percent@?$output_processor@DV?$stream_output_adapter@D@__crt_stdio_output@@V?$positional_parameter_base@DV?$stream_output_adapter@D@__crt_stdio_output@@@2@@__crt_stdio_output@@AAE_NXZ 1006e410 f i libucrtd:output.obj
 0001:0006d460       ?state_case_percent@?$output_processor@DV?$stream_output_adapter@D@__crt_stdio_output@@V?$standard_base@DV?$stream_output_adapter@D@__crt_stdio_output@@@2@@__crt_stdio_output@@AAE_NXZ 1006e460 f i libucrtd:output.obj
 0001:0006d4b0       ?state_case_percent@?$output_processor@DV?$string_output_adapter@D@__crt_stdio_output@@V?$format_validation_base@DV?$string_output_adapter@D@__crt_stdio_output@@@2@@__crt_stdio_output@@AAE_NXZ 1006e4b0 f i libucrtd:output.obj
 0001:0006d500       ?state_case_percent@?$output_processor@DV?$string_output_adapter@D@__crt_stdio_output@@V?$positional_parameter_base@DV?$string_output_adapter@D@__crt_stdio_output@@@2@@__crt_stdio_output@@AAE_NXZ 1006e500 f i libucrtd:output.obj
 0001:0006d550       ?state_case_percent@?$output_processor@DV?$string_output_adapter@D@__crt_stdio_output@@V?$standard_base@DV?$string_output_adapter@D@__crt_stdio_output@@@2@@__crt_stdio_output@@AAE_NXZ 1006e550 f i libucrtd:output.obj
 0001:0006d5a0       ?state_case_percent@?$output_processor@_WV?$stream_output_adapter@_W@__crt_stdio_output@@V?$format_validation_base@_WV?$stream_output_adapter@_W@__crt_stdio_output@@@2@@__crt_stdio_output@@AAE_NXZ 1006e5a0 f i libucrtd:output.obj
 0001:0006d5f0       ?state_case_percent@?$output_processor@_WV?$stream_output_adapter@_W@__crt_stdio_output@@V?$positional_parameter_base@_WV?$stream_output_adapter@_W@__crt_stdio_output@@@2@@__crt_stdio_output@@AAE_NXZ 1006e5f0 f i libucrtd:output.obj
 0001:0006d640       ?state_case_percent@?$output_processor@_WV?$stream_output_adapter@_W@__crt_stdio_output@@V?$standard_base@_WV?$stream_output_adapter@_W@__crt_stdio_output@@@2@@__crt_stdio_output@@AAE_NXZ 1006e640 f i libucrtd:output.obj
 0001:0006d690       ?state_case_percent@?$output_processor@_WV?$string_output_adapter@_W@__crt_stdio_output@@V?$format_validation_base@_WV?$string_output_adapter@_W@__crt_stdio_output@@@2@@__crt_stdio_output@@AAE_NXZ 1006e690 f i libucrtd:output.obj
 0001:0006d6e0       ?state_case_percent@?$output_processor@_WV?$string_output_adapter@_W@__crt_stdio_output@@V?$positional_parameter_base@_WV?$string_output_adapter@_W@__crt_stdio_output@@@2@@__crt_stdio_output@@AAE_NXZ 1006e6e0 f i libucrtd:output.obj
 0001:0006d730       ?state_case_percent@?$output_processor@_WV?$string_output_adapter@_W@__crt_stdio_output@@V?$standard_base@_WV?$string_output_adapter@_W@__crt_stdio_output@@@2@@__crt_stdio_output@@AAE_NXZ 1006e730 f i libucrtd:output.obj
 0001:0006d780       ?state_case_precision@?$output_processor@DV?$stream_output_adapter@D@__crt_stdio_output@@V?$format_validation_base@DV?$stream_output_adapter@D@__crt_stdio_output@@@2@@__crt_stdio_output@@AAE_NXZ 1006e780 f i libucrtd:output.obj
 0001:0006d7f0       ?state_case_precision@?$output_processor@DV?$stream_output_adapter@D@__crt_stdio_output@@V?$positional_parameter_base@DV?$stream_output_adapter@D@__crt_stdio_output@@@2@@__crt_stdio_output@@AAE_NXZ 1006e7f0 f i libucrtd:output.obj
 0001:0006d860       ?state_case_precision@?$output_processor@DV?$stream_output_adapter@D@__crt_stdio_output@@V?$standard_base@DV?$stream_output_adapter@D@__crt_stdio_output@@@2@@__crt_stdio_output@@AAE_NXZ 1006e860 f i libucrtd:output.obj
 0001:0006d8d0       ?state_case_precision@?$output_processor@DV?$string_output_adapter@D@__crt_stdio_output@@V?$format_validation_base@DV?$string_output_adapter@D@__crt_stdio_output@@@2@@__crt_stdio_output@@AAE_NXZ 1006e8d0 f i libucrtd:output.obj
 0001:0006d940       ?state_case_precision@?$output_processor@DV?$string_output_adapter@D@__crt_stdio_output@@V?$positional_parameter_base@DV?$string_output_adapter@D@__crt_stdio_output@@@2@@__crt_stdio_output@@AAE_NXZ 1006e940 f i libucrtd:output.obj
 0001:0006d9b0       ?state_case_precision@?$output_processor@DV?$string_output_adapter@D@__crt_stdio_output@@V?$standard_base@DV?$string_output_adapter@D@__crt_stdio_output@@@2@@__crt_stdio_output@@AAE_NXZ 1006e9b0 f i libucrtd:output.obj
 0001:0006da20       ?state_case_precision@?$output_processor@_WV?$stream_output_adapter@_W@__crt_stdio_output@@V?$format_validation_base@_WV?$stream_output_adapter@_W@__crt_stdio_output@@@2@@__crt_stdio_output@@AAE_NXZ 1006ea20 f i libucrtd:output.obj
 0001:0006da90       ?state_case_precision@?$output_processor@_WV?$stream_output_adapter@_W@__crt_stdio_output@@V?$positional_parameter_base@_WV?$stream_output_adapter@_W@__crt_stdio_output@@@2@@__crt_stdio_output@@AAE_NXZ 1006ea90 f i libucrtd:output.obj
 0001:0006db00       ?state_case_precision@?$output_processor@_WV?$stream_output_adapter@_W@__crt_stdio_output@@V?$standard_base@_WV?$stream_output_adapter@_W@__crt_stdio_output@@@2@@__crt_stdio_output@@AAE_NXZ 1006eb00 f i libucrtd:output.obj
 0001:0006db70       ?state_case_precision@?$output_processor@_WV?$string_output_adapter@_W@__crt_stdio_output@@V?$format_validation_base@_WV?$string_output_adapter@_W@__crt_stdio_output@@@2@@__crt_stdio_output@@AAE_NXZ 1006eb70 f i libucrtd:output.obj
 0001:0006dbe0       ?state_case_precision@?$output_processor@_WV?$string_output_adapter@_W@__crt_stdio_output@@V?$positional_parameter_base@_WV?$string_output_adapter@_W@__crt_stdio_output@@@2@@__crt_stdio_output@@AAE_NXZ 1006ebe0 f i libucrtd:output.obj
 0001:0006dc50       ?state_case_precision@?$output_processor@_WV?$string_output_adapter@_W@__crt_stdio_output@@V?$standard_base@_WV?$string_output_adapter@_W@__crt_stdio_output@@@2@@__crt_stdio_output@@AAE_NXZ 1006ec50 f i libucrtd:output.obj
 0001:0006dcc0       ?state_case_size@?$output_processor@DV?$stream_output_adapter@D@__crt_stdio_output@@V?$format_validation_base@DV?$stream_output_adapter@D@__crt_stdio_output@@@2@@__crt_stdio_output@@AAE_NXZ 1006ecc0 f i libucrtd:output.obj
 0001:0006e090       ?state_case_size@?$output_processor@DV?$stream_output_adapter@D@__crt_stdio_output@@V?$positional_parameter_base@DV?$stream_output_adapter@D@__crt_stdio_output@@@2@@__crt_stdio_output@@AAE_NXZ 1006f090 f i libucrtd:output.obj
 0001:0006e460       ?state_case_size@?$output_processor@DV?$stream_output_adapter@D@__crt_stdio_output@@V?$standard_base@DV?$stream_output_adapter@D@__crt_stdio_output@@@2@@__crt_stdio_output@@AAE_NXZ 1006f460 f i libucrtd:output.obj
 0001:0006e830       ?state_case_size@?$output_processor@DV?$string_output_adapter@D@__crt_stdio_output@@V?$format_validation_base@DV?$string_output_adapter@D@__crt_stdio_output@@@2@@__crt_stdio_output@@AAE_NXZ 1006f830 f i libucrtd:output.obj
 0001:0006ec00       ?state_case_size@?$output_processor@DV?$string_output_adapter@D@__crt_stdio_output@@V?$positional_parameter_base@DV?$string_output_adapter@D@__crt_stdio_output@@@2@@__crt_stdio_output@@AAE_NXZ 1006fc00 f i libucrtd:output.obj
 0001:0006efd0       ?state_case_size@?$output_processor@DV?$string_output_adapter@D@__crt_stdio_output@@V?$standard_base@DV?$string_output_adapter@D@__crt_stdio_output@@@2@@__crt_stdio_output@@AAE_NXZ 1006ffd0 f i libucrtd:output.obj
 0001:0006f3a0       ?state_case_size@?$output_processor@_WV?$stream_output_adapter@_W@__crt_stdio_output@@V?$format_validation_base@_WV?$stream_output_adapter@_W@__crt_stdio_output@@@2@@__crt_stdio_output@@AAE_NXZ 100703a0 f i libucrtd:output.obj
 0001:0006f770       ?state_case_size@?$output_processor@_WV?$stream_output_adapter@_W@__crt_stdio_output@@V?$positional_parameter_base@_WV?$stream_output_adapter@_W@__crt_stdio_output@@@2@@__crt_stdio_output@@AAE_NXZ 10070770 f i libucrtd:output.obj
 0001:0006fb40       ?state_case_size@?$output_processor@_WV?$stream_output_adapter@_W@__crt_stdio_output@@V?$standard_base@_WV?$stream_output_adapter@_W@__crt_stdio_output@@@2@@__crt_stdio_output@@AAE_NXZ 10070b40 f i libucrtd:output.obj
 0001:0006ff10       ?state_case_size@?$output_processor@_WV?$string_output_adapter@_W@__crt_stdio_output@@V?$format_validation_base@_WV?$string_output_adapter@_W@__crt_stdio_output@@@2@@__crt_stdio_output@@AAE_NXZ 10070f10 f i libucrtd:output.obj
 0001:000702e0       ?state_case_size@?$output_processor@_WV?$string_output_adapter@_W@__crt_stdio_output@@V?$positional_parameter_base@_WV?$string_output_adapter@_W@__crt_stdio_output@@@2@@__crt_stdio_output@@AAE_NXZ 100712e0 f i libucrtd:output.obj
 0001:000706b0       ?state_case_size@?$output_processor@_WV?$string_output_adapter@_W@__crt_stdio_output@@V?$standard_base@_WV?$string_output_adapter@_W@__crt_stdio_output@@@2@@__crt_stdio_output@@AAE_NXZ 100716b0 f i libucrtd:output.obj
 0001:00070a80       ?state_case_type@?$output_processor@DV?$stream_output_adapter@D@__crt_stdio_output@@V?$format_validation_base@DV?$stream_output_adapter@D@__crt_stdio_output@@@2@@__crt_stdio_output@@AAE_NXZ 10071a80 f i libucrtd:output.obj
 0001:00070e30       ?state_case_type@?$output_processor@DV?$stream_output_adapter@D@__crt_stdio_output@@V?$positional_parameter_base@DV?$stream_output_adapter@D@__crt_stdio_output@@@2@@__crt_stdio_output@@AAE_NXZ 10071e30 f i libucrtd:output.obj
 0001:000711e0       ?state_case_type@?$output_processor@DV?$stream_output_adapter@D@__crt_stdio_output@@V?$standard_base@DV?$stream_output_adapter@D@__crt_stdio_output@@@2@@__crt_stdio_output@@AAE_NXZ 100721e0 f i libucrtd:output.obj
 0001:00071590       ?state_case_type@?$output_processor@DV?$string_output_adapter@D@__crt_stdio_output@@V?$format_validation_base@DV?$string_output_adapter@D@__crt_stdio_output@@@2@@__crt_stdio_output@@AAE_NXZ 10072590 f i libucrtd:output.obj
 0001:00071940       ?state_case_type@?$output_processor@DV?$string_output_adapter@D@__crt_stdio_output@@V?$positional_parameter_base@DV?$string_output_adapter@D@__crt_stdio_output@@@2@@__crt_stdio_output@@AAE_NXZ 10072940 f i libucrtd:output.obj
 0001:00071cf0       ?state_case_type@?$output_processor@DV?$string_output_adapter@D@__crt_stdio_output@@V?$standard_base@DV?$string_output_adapter@D@__crt_stdio_output@@@2@@__crt_stdio_output@@AAE_NXZ 10072cf0 f i libucrtd:output.obj
 0001:000720a0       ?state_case_type@?$output_processor@_WV?$stream_output_adapter@_W@__crt_stdio_output@@V?$format_validation_base@_WV?$stream_output_adapter@_W@__crt_stdio_output@@@2@@__crt_stdio_output@@AAE_NXZ 100730a0 f i libucrtd:output.obj
 0001:00072480       ?state_case_type@?$output_processor@_WV?$stream_output_adapter@_W@__crt_stdio_output@@V?$positional_parameter_base@_WV?$stream_output_adapter@_W@__crt_stdio_output@@@2@@__crt_stdio_output@@AAE_NXZ 10073480 f i libucrtd:output.obj
 0001:00072860       ?state_case_type@?$output_processor@_WV?$stream_output_adapter@_W@__crt_stdio_output@@V?$standard_base@_WV?$stream_output_adapter@_W@__crt_stdio_output@@@2@@__crt_stdio_output@@AAE_NXZ 10073860 f i libucrtd:output.obj
 0001:00072c40       ?state_case_type@?$output_processor@_WV?$string_output_adapter@_W@__crt_stdio_output@@V?$format_validation_base@_WV?$string_output_adapter@_W@__crt_stdio_output@@@2@@__crt_stdio_output@@AAE_NXZ 10073c40 f i libucrtd:output.obj
 0001:00073020       ?state_case_type@?$output_processor@_WV?$string_output_adapter@_W@__crt_stdio_output@@V?$positional_parameter_base@_WV?$string_output_adapter@_W@__crt_stdio_output@@@2@@__crt_stdio_output@@AAE_NXZ 10074020 f i libucrtd:output.obj
 0001:00073400       ?state_case_type@?$output_processor@_WV?$string_output_adapter@_W@__crt_stdio_output@@V?$standard_base@_WV?$string_output_adapter@_W@__crt_stdio_output@@@2@@__crt_stdio_output@@AAE_NXZ 10074400 f i libucrtd:output.obj
 0001:000737e0       ?state_case_width@?$output_processor@DV?$stream_output_adapter@D@__crt_stdio_output@@V?$format_validation_base@DV?$stream_output_adapter@D@__crt_stdio_output@@@2@@__crt_stdio_output@@AAE_NXZ 100747e0 f i libucrtd:output.obj
 0001:00073860       ?state_case_width@?$output_processor@DV?$stream_output_adapter@D@__crt_stdio_output@@V?$positional_parameter_base@DV?$stream_output_adapter@D@__crt_stdio_output@@@2@@__crt_stdio_output@@AAE_NXZ 10074860 f i libucrtd:output.obj
 0001:000738e0       ?state_case_width@?$output_processor@DV?$stream_output_adapter@D@__crt_stdio_output@@V?$standard_base@DV?$stream_output_adapter@D@__crt_stdio_output@@@2@@__crt_stdio_output@@AAE_NXZ 100748e0 f i libucrtd:output.obj
 0001:00073960       ?state_case_width@?$output_processor@DV?$string_output_adapter@D@__crt_stdio_output@@V?$format_validation_base@DV?$string_output_adapter@D@__crt_stdio_output@@@2@@__crt_stdio_output@@AAE_NXZ 10074960 f i libucrtd:output.obj
 0001:000739e0       ?state_case_width@?$output_processor@DV?$string_output_adapter@D@__crt_stdio_output@@V?$positional_parameter_base@DV?$string_output_adapter@D@__crt_stdio_output@@@2@@__crt_stdio_output@@AAE_NXZ 100749e0 f i libucrtd:output.obj
 0001:00073a60       ?state_case_width@?$output_processor@DV?$string_output_adapter@D@__crt_stdio_output@@V?$standard_base@DV?$string_output_adapter@D@__crt_stdio_output@@@2@@__crt_stdio_output@@AAE_NXZ 10074a60 f i libucrtd:output.obj
 0001:00073ae0       ?state_case_width@?$output_processor@_WV?$stream_output_adapter@_W@__crt_stdio_output@@V?$format_validation_base@_WV?$stream_output_adapter@_W@__crt_stdio_output@@@2@@__crt_stdio_output@@AAE_NXZ 10074ae0 f i libucrtd:output.obj
 0001:00073b60       ?state_case_width@?$output_processor@_WV?$stream_output_adapter@_W@__crt_stdio_output@@V?$positional_parameter_base@_WV?$stream_output_adapter@_W@__crt_stdio_output@@@2@@__crt_stdio_output@@AAE_NXZ 10074b60 f i libucrtd:output.obj
 0001:00073be0       ?state_case_width@?$output_processor@_WV?$stream_output_adapter@_W@__crt_stdio_output@@V?$standard_base@_WV?$stream_output_adapter@_W@__crt_stdio_output@@@2@@__crt_stdio_output@@AAE_NXZ 10074be0 f i libucrtd:output.obj
 0001:00073c60       ?state_case_width@?$output_processor@_WV?$string_output_adapter@_W@__crt_stdio_output@@V?$format_validation_base@_WV?$string_output_adapter@_W@__crt_stdio_output@@@2@@__crt_stdio_output@@AAE_NXZ 10074c60 f i libucrtd:output.obj
 0001:00073ce0       ?state_case_width@?$output_processor@_WV?$string_output_adapter@_W@__crt_stdio_output@@V?$positional_parameter_base@_WV?$string_output_adapter@_W@__crt_stdio_output@@@2@@__crt_stdio_output@@AAE_NXZ 10074ce0 f i libucrtd:output.obj
 0001:00073d60       ?state_case_width@?$output_processor@_WV?$string_output_adapter@_W@__crt_stdio_output@@V?$standard_base@_WV?$string_output_adapter@_W@__crt_stdio_output@@@2@@__crt_stdio_output@@AAE_NXZ 10074d60 f i libucrtd:output.obj
 0001:00073de0       ?state_count@?$format_validation_base@DV?$stream_output_adapter@D@__crt_stdio_output@@@__crt_stdio_output@@KAIXZ 10074de0 f i libucrtd:output.obj
 0001:00073df0       ?state_count@?$format_validation_base@DV?$string_output_adapter@D@__crt_stdio_output@@@__crt_stdio_output@@KAIXZ 10074df0 f i libucrtd:output.obj
 0001:00073e00       ?state_count@?$format_validation_base@_WV?$stream_output_adapter@_W@__crt_stdio_output@@@__crt_stdio_output@@KAIXZ 10074e00 f i libucrtd:output.obj
 0001:00073e10       ?state_count@?$format_validation_base@_WV?$string_output_adapter@_W@__crt_stdio_output@@@__crt_stdio_output@@KAIXZ 10074e10 f i libucrtd:output.obj
 0001:00073e20       ?state_count@?$standard_base@DV?$stream_output_adapter@D@__crt_stdio_output@@@__crt_stdio_output@@KAIXZ 10074e20 f i libucrtd:output.obj
 0001:00073e30       ?state_count@?$standard_base@DV?$string_output_adapter@D@__crt_stdio_output@@@__crt_stdio_output@@KAIXZ 10074e30 f i libucrtd:output.obj
 0001:00073e40       ?state_count@?$standard_base@_WV?$stream_output_adapter@_W@__crt_stdio_output@@@__crt_stdio_output@@KAIXZ 10074e40 f i libucrtd:output.obj
 0001:00073e50       ?state_count@?$standard_base@_WV?$string_output_adapter@_W@__crt_stdio_output@@@__crt_stdio_output@@KAIXZ 10074e50 f i libucrtd:output.obj
 0001:00073e60       ?state_transition_table@?$format_validation_base@DV?$stream_output_adapter@D@__crt_stdio_output@@@__crt_stdio_output@@KAPBEXZ 10074e60 f i libucrtd:output.obj
 0001:00073e70       ?state_transition_table@?$format_validation_base@DV?$string_output_adapter@D@__crt_stdio_output@@@__crt_stdio_output@@KAPBEXZ 10074e70 f i libucrtd:output.obj
 0001:00073e80       ?state_transition_table@?$format_validation_base@_WV?$stream_output_adapter@_W@__crt_stdio_output@@@__crt_stdio_output@@KAPBEXZ 10074e80 f i libucrtd:output.obj
 0001:00073e90       ?state_transition_table@?$format_validation_base@_WV?$string_output_adapter@_W@__crt_stdio_output@@@__crt_stdio_output@@KAPBEXZ 10074e90 f i libucrtd:output.obj
 0001:00073ea0       ?state_transition_table@?$standard_base@DV?$stream_output_adapter@D@__crt_stdio_output@@@__crt_stdio_output@@KAPBEXZ 10074ea0 f i libucrtd:output.obj
 0001:00073eb0       ?state_transition_table@?$standard_base@DV?$string_output_adapter@D@__crt_stdio_output@@@__crt_stdio_output@@KAPBEXZ 10074eb0 f i libucrtd:output.obj
 0001:00073ec0       ?state_transition_table@?$standard_base@_WV?$stream_output_adapter@_W@__crt_stdio_output@@@__crt_stdio_output@@KAPBEXZ 10074ec0 f i libucrtd:output.obj
 0001:00073ed0       ?state_transition_table@?$standard_base@_WV?$string_output_adapter@_W@__crt_stdio_output@@@__crt_stdio_output@@KAPBEXZ 10074ed0 f i libucrtd:output.obj
 0001:00073ee0       ?tchar_string@?$common_data@D@__crt_stdio_output@@IAEAAPADD@Z 10074ee0 f i libucrtd:output.obj
 0001:00073f00       ?tchar_string@?$common_data@D@__crt_stdio_output@@IAEAAPADXZ 10074f00 f i libucrtd:output.obj
 0001:00073f20       ?tchar_string@?$common_data@_W@__crt_stdio_output@@IAEAAPA_WXZ 10074f20 f i libucrtd:output.obj
 0001:00073f40       ?tchar_string@?$common_data@_W@__crt_stdio_output@@IAEAAPA_W_W@Z 10074f40 f i libucrtd:output.obj
 0001:00073f60       ?to_integer_size@__crt_stdio_output@@YAIW4length_modifier@1@@Z 10074f60 f i libucrtd:output.obj
 0001:00074000       ?type_case_X@?$output_processor@DV?$stream_output_adapter@D@__crt_stdio_output@@V?$format_validation_base@DV?$stream_output_adapter@D@__crt_stdio_output@@@2@@__crt_stdio_output@@AAE_NXZ 10075000 f i libucrtd:output.obj
 0001:00074020       ?type_case_X@?$output_processor@DV?$stream_output_adapter@D@__crt_stdio_output@@V?$positional_parameter_base@DV?$stream_output_adapter@D@__crt_stdio_output@@@2@@__crt_stdio_output@@AAE_NXZ 10075020 f i libucrtd:output.obj
 0001:00074040       ?type_case_X@?$output_processor@DV?$stream_output_adapter@D@__crt_stdio_output@@V?$standard_base@DV?$stream_output_adapter@D@__crt_stdio_output@@@2@@__crt_stdio_output@@AAE_NXZ 10075040 f i libucrtd:output.obj
 0001:00074060       ?type_case_X@?$output_processor@DV?$string_output_adapter@D@__crt_stdio_output@@V?$format_validation_base@DV?$string_output_adapter@D@__crt_stdio_output@@@2@@__crt_stdio_output@@AAE_NXZ 10075060 f i libucrtd:output.obj
 0001:00074080       ?type_case_X@?$output_processor@DV?$string_output_adapter@D@__crt_stdio_output@@V?$positional_parameter_base@DV?$string_output_adapter@D@__crt_stdio_output@@@2@@__crt_stdio_output@@AAE_NXZ 10075080 f i libucrtd:output.obj
 0001:000740a0       ?type_case_X@?$output_processor@DV?$string_output_adapter@D@__crt_stdio_output@@V?$standard_base@DV?$string_output_adapter@D@__crt_stdio_output@@@2@@__crt_stdio_output@@AAE_NXZ 100750a0 f i libucrtd:output.obj
 0001:000740c0       ?type_case_X@?$output_processor@_WV?$stream_output_adapter@_W@__crt_stdio_output@@V?$format_validation_base@_WV?$stream_output_adapter@_W@__crt_stdio_output@@@2@@__crt_stdio_output@@AAE_NXZ 100750c0 f i libucrtd:output.obj
 0001:000740e0       ?type_case_X@?$output_processor@_WV?$stream_output_adapter@_W@__crt_stdio_output@@V?$positional_parameter_base@_WV?$stream_output_adapter@_W@__crt_stdio_output@@@2@@__crt_stdio_output@@AAE_NXZ 100750e0 f i libucrtd:output.obj
 0001:00074100       ?type_case_X@?$output_processor@_WV?$stream_output_adapter@_W@__crt_stdio_output@@V?$standard_base@_WV?$stream_output_adapter@_W@__crt_stdio_output@@@2@@__crt_stdio_output@@AAE_NXZ 10075100 f i libucrtd:output.obj
 0001:00074120       ?type_case_X@?$output_processor@_WV?$string_output_adapter@_W@__crt_stdio_output@@V?$format_validation_base@_WV?$string_output_adapter@_W@__crt_stdio_output@@@2@@__crt_stdio_output@@AAE_NXZ 10075120 f i libucrtd:output.obj
 0001:00074140       ?type_case_X@?$output_processor@_WV?$string_output_adapter@_W@__crt_stdio_output@@V?$positional_parameter_base@_WV?$string_output_adapter@_W@__crt_stdio_output@@@2@@__crt_stdio_output@@AAE_NXZ 10075140 f i libucrtd:output.obj
 0001:00074160       ?type_case_X@?$output_processor@_WV?$string_output_adapter@_W@__crt_stdio_output@@V?$standard_base@_WV?$string_output_adapter@_W@__crt_stdio_output@@@2@@__crt_stdio_output@@AAE_NXZ 10075160 f i libucrtd:output.obj
 0001:00074180       ?type_case_Z@?$output_processor@DV?$stream_output_adapter@D@__crt_stdio_output@@V?$format_validation_base@DV?$stream_output_adapter@D@__crt_stdio_output@@@2@@__crt_stdio_output@@AAE_NXZ 10075180 f i libucrtd:output.obj
 0001:00074270       ?type_case_Z@?$output_processor@DV?$stream_output_adapter@D@__crt_stdio_output@@V?$positional_parameter_base@DV?$stream_output_adapter@D@__crt_stdio_output@@@2@@__crt_stdio_output@@AAE_NXZ 10075270 f i libucrtd:output.obj
 0001:00074360       ?type_case_Z@?$output_processor@DV?$stream_output_adapter@D@__crt_stdio_output@@V?$standard_base@DV?$stream_output_adapter@D@__crt_stdio_output@@@2@@__crt_stdio_output@@AAE_NXZ 10075360 f i libucrtd:output.obj
 0001:00074450       ?type_case_Z@?$output_processor@DV?$string_output_adapter@D@__crt_stdio_output@@V?$format_validation_base@DV?$string_output_adapter@D@__crt_stdio_output@@@2@@__crt_stdio_output@@AAE_NXZ 10075450 f i libucrtd:output.obj
 0001:00074540       ?type_case_Z@?$output_processor@DV?$string_output_adapter@D@__crt_stdio_output@@V?$positional_parameter_base@DV?$string_output_adapter@D@__crt_stdio_output@@@2@@__crt_stdio_output@@AAE_NXZ 10075540 f i libucrtd:output.obj
 0001:00074630       ?type_case_Z@?$output_processor@DV?$string_output_adapter@D@__crt_stdio_output@@V?$standard_base@DV?$string_output_adapter@D@__crt_stdio_output@@@2@@__crt_stdio_output@@AAE_NXZ 10075630 f i libucrtd:output.obj
 0001:00074720       ?type_case_Z@?$output_processor@_WV?$stream_output_adapter@_W@__crt_stdio_output@@V?$format_validation_base@_WV?$stream_output_adapter@_W@__crt_stdio_output@@@2@@__crt_stdio_output@@AAE_NXZ 10075720 f i libucrtd:output.obj
 0001:00074810       ?type_case_Z@?$output_processor@_WV?$stream_output_adapter@_W@__crt_stdio_output@@V?$positional_parameter_base@_WV?$stream_output_adapter@_W@__crt_stdio_output@@@2@@__crt_stdio_output@@AAE_NXZ 10075810 f i libucrtd:output.obj
 0001:00074900       ?type_case_Z@?$output_processor@_WV?$stream_output_adapter@_W@__crt_stdio_output@@V?$standard_base@_WV?$stream_output_adapter@_W@__crt_stdio_output@@@2@@__crt_stdio_output@@AAE_NXZ 10075900 f i libucrtd:output.obj
 0001:000749f0       ?type_case_Z@?$output_processor@_WV?$string_output_adapter@_W@__crt_stdio_output@@V?$format_validation_base@_WV?$string_output_adapter@_W@__crt_stdio_output@@@2@@__crt_stdio_output@@AAE_NXZ 100759f0 f i libucrtd:output.obj
 0001:00074ae0       ?type_case_Z@?$output_processor@_WV?$string_output_adapter@_W@__crt_stdio_output@@V?$positional_parameter_base@_WV?$string_output_adapter@_W@__crt_stdio_output@@@2@@__crt_stdio_output@@AAE_NXZ 10075ae0 f i libucrtd:output.obj
 0001:00074bd0       ?type_case_Z@?$output_processor@_WV?$string_output_adapter@_W@__crt_stdio_output@@V?$standard_base@_WV?$string_output_adapter@_W@__crt_stdio_output@@@2@@__crt_stdio_output@@AAE_NXZ 10075bd0 f i libucrtd:output.obj
 0001:00074cc0       ?type_case_a@?$output_processor@DV?$stream_output_adapter@D@__crt_stdio_output@@V?$format_validation_base@DV?$stream_output_adapter@D@__crt_stdio_output@@@2@@__crt_stdio_output@@AAE_NXZ 10075cc0 f i libucrtd:output.obj
 0001:00074f30       ?type_case_a@?$output_processor@DV?$stream_output_adapter@D@__crt_stdio_output@@V?$positional_parameter_base@DV?$stream_output_adapter@D@__crt_stdio_output@@@2@@__crt_stdio_output@@AAE_NXZ 10075f30 f i libucrtd:output.obj
 0001:000751a0       ?type_case_a@?$output_processor@DV?$stream_output_adapter@D@__crt_stdio_output@@V?$standard_base@DV?$stream_output_adapter@D@__crt_stdio_output@@@2@@__crt_stdio_output@@AAE_NXZ 100761a0 f i libucrtd:output.obj
 0001:00075410       ?type_case_a@?$output_processor@DV?$string_output_adapter@D@__crt_stdio_output@@V?$format_validation_base@DV?$string_output_adapter@D@__crt_stdio_output@@@2@@__crt_stdio_output@@AAE_NXZ 10076410 f i libucrtd:output.obj
 0001:00075680       ?type_case_a@?$output_processor@DV?$string_output_adapter@D@__crt_stdio_output@@V?$positional_parameter_base@DV?$string_output_adapter@D@__crt_stdio_output@@@2@@__crt_stdio_output@@AAE_NXZ 10076680 f i libucrtd:output.obj
 0001:000758f0       ?type_case_a@?$output_processor@DV?$string_output_adapter@D@__crt_stdio_output@@V?$standard_base@DV?$string_output_adapter@D@__crt_stdio_output@@@2@@__crt_stdio_output@@AAE_NXZ 100768f0 f i libucrtd:output.obj
 0001:00075b60       ?type_case_a@?$output_processor@_WV?$stream_output_adapter@_W@__crt_stdio_output@@V?$format_validation_base@_WV?$stream_output_adapter@_W@__crt_stdio_output@@@2@@__crt_stdio_output@@AAE_NXZ 10076b60 f i libucrtd:output.obj
 0001:00075dd0       ?type_case_a@?$output_processor@_WV?$stream_output_adapter@_W@__crt_stdio_output@@V?$positional_parameter_base@_WV?$stream_output_adapter@_W@__crt_stdio_output@@@2@@__crt_stdio_output@@AAE_NXZ 10076dd0 f i libucrtd:output.obj
 0001:00076040       ?type_case_a@?$output_processor@_WV?$stream_output_adapter@_W@__crt_stdio_output@@V?$standard_base@_WV?$stream_output_adapter@_W@__crt_stdio_output@@@2@@__crt_stdio_output@@AAE_NXZ 10077040 f i libucrtd:output.obj
 0001:000762b0       ?type_case_a@?$output_processor@_WV?$string_output_adapter@_W@__crt_stdio_output@@V?$format_validation_base@_WV?$string_output_adapter@_W@__crt_stdio_output@@@2@@__crt_stdio_output@@AAE_NXZ 100772b0 f i libucrtd:output.obj
 0001:00076520       ?type_case_a@?$output_processor@_WV?$string_output_adapter@_W@__crt_stdio_output@@V?$positional_parameter_base@_WV?$string_output_adapter@_W@__crt_stdio_output@@@2@@__crt_stdio_output@@AAE_NXZ 10077520 f i libucrtd:output.obj
 0001:00076790       ?type_case_a@?$output_processor@_WV?$string_output_adapter@_W@__crt_stdio_output@@V?$standard_base@_WV?$string_output_adapter@_W@__crt_stdio_output@@@2@@__crt_stdio_output@@AAE_NXZ 10077790 f i libucrtd:output.obj
 0001:00076a00       ?type_case_c@?$output_processor@DV?$stream_output_adapter@D@__crt_stdio_output@@V?$format_validation_base@DV?$stream_output_adapter@D@__crt_stdio_output@@@2@@__crt_stdio_output@@AAE_NXZ 10077a00 f i libucrtd:output.obj
 0001:00076a20       ?type_case_c@?$output_processor@DV?$stream_output_adapter@D@__crt_stdio_output@@V?$positional_parameter_base@DV?$stream_output_adapter@D@__crt_stdio_output@@@2@@__crt_stdio_output@@AAE_NXZ 10077a20 f i libucrtd:output.obj
 0001:00076a40       ?type_case_c@?$output_processor@DV?$stream_output_adapter@D@__crt_stdio_output@@V?$standard_base@DV?$stream_output_adapter@D@__crt_stdio_output@@@2@@__crt_stdio_output@@AAE_NXZ 10077a40 f i libucrtd:output.obj
 0001:00076a60       ?type_case_c@?$output_processor@DV?$string_output_adapter@D@__crt_stdio_output@@V?$format_validation_base@DV?$string_output_adapter@D@__crt_stdio_output@@@2@@__crt_stdio_output@@AAE_NXZ 10077a60 f i libucrtd:output.obj
 0001:00076a80       ?type_case_c@?$output_processor@DV?$string_output_adapter@D@__crt_stdio_output@@V?$positional_parameter_base@DV?$string_output_adapter@D@__crt_stdio_output@@@2@@__crt_stdio_output@@AAE_NXZ 10077a80 f i libucrtd:output.obj
 0001:00076aa0       ?type_case_c@?$output_processor@DV?$string_output_adapter@D@__crt_stdio_output@@V?$standard_base@DV?$string_output_adapter@D@__crt_stdio_output@@@2@@__crt_stdio_output@@AAE_NXZ 10077aa0 f i libucrtd:output.obj
 0001:00076ac0       ?type_case_c@?$output_processor@_WV?$stream_output_adapter@_W@__crt_stdio_output@@V?$format_validation_base@_WV?$stream_output_adapter@_W@__crt_stdio_output@@@2@@__crt_stdio_output@@AAE_NXZ 10077ac0 f i libucrtd:output.obj
 0001:00076ae0       ?type_case_c@?$output_processor@_WV?$stream_output_adapter@_W@__crt_stdio_output@@V?$positional_parameter_base@_WV?$stream_output_adapter@_W@__crt_stdio_output@@@2@@__crt_stdio_output@@AAE_NXZ 10077ae0 f i libucrtd:output.obj
 0001:00076b00       ?type_case_c@?$output_processor@_WV?$stream_output_adapter@_W@__crt_stdio_output@@V?$standard_base@_WV?$stream_output_adapter@_W@__crt_stdio_output@@@2@@__crt_stdio_output@@AAE_NXZ 10077b00 f i libucrtd:output.obj
 0001:00076b20       ?type_case_c@?$output_processor@_WV?$string_output_adapter@_W@__crt_stdio_output@@V?$format_validation_base@_WV?$string_output_adapter@_W@__crt_stdio_output@@@2@@__crt_stdio_output@@AAE_NXZ 10077b20 f i libucrtd:output.obj
 0001:00076b40       ?type_case_c@?$output_processor@_WV?$string_output_adapter@_W@__crt_stdio_output@@V?$positional_parameter_base@_WV?$string_output_adapter@_W@__crt_stdio_output@@@2@@__crt_stdio_output@@AAE_NXZ 10077b40 f i libucrtd:output.obj
 0001:00076b60       ?type_case_c@?$output_processor@_WV?$string_output_adapter@_W@__crt_stdio_output@@V?$standard_base@_WV?$string_output_adapter@_W@__crt_stdio_output@@@2@@__crt_stdio_output@@AAE_NXZ 10077b60 f i libucrtd:output.obj
 0001:00076b80       ?type_case_c_tchar@?$output_processor@DV?$stream_output_adapter@D@__crt_stdio_output@@V?$format_validation_base@DV?$stream_output_adapter@D@__crt_stdio_output@@@2@@__crt_stdio_output@@AAE_ND@Z 10077b80 f i libucrtd:output.obj
 0001:00076c90       ?type_case_c_tchar@?$output_processor@DV?$stream_output_adapter@D@__crt_stdio_output@@V?$positional_parameter_base@DV?$stream_output_adapter@D@__crt_stdio_output@@@2@@__crt_stdio_output@@AAE_ND@Z 10077c90 f i libucrtd:output.obj
 0001:00076da0       ?type_case_c_tchar@?$output_processor@DV?$stream_output_adapter@D@__crt_stdio_output@@V?$standard_base@DV?$stream_output_adapter@D@__crt_stdio_output@@@2@@__crt_stdio_output@@AAE_ND@Z 10077da0 f i libucrtd:output.obj
 0001:00076eb0       ?type_case_c_tchar@?$output_processor@DV?$string_output_adapter@D@__crt_stdio_output@@V?$format_validation_base@DV?$string_output_adapter@D@__crt_stdio_output@@@2@@__crt_stdio_output@@AAE_ND@Z 10077eb0 f i libucrtd:output.obj
 0001:00076fc0       ?type_case_c_tchar@?$output_processor@DV?$string_output_adapter@D@__crt_stdio_output@@V?$positional_parameter_base@DV?$string_output_adapter@D@__crt_stdio_output@@@2@@__crt_stdio_output@@AAE_ND@Z 10077fc0 f i libucrtd:output.obj
 0001:000770d0       ?type_case_c_tchar@?$output_processor@DV?$string_output_adapter@D@__crt_stdio_output@@V?$standard_base@DV?$string_output_adapter@D@__crt_stdio_output@@@2@@__crt_stdio_output@@AAE_ND@Z 100780d0 f i libucrtd:output.obj
 0001:000771e0       ?type_case_c_tchar@?$output_processor@_WV?$stream_output_adapter@_W@__crt_stdio_output@@V?$format_validation_base@_WV?$stream_output_adapter@_W@__crt_stdio_output@@@2@@__crt_stdio_output@@AAE_N_W@Z 100781e0 f i libucrtd:output.obj
 0001:000772e0       ?type_case_c_tchar@?$output_processor@_WV?$stream_output_adapter@_W@__crt_stdio_output@@V?$positional_parameter_base@_WV?$stream_output_adapter@_W@__crt_stdio_output@@@2@@__crt_stdio_output@@AAE_N_W@Z 100782e0 f i libucrtd:output.obj
 0001:000773e0       ?type_case_c_tchar@?$output_processor@_WV?$stream_output_adapter@_W@__crt_stdio_output@@V?$standard_base@_WV?$stream_output_adapter@_W@__crt_stdio_output@@@2@@__crt_stdio_output@@AAE_N_W@Z 100783e0 f i libucrtd:output.obj
 0001:000774e0       ?type_case_c_tchar@?$output_processor@_WV?$string_output_adapter@_W@__crt_stdio_output@@V?$format_validation_base@_WV?$string_output_adapter@_W@__crt_stdio_output@@@2@@__crt_stdio_output@@AAE_N_W@Z 100784e0 f i libucrtd:output.obj
 0001:000775e0       ?type_case_c_tchar@?$output_processor@_WV?$string_output_adapter@_W@__crt_stdio_output@@V?$positional_parameter_base@_WV?$string_output_adapter@_W@__crt_stdio_output@@@2@@__crt_stdio_output@@AAE_N_W@Z 100785e0 f i libucrtd:output.obj
 0001:000776e0       ?type_case_c_tchar@?$output_processor@_WV?$string_output_adapter@_W@__crt_stdio_output@@V?$standard_base@_WV?$string_output_adapter@_W@__crt_stdio_output@@@2@@__crt_stdio_output@@AAE_N_W@Z 100786e0 f i libucrtd:output.obj
 0001:000777e0       ?type_case_d@?$output_processor@DV?$stream_output_adapter@D@__crt_stdio_output@@V?$format_validation_base@DV?$stream_output_adapter@D@__crt_stdio_output@@@2@@__crt_stdio_output@@AAE_NXZ 100787e0 f i libucrtd:output.obj
 0001:00077810       ?type_case_d@?$output_processor@DV?$stream_output_adapter@D@__crt_stdio_output@@V?$positional_parameter_base@DV?$stream_output_adapter@D@__crt_stdio_output@@@2@@__crt_stdio_output@@AAE_NXZ 10078810 f i libucrtd:output.obj
 0001:00077840       ?type_case_d@?$output_processor@DV?$stream_output_adapter@D@__crt_stdio_output@@V?$standard_base@DV?$stream_output_adapter@D@__crt_stdio_output@@@2@@__crt_stdio_output@@AAE_NXZ 10078840 f i libucrtd:output.obj
 0001:00077870       ?type_case_d@?$output_processor@DV?$string_output_adapter@D@__crt_stdio_output@@V?$format_validation_base@DV?$string_output_adapter@D@__crt_stdio_output@@@2@@__crt_stdio_output@@AAE_NXZ 10078870 f i libucrtd:output.obj
 0001:000778a0       ?type_case_d@?$output_processor@DV?$string_output_adapter@D@__crt_stdio_output@@V?$positional_parameter_base@DV?$string_output_adapter@D@__crt_stdio_output@@@2@@__crt_stdio_output@@AAE_NXZ 100788a0 f i libucrtd:output.obj
 0001:000778d0       ?type_case_d@?$output_processor@DV?$string_output_adapter@D@__crt_stdio_output@@V?$standard_base@DV?$string_output_adapter@D@__crt_stdio_output@@@2@@__crt_stdio_output@@AAE_NXZ 100788d0 f i libucrtd:output.obj
 0001:00077900       ?type_case_d@?$output_processor@_WV?$stream_output_adapter@_W@__crt_stdio_output@@V?$format_validation_base@_WV?$stream_output_adapter@_W@__crt_stdio_output@@@2@@__crt_stdio_output@@AAE_NXZ 10078900 f i libucrtd:output.obj
 0001:00077930       ?type_case_d@?$output_processor@_WV?$stream_output_adapter@_W@__crt_stdio_output@@V?$positional_parameter_base@_WV?$stream_output_adapter@_W@__crt_stdio_output@@@2@@__crt_stdio_output@@AAE_NXZ 10078930 f i libucrtd:output.obj
 0001:00077960       ?type_case_d@?$output_processor@_WV?$stream_output_adapter@_W@__crt_stdio_output@@V?$standard_base@_WV?$stream_output_adapter@_W@__crt_stdio_output@@@2@@__crt_stdio_output@@AAE_NXZ 10078960 f i libucrtd:output.obj
 0001:00077990       ?type_case_d@?$output_processor@_WV?$string_output_adapter@_W@__crt_stdio_output@@V?$format_validation_base@_WV?$string_output_adapter@_W@__crt_stdio_output@@@2@@__crt_stdio_output@@AAE_NXZ 10078990 f i libucrtd:output.obj
 0001:000779c0       ?type_case_d@?$output_processor@_WV?$string_output_adapter@_W@__crt_stdio_output@@V?$positional_parameter_base@_WV?$string_output_adapter@_W@__crt_stdio_output@@@2@@__crt_stdio_output@@AAE_NXZ 100789c0 f i libucrtd:output.obj
 0001:000779f0       ?type_case_d@?$output_processor@_WV?$string_output_adapter@_W@__crt_stdio_output@@V?$standard_base@_WV?$string_output_adapter@_W@__crt_stdio_output@@@2@@__crt_stdio_output@@AAE_NXZ 100789f0 f i libucrtd:output.obj
 0001:00077a20       ?type_case_integer@?$output_processor@DV?$stream_output_adapter@D@__crt_stdio_output@@V?$format_validation_base@DV?$stream_output_adapter@D@__crt_stdio_output@@@2@@__crt_stdio_output@@AAE_NI_N@Z 10078a20 f i libucrtd:output.obj
 0001:00077d70       ?type_case_integer@?$output_processor@DV?$stream_output_adapter@D@__crt_stdio_output@@V?$positional_parameter_base@DV?$stream_output_adapter@D@__crt_stdio_output@@@2@@__crt_stdio_output@@AAE_NI_N@Z 10078d70 f i libucrtd:output.obj
 0001:000780c0       ?type_case_integer@?$output_processor@DV?$stream_output_adapter@D@__crt_stdio_output@@V?$standard_base@DV?$stream_output_adapter@D@__crt_stdio_output@@@2@@__crt_stdio_output@@AAE_NI_N@Z 100790c0 f i libucrtd:output.obj
 0001:00078410       ?type_case_integer@?$output_processor@DV?$string_output_adapter@D@__crt_stdio_output@@V?$format_validation_base@DV?$string_output_adapter@D@__crt_stdio_output@@@2@@__crt_stdio_output@@AAE_NI_N@Z 10079410 f i libucrtd:output.obj
 0001:00078760       ?type_case_integer@?$output_processor@DV?$string_output_adapter@D@__crt_stdio_output@@V?$positional_parameter_base@DV?$string_output_adapter@D@__crt_stdio_output@@@2@@__crt_stdio_output@@AAE_NI_N@Z 10079760 f i libucrtd:output.obj
 0001:00078ab0       ?type_case_integer@?$output_processor@DV?$string_output_adapter@D@__crt_stdio_output@@V?$standard_base@DV?$string_output_adapter@D@__crt_stdio_output@@@2@@__crt_stdio_output@@AAE_NI_N@Z 10079ab0 f i libucrtd:output.obj
 0001:00078e00       ?type_case_integer@?$output_processor@_WV?$stream_output_adapter@_W@__crt_stdio_output@@V?$format_validation_base@_WV?$stream_output_adapter@_W@__crt_stdio_output@@@2@@__crt_stdio_output@@AAE_NI_N@Z 10079e00 f i libucrtd:output.obj
 0001:00079150       ?type_case_integer@?$output_processor@_WV?$stream_output_adapter@_W@__crt_stdio_output@@V?$positional_parameter_base@_WV?$stream_output_adapter@_W@__crt_stdio_output@@@2@@__crt_stdio_output@@AAE_NI_N@Z 1007a150 f i libucrtd:output.obj
 0001:000794a0       ?type_case_integer@?$output_processor@_WV?$stream_output_adapter@_W@__crt_stdio_output@@V?$standard_base@_WV?$stream_output_adapter@_W@__crt_stdio_output@@@2@@__crt_stdio_output@@AAE_NI_N@Z 1007a4a0 f i libucrtd:output.obj
 0001:000797f0       ?type_case_integer@?$output_processor@_WV?$string_output_adapter@_W@__crt_stdio_output@@V?$format_validation_base@_WV?$string_output_adapter@_W@__crt_stdio_output@@@2@@__crt_stdio_output@@AAE_NI_N@Z 1007a7f0 f i libucrtd:output.obj
 0001:00079b40       ?type_case_integer@?$output_processor@_WV?$string_output_adapter@_W@__crt_stdio_output@@V?$positional_parameter_base@_WV?$string_output_adapter@_W@__crt_stdio_output@@@2@@__crt_stdio_output@@AAE_NI_N@Z 1007ab40 f i libucrtd:output.obj
 0001:00079e90       ?type_case_integer@?$output_processor@_WV?$string_output_adapter@_W@__crt_stdio_output@@V?$standard_base@_WV?$string_output_adapter@_W@__crt_stdio_output@@@2@@__crt_stdio_output@@AAE_NI_N@Z 1007ae90 f i libucrtd:output.obj
 0001:0007a1e0       ?type_case_n@?$output_processor@DV?$stream_output_adapter@D@__crt_stdio_output@@V?$format_validation_base@DV?$stream_output_adapter@D@__crt_stdio_output@@@2@@__crt_stdio_output@@AAE_NXZ 1007b1e0 f i libucrtd:output.obj
 0001:0007a3d0       ?type_case_n@?$output_processor@DV?$stream_output_adapter@D@__crt_stdio_output@@V?$positional_parameter_base@DV?$stream_output_adapter@D@__crt_stdio_output@@@2@@__crt_stdio_output@@AAE_NXZ 1007b3d0 f i libucrtd:output.obj
 0001:0007a5c0       ?type_case_n@?$output_processor@DV?$stream_output_adapter@D@__crt_stdio_output@@V?$standard_base@DV?$stream_output_adapter@D@__crt_stdio_output@@@2@@__crt_stdio_output@@AAE_NXZ 1007b5c0 f i libucrtd:output.obj
 0001:0007a7b0       ?type_case_n@?$output_processor@DV?$string_output_adapter@D@__crt_stdio_output@@V?$format_validation_base@DV?$string_output_adapter@D@__crt_stdio_output@@@2@@__crt_stdio_output@@AAE_NXZ 1007b7b0 f i libucrtd:output.obj
 0001:0007a9a0       ?type_case_n@?$output_processor@DV?$string_output_adapter@D@__crt_stdio_output@@V?$positional_parameter_base@DV?$string_output_adapter@D@__crt_stdio_output@@@2@@__crt_stdio_output@@AAE_NXZ 1007b9a0 f i libucrtd:output.obj
 0001:0007ab90       ?type_case_n@?$output_processor@DV?$string_output_adapter@D@__crt_stdio_output@@V?$standard_base@DV?$string_output_adapter@D@__crt_stdio_output@@@2@@__crt_stdio_output@@AAE_NXZ 1007bb90 f i libucrtd:output.obj
 0001:0007ad80       ?type_case_n@?$output_processor@_WV?$stream_output_adapter@_W@__crt_stdio_output@@V?$format_validation_base@_WV?$stream_output_adapter@_W@__crt_stdio_output@@@2@@__crt_stdio_output@@AAE_NXZ 1007bd80 f i libucrtd:output.obj
 0001:0007af70       ?type_case_n@?$output_processor@_WV?$stream_output_adapter@_W@__crt_stdio_output@@V?$positional_parameter_base@_WV?$stream_output_adapter@_W@__crt_stdio_output@@@2@@__crt_stdio_output@@AAE_NXZ 1007bf70 f i libucrtd:output.obj
 0001:0007b160       ?type_case_n@?$output_processor@_WV?$stream_output_adapter@_W@__crt_stdio_output@@V?$standard_base@_WV?$stream_output_adapter@_W@__crt_stdio_output@@@2@@__crt_stdio_output@@AAE_NXZ 1007c160 f i libucrtd:output.obj
 0001:0007b350       ?type_case_n@?$output_processor@_WV?$string_output_adapter@_W@__crt_stdio_output@@V?$format_validation_base@_WV?$string_output_adapter@_W@__crt_stdio_output@@@2@@__crt_stdio_output@@AAE_NXZ 1007c350 f i libucrtd:output.obj
 0001:0007b540       ?type_case_n@?$output_processor@_WV?$string_output_adapter@_W@__crt_stdio_output@@V?$positional_parameter_base@_WV?$string_output_adapter@_W@__crt_stdio_output@@@2@@__crt_stdio_output@@AAE_NXZ 1007c540 f i libucrtd:output.obj
 0001:0007b730       ?type_case_n@?$output_processor@_WV?$string_output_adapter@_W@__crt_stdio_output@@V?$standard_base@_WV?$string_output_adapter@_W@__crt_stdio_output@@@2@@__crt_stdio_output@@AAE_NXZ 1007c730 f i libucrtd:output.obj
 0001:0007b920       ?type_case_o@?$output_processor@DV?$stream_output_adapter@D@__crt_stdio_output@@V?$format_validation_base@DV?$stream_output_adapter@D@__crt_stdio_output@@@2@@__crt_stdio_output@@AAE_NXZ 1007c920 f i libucrtd:output.obj
 0001:0007b960       ?type_case_o@?$output_processor@DV?$stream_output_adapter@D@__crt_stdio_output@@V?$positional_parameter_base@DV?$stream_output_adapter@D@__crt_stdio_output@@@2@@__crt_stdio_output@@AAE_NXZ 1007c960 f i libucrtd:output.obj
 0001:0007b9a0       ?type_case_o@?$output_processor@DV?$stream_output_adapter@D@__crt_stdio_output@@V?$standard_base@DV?$stream_output_adapter@D@__crt_stdio_output@@@2@@__crt_stdio_output@@AAE_NXZ 1007c9a0 f i libucrtd:output.obj
 0001:0007b9e0       ?type_case_o@?$output_processor@DV?$string_output_adapter@D@__crt_stdio_output@@V?$format_validation_base@DV?$string_output_adapter@D@__crt_stdio_output@@@2@@__crt_stdio_output@@AAE_NXZ 1007c9e0 f i libucrtd:output.obj
 0001:0007ba20       ?type_case_o@?$output_processor@DV?$string_output_adapter@D@__crt_stdio_output@@V?$positional_parameter_base@DV?$string_output_adapter@D@__crt_stdio_output@@@2@@__crt_stdio_output@@AAE_NXZ 1007ca20 f i libucrtd:output.obj
 0001:0007ba60       ?type_case_o@?$output_processor@DV?$string_output_adapter@D@__crt_stdio_output@@V?$standard_base@DV?$string_output_adapter@D@__crt_stdio_output@@@2@@__crt_stdio_output@@AAE_NXZ 1007ca60 f i libucrtd:output.obj
 0001:0007baa0       ?type_case_o@?$output_processor@_WV?$stream_output_adapter@_W@__crt_stdio_output@@V?$format_validation_base@_WV?$stream_output_adapter@_W@__crt_stdio_output@@@2@@__crt_stdio_output@@AAE_NXZ 1007caa0 f i libucrtd:output.obj
 0001:0007bae0       ?type_case_o@?$output_processor@_WV?$stream_output_adapter@_W@__crt_stdio_output@@V?$positional_parameter_base@_WV?$stream_output_adapter@_W@__crt_stdio_output@@@2@@__crt_stdio_output@@AAE_NXZ 1007cae0 f i libucrtd:output.obj
 0001:0007bb20       ?type_case_o@?$output_processor@_WV?$stream_output_adapter@_W@__crt_stdio_output@@V?$standard_base@_WV?$stream_output_adapter@_W@__crt_stdio_output@@@2@@__crt_stdio_output@@AAE_NXZ 1007cb20 f i libucrtd:output.obj
 0001:0007bb60       ?type_case_o@?$output_processor@_WV?$string_output_adapter@_W@__crt_stdio_output@@V?$format_validation_base@_WV?$string_output_adapter@_W@__crt_stdio_output@@@2@@__crt_stdio_output@@AAE_NXZ 1007cb60 f i libucrtd:output.obj
 0001:0007bba0       ?type_case_o@?$output_processor@_WV?$string_output_adapter@_W@__crt_stdio_output@@V?$positional_parameter_base@_WV?$string_output_adapter@_W@__crt_stdio_output@@@2@@__crt_stdio_output@@AAE_NXZ 1007cba0 f i libucrtd:output.obj
 0001:0007bbe0       ?type_case_o@?$output_processor@_WV?$string_output_adapter@_W@__crt_stdio_output@@V?$standard_base@_WV?$string_output_adapter@_W@__crt_stdio_output@@@2@@__crt_stdio_output@@AAE_NXZ 1007cbe0 f i libucrtd:output.obj
 0001:0007bc20       ?type_case_p@?$output_processor@DV?$stream_output_adapter@D@__crt_stdio_output@@V?$format_validation_base@DV?$stream_output_adapter@D@__crt_stdio_output@@@2@@__crt_stdio_output@@AAE_NXZ 1007cc20 f i libucrtd:output.obj
 0001:0007bc50       ?type_case_p@?$output_processor@DV?$stream_output_adapter@D@__crt_stdio_output@@V?$positional_parameter_base@DV?$stream_output_adapter@D@__crt_stdio_output@@@2@@__crt_stdio_output@@AAE_NXZ 1007cc50 f i libucrtd:output.obj
 0001:0007bc80       ?type_case_p@?$output_processor@DV?$stream_output_adapter@D@__crt_stdio_output@@V?$standard_base@DV?$stream_output_adapter@D@__crt_stdio_output@@@2@@__crt_stdio_output@@AAE_NXZ 1007cc80 f i libucrtd:output.obj
 0001:0007bcb0       ?type_case_p@?$output_processor@DV?$string_output_adapter@D@__crt_stdio_output@@V?$format_validation_base@DV?$string_output_adapter@D@__crt_stdio_output@@@2@@__crt_stdio_output@@AAE_NXZ 1007ccb0 f i libucrtd:output.obj
 0001:0007bce0       ?type_case_p@?$output_processor@DV?$string_output_adapter@D@__crt_stdio_output@@V?$positional_parameter_base@DV?$string_output_adapter@D@__crt_stdio_output@@@2@@__crt_stdio_output@@AAE_NXZ 1007cce0 f i libucrtd:output.obj
 0001:0007bd10       ?type_case_p@?$output_processor@DV?$string_output_adapter@D@__crt_stdio_output@@V?$standard_base@DV?$string_output_adapter@D@__crt_stdio_output@@@2@@__crt_stdio_output@@AAE_NXZ 1007cd10 f i libucrtd:output.obj
 0001:0007bd40       ?type_case_p@?$output_processor@_WV?$stream_output_adapter@_W@__crt_stdio_output@@V?$format_validation_base@_WV?$stream_output_adapter@_W@__crt_stdio_output@@@2@@__crt_stdio_output@@AAE_NXZ 1007cd40 f i libucrtd:output.obj
 0001:0007bd70       ?type_case_p@?$output_processor@_WV?$stream_output_adapter@_W@__crt_stdio_output@@V?$positional_parameter_base@_WV?$stream_output_adapter@_W@__crt_stdio_output@@@2@@__crt_stdio_output@@AAE_NXZ 1007cd70 f i libucrtd:output.obj
 0001:0007bda0       ?type_case_p@?$output_processor@_WV?$stream_output_adapter@_W@__crt_stdio_output@@V?$standard_base@_WV?$stream_output_adapter@_W@__crt_stdio_output@@@2@@__crt_stdio_output@@AAE_NXZ 1007cda0 f i libucrtd:output.obj
 0001:0007bdd0       ?type_case_p@?$output_processor@_WV?$string_output_adapter@_W@__crt_stdio_output@@V?$format_validation_base@_WV?$string_output_adapter@_W@__crt_stdio_output@@@2@@__crt_stdio_output@@AAE_NXZ 1007cdd0 f i libucrtd:output.obj
 0001:0007be00       ?type_case_p@?$output_processor@_WV?$string_output_adapter@_W@__crt_stdio_output@@V?$positional_parameter_base@_WV?$string_output_adapter@_W@__crt_stdio_output@@@2@@__crt_stdio_output@@AAE_NXZ 1007ce00 f i libucrtd:output.obj
 0001:0007be30       ?type_case_p@?$output_processor@_WV?$string_output_adapter@_W@__crt_stdio_output@@V?$standard_base@_WV?$string_output_adapter@_W@__crt_stdio_output@@@2@@__crt_stdio_output@@AAE_NXZ 1007ce30 f i libucrtd:output.obj
 0001:0007be60       ?type_case_s@?$output_processor@DV?$stream_output_adapter@D@__crt_stdio_output@@V?$format_validation_base@DV?$stream_output_adapter@D@__crt_stdio_output@@@2@@__crt_stdio_output@@AAE_NXZ 1007ce60 f i libucrtd:output.obj
 0001:0007bf50       ?type_case_s@?$output_processor@DV?$stream_output_adapter@D@__crt_stdio_output@@V?$positional_parameter_base@DV?$stream_output_adapter@D@__crt_stdio_output@@@2@@__crt_stdio_output@@AAE_NXZ 1007cf50 f i libucrtd:output.obj
 0001:0007c040       ?type_case_s@?$output_processor@DV?$stream_output_adapter@D@__crt_stdio_output@@V?$standard_base@DV?$stream_output_adapter@D@__crt_stdio_output@@@2@@__crt_stdio_output@@AAE_NXZ 1007d040 f i libucrtd:output.obj
 0001:0007c130       ?type_case_s@?$output_processor@DV?$string_output_adapter@D@__crt_stdio_output@@V?$format_validation_base@DV?$string_output_adapter@D@__crt_stdio_output@@@2@@__crt_stdio_output@@AAE_NXZ 1007d130 f i libucrtd:output.obj
 0001:0007c220       ?type_case_s@?$output_processor@DV?$string_output_adapter@D@__crt_stdio_output@@V?$positional_parameter_base@DV?$string_output_adapter@D@__crt_stdio_output@@@2@@__crt_stdio_output@@AAE_NXZ 1007d220 f i libucrtd:output.obj
 0001:0007c310       ?type_case_s@?$output_processor@DV?$string_output_adapter@D@__crt_stdio_output@@V?$standard_base@DV?$string_output_adapter@D@__crt_stdio_output@@@2@@__crt_stdio_output@@AAE_NXZ 1007d310 f i libucrtd:output.obj
 0001:0007c400       ?type_case_s@?$output_processor@_WV?$stream_output_adapter@_W@__crt_stdio_output@@V?$format_validation_base@_WV?$stream_output_adapter@_W@__crt_stdio_output@@@2@@__crt_stdio_output@@AAE_NXZ 1007d400 f i libucrtd:output.obj
 0001:0007c4f0       ?type_case_s@?$output_processor@_WV?$stream_output_adapter@_W@__crt_stdio_output@@V?$positional_parameter_base@_WV?$stream_output_adapter@_W@__crt_stdio_output@@@2@@__crt_stdio_output@@AAE_NXZ 1007d4f0 f i libucrtd:output.obj
 0001:0007c5e0       ?type_case_s@?$output_processor@_WV?$stream_output_adapter@_W@__crt_stdio_output@@V?$standard_base@_WV?$stream_output_adapter@_W@__crt_stdio_output@@@2@@__crt_stdio_output@@AAE_NXZ 1007d5e0 f i libucrtd:output.obj
 0001:0007c6d0       ?type_case_s@?$output_processor@_WV?$string_output_adapter@_W@__crt_stdio_output@@V?$format_validation_base@_WV?$string_output_adapter@_W@__crt_stdio_output@@@2@@__crt_stdio_output@@AAE_NXZ 1007d6d0 f i libucrtd:output.obj
 0001:0007c7c0       ?type_case_s@?$output_processor@_WV?$string_output_adapter@_W@__crt_stdio_output@@V?$positional_parameter_base@_WV?$string_output_adapter@_W@__crt_stdio_output@@@2@@__crt_stdio_output@@AAE_NXZ 1007d7c0 f i libucrtd:output.obj
 0001:0007c8b0       ?type_case_s@?$output_processor@_WV?$string_output_adapter@_W@__crt_stdio_output@@V?$standard_base@_WV?$string_output_adapter@_W@__crt_stdio_output@@@2@@__crt_stdio_output@@AAE_NXZ 1007d8b0 f i libucrtd:output.obj
 0001:0007c9a0       ?type_case_s_compute_narrow_string_length@?$output_processor@DV?$stream_output_adapter@D@__crt_stdio_output@@V?$format_validation_base@DV?$stream_output_adapter@D@__crt_stdio_output@@@2@@__crt_stdio_output@@ABEHHD@Z 1007d9a0 f i libucrtd:output.obj
 0001:0007c9d0       ?type_case_s_compute_narrow_string_length@?$output_processor@DV?$stream_output_adapter@D@__crt_stdio_output@@V?$positional_parameter_base@DV?$stream_output_adapter@D@__crt_stdio_output@@@2@@__crt_stdio_output@@ABEHHD@Z 1007d9d0 f i libucrtd:output.obj
 0001:0007ca00       ?type_case_s_compute_narrow_string_length@?$output_processor@DV?$stream_output_adapter@D@__crt_stdio_output@@V?$standard_base@DV?$stream_output_adapter@D@__crt_stdio_output@@@2@@__crt_stdio_output@@ABEHHD@Z 1007da00 f i libucrtd:output.obj
 0001:0007ca30       ?type_case_s_compute_narrow_string_length@?$output_processor@DV?$string_output_adapter@D@__crt_stdio_output@@V?$format_validation_base@DV?$string_output_adapter@D@__crt_stdio_output@@@2@@__crt_stdio_output@@ABEHHD@Z 1007da30 f i libucrtd:output.obj
 0001:0007ca60       ?type_case_s_compute_narrow_string_length@?$output_processor@DV?$string_output_adapter@D@__crt_stdio_output@@V?$positional_parameter_base@DV?$string_output_adapter@D@__crt_stdio_output@@@2@@__crt_stdio_output@@ABEHHD@Z 1007da60 f i libucrtd:output.obj
 0001:0007ca90       ?type_case_s_compute_narrow_string_length@?$output_processor@DV?$string_output_adapter@D@__crt_stdio_output@@V?$standard_base@DV?$string_output_adapter@D@__crt_stdio_output@@@2@@__crt_stdio_output@@ABEHHD@Z 1007da90 f i libucrtd:output.obj
 0001:0007cac0       ?type_case_s_compute_narrow_string_length@?$output_processor@_WV?$stream_output_adapter@_W@__crt_stdio_output@@V?$format_validation_base@_WV?$stream_output_adapter@_W@__crt_stdio_output@@@2@@__crt_stdio_output@@ABEHH_W@Z 1007dac0 f i libucrtd:output.obj
